(dp1
S'fim'
p2
(dp3
S'type'
p4
S'date'
p5
sS'sortable'
p6
I4
sS'sql'
p7
S'DATE'
p8
ssS'id'
p9
(dp10
g4
g9
sg6
I1
sg7
S'INTEGER PRIMARY KEY AUTOINCREMENT'
p11
ssS'numero'
p12
(dp13
g4
S'string'
p14
sg6
I2
sg7
S'CHAR(512)'
p15
ssS'inicio'
p16
(dp17
g4
g5
sg6
I3
sg7
S'DATE'
p18
ss.