(dp1
S'resultado'
p2
(dp3
S'type'
p4
S'text'
p5
sS'sortable'
p6
I4
sS'sql'
p7
S'TEXT'
p8
ssS'acao'
p9
(dp10
g4
g5
sg6
I3
sg7
S'TEXT'
p11
ssS'ordem'
p12
(dp13
g4
S'integer'
p14
sg6
I6
sg7
S'INTEGER'
p15
ssS'anexo'
p16
(dp17
g4
S'upload'
p18
sg6
I5
sg7
S'CHAR(512)'
p19
ssS'ticket'
p20
(dp21
g4
S'reference ticket'
p22
sg6
I2
sg7
S'INTEGER REFERENCES ticket(id) ON DELETE CASCADE'
p23
ssS'id'
p24
(dp25
g4
g24
sg6
I1
sg7
S'INTEGER PRIMARY KEY AUTOINCREMENT'
p26
ss.