(dp1
S'versao'
p2
(dp3
S'type'
p4
S'string'
p5
sS'sortable'
p6
I4
sS'sql'
p7
S'CHAR(512)'
p8
ssS'versao_corporate'
p9
(dp10
S'type'
p11
S'string'
p12
sS'sortable'
p13
L5L
sS'sql'
p14
S'CHAR(512)'
p15
ssS'versao_apolo'
p16
(dp17
g11
g12
sg13
L4L
sg14
S'CHAR(512)'
p18
ssS'data'
p19
(dp20
g4
S'date'
p21
sg6
I3
sg7
S'DATE'
p22
ssS'id'
p23
(dp24
g4
S'id'
p25
sg6
I1
sg7
S'INTEGER PRIMARY KEY AUTOINCREMENT'
p26
ssS'numero'
p27
(dp28
g4
S'integer'
p29
sg6
I2
sg7
S'INTEGER'
p30
ss.