(dp1
S'output'
p2
S''
sS'layer'
p3
S'/home/www-data/web2py/applications/scrum/controllers/ticket.py'
p4
sS'code'
p5
S"# coding: utf8# tente algo como\n@auth.requires(auth.has_membership(config.grupo_consultor))\ndef index():    \n    tickets = db((db.ticket.consultor == auth.user_id) | \n                 (db.ticket.analista == auth.user_id)).select()\n    return dict(tickets=tickets)\n   \n@auth.requires(auth.has_membership(config.grupo_consultor))\ndef novo():\n    response.view = 'simple_form.html'\n    db.ticket.consultor.default = auth.user_id\n    db.ticket.consultor.writable = False  \n    form = crud.create(db.ticket)\n    return dict(form=form)\n\nresponse._vars=response._caller(novo)\n"
p6
sS'snapshot'
p7
(dp8
S'exception'
p9
(dp10
S'__hash__'
p11
S"<method-wrapper '__hash__' of exceptions.KeyError object>"
p12
sS'__setattr__'
p13
S"<method-wrapper '__setattr__' of exceptions.KeyError object>"
p14
sS'__reduce_ex__'
p15
S'<built-in method __reduce_ex__ of exceptions.KeyError object>'
p16
sS'__getslice__'
p17
S"<method-wrapper '__getslice__' of exceptions.KeyError object>"
p18
sS'__getitem__'
p19
S"<method-wrapper '__getitem__' of exceptions.KeyError object>"
p20
sS'__setstate__'
p21
S'<built-in method __setstate__ of exceptions.KeyError object>'
p22
sS'__reduce__'
p23
S'<built-in method __reduce__ of exceptions.KeyError object>'
p24
sS'__str__'
p25
S"<method-wrapper '__str__' of exceptions.KeyError object>"
p26
sS'__format__'
p27
S'<built-in method __format__ of exceptions.KeyError object>'
p28
sS'__getattribute__'
p29
S"<method-wrapper '__getattribute__' of exceptions.KeyError object>"
p30
sS'__class__'
p31
S"<type 'exceptions.KeyError'>"
p32
sS'__unicode__'
p33
S'<built-in method __unicode__ of exceptions.KeyError object>'
p34
sS'__delattr__'
p35
S"<method-wrapper '__delattr__' of exceptions.KeyError object>"
p36
sS'__subclasshook__'
p37
S'<built-in method __subclasshook__ of type object>'
p38
sS'__repr__'
p39
S"<method-wrapper '__repr__' of exceptions.KeyError object>"
p40
sS'args'
p41
S"('first_name',)"
p42
sS'__dict__'
p43
S'{}'
p44
sS'__sizeof__'
p45
S'<built-in method __sizeof__ of exceptions.KeyError object>'
p46
sS'__doc__'
p47
S"'Mapping key not found.'"
p48
sS'__init__'
p49
S"<method-wrapper '__init__' of exceptions.KeyError object>"
p50
sS'__new__'
p51
S'<built-in method __new__ of type object>'
p52
ssS'evalue'
p53
S"'first_name'"
p54
sS'request'
p55
ccopy_reg
_reconstructor
p56
(cgluon.html
BEAUTIFY
p57
c__builtin__
object
p58
NtRp59
(dp60
S'attributes'
p61
(dp62
sS'components'
p63
(lp64
g56
(cgluon.html
TABLE
p65
g58
NtRp66
(dp67
g61
(dp68
S'level'
p69
I5
ssS'parent'
p70
Nsg63
(lp71
g56
(cgluon.html
TR
p72
g58
NtRp73
(dp74
g61
(dp75
sg70
g66
sg63
(lp76
g56
(cgluon.html
TD
p77
g58
NtRp78
(dp79
g61
(dp80
S'_style'
p81
S'font-weight:bold;'
p82
ssg70
g73
sg63
(lp83
S'ajax'
p84
asbag56
(g77
g58
NtRp85
(dp86
g61
(dp87
S'_valign'
p88
S'top'
p89
ssg70
g73
sg63
(lp90
S':'
asbag56
(g77
g58
NtRp91
(dp92
g61
(dp93
sg70
g73
sg63
(lp94
g56
(g57
g58
NtRp95
(dp96
g61
(dp97
g69
I5
ssg70
g91
sg63
(lp98
S'False'
p99
asbasbasbag56
(g72
g58
NtRp100
(dp101
g61
(dp102
sg70
g66
sg63
(lp103
g56
(g77
g58
NtRp104
(dp105
g61
(dp106
g81
g82
ssg70
g100
sg63
(lp107
S'application'
p108
asbag56
(g77
g58
NtRp109
(dp110
g61
(dp111
g88
g89
ssg70
g100
sg63
(lp112
S':'
asbag56
(g77
g58
NtRp113
(dp114
g61
(dp115
sg70
g100
sg63
(lp116
g56
(g57
g58
NtRp117
(dp118
g61
(dp119
g69
I5
ssg70
g113
sg63
(lp120
S'scrum'
p121
asbasbasbag56
(g72
g58
NtRp122
(dp123
g61
(dp124
sg70
g66
sg63
(lp125
g56
(g77
g58
NtRp126
(dp127
g61
(dp128
g81
g82
ssg70
g122
sg63
(lp129
g41
asbag56
(g77
g58
NtRp130
(dp131
g61
(dp132
g88
g89
ssg70
g122
sg63
(lp133
S':'
asbag56
(g77
g58
NtRp134
(dp135
g61
(dp136
sg70
g122
sg63
(lp137
g56
(g57
g58
NtRp138
(dp139
g61
(dp140
g69
I5
ssg70
g134
sg63
(lp141
g56
(g65
g58
NtRp142
(dp143
g61
(dp144
g69
I4
ssg70
Nsg63
(lp145
sbasbasbasbag56
(g72
g58
NtRp146
(dp147
g61
(dp148
sg70
g66
sg63
(lp149
g56
(g77
g58
NtRp150
(dp151
g61
(dp152
g81
g82
ssg70
g146
sg63
(lp153
S'body'
p154
asbag56
(g77
g58
NtRp155
(dp156
g61
(dp157
g88
g89
ssg70
g146
sg63
(lp158
S':'
asbag56
(g77
g58
NtRp159
(dp160
g61
(dp161
sg70
g146
sg63
(lp162
g56
(g57
g58
NtRp163
(dp164
g61
(dp165
g69
I5
ssg70
g159
sg63
(lp166
S'<cStringIO.StringO object at 0xb9aacca0>'
p167
asbasbasbag56
(g72
g58
NtRp168
(dp169
g61
(dp170
sg70
g66
sg63
(lp171
g56
(g77
g58
NtRp172
(dp173
g61
(dp174
g81
g82
ssg70
g168
sg63
(lp175
S'client'
p176
asbag56
(g77
g58
NtRp177
(dp178
g61
(dp179
g88
g89
ssg70
g168
sg63
(lp180
S':'
asbag56
(g77
g58
NtRp181
(dp182
g61
(dp183
sg70
g168
sg63
(lp184
g56
(g57
g58
NtRp185
(dp186
g61
(dp187
g69
I5
ssg70
g181
sg63
(lp188
S'127.0.0.1'
p189
asbasbasbag56
(g72
g58
NtRp190
(dp191
g61
(dp192
sg70
g66
sg63
(lp193
g56
(g77
g58
NtRp194
(dp195
g61
(dp196
g81
g82
ssg70
g190
sg63
(lp197
S'controller'
p198
asbag56
(g77
g58
NtRp199
(dp200
g61
(dp201
g88
g89
ssg70
g190
sg63
(lp202
S':'
asbag56
(g77
g58
NtRp203
(dp204
g61
(dp205
sg70
g190
sg63
(lp206
g56
(g57
g58
NtRp207
(dp208
g61
(dp209
g69
I5
ssg70
g203
sg63
(lp210
S'ticket'
p211
asbasbasbag56
(g72
g58
NtRp212
(dp213
g61
(dp214
sg70
g66
sg63
(lp215
g56
(g77
g58
NtRp216
(dp217
g61
(dp218
g81
g82
ssg70
g212
sg63
(lp219
S'cookies'
p220
asbag56
(g77
g58
NtRp221
(dp222
g61
(dp223
g88
g89
ssg70
g212
sg63
(lp224
S':'
asbag56
(g77
g58
NtRp225
(dp226
g61
(dp227
sg70
g212
sg63
(lp228
g56
(g57
g58
NtRp229
(dp230
g61
(dp231
g69
I5
ssg70
g225
sg63
(lp232
g56
(g65
g58
NtRp233
(dp234
g61
(dp235
g69
I4
ssg70
Nsg63
(lp236
g56
(g72
g58
NtRp237
(dp238
g61
(dp239
sg70
g233
sg63
(lp240
g56
(g77
g58
NtRp241
(dp242
g61
(dp243
g81
g82
ssg70
g237
sg63
(lp244
S'session_id_admin'
p245
asbag56
(g77
g58
NtRp246
(dp247
g61
(dp248
g88
g89
ssg70
g237
sg63
(lp249
S':'
asbag56
(g77
g58
NtRp250
(dp251
g61
(dp252
sg70
g237
sg63
(lp253
g56
(g57
g58
NtRp254
(dp255
g61
(dp256
g69
I4
ssg70
g250
sg63
(lp257
g56
(g65
g58
NtRp258
(dp259
g61
(dp260
g69
I3
ssg70
Nsg63
(lp261
g56
(g72
g58
NtRp262
(dp263
g61
(dp264
sg70
g258
sg63
(lp265
g56
(g77
g58
NtRp266
(dp267
g61
(dp268
g81
g82
ssg70
g262
sg63
(lp269
S'comment'
p270
asbag56
(g77
g58
NtRp271
(dp272
g61
(dp273
g88
g89
ssg70
g262
sg63
(lp274
S':'
asbag56
(g77
g58
NtRp275
(dp276
g61
(dp277
sg70
g262
sg63
(lp278
g56
(g57
g58
NtRp279
(dp280
g61
(dp281
g69
I3
ssg70
g275
sg63
(lp282
S''
asbasbasbag56
(g72
g58
NtRp283
(dp284
g61
(dp285
sg70
g258
sg63
(lp286
g56
(g77
g58
NtRp287
(dp288
g61
(dp289
g81
g82
ssg70
g283
sg63
(lp290
S'domain'
p291
asbag56
(g77
g58
NtRp292
(dp293
g61
(dp294
g88
g89
ssg70
g283
sg63
(lp295
S':'
asbag56
(g77
g58
NtRp296
(dp297
g61
(dp298
sg70
g283
sg63
(lp299
g56
(g57
g58
NtRp300
(dp301
g61
(dp302
g69
I3
ssg70
g296
sg63
(lp303
S''
asbasbasbag56
(g72
g58
NtRp304
(dp305
g61
(dp306
sg70
g258
sg63
(lp307
g56
(g77
g58
NtRp308
(dp309
g61
(dp310
g81
g82
ssg70
g304
sg63
(lp311
S'expires'
p312
asbag56
(g77
g58
NtRp313
(dp314
g61
(dp315
g88
g89
ssg70
g304
sg63
(lp316
S':'
asbag56
(g77
g58
NtRp317
(dp318
g61
(dp319
sg70
g304
sg63
(lp320
g56
(g57
g58
NtRp321
(dp322
g61
(dp323
g69
I3
ssg70
g317
sg63
(lp324
S''
asbasbasbag56
(g72
g58
NtRp325
(dp326
g61
(dp327
sg70
g258
sg63
(lp328
g56
(g77
g58
NtRp329
(dp330
g61
(dp331
g81
g82
ssg70
g325
sg63
(lp332
S'httponly'
p333
asbag56
(g77
g58
NtRp334
(dp335
g61
(dp336
g88
g89
ssg70
g325
sg63
(lp337
S':'
asbag56
(g77
g58
NtRp338
(dp339
g61
(dp340
sg70
g325
sg63
(lp341
g56
(g57
g58
NtRp342
(dp343
g61
(dp344
g69
I3
ssg70
g338
sg63
(lp345
S''
asbasbasbag56
(g72
g58
NtRp346
(dp347
g61
(dp348
sg70
g258
sg63
(lp349
g56
(g77
g58
NtRp350
(dp351
g61
(dp352
g81
g82
ssg70
g346
sg63
(lp353
S'max-age'
p354
asbag56
(g77
g58
NtRp355
(dp356
g61
(dp357
g88
g89
ssg70
g346
sg63
(lp358
S':'
asbag56
(g77
g58
NtRp359
(dp360
g61
(dp361
sg70
g346
sg63
(lp362
g56
(g57
g58
NtRp363
(dp364
g61
(dp365
g69
I3
ssg70
g359
sg63
(lp366
S''
asbasbasbag56
(g72
g58
NtRp367
(dp368
g61
(dp369
sg70
g258
sg63
(lp370
g56
(g77
g58
NtRp371
(dp372
g61
(dp373
g81
g82
ssg70
g367
sg63
(lp374
S'path'
p375
asbag56
(g77
g58
NtRp376
(dp377
g61
(dp378
g88
g89
ssg70
g367
sg63
(lp379
S':'
asbag56
(g77
g58
NtRp380
(dp381
g61
(dp382
sg70
g367
sg63
(lp383
g56
(g57
g58
NtRp384
(dp385
g61
(dp386
g69
I3
ssg70
g380
sg63
(lp387
S''
asbasbasbag56
(g72
g58
NtRp388
(dp389
g61
(dp390
sg70
g258
sg63
(lp391
g56
(g77
g58
NtRp392
(dp393
g61
(dp394
g81
g82
ssg70
g388
sg63
(lp395
S'secure'
p396
asbag56
(g77
g58
NtRp397
(dp398
g61
(dp399
g88
g89
ssg70
g388
sg63
(lp400
S':'
asbag56
(g77
g58
NtRp401
(dp402
g61
(dp403
sg70
g388
sg63
(lp404
g56
(g57
g58
NtRp405
(dp406
g61
(dp407
g69
I3
ssg70
g401
sg63
(lp408
S''
asbasbasbag56
(g72
g58
NtRp409
(dp410
g61
(dp411
sg70
g258
sg63
(lp412
g56
(g77
g58
NtRp413
(dp414
g61
(dp415
g81
g82
ssg70
g409
sg63
(lp416
S'version'
p417
asbag56
(g77
g58
NtRp418
(dp419
g61
(dp420
g88
g89
ssg70
g409
sg63
(lp421
S':'
asbag56
(g77
g58
NtRp422
(dp423
g61
(dp424
sg70
g409
sg63
(lp425
g56
(g57
g58
NtRp426
(dp427
g61
(dp428
g69
I3
ssg70
g422
sg63
(lp429
S''
asbasbasbasbasbasbasbag56
(g72
g58
NtRp430
(dp431
g61
(dp432
sg70
g233
sg63
(lp433
g56
(g77
g58
NtRp434
(dp435
g61
(dp436
g81
g82
ssg70
g430
sg63
(lp437
S'session_id_scrum'
p438
asbag56
(g77
g58
NtRp439
(dp440
g61
(dp441
g88
g89
ssg70
g430
sg63
(lp442
S':'
asbag56
(g77
g58
NtRp443
(dp444
g61
(dp445
sg70
g430
sg63
(lp446
g56
(g57
g58
NtRp447
(dp448
g61
(dp449
g69
I4
ssg70
g443
sg63
(lp450
g56
(g65
g58
NtRp451
(dp452
g61
(dp453
g69
I3
ssg70
Nsg63
(lp454
g56
(g72
g58
NtRp455
(dp456
g61
(dp457
sg70
g451
sg63
(lp458
g56
(g77
g58
NtRp459
(dp460
g61
(dp461
g81
g82
ssg70
g455
sg63
(lp462
g270
asbag56
(g77
g58
NtRp463
(dp464
g61
(dp465
g88
g89
ssg70
g455
sg63
(lp466
S':'
asbag56
(g77
g58
NtRp467
(dp468
g61
(dp469
sg70
g455
sg63
(lp470
g56
(g57
g58
NtRp471
(dp472
g61
(dp473
g69
I3
ssg70
g467
sg63
(lp474
S''
asbasbasbag56
(g72
g58
NtRp475
(dp476
g61
(dp477
sg70
g451
sg63
(lp478
g56
(g77
g58
NtRp479
(dp480
g61
(dp481
g81
g82
ssg70
g475
sg63
(lp482
g291
asbag56
(g77
g58
NtRp483
(dp484
g61
(dp485
g88
g89
ssg70
g475
sg63
(lp486
S':'
asbag56
(g77
g58
NtRp487
(dp488
g61
(dp489
sg70
g475
sg63
(lp490
g56
(g57
g58
NtRp491
(dp492
g61
(dp493
g69
I3
ssg70
g487
sg63
(lp494
S''
asbasbasbag56
(g72
g58
NtRp495
(dp496
g61
(dp497
sg70
g451
sg63
(lp498
g56
(g77
g58
NtRp499
(dp500
g61
(dp501
g81
g82
ssg70
g495
sg63
(lp502
g312
asbag56
(g77
g58
NtRp503
(dp504
g61
(dp505
g88
g89
ssg70
g495
sg63
(lp506
S':'
asbag56
(g77
g58
NtRp507
(dp508
g61
(dp509
sg70
g495
sg63
(lp510
g56
(g57
g58
NtRp511
(dp512
g61
(dp513
g69
I3
ssg70
g507
sg63
(lp514
S''
asbasbasbag56
(g72
g58
NtRp515
(dp516
g61
(dp517
sg70
g451
sg63
(lp518
g56
(g77
g58
NtRp519
(dp520
g61
(dp521
g81
g82
ssg70
g515
sg63
(lp522
g333
asbag56
(g77
g58
NtRp523
(dp524
g61
(dp525
g88
g89
ssg70
g515
sg63
(lp526
S':'
asbag56
(g77
g58
NtRp527
(dp528
g61
(dp529
sg70
g515
sg63
(lp530
g56
(g57
g58
NtRp531
(dp532
g61
(dp533
g69
I3
ssg70
g527
sg63
(lp534
S''
asbasbasbag56
(g72
g58
NtRp535
(dp536
g61
(dp537
sg70
g451
sg63
(lp538
g56
(g77
g58
NtRp539
(dp540
g61
(dp541
g81
g82
ssg70
g535
sg63
(lp542
g354
asbag56
(g77
g58
NtRp543
(dp544
g61
(dp545
g88
g89
ssg70
g535
sg63
(lp546
S':'
asbag56
(g77
g58
NtRp547
(dp548
g61
(dp549
sg70
g535
sg63
(lp550
g56
(g57
g58
NtRp551
(dp552
g61
(dp553
g69
I3
ssg70
g547
sg63
(lp554
S''
asbasbasbag56
(g72
g58
NtRp555
(dp556
g61
(dp557
sg70
g451
sg63
(lp558
g56
(g77
g58
NtRp559
(dp560
g61
(dp561
g81
g82
ssg70
g555
sg63
(lp562
g375
asbag56
(g77
g58
NtRp563
(dp564
g61
(dp565
g88
g89
ssg70
g555
sg63
(lp566
S':'
asbag56
(g77
g58
NtRp567
(dp568
g61
(dp569
sg70
g555
sg63
(lp570
g56
(g57
g58
NtRp571
(dp572
g61
(dp573
g69
I3
ssg70
g567
sg63
(lp574
S''
asbasbasbag56
(g72
g58
NtRp575
(dp576
g61
(dp577
sg70
g451
sg63
(lp578
g56
(g77
g58
NtRp579
(dp580
g61
(dp581
g81
g82
ssg70
g575
sg63
(lp582
g396
asbag56
(g77
g58
NtRp583
(dp584
g61
(dp585
g88
g89
ssg70
g575
sg63
(lp586
S':'
asbag56
(g77
g58
NtRp587
(dp588
g61
(dp589
sg70
g575
sg63
(lp590
g56
(g57
g58
NtRp591
(dp592
g61
(dp593
g69
I3
ssg70
g587
sg63
(lp594
S''
asbasbasbag56
(g72
g58
NtRp595
(dp596
g61
(dp597
sg70
g451
sg63
(lp598
g56
(g77
g58
NtRp599
(dp600
g61
(dp601
g81
g82
ssg70
g595
sg63
(lp602
g417
asbag56
(g77
g58
NtRp603
(dp604
g61
(dp605
g88
g89
ssg70
g595
sg63
(lp606
S':'
asbag56
(g77
g58
NtRp607
(dp608
g61
(dp609
sg70
g595
sg63
(lp610
g56
(g57
g58
NtRp611
(dp612
g61
(dp613
g69
I3
ssg70
g607
sg63
(lp614
S''
asbasbasbasbasbasbasbag56
(g72
g58
NtRp615
(dp616
g61
(dp617
sg70
g233
sg63
(lp618
g56
(g77
g58
NtRp619
(dp620
g61
(dp621
g81
g82
ssg70
g615
sg63
(lp622
S'session_id_welcome'
p623
asbag56
(g77
g58
NtRp624
(dp625
g61
(dp626
g88
g89
ssg70
g615
sg63
(lp627
S':'
asbag56
(g77
g58
NtRp628
(dp629
g61
(dp630
sg70
g615
sg63
(lp631
g56
(g57
g58
NtRp632
(dp633
g61
(dp634
g69
I4
ssg70
g628
sg63
(lp635
g56
(g65
g58
NtRp636
(dp637
g61
(dp638
g69
I3
ssg70
Nsg63
(lp639
g56
(g72
g58
NtRp640
(dp641
g61
(dp642
sg70
g636
sg63
(lp643
g56
(g77
g58
NtRp644
(dp645
g61
(dp646
g81
g82
ssg70
g640
sg63
(lp647
g270
asbag56
(g77
g58
NtRp648
(dp649
g61
(dp650
g88
g89
ssg70
g640
sg63
(lp651
S':'
asbag56
(g77
g58
NtRp652
(dp653
g61
(dp654
sg70
g640
sg63
(lp655
g56
(g57
g58
NtRp656
(dp657
g61
(dp658
g69
I3
ssg70
g652
sg63
(lp659
S''
asbasbasbag56
(g72
g58
NtRp660
(dp661
g61
(dp662
sg70
g636
sg63
(lp663
g56
(g77
g58
NtRp664
(dp665
g61
(dp666
g81
g82
ssg70
g660
sg63
(lp667
g291
asbag56
(g77
g58
NtRp668
(dp669
g61
(dp670
g88
g89
ssg70
g660
sg63
(lp671
S':'
asbag56
(g77
g58
NtRp672
(dp673
g61
(dp674
sg70
g660
sg63
(lp675
g56
(g57
g58
NtRp676
(dp677
g61
(dp678
g69
I3
ssg70
g672
sg63
(lp679
S''
asbasbasbag56
(g72
g58
NtRp680
(dp681
g61
(dp682
sg70
g636
sg63
(lp683
g56
(g77
g58
NtRp684
(dp685
g61
(dp686
g81
g82
ssg70
g680
sg63
(lp687
g312
asbag56
(g77
g58
NtRp688
(dp689
g61
(dp690
g88
g89
ssg70
g680
sg63
(lp691
S':'
asbag56
(g77
g58
NtRp692
(dp693
g61
(dp694
sg70
g680
sg63
(lp695
g56
(g57
g58
NtRp696
(dp697
g61
(dp698
g69
I3
ssg70
g692
sg63
(lp699
S''
asbasbasbag56
(g72
g58
NtRp700
(dp701
g61
(dp702
sg70
g636
sg63
(lp703
g56
(g77
g58
NtRp704
(dp705
g61
(dp706
g81
g82
ssg70
g700
sg63
(lp707
g333
asbag56
(g77
g58
NtRp708
(dp709
g61
(dp710
g88
g89
ssg70
g700
sg63
(lp711
S':'
asbag56
(g77
g58
NtRp712
(dp713
g61
(dp714
sg70
g700
sg63
(lp715
g56
(g57
g58
NtRp716
(dp717
g61
(dp718
g69
I3
ssg70
g712
sg63
(lp719
S''
asbasbasbag56
(g72
g58
NtRp720
(dp721
g61
(dp722
sg70
g636
sg63
(lp723
g56
(g77
g58
NtRp724
(dp725
g61
(dp726
g81
g82
ssg70
g720
sg63
(lp727
g354
asbag56
(g77
g58
NtRp728
(dp729
g61
(dp730
g88
g89
ssg70
g720
sg63
(lp731
S':'
asbag56
(g77
g58
NtRp732
(dp733
g61
(dp734
sg70
g720
sg63
(lp735
g56
(g57
g58
NtRp736
(dp737
g61
(dp738
g69
I3
ssg70
g732
sg63
(lp739
S''
asbasbasbag56
(g72
g58
NtRp740
(dp741
g61
(dp742
sg70
g636
sg63
(lp743
g56
(g77
g58
NtRp744
(dp745
g61
(dp746
g81
g82
ssg70
g740
sg63
(lp747
g375
asbag56
(g77
g58
NtRp748
(dp749
g61
(dp750
g88
g89
ssg70
g740
sg63
(lp751
S':'
asbag56
(g77
g58
NtRp752
(dp753
g61
(dp754
sg70
g740
sg63
(lp755
g56
(g57
g58
NtRp756
(dp757
g61
(dp758
g69
I3
ssg70
g752
sg63
(lp759
S''
asbasbasbag56
(g72
g58
NtRp760
(dp761
g61
(dp762
sg70
g636
sg63
(lp763
g56
(g77
g58
NtRp764
(dp765
g61
(dp766
g81
g82
ssg70
g760
sg63
(lp767
g396
asbag56
(g77
g58
NtRp768
(dp769
g61
(dp770
g88
g89
ssg70
g760
sg63
(lp771
S':'
asbag56
(g77
g58
NtRp772
(dp773
g61
(dp774
sg70
g760
sg63
(lp775
g56
(g57
g58
NtRp776
(dp777
g61
(dp778
g69
I3
ssg70
g772
sg63
(lp779
S''
asbasbasbag56
(g72
g58
NtRp780
(dp781
g61
(dp782
sg70
g636
sg63
(lp783
g56
(g77
g58
NtRp784
(dp785
g61
(dp786
g81
g82
ssg70
g780
sg63
(lp787
g417
asbag56
(g77
g58
NtRp788
(dp789
g61
(dp790
g88
g89
ssg70
g780
sg63
(lp791
S':'
asbag56
(g77
g58
NtRp792
(dp793
g61
(dp794
sg70
g780
sg63
(lp795
g56
(g57
g58
NtRp796
(dp797
g61
(dp798
g69
I3
ssg70
g792
sg63
(lp799
S''
asbasbasbasbasbasbasbasbasbasbasbag56
(g72
g58
NtRp800
(dp801
g61
(dp802
sg70
g66
sg63
(lp803
g56
(g77
g58
NtRp804
(dp805
g61
(dp806
g81
g82
ssg70
g800
sg63
(lp807
S'env'
p808
asbag56
(g77
g58
NtRp809
(dp810
g61
(dp811
g88
g89
ssg70
g800
sg63
(lp812
S':'
asbag56
(g77
g58
NtRp813
(dp814
g61
(dp815
sg70
g800
sg63
(lp816
g56
(g57
g58
NtRp817
(dp818
g61
(dp819
g69
I5
ssg70
g813
sg63
(lp820
g56
(g65
g58
NtRp821
(dp822
g61
(dp823
g69
I4
ssg70
Nsg63
(lp824
g56
(g72
g58
NtRp825
(dp826
g61
(dp827
sg70
g821
sg63
(lp828
g56
(g77
g58
NtRp829
(dp830
g61
(dp831
g81
g82
ssg70
g825
sg63
(lp832
S'app_folders'
p833
asbag56
(g77
g58
NtRp834
(dp835
g61
(dp836
g88
g89
ssg70
g825
sg63
(lp837
S':'
asbag56
(g77
g58
NtRp838
(dp839
g61
(dp840
sg70
g825
sg63
(lp841
g56
(g57
g58
NtRp842
(dp843
g61
(dp844
g69
I4
ssg70
g838
sg63
(lp845
S"set(['/home/www-data/web2py/applications/scrum/', '/home/www-data/web2py/applications/welcome/', '/home/www-data/web2py/applications/admin/'])"
p846
asbasbasbag56
(g72
g58
NtRp847
(dp848
g61
(dp849
sg70
g821
sg63
(lp850
g56
(g77
g58
NtRp851
(dp852
g61
(dp853
g81
g82
ssg70
g847
sg63
(lp854
S'applications_parent'
p855
asbag56
(g77
g58
NtRp856
(dp857
g61
(dp858
g88
g89
ssg70
g847
sg63
(lp859
S':'
asbag56
(g77
g58
NtRp860
(dp861
g61
(dp862
sg70
g847
sg63
(lp863
g56
(g57
g58
NtRp864
(dp865
g61
(dp866
g69
I4
ssg70
g860
sg63
(lp867
S'/home/www-data/web2py'
p868
asbasbasbag56
(g72
g58
NtRp869
(dp870
g61
(dp871
sg70
g821
sg63
(lp872
g56
(g77
g58
NtRp873
(dp874
g61
(dp875
g81
g82
ssg70
g869
sg63
(lp876
S'db_sessions'
p877
asbag56
(g77
g58
NtRp878
(dp879
g61
(dp880
g88
g89
ssg70
g869
sg63
(lp881
S':'
asbag56
(g77
g58
NtRp882
(dp883
g61
(dp884
sg70
g869
sg63
(lp885
g56
(g57
g58
NtRp886
(dp887
g61
(dp888
g69
I4
ssg70
g882
sg63
(lp889
S'set([])'
p890
asbasbasbag56
(g72
g58
NtRp891
(dp892
g61
(dp893
sg70
g821
sg63
(lp894
g56
(g77
g58
NtRp895
(dp896
g61
(dp897
g81
g82
ssg70
g891
sg63
(lp898
S'debugging'
p899
asbag56
(g77
g58
NtRp900
(dp901
g61
(dp902
g88
g89
ssg70
g891
sg63
(lp903
S':'
asbag56
(g77
g58
NtRp904
(dp905
g61
(dp906
sg70
g891
sg63
(lp907
g56
(g57
g58
NtRp908
(dp909
g61
(dp910
g69
I4
ssg70
g904
sg63
(lp911
g99
asbasbasbag56
(g72
g58
NtRp912
(dp913
g61
(dp914
sg70
g821
sg63
(lp915
g56
(g77
g58
NtRp916
(dp917
g61
(dp918
g81
g82
ssg70
g912
sg63
(lp919
S'document_root'
p920
asbag56
(g77
g58
NtRp921
(dp922
g61
(dp923
g88
g89
ssg70
g912
sg63
(lp924
S':'
asbag56
(g77
g58
NtRp925
(dp926
g61
(dp927
sg70
g912
sg63
(lp928
g56
(g57
g58
NtRp929
(dp930
g61
(dp931
g69
I4
ssg70
g925
sg63
(lp932
S'/etc/apache2/htdocs'
p933
asbasbasbag56
(g72
g58
NtRp934
(dp935
g61
(dp936
sg70
g821
sg63
(lp937
g56
(g77
g58
NtRp938
(dp939
g61
(dp940
g81
g82
ssg70
g934
sg63
(lp941
S'gateway_interface'
p942
asbag56
(g77
g58
NtRp943
(dp944
g61
(dp945
g88
g89
ssg70
g934
sg63
(lp946
S':'
asbag56
(g77
g58
NtRp947
(dp948
g61
(dp949
sg70
g934
sg63
(lp950
g56
(g57
g58
NtRp951
(dp952
g61
(dp953
g69
I4
ssg70
g947
sg63
(lp954
S'CGI/1.1'
p955
asbasbasbag56
(g72
g58
NtRp956
(dp957
g61
(dp958
sg70
g821
sg63
(lp959
g56
(g77
g58
NtRp960
(dp961
g61
(dp962
g81
g82
ssg70
g956
sg63
(lp963
S'gluon_parent'
p964
asbag56
(g77
g58
NtRp965
(dp966
g61
(dp967
g88
g89
ssg70
g956
sg63
(lp968
S':'
asbag56
(g77
g58
NtRp969
(dp970
g61
(dp971
sg70
g956
sg63
(lp972
g56
(g57
g58
NtRp973
(dp974
g61
(dp975
g69
I4
ssg70
g969
sg63
(lp976
g868
asbasbasbag56
(g72
g58
NtRp977
(dp978
g61
(dp979
sg70
g821
sg63
(lp980
g56
(g77
g58
NtRp981
(dp982
g61
(dp983
g81
g82
ssg70
g977
sg63
(lp984
S'http_accept'
p985
asbag56
(g77
g58
NtRp986
(dp987
g61
(dp988
g88
g89
ssg70
g977
sg63
(lp989
S':'
asbag56
(g77
g58
NtRp990
(dp991
g61
(dp992
sg70
g977
sg63
(lp993
g56
(g57
g58
NtRp994
(dp995
g61
(dp996
g69
I4
ssg70
g990
sg63
(lp997
S'text/html, application/xml;q=0.9, application/xhtml+xml, image/png, image/webp, image/jpeg, image/gif, image/x-xbitmap, */*;q=0.1'
p998
asbasbasbag56
(g72
g58
NtRp999
(dp1000
g61
(dp1001
sg70
g821
sg63
(lp1002
g56
(g77
g58
NtRp1003
(dp1004
g61
(dp1005
g81
g82
ssg70
g999
sg63
(lp1006
S'http_accept_encoding'
p1007
asbag56
(g77
g58
NtRp1008
(dp1009
g61
(dp1010
g88
g89
ssg70
g999
sg63
(lp1011
S':'
asbag56
(g77
g58
NtRp1012
(dp1013
g61
(dp1014
sg70
g999
sg63
(lp1015
g56
(g57
g58
NtRp1016
(dp1017
g61
(dp1018
g69
I4
ssg70
g1012
sg63
(lp1019
S'gzip, deflate'
p1020
asbasbasbag56
(g72
g58
NtRp1021
(dp1022
g61
(dp1023
sg70
g821
sg63
(lp1024
g56
(g77
g58
NtRp1025
(dp1026
g61
(dp1027
g81
g82
ssg70
g1021
sg63
(lp1028
S'http_accept_language'
p1029
asbag56
(g77
g58
NtRp1030
(dp1031
g61
(dp1032
g88
g89
ssg70
g1021
sg63
(lp1033
S':'
asbag56
(g77
g58
NtRp1034
(dp1035
g61
(dp1036
sg70
g1021
sg63
(lp1037
g56
(g57
g58
NtRp1038
(dp1039
g61
(dp1040
g69
I4
ssg70
g1034
sg63
(lp1041
S'pt-BR,pt;q=0.9,en;q=0.8'
p1042
asbasbasbag56
(g72
g58
NtRp1043
(dp1044
g61
(dp1045
sg70
g821
sg63
(lp1046
g56
(g77
g58
NtRp1047
(dp1048
g61
(dp1049
g81
g82
ssg70
g1043
sg63
(lp1050
S'http_cache_control'
p1051
asbag56
(g77
g58
NtRp1052
(dp1053
g61
(dp1054
g88
g89
ssg70
g1043
sg63
(lp1055
S':'
asbag56
(g77
g58
NtRp1056
(dp1057
g61
(dp1058
sg70
g1043
sg63
(lp1059
g56
(g57
g58
NtRp1060
(dp1061
g61
(dp1062
g69
I4
ssg70
g1056
sg63
(lp1063
S'no-cache'
p1064
asbasbasbag56
(g72
g58
NtRp1065
(dp1066
g61
(dp1067
sg70
g821
sg63
(lp1068
g56
(g77
g58
NtRp1069
(dp1070
g61
(dp1071
g81
g82
ssg70
g1065
sg63
(lp1072
S'http_connection'
p1073
asbag56
(g77
g58
NtRp1074
(dp1075
g61
(dp1076
g88
g89
ssg70
g1065
sg63
(lp1077
S':'
asbag56
(g77
g58
NtRp1078
(dp1079
g61
(dp1080
sg70
g1065
sg63
(lp1081
g56
(g57
g58
NtRp1082
(dp1083
g61
(dp1084
g69
I4
ssg70
g1078
sg63
(lp1085
S'Keep-Alive'
p1086
asbasbasbag56
(g72
g58
NtRp1087
(dp1088
g61
(dp1089
sg70
g821
sg63
(lp1090
g56
(g77
g58
NtRp1091
(dp1092
g61
(dp1093
g81
g82
ssg70
g1087
sg63
(lp1094
S'http_cookie'
p1095
asbag56
(g77
g58
NtRp1096
(dp1097
g61
(dp1098
g88
g89
ssg70
g1087
sg63
(lp1099
S':'
asbag56
(g77
g58
NtRp1100
(dp1101
g61
(dp1102
sg70
g1087
sg63
(lp1103
g56
(g57
g58
NtRp1104
(dp1105
g61
(dp1106
g69
I4
ssg70
g1100
sg63
(lp1107
S'session_id_welcome=127.0.0.1-59bb9f3c-ccbe-49d8-bb33-39cb1149a47f; session_id_scrum=127.0.0.1-f47d3ac4-8d8c-46d5-8321-f944561d518f; session_id_admin=127.0.0.1-ce034cfe-dc55-49ae-8249-b059df779a22'
p1108
asbasbasbag56
(g72
g58
NtRp1109
(dp1110
g61
(dp1111
sg70
g821
sg63
(lp1112
g56
(g77
g58
NtRp1113
(dp1114
g61
(dp1115
g81
g82
ssg70
g1109
sg63
(lp1116
S'http_host'
p1117
asbag56
(g77
g58
NtRp1118
(dp1119
g61
(dp1120
g88
g89
ssg70
g1109
sg63
(lp1121
S':'
asbag56
(g77
g58
NtRp1122
(dp1123
g61
(dp1124
sg70
g1109
sg63
(lp1125
g56
(g57
g58
NtRp1126
(dp1127
g61
(dp1128
g69
I4
ssg70
g1122
sg63
(lp1129
S'localhost'
p1130
asbasbasbag56
(g72
g58
NtRp1131
(dp1132
g61
(dp1133
sg70
g821
sg63
(lp1134
g56
(g77
g58
NtRp1135
(dp1136
g61
(dp1137
g81
g82
ssg70
g1131
sg63
(lp1138
S'http_user_agent'
p1139
asbag56
(g77
g58
NtRp1140
(dp1141
g61
(dp1142
g88
g89
ssg70
g1131
sg63
(lp1143
S':'
asbag56
(g77
g58
NtRp1144
(dp1145
g61
(dp1146
sg70
g1131
sg63
(lp1147
g56
(g57
g58
NtRp1148
(dp1149
g61
(dp1150
g69
I4
ssg70
g1144
sg63
(lp1151
S'Opera/9.80 (X11; Linux i686; U; pt-BR) Presto/2.9.168 Version/11.51'
p1152
asbasbasbag56
(g72
g58
NtRp1153
(dp1154
g61
(dp1155
sg70
g821
sg63
(lp1156
g56
(g77
g58
NtRp1157
(dp1158
g61
(dp1159
g81
g82
ssg70
g1153
sg63
(lp1160
S'https'
p1161
asbag56
(g77
g58
NtRp1162
(dp1163
g61
(dp1164
g88
g89
ssg70
g1153
sg63
(lp1165
S':'
asbag56
(g77
g58
NtRp1166
(dp1167
g61
(dp1168
sg70
g1153
sg63
(lp1169
g56
(g57
g58
NtRp1170
(dp1171
g61
(dp1172
g69
I4
ssg70
g1166
sg63
(lp1173
S'1'
asbasbasbag56
(g72
g58
NtRp1174
(dp1175
g61
(dp1176
sg70
g821
sg63
(lp1177
g56
(g77
g58
NtRp1178
(dp1179
g61
(dp1180
g81
g82
ssg70
g1174
sg63
(lp1181
S'is_jython'
p1182
asbag56
(g77
g58
NtRp1183
(dp1184
g61
(dp1185
g88
g89
ssg70
g1174
sg63
(lp1186
S':'
asbag56
(g77
g58
NtRp1187
(dp1188
g61
(dp1189
sg70
g1174
sg63
(lp1190
g56
(g57
g58
NtRp1191
(dp1192
g61
(dp1193
g69
I4
ssg70
g1187
sg63
(lp1194
g99
asbasbasbag56
(g72
g58
NtRp1195
(dp1196
g61
(dp1197
sg70
g821
sg63
(lp1198
g56
(g77
g58
NtRp1199
(dp1200
g61
(dp1201
g81
g82
ssg70
g1195
sg63
(lp1202
S'mod_wsgi_application_group'
p1203
asbag56
(g77
g58
NtRp1204
(dp1205
g61
(dp1206
g88
g89
ssg70
g1195
sg63
(lp1207
S':'
asbag56
(g77
g58
NtRp1208
(dp1209
g61
(dp1210
sg70
g1195
sg63
(lp1211
g56
(g57
g58
NtRp1212
(dp1213
g61
(dp1214
g69
I4
ssg70
g1208
sg63
(lp1215
S'localhost.localdomain|'
p1216
asbasbasbag56
(g72
g58
NtRp1217
(dp1218
g61
(dp1219
sg70
g821
sg63
(lp1220
g56
(g77
g58
NtRp1221
(dp1222
g61
(dp1223
g81
g82
ssg70
g1217
sg63
(lp1224
S'mod_wsgi_callable_object'
p1225
asbag56
(g77
g58
NtRp1226
(dp1227
g61
(dp1228
g88
g89
ssg70
g1217
sg63
(lp1229
S':'
asbag56
(g77
g58
NtRp1230
(dp1231
g61
(dp1232
sg70
g1217
sg63
(lp1233
g56
(g57
g58
NtRp1234
(dp1235
g61
(dp1236
g69
I4
ssg70
g1230
sg63
(lp1237
S'application'
p1238
asbasbasbag56
(g72
g58
NtRp1239
(dp1240
g61
(dp1241
sg70
g821
sg63
(lp1242
g56
(g77
g58
NtRp1243
(dp1244
g61
(dp1245
g81
g82
ssg70
g1239
sg63
(lp1246
S'mod_wsgi_handler_script'
p1247
asbag56
(g77
g58
NtRp1248
(dp1249
g61
(dp1250
g88
g89
ssg70
g1239
sg63
(lp1251
S':'
asbag56
(g77
g58
NtRp1252
(dp1253
g61
(dp1254
sg70
g1239
sg63
(lp1255
g56
(g57
g58
NtRp1256
(dp1257
g61
(dp1258
g69
I4
ssg70
g1252
sg63
(lp1259
S''
asbasbasbag56
(g72
g58
NtRp1260
(dp1261
g61
(dp1262
sg70
g821
sg63
(lp1263
g56
(g77
g58
NtRp1264
(dp1265
g61
(dp1266
g81
g82
ssg70
g1260
sg63
(lp1267
S'mod_wsgi_input_chunked'
p1268
asbag56
(g77
g58
NtRp1269
(dp1270
g61
(dp1271
g88
g89
ssg70
g1260
sg63
(lp1272
S':'
asbag56
(g77
g58
NtRp1273
(dp1274
g61
(dp1275
sg70
g1260
sg63
(lp1276
g56
(g57
g58
NtRp1277
(dp1278
g61
(dp1279
g69
I4
ssg70
g1273
sg63
(lp1280
S'0'
asbasbasbag56
(g72
g58
NtRp1281
(dp1282
g61
(dp1283
sg70
g821
sg63
(lp1284
g56
(g77
g58
NtRp1285
(dp1286
g61
(dp1287
g81
g82
ssg70
g1281
sg63
(lp1288
S'mod_wsgi_listener_host'
p1289
asbag56
(g77
g58
NtRp1290
(dp1291
g61
(dp1292
g88
g89
ssg70
g1281
sg63
(lp1293
S':'
asbag56
(g77
g58
NtRp1294
(dp1295
g61
(dp1296
sg70
g1281
sg63
(lp1297
g56
(g57
g58
NtRp1298
(dp1299
g61
(dp1300
g69
I4
ssg70
g1294
sg63
(lp1301
S''
asbasbasbag56
(g72
g58
NtRp1302
(dp1303
g61
(dp1304
sg70
g821
sg63
(lp1305
g56
(g77
g58
NtRp1306
(dp1307
g61
(dp1308
g81
g82
ssg70
g1302
sg63
(lp1309
S'mod_wsgi_listener_port'
p1310
asbag56
(g77
g58
NtRp1311
(dp1312
g61
(dp1313
g88
g89
ssg70
g1302
sg63
(lp1314
S':'
asbag56
(g77
g58
NtRp1315
(dp1316
g61
(dp1317
sg70
g1302
sg63
(lp1318
g56
(g57
g58
NtRp1319
(dp1320
g61
(dp1321
g69
I4
ssg70
g1315
sg63
(lp1322
S'443'
p1323
asbasbasbag56
(g72
g58
NtRp1324
(dp1325
g61
(dp1326
sg70
g821
sg63
(lp1327
g56
(g77
g58
NtRp1328
(dp1329
g61
(dp1330
g81
g82
ssg70
g1324
sg63
(lp1331
S'mod_wsgi_process_group'
p1332
asbag56
(g77
g58
NtRp1333
(dp1334
g61
(dp1335
g88
g89
ssg70
g1324
sg63
(lp1336
S':'
asbag56
(g77
g58
NtRp1337
(dp1338
g61
(dp1339
sg70
g1324
sg63
(lp1340
g56
(g57
g58
NtRp1341
(dp1342
g61
(dp1343
g69
I4
ssg70
g1337
sg63
(lp1344
S'web2py'
p1345
asbasbasbag56
(g72
g58
NtRp1346
(dp1347
g61
(dp1348
sg70
g821
sg63
(lp1349
g56
(g77
g58
NtRp1350
(dp1351
g61
(dp1352
g81
g82
ssg70
g1346
sg63
(lp1353
S'mod_wsgi_request_handler'
p1354
asbag56
(g77
g58
NtRp1355
(dp1356
g61
(dp1357
g88
g89
ssg70
g1346
sg63
(lp1358
S':'
asbag56
(g77
g58
NtRp1359
(dp1360
g61
(dp1361
sg70
g1346
sg63
(lp1362
g56
(g57
g58
NtRp1363
(dp1364
g61
(dp1365
g69
I4
ssg70
g1359
sg63
(lp1366
S'wsgi-script'
p1367
asbasbasbag56
(g72
g58
NtRp1368
(dp1369
g61
(dp1370
sg70
g821
sg63
(lp1371
g56
(g77
g58
NtRp1372
(dp1373
g61
(dp1374
g81
g82
ssg70
g1368
sg63
(lp1375
S'mod_wsgi_script_reloading'
p1376
asbag56
(g77
g58
NtRp1377
(dp1378
g61
(dp1379
g88
g89
ssg70
g1368
sg63
(lp1380
S':'
asbag56
(g77
g58
NtRp1381
(dp1382
g61
(dp1383
sg70
g1368
sg63
(lp1384
g56
(g57
g58
NtRp1385
(dp1386
g61
(dp1387
g69
I4
ssg70
g1381
sg63
(lp1388
S'1'
asbasbasbag56
(g72
g58
NtRp1389
(dp1390
g61
(dp1391
sg70
g821
sg63
(lp1392
g56
(g77
g58
NtRp1393
(dp1394
g61
(dp1395
g81
g82
ssg70
g1389
sg63
(lp1396
S'mod_wsgi_version'
p1397
asbag56
(g77
g58
NtRp1398
(dp1399
g61
(dp1400
g88
g89
ssg70
g1389
sg63
(lp1401
S':'
asbag56
(g77
g58
NtRp1402
(dp1403
g61
(dp1404
sg70
g1389
sg63
(lp1405
g56
(g57
g58
NtRp1406
(dp1407
g61
(dp1408
g69
I4
ssg70
g1402
sg63
(lp1409
g56
(g65
g58
NtRp1410
(dp1411
g61
(dp1412
g69
I3
ssg70
Nsg63
(lp1413
g56
(g72
g58
NtRp1414
(dp1415
g61
(dp1416
sg70
g1410
sg63
(lp1417
g56
(g77
g58
NtRp1418
(dp1419
g61
(dp1420
sg70
g1414
sg63
(lp1421
g56
(g57
g58
NtRp1422
(dp1423
g61
(dp1424
g69
I3
ssg70
g1418
sg63
(lp1425
S'3'
asbasbasbag56
(g72
g58
NtRp1426
(dp1427
g61
(dp1428
sg70
g1410
sg63
(lp1429
g56
(g77
g58
NtRp1430
(dp1431
g61
(dp1432
sg70
g1426
sg63
(lp1433
g56
(g57
g58
NtRp1434
(dp1435
g61
(dp1436
g69
I3
ssg70
g1430
sg63
(lp1437
S'3'
asbasbasbasbasbasbasbag56
(g72
g58
NtRp1438
(dp1439
g61
(dp1440
sg70
g821
sg63
(lp1441
g56
(g77
g58
NtRp1442
(dp1443
g61
(dp1444
g81
g82
ssg70
g1438
sg63
(lp1445
S'path_info'
p1446
asbag56
(g77
g58
NtRp1447
(dp1448
g61
(dp1449
g88
g89
ssg70
g1438
sg63
(lp1450
S':'
asbag56
(g77
g58
NtRp1451
(dp1452
g61
(dp1453
sg70
g1438
sg63
(lp1454
g56
(g57
g58
NtRp1455
(dp1456
g61
(dp1457
g69
I4
ssg70
g1451
sg63
(lp1458
S'/scrum/ticket/novo'
p1459
asbasbasbag56
(g72
g58
NtRp1460
(dp1461
g61
(dp1462
sg70
g821
sg63
(lp1463
g56
(g77
g58
NtRp1464
(dp1465
g61
(dp1466
g81
g82
ssg70
g1460
sg63
(lp1467
S'path_translated'
p1468
asbag56
(g77
g58
NtRp1469
(dp1470
g61
(dp1471
g88
g89
ssg70
g1460
sg63
(lp1472
S':'
asbag56
(g77
g58
NtRp1473
(dp1474
g61
(dp1475
sg70
g1460
sg63
(lp1476
g56
(g57
g58
NtRp1477
(dp1478
g61
(dp1479
g69
I4
ssg70
g1473
sg63
(lp1480
S'/home/www-data/web2py/wsgihandler.py/scrum/ticket/novo'
p1481
asbasbasbag56
(g72
g58
NtRp1482
(dp1483
g61
(dp1484
sg70
g821
sg63
(lp1485
g56
(g77
g58
NtRp1486
(dp1487
g61
(dp1488
g81
g82
ssg70
g1482
sg63
(lp1489
S'query_string'
p1490
asbag56
(g77
g58
NtRp1491
(dp1492
g61
(dp1493
g88
g89
ssg70
g1482
sg63
(lp1494
S':'
asbag56
(g77
g58
NtRp1495
(dp1496
g61
(dp1497
sg70
g1482
sg63
(lp1498
g56
(g57
g58
NtRp1499
(dp1500
g61
(dp1501
g69
I4
ssg70
g1495
sg63
(lp1502
S''
asbasbasbag56
(g72
g58
NtRp1503
(dp1504
g61
(dp1505
sg70
g821
sg63
(lp1506
g56
(g77
g58
NtRp1507
(dp1508
g61
(dp1509
g81
g82
ssg70
g1503
sg63
(lp1510
S'remote_addr'
p1511
asbag56
(g77
g58
NtRp1512
(dp1513
g61
(dp1514
g88
g89
ssg70
g1503
sg63
(lp1515
S':'
asbag56
(g77
g58
NtRp1516
(dp1517
g61
(dp1518
sg70
g1503
sg63
(lp1519
g56
(g57
g58
NtRp1520
(dp1521
g61
(dp1522
g69
I4
ssg70
g1516
sg63
(lp1523
g189
asbasbasbag56
(g72
g58
NtRp1524
(dp1525
g61
(dp1526
sg70
g821
sg63
(lp1527
g56
(g77
g58
NtRp1528
(dp1529
g61
(dp1530
g81
g82
ssg70
g1524
sg63
(lp1531
S'remote_port'
p1532
asbag56
(g77
g58
NtRp1533
(dp1534
g61
(dp1535
g88
g89
ssg70
g1524
sg63
(lp1536
S':'
asbag56
(g77
g58
NtRp1537
(dp1538
g61
(dp1539
sg70
g1524
sg63
(lp1540
g56
(g57
g58
NtRp1541
(dp1542
g61
(dp1543
g69
I4
ssg70
g1537
sg63
(lp1544
S'48117'
p1545
asbasbasbag56
(g72
g58
NtRp1546
(dp1547
g61
(dp1548
sg70
g821
sg63
(lp1549
g56
(g77
g58
NtRp1550
(dp1551
g61
(dp1552
g81
g82
ssg70
g1546
sg63
(lp1553
S'request_method'
p1554
asbag56
(g77
g58
NtRp1555
(dp1556
g61
(dp1557
g88
g89
ssg70
g1546
sg63
(lp1558
S':'
asbag56
(g77
g58
NtRp1559
(dp1560
g61
(dp1561
sg70
g1546
sg63
(lp1562
g56
(g57
g58
NtRp1563
(dp1564
g61
(dp1565
g69
I4
ssg70
g1559
sg63
(lp1566
S'GET'
p1567
asbasbasbag56
(g72
g58
NtRp1568
(dp1569
g61
(dp1570
sg70
g821
sg63
(lp1571
g56
(g77
g58
NtRp1572
(dp1573
g61
(dp1574
g81
g82
ssg70
g1568
sg63
(lp1575
S'request_uri'
p1576
asbag56
(g77
g58
NtRp1577
(dp1578
g61
(dp1579
g88
g89
ssg70
g1568
sg63
(lp1580
S':'
asbag56
(g77
g58
NtRp1581
(dp1582
g61
(dp1583
sg70
g1568
sg63
(lp1584
g56
(g57
g58
NtRp1585
(dp1586
g61
(dp1587
g69
I4
ssg70
g1581
sg63
(lp1588
S'/scrum/ticket/novo'
p1589
asbasbasbag56
(g72
g58
NtRp1590
(dp1591
g61
(dp1592
sg70
g821
sg63
(lp1593
g56
(g77
g58
NtRp1594
(dp1595
g61
(dp1596
g81
g82
ssg70
g1590
sg63
(lp1597
S'script_filename'
p1598
asbag56
(g77
g58
NtRp1599
(dp1600
g61
(dp1601
g88
g89
ssg70
g1590
sg63
(lp1602
S':'
asbag56
(g77
g58
NtRp1603
(dp1604
g61
(dp1605
sg70
g1590
sg63
(lp1606
g56
(g57
g58
NtRp1607
(dp1608
g61
(dp1609
g69
I4
ssg70
g1603
sg63
(lp1610
S'/home/www-data/web2py/wsgihandler.py'
p1611
asbasbasbag56
(g72
g58
NtRp1612
(dp1613
g61
(dp1614
sg70
g821
sg63
(lp1615
g56
(g77
g58
NtRp1616
(dp1617
g61
(dp1618
g81
g82
ssg70
g1612
sg63
(lp1619
S'script_name'
p1620
asbag56
(g77
g58
NtRp1621
(dp1622
g61
(dp1623
g88
g89
ssg70
g1612
sg63
(lp1624
S':'
asbag56
(g77
g58
NtRp1625
(dp1626
g61
(dp1627
sg70
g1612
sg63
(lp1628
g56
(g57
g58
NtRp1629
(dp1630
g61
(dp1631
g69
I4
ssg70
g1625
sg63
(lp1632
S''
asbasbasbag56
(g72
g58
NtRp1633
(dp1634
g61
(dp1635
sg70
g821
sg63
(lp1636
g56
(g77
g58
NtRp1637
(dp1638
g61
(dp1639
g81
g82
ssg70
g1633
sg63
(lp1640
S'server_addr'
p1641
asbag56
(g77
g58
NtRp1642
(dp1643
g61
(dp1644
g88
g89
ssg70
g1633
sg63
(lp1645
S':'
asbag56
(g77
g58
NtRp1646
(dp1647
g61
(dp1648
sg70
g1633
sg63
(lp1649
g56
(g57
g58
NtRp1650
(dp1651
g61
(dp1652
g69
I4
ssg70
g1646
sg63
(lp1653
S'127.0.0.1'
p1654
asbasbasbag56
(g72
g58
NtRp1655
(dp1656
g61
(dp1657
sg70
g821
sg63
(lp1658
g56
(g77
g58
NtRp1659
(dp1660
g61
(dp1661
g81
g82
ssg70
g1655
sg63
(lp1662
S'server_admin'
p1663
asbag56
(g77
g58
NtRp1664
(dp1665
g61
(dp1666
g88
g89
ssg70
g1655
sg63
(lp1667
S':'
asbag56
(g77
g58
NtRp1668
(dp1669
g61
(dp1670
sg70
g1655
sg63
(lp1671
g56
(g57
g58
NtRp1672
(dp1673
g61
(dp1674
g69
I4
ssg70
g1668
sg63
(lp1675
S'[no address given]'
p1676
asbasbasbag56
(g72
g58
NtRp1677
(dp1678
g61
(dp1679
sg70
g821
sg63
(lp1680
g56
(g77
g58
NtRp1681
(dp1682
g61
(dp1683
g81
g82
ssg70
g1677
sg63
(lp1684
S'server_name'
p1685
asbag56
(g77
g58
NtRp1686
(dp1687
g61
(dp1688
g88
g89
ssg70
g1677
sg63
(lp1689
S':'
asbag56
(g77
g58
NtRp1690
(dp1691
g61
(dp1692
sg70
g1677
sg63
(lp1693
g56
(g57
g58
NtRp1694
(dp1695
g61
(dp1696
g69
I4
ssg70
g1690
sg63
(lp1697
S'localhost'
p1698
asbasbasbag56
(g72
g58
NtRp1699
(dp1700
g61
(dp1701
sg70
g821
sg63
(lp1702
g56
(g77
g58
NtRp1703
(dp1704
g61
(dp1705
g81
g82
ssg70
g1699
sg63
(lp1706
S'server_port'
p1707
asbag56
(g77
g58
NtRp1708
(dp1709
g61
(dp1710
g88
g89
ssg70
g1699
sg63
(lp1711
S':'
asbag56
(g77
g58
NtRp1712
(dp1713
g61
(dp1714
sg70
g1699
sg63
(lp1715
g56
(g57
g58
NtRp1716
(dp1717
g61
(dp1718
g69
I4
ssg70
g1712
sg63
(lp1719
S'443'
p1720
asbasbasbag56
(g72
g58
NtRp1721
(dp1722
g61
(dp1723
sg70
g821
sg63
(lp1724
g56
(g77
g58
NtRp1725
(dp1726
g61
(dp1727
g81
g82
ssg70
g1721
sg63
(lp1728
S'server_protocol'
p1729
asbag56
(g77
g58
NtRp1730
(dp1731
g61
(dp1732
g88
g89
ssg70
g1721
sg63
(lp1733
S':'
asbag56
(g77
g58
NtRp1734
(dp1735
g61
(dp1736
sg70
g1721
sg63
(lp1737
g56
(g57
g58
NtRp1738
(dp1739
g61
(dp1740
g69
I4
ssg70
g1734
sg63
(lp1741
S'HTTP/1.1'
p1742
asbasbasbag56
(g72
g58
NtRp1743
(dp1744
g61
(dp1745
sg70
g821
sg63
(lp1746
g56
(g77
g58
NtRp1747
(dp1748
g61
(dp1749
g81
g82
ssg70
g1743
sg63
(lp1750
S'server_signature'
p1751
asbag56
(g77
g58
NtRp1752
(dp1753
g61
(dp1754
g88
g89
ssg70
g1743
sg63
(lp1755
S':'
asbag56
(g77
g58
NtRp1756
(dp1757
g61
(dp1758
sg70
g1743
sg63
(lp1759
g56
(g57
g58
NtRp1760
(dp1761
g61
(dp1762
g69
I4
ssg70
g1756
sg63
(lp1763
S'<address>Apache/2.2.17 (Ubuntu) Server at localhost Port 443</address>\n'
p1764
asbasbasbag56
(g72
g58
NtRp1765
(dp1766
g61
(dp1767
sg70
g821
sg63
(lp1768
g56
(g77
g58
NtRp1769
(dp1770
g61
(dp1771
g81
g82
ssg70
g1765
sg63
(lp1772
S'server_software'
p1773
asbag56
(g77
g58
NtRp1774
(dp1775
g61
(dp1776
g88
g89
ssg70
g1765
sg63
(lp1777
S':'
asbag56
(g77
g58
NtRp1778
(dp1779
g61
(dp1780
sg70
g1765
sg63
(lp1781
g56
(g57
g58
NtRp1782
(dp1783
g61
(dp1784
g69
I4
ssg70
g1778
sg63
(lp1785
S'Apache/2.2.17 (Ubuntu)'
p1786
asbasbasbag56
(g72
g58
NtRp1787
(dp1788
g61
(dp1789
sg70
g821
sg63
(lp1790
g56
(g77
g58
NtRp1791
(dp1792
g61
(dp1793
g81
g82
ssg70
g1787
sg63
(lp1794
S'ssl_tls_sni'
p1795
asbag56
(g77
g58
NtRp1796
(dp1797
g61
(dp1798
g88
g89
ssg70
g1787
sg63
(lp1799
S':'
asbag56
(g77
g58
NtRp1800
(dp1801
g61
(dp1802
sg70
g1787
sg63
(lp1803
g56
(g57
g58
NtRp1804
(dp1805
g61
(dp1806
g69
I4
ssg70
g1800
sg63
(lp1807
S'localhost'
p1808
asbasbasbag56
(g72
g58
NtRp1809
(dp1810
g61
(dp1811
sg70
g821
sg63
(lp1812
g56
(g77
g58
NtRp1813
(dp1814
g61
(dp1815
g81
g82
ssg70
g1809
sg63
(lp1816
S'web2py_path'
p1817
asbag56
(g77
g58
NtRp1818
(dp1819
g61
(dp1820
g88
g89
ssg70
g1809
sg63
(lp1821
S':'
asbag56
(g77
g58
NtRp1822
(dp1823
g61
(dp1824
sg70
g1809
sg63
(lp1825
g56
(g57
g58
NtRp1826
(dp1827
g61
(dp1828
g69
I4
ssg70
g1822
sg63
(lp1829
g868
asbasbasbag56
(g72
g58
NtRp1830
(dp1831
g61
(dp1832
sg70
g821
sg63
(lp1833
g56
(g77
g58
NtRp1834
(dp1835
g61
(dp1836
g81
g82
ssg70
g1830
sg63
(lp1837
S'web2py_version'
p1838
asbag56
(g77
g58
NtRp1839
(dp1840
g61
(dp1841
g88
g89
ssg70
g1830
sg63
(lp1842
S':'
asbag56
(g77
g58
NtRp1843
(dp1844
g61
(dp1845
sg70
g1830
sg63
(lp1846
g56
(g57
g58
NtRp1847
(dp1848
g61
(dp1849
g69
I4
ssg70
g1843
sg63
(lp1850
S'Version 1.98.2 (2011-08-04 00:47:09)\n'
p1851
asbasbasbag56
(g72
g58
NtRp1852
(dp1853
g61
(dp1854
sg70
g821
sg63
(lp1855
g56
(g77
g58
NtRp1856
(dp1857
g61
(dp1858
g81
g82
ssg70
g1852
sg63
(lp1859
S'wsgi_errors'
p1860
asbag56
(g77
g58
NtRp1861
(dp1862
g61
(dp1863
g88
g89
ssg70
g1852
sg63
(lp1864
S':'
asbag56
(g77
g58
NtRp1865
(dp1866
g61
(dp1867
sg70
g1852
sg63
(lp1868
g56
(g57
g58
NtRp1869
(dp1870
g61
(dp1871
g69
I4
ssg70
g1865
sg63
(lp1872
S'<mod_wsgi.Log object at 0xb98c3390>'
p1873
asbasbasbag56
(g72
g58
NtRp1874
(dp1875
g61
(dp1876
sg70
g821
sg63
(lp1877
g56
(g77
g58
NtRp1878
(dp1879
g61
(dp1880
g81
g82
ssg70
g1874
sg63
(lp1881
S'wsgi_file_wrapper'
p1882
asbag56
(g77
g58
NtRp1883
(dp1884
g61
(dp1885
g88
g89
ssg70
g1874
sg63
(lp1886
S':'
asbag56
(g77
g58
NtRp1887
(dp1888
g61
(dp1889
sg70
g1874
sg63
(lp1890
g56
(g57
g58
NtRp1891
(dp1892
g61
(dp1893
g69
I4
ssg70
g1887
sg63
(lp1894
S'<built-in method file_wrapper of mod_wsgi.Adapter object at 0xb95bab60>'
p1895
asbasbasbag56
(g72
g58
NtRp1896
(dp1897
g61
(dp1898
sg70
g821
sg63
(lp1899
g56
(g77
g58
NtRp1900
(dp1901
g61
(dp1902
g81
g82
ssg70
g1896
sg63
(lp1903
S'wsgi_input'
p1904
asbag56
(g77
g58
NtRp1905
(dp1906
g61
(dp1907
g88
g89
ssg70
g1896
sg63
(lp1908
S':'
asbag56
(g77
g58
NtRp1909
(dp1910
g61
(dp1911
sg70
g1896
sg63
(lp1912
g56
(g57
g58
NtRp1913
(dp1914
g61
(dp1915
g69
I4
ssg70
g1909
sg63
(lp1916
S'<mod_wsgi.Input object at 0xb98c3700>'
p1917
asbasbasbag56
(g72
g58
NtRp1918
(dp1919
g61
(dp1920
sg70
g821
sg63
(lp1921
g56
(g77
g58
NtRp1922
(dp1923
g61
(dp1924
g81
g82
ssg70
g1918
sg63
(lp1925
S'wsgi_multiprocess'
p1926
asbag56
(g77
g58
NtRp1927
(dp1928
g61
(dp1929
g88
g89
ssg70
g1918
sg63
(lp1930
S':'
asbag56
(g77
g58
NtRp1931
(dp1932
g61
(dp1933
sg70
g1918
sg63
(lp1934
g56
(g57
g58
NtRp1935
(dp1936
g61
(dp1937
g69
I4
ssg70
g1931
sg63
(lp1938
g99
asbasbasbag56
(g72
g58
NtRp1939
(dp1940
g61
(dp1941
sg70
g821
sg63
(lp1942
g56
(g77
g58
NtRp1943
(dp1944
g61
(dp1945
g81
g82
ssg70
g1939
sg63
(lp1946
S'wsgi_multithread'
p1947
asbag56
(g77
g58
NtRp1948
(dp1949
g61
(dp1950
g88
g89
ssg70
g1939
sg63
(lp1951
S':'
asbag56
(g77
g58
NtRp1952
(dp1953
g61
(dp1954
sg70
g1939
sg63
(lp1955
g56
(g57
g58
NtRp1956
(dp1957
g61
(dp1958
g69
I4
ssg70
g1952
sg63
(lp1959
S'True'
p1960
asbasbasbag56
(g72
g58
NtRp1961
(dp1962
g61
(dp1963
sg70
g821
sg63
(lp1964
g56
(g77
g58
NtRp1965
(dp1966
g61
(dp1967
g81
g82
ssg70
g1961
sg63
(lp1968
S'wsgi_run_once'
p1969
asbag56
(g77
g58
NtRp1970
(dp1971
g61
(dp1972
g88
g89
ssg70
g1961
sg63
(lp1973
S':'
asbag56
(g77
g58
NtRp1974
(dp1975
g61
(dp1976
sg70
g1961
sg63
(lp1977
g56
(g57
g58
NtRp1978
(dp1979
g61
(dp1980
g69
I4
ssg70
g1974
sg63
(lp1981
g99
asbasbasbag56
(g72
g58
NtRp1982
(dp1983
g61
(dp1984
sg70
g821
sg63
(lp1985
g56
(g77
g58
NtRp1986
(dp1987
g61
(dp1988
g81
g82
ssg70
g1982
sg63
(lp1989
S'wsgi_url_scheme'
p1990
asbag56
(g77
g58
NtRp1991
(dp1992
g61
(dp1993
g88
g89
ssg70
g1982
sg63
(lp1994
S':'
asbag56
(g77
g58
NtRp1995
(dp1996
g61
(dp1997
sg70
g1982
sg63
(lp1998
g56
(g57
g58
NtRp1999
(dp2000
g61
(dp2001
g69
I4
ssg70
g1995
sg63
(lp2002
S'https'
p2003
asbasbasbag56
(g72
g58
NtRp2004
(dp2005
g61
(dp2006
sg70
g821
sg63
(lp2007
g56
(g77
g58
NtRp2008
(dp2009
g61
(dp2010
g81
g82
ssg70
g2004
sg63
(lp2011
S'wsgi_version'
p2012
asbag56
(g77
g58
NtRp2013
(dp2014
g61
(dp2015
g88
g89
ssg70
g2004
sg63
(lp2016
S':'
asbag56
(g77
g58
NtRp2017
(dp2018
g61
(dp2019
sg70
g2004
sg63
(lp2020
g56
(g57
g58
NtRp2021
(dp2022
g61
(dp2023
g69
I4
ssg70
g2017
sg63
(lp2024
g56
(g65
g58
NtRp2025
(dp2026
g61
(dp2027
g69
I3
ssg70
Nsg63
(lp2028
g56
(g72
g58
NtRp2029
(dp2030
g61
(dp2031
sg70
g2025
sg63
(lp2032
g56
(g77
g58
NtRp2033
(dp2034
g61
(dp2035
sg70
g2029
sg63
(lp2036
g56
(g57
g58
NtRp2037
(dp2038
g61
(dp2039
g69
I3
ssg70
g2033
sg63
(lp2040
S'1'
asbasbasbag56
(g72
g58
NtRp2041
(dp2042
g61
(dp2043
sg70
g2025
sg63
(lp2044
g56
(g77
g58
NtRp2045
(dp2046
g61
(dp2047
sg70
g2041
sg63
(lp2048
g56
(g57
g58
NtRp2049
(dp2050
g61
(dp2051
g69
I3
ssg70
g2045
sg63
(lp2052
S'1'
asbasbasbasbasbasbasbasbasbasbasbag56
(g72
g58
NtRp2053
(dp2054
g61
(dp2055
sg70
g66
sg63
(lp2056
g56
(g77
g58
NtRp2057
(dp2058
g61
(dp2059
g81
g82
ssg70
g2053
sg63
(lp2060
S'extension'
p2061
asbag56
(g77
g58
NtRp2062
(dp2063
g61
(dp2064
g88
g89
ssg70
g2053
sg63
(lp2065
S':'
asbag56
(g77
g58
NtRp2066
(dp2067
g61
(dp2068
sg70
g2053
sg63
(lp2069
g56
(g57
g58
NtRp2070
(dp2071
g61
(dp2072
g69
I5
ssg70
g2066
sg63
(lp2073
S'html'
p2074
asbasbasbag56
(g72
g58
NtRp2075
(dp2076
g61
(dp2077
sg70
g66
sg63
(lp2078
g56
(g77
g58
NtRp2079
(dp2080
g61
(dp2081
g81
g82
ssg70
g2075
sg63
(lp2082
S'folder'
p2083
asbag56
(g77
g58
NtRp2084
(dp2085
g61
(dp2086
g88
g89
ssg70
g2075
sg63
(lp2087
S':'
asbag56
(g77
g58
NtRp2088
(dp2089
g61
(dp2090
sg70
g2075
sg63
(lp2091
g56
(g57
g58
NtRp2092
(dp2093
g61
(dp2094
g69
I5
ssg70
g2088
sg63
(lp2095
S'/home/www-data/web2py/applications/scrum/'
p2096
asbasbasbag56
(g72
g58
NtRp2097
(dp2098
g61
(dp2099
sg70
g66
sg63
(lp2100
g56
(g77
g58
NtRp2101
(dp2102
g61
(dp2103
g81
g82
ssg70
g2097
sg63
(lp2104
S'function'
p2105
asbag56
(g77
g58
NtRp2106
(dp2107
g61
(dp2108
g88
g89
ssg70
g2097
sg63
(lp2109
S':'
asbag56
(g77
g58
NtRp2110
(dp2111
g61
(dp2112
sg70
g2097
sg63
(lp2113
g56
(g57
g58
NtRp2114
(dp2115
g61
(dp2116
g69
I5
ssg70
g2110
sg63
(lp2117
S'novo'
p2118
asbasbasbag56
(g72
g58
NtRp2119
(dp2120
g61
(dp2121
sg70
g66
sg63
(lp2122
g56
(g77
g58
NtRp2123
(dp2124
g61
(dp2125
g81
g82
ssg70
g2119
sg63
(lp2126
S'get_vars'
p2127
asbag56
(g77
g58
NtRp2128
(dp2129
g61
(dp2130
g88
g89
ssg70
g2119
sg63
(lp2131
S':'
asbag56
(g77
g58
NtRp2132
(dp2133
g61
(dp2134
sg70
g2119
sg63
(lp2135
g56
(g57
g58
NtRp2136
(dp2137
g61
(dp2138
g69
I5
ssg70
g2132
sg63
(lp2139
g56
(g65
g58
NtRp2140
(dp2141
g61
(dp2142
g69
I4
ssg70
Nsg63
(lp2143
sbasbasbasbag56
(g72
g58
NtRp2144
(dp2145
g61
(dp2146
sg70
g66
sg63
(lp2147
g56
(g77
g58
NtRp2148
(dp2149
g61
(dp2150
g81
g82
ssg70
g2144
sg63
(lp2151
S'is_https'
p2152
asbag56
(g77
g58
NtRp2153
(dp2154
g61
(dp2155
g88
g89
ssg70
g2144
sg63
(lp2156
S':'
asbag56
(g77
g58
NtRp2157
(dp2158
g61
(dp2159
sg70
g2144
sg63
(lp2160
g56
(g57
g58
NtRp2161
(dp2162
g61
(dp2163
g69
I5
ssg70
g2157
sg63
(lp2164
g1960
asbasbasbag56
(g72
g58
NtRp2165
(dp2166
g61
(dp2167
sg70
g66
sg63
(lp2168
g56
(g77
g58
NtRp2169
(dp2170
g61
(dp2171
g81
g82
ssg70
g2165
sg63
(lp2172
S'is_local'
p2173
asbag56
(g77
g58
NtRp2174
(dp2175
g61
(dp2176
g88
g89
ssg70
g2165
sg63
(lp2177
S':'
asbag56
(g77
g58
NtRp2178
(dp2179
g61
(dp2180
sg70
g2165
sg63
(lp2181
g56
(g57
g58
NtRp2182
(dp2183
g61
(dp2184
g69
I5
ssg70
g2178
sg63
(lp2185
g1960
asbasbasbag56
(g72
g58
NtRp2186
(dp2187
g61
(dp2188
sg70
g66
sg63
(lp2189
g56
(g77
g58
NtRp2190
(dp2191
g61
(dp2192
g81
g82
ssg70
g2186
sg63
(lp2193
S'is_restful'
p2194
asbag56
(g77
g58
NtRp2195
(dp2196
g61
(dp2197
g88
g89
ssg70
g2186
sg63
(lp2198
S':'
asbag56
(g77
g58
NtRp2199
(dp2200
g61
(dp2201
sg70
g2186
sg63
(lp2202
g56
(g57
g58
NtRp2203
(dp2204
g61
(dp2205
g69
I5
ssg70
g2199
sg63
(lp2206
g99
asbasbasbag56
(g72
g58
NtRp2207
(dp2208
g61
(dp2209
sg70
g66
sg63
(lp2210
g56
(g77
g58
NtRp2211
(dp2212
g61
(dp2213
g81
g82
ssg70
g2207
sg63
(lp2214
S'now'
p2215
asbag56
(g77
g58
NtRp2216
(dp2217
g61
(dp2218
g88
g89
ssg70
g2207
sg63
(lp2219
S':'
asbag56
(g77
g58
NtRp2220
(dp2221
g61
(dp2222
sg70
g2207
sg63
(lp2223
g56
(g57
g58
NtRp2224
(dp2225
g61
(dp2226
g69
I5
ssg70
g2220
sg63
(lp2227
S'datetime.datetime(2011, 9, 8, 16, 22, 9, 345024)'
p2228
asbasbasbag56
(g72
g58
NtRp2229
(dp2230
g61
(dp2231
sg70
g66
sg63
(lp2232
g56
(g77
g58
NtRp2233
(dp2234
g61
(dp2235
g81
g82
ssg70
g2229
sg63
(lp2236
S'post_vars'
p2237
asbag56
(g77
g58
NtRp2238
(dp2239
g61
(dp2240
g88
g89
ssg70
g2229
sg63
(lp2241
S':'
asbag56
(g77
g58
NtRp2242
(dp2243
g61
(dp2244
sg70
g2229
sg63
(lp2245
g56
(g57
g58
NtRp2246
(dp2247
g61
(dp2248
g69
I5
ssg70
g2242
sg63
(lp2249
g56
(g65
g58
NtRp2250
(dp2251
g61
(dp2252
g69
I4
ssg70
Nsg63
(lp2253
sbasbasbasbag56
(g72
g58
NtRp2254
(dp2255
g61
(dp2256
sg70
g66
sg63
(lp2257
g56
(g77
g58
NtRp2258
(dp2259
g61
(dp2260
g81
g82
ssg70
g2254
sg63
(lp2261
S'url'
p2262
asbag56
(g77
g58
NtRp2263
(dp2264
g61
(dp2265
g88
g89
ssg70
g2254
sg63
(lp2266
S':'
asbag56
(g77
g58
NtRp2267
(dp2268
g61
(dp2269
sg70
g2254
sg63
(lp2270
g56
(g57
g58
NtRp2271
(dp2272
g61
(dp2273
g69
I5
ssg70
g2267
sg63
(lp2274
S'/scrum/ticket/novo'
p2275
asbasbasbag56
(g72
g58
NtRp2276
(dp2277
g61
(dp2278
sg70
g66
sg63
(lp2279
g56
(g77
g58
NtRp2280
(dp2281
g61
(dp2282
g81
g82
ssg70
g2276
sg63
(lp2283
S'uuid'
p2284
asbag56
(g77
g58
NtRp2285
(dp2286
g61
(dp2287
g88
g89
ssg70
g2276
sg63
(lp2288
S':'
asbag56
(g77
g58
NtRp2289
(dp2290
g61
(dp2291
sg70
g2276
sg63
(lp2292
g56
(g57
g58
NtRp2293
(dp2294
g61
(dp2295
g69
I5
ssg70
g2289
sg63
(lp2296
S'scrum/127.0.0.1.2011-09-08.16-22-09.8709deb9-fa0b-4753-8f1c-9bff7b4875f5'
p2297
asbasbasbag56
(g72
g58
NtRp2298
(dp2299
g61
(dp2300
sg70
g66
sg63
(lp2301
g56
(g77
g58
NtRp2302
(dp2303
g61
(dp2304
g81
g82
ssg70
g2298
sg63
(lp2305
S'vars'
p2306
asbag56
(g77
g58
NtRp2307
(dp2308
g61
(dp2309
g88
g89
ssg70
g2298
sg63
(lp2310
S':'
asbag56
(g77
g58
NtRp2311
(dp2312
g61
(dp2313
sg70
g2298
sg63
(lp2314
g56
(g57
g58
NtRp2315
(dp2316
g61
(dp2317
g69
I5
ssg70
g2311
sg63
(lp2318
g56
(g65
g58
NtRp2319
(dp2320
g61
(dp2321
g69
I4
ssg70
Nsg63
(lp2322
sbasbasbasbag56
(g72
g58
NtRp2323
(dp2324
g61
(dp2325
sg70
g66
sg63
(lp2326
g56
(g77
g58
NtRp2327
(dp2328
g61
(dp2329
g81
g82
ssg70
g2323
sg63
(lp2330
S'wsgi'
p2331
asbag56
(g77
g58
NtRp2332
(dp2333
g61
(dp2334
g88
g89
ssg70
g2323
sg63
(lp2335
S':'
asbag56
(g77
g58
NtRp2336
(dp2337
g61
(dp2338
sg70
g2323
sg63
(lp2339
g56
(g57
g58
NtRp2340
(dp2341
g61
(dp2342
g69
I5
ssg70
g2336
sg63
(lp2343
g56
(g65
g58
NtRp2344
(dp2345
g61
(dp2346
g69
I4
ssg70
Nsg63
(lp2347
g56
(g72
g58
NtRp2348
(dp2349
g61
(dp2350
sg70
g2344
sg63
(lp2351
g56
(g77
g58
NtRp2352
(dp2353
g61
(dp2354
g81
g82
ssg70
g2348
sg63
(lp2355
S'environ'
p2356
asbag56
(g77
g58
NtRp2357
(dp2358
g61
(dp2359
g88
g89
ssg70
g2348
sg63
(lp2360
S':'
asbag56
(g77
g58
NtRp2361
(dp2362
g61
(dp2363
sg70
g2348
sg63
(lp2364
g56
(g57
g58
NtRp2365
(dp2366
g61
(dp2367
g69
I4
ssg70
g2361
sg63
(lp2368
g56
(g65
g58
NtRp2369
(dp2370
g61
(dp2371
g69
I3
ssg70
Nsg63
(lp2372
g56
(g72
g58
NtRp2373
(dp2374
g61
(dp2375
sg70
g2369
sg63
(lp2376
g56
(g77
g58
NtRp2377
(dp2378
g61
(dp2379
g81
g82
ssg70
g2373
sg63
(lp2380
S'DOCUMENT_ROOT'
p2381
asbag56
(g77
g58
NtRp2382
(dp2383
g61
(dp2384
g88
g89
ssg70
g2373
sg63
(lp2385
S':'
asbag56
(g77
g58
NtRp2386
(dp2387
g61
(dp2388
sg70
g2373
sg63
(lp2389
g56
(g57
g58
NtRp2390
(dp2391
g61
(dp2392
g69
I3
ssg70
g2386
sg63
(lp2393
g933
asbasbasbag56
(g72
g58
NtRp2394
(dp2395
g61
(dp2396
sg70
g2369
sg63
(lp2397
g56
(g77
g58
NtRp2398
(dp2399
g61
(dp2400
g81
g82
ssg70
g2394
sg63
(lp2401
S'GATEWAY_INTERFACE'
p2402
asbag56
(g77
g58
NtRp2403
(dp2404
g61
(dp2405
g88
g89
ssg70
g2394
sg63
(lp2406
S':'
asbag56
(g77
g58
NtRp2407
(dp2408
g61
(dp2409
sg70
g2394
sg63
(lp2410
g56
(g57
g58
NtRp2411
(dp2412
g61
(dp2413
g69
I3
ssg70
g2407
sg63
(lp2414
g955
asbasbasbag56
(g72
g58
NtRp2415
(dp2416
g61
(dp2417
sg70
g2369
sg63
(lp2418
g56
(g77
g58
NtRp2419
(dp2420
g61
(dp2421
g81
g82
ssg70
g2415
sg63
(lp2422
S'HTTPS'
p2423
asbag56
(g77
g58
NtRp2424
(dp2425
g61
(dp2426
g88
g89
ssg70
g2415
sg63
(lp2427
S':'
asbag56
(g77
g58
NtRp2428
(dp2429
g61
(dp2430
sg70
g2415
sg63
(lp2431
g56
(g57
g58
NtRp2432
(dp2433
g61
(dp2434
g69
I3
ssg70
g2428
sg63
(lp2435
S'1'
asbasbasbag56
(g72
g58
NtRp2436
(dp2437
g61
(dp2438
sg70
g2369
sg63
(lp2439
g56
(g77
g58
NtRp2440
(dp2441
g61
(dp2442
g81
g82
ssg70
g2436
sg63
(lp2443
S'HTTP_ACCEPT'
p2444
asbag56
(g77
g58
NtRp2445
(dp2446
g61
(dp2447
g88
g89
ssg70
g2436
sg63
(lp2448
S':'
asbag56
(g77
g58
NtRp2449
(dp2450
g61
(dp2451
sg70
g2436
sg63
(lp2452
g56
(g57
g58
NtRp2453
(dp2454
g61
(dp2455
g69
I3
ssg70
g2449
sg63
(lp2456
g998
asbasbasbag56
(g72
g58
NtRp2457
(dp2458
g61
(dp2459
sg70
g2369
sg63
(lp2460
g56
(g77
g58
NtRp2461
(dp2462
g61
(dp2463
g81
g82
ssg70
g2457
sg63
(lp2464
S'HTTP_ACCEPT_ENCODING'
p2465
asbag56
(g77
g58
NtRp2466
(dp2467
g61
(dp2468
g88
g89
ssg70
g2457
sg63
(lp2469
S':'
asbag56
(g77
g58
NtRp2470
(dp2471
g61
(dp2472
sg70
g2457
sg63
(lp2473
g56
(g57
g58
NtRp2474
(dp2475
g61
(dp2476
g69
I3
ssg70
g2470
sg63
(lp2477
g1020
asbasbasbag56
(g72
g58
NtRp2478
(dp2479
g61
(dp2480
sg70
g2369
sg63
(lp2481
g56
(g77
g58
NtRp2482
(dp2483
g61
(dp2484
g81
g82
ssg70
g2478
sg63
(lp2485
S'HTTP_ACCEPT_LANGUAGE'
p2486
asbag56
(g77
g58
NtRp2487
(dp2488
g61
(dp2489
g88
g89
ssg70
g2478
sg63
(lp2490
S':'
asbag56
(g77
g58
NtRp2491
(dp2492
g61
(dp2493
sg70
g2478
sg63
(lp2494
g56
(g57
g58
NtRp2495
(dp2496
g61
(dp2497
g69
I3
ssg70
g2491
sg63
(lp2498
g1042
asbasbasbag56
(g72
g58
NtRp2499
(dp2500
g61
(dp2501
sg70
g2369
sg63
(lp2502
g56
(g77
g58
NtRp2503
(dp2504
g61
(dp2505
g81
g82
ssg70
g2499
sg63
(lp2506
S'HTTP_CACHE_CONTROL'
p2507
asbag56
(g77
g58
NtRp2508
(dp2509
g61
(dp2510
g88
g89
ssg70
g2499
sg63
(lp2511
S':'
asbag56
(g77
g58
NtRp2512
(dp2513
g61
(dp2514
sg70
g2499
sg63
(lp2515
g56
(g57
g58
NtRp2516
(dp2517
g61
(dp2518
g69
I3
ssg70
g2512
sg63
(lp2519
g1064
asbasbasbag56
(g72
g58
NtRp2520
(dp2521
g61
(dp2522
sg70
g2369
sg63
(lp2523
g56
(g77
g58
NtRp2524
(dp2525
g61
(dp2526
g81
g82
ssg70
g2520
sg63
(lp2527
S'HTTP_CONNECTION'
p2528
asbag56
(g77
g58
NtRp2529
(dp2530
g61
(dp2531
g88
g89
ssg70
g2520
sg63
(lp2532
S':'
asbag56
(g77
g58
NtRp2533
(dp2534
g61
(dp2535
sg70
g2520
sg63
(lp2536
g56
(g57
g58
NtRp2537
(dp2538
g61
(dp2539
g69
I3
ssg70
g2533
sg63
(lp2540
g1086
asbasbasbag56
(g72
g58
NtRp2541
(dp2542
g61
(dp2543
sg70
g2369
sg63
(lp2544
g56
(g77
g58
NtRp2545
(dp2546
g61
(dp2547
g81
g82
ssg70
g2541
sg63
(lp2548
S'HTTP_COOKIE'
p2549
asbag56
(g77
g58
NtRp2550
(dp2551
g61
(dp2552
g88
g89
ssg70
g2541
sg63
(lp2553
S':'
asbag56
(g77
g58
NtRp2554
(dp2555
g61
(dp2556
sg70
g2541
sg63
(lp2557
g56
(g57
g58
NtRp2558
(dp2559
g61
(dp2560
g69
I3
ssg70
g2554
sg63
(lp2561
g1108
asbasbasbag56
(g72
g58
NtRp2562
(dp2563
g61
(dp2564
sg70
g2369
sg63
(lp2565
g56
(g77
g58
NtRp2566
(dp2567
g61
(dp2568
g81
g82
ssg70
g2562
sg63
(lp2569
S'HTTP_HOST'
p2570
asbag56
(g77
g58
NtRp2571
(dp2572
g61
(dp2573
g88
g89
ssg70
g2562
sg63
(lp2574
S':'
asbag56
(g77
g58
NtRp2575
(dp2576
g61
(dp2577
sg70
g2562
sg63
(lp2578
g56
(g57
g58
NtRp2579
(dp2580
g61
(dp2581
g69
I3
ssg70
g2575
sg63
(lp2582
g1130
asbasbasbag56
(g72
g58
NtRp2583
(dp2584
g61
(dp2585
sg70
g2369
sg63
(lp2586
g56
(g77
g58
NtRp2587
(dp2588
g61
(dp2589
g81
g82
ssg70
g2583
sg63
(lp2590
S'HTTP_USER_AGENT'
p2591
asbag56
(g77
g58
NtRp2592
(dp2593
g61
(dp2594
g88
g89
ssg70
g2583
sg63
(lp2595
S':'
asbag56
(g77
g58
NtRp2596
(dp2597
g61
(dp2598
sg70
g2583
sg63
(lp2599
g56
(g57
g58
NtRp2600
(dp2601
g61
(dp2602
g69
I3
ssg70
g2596
sg63
(lp2603
g1152
asbasbasbag56
(g72
g58
NtRp2604
(dp2605
g61
(dp2606
sg70
g2369
sg63
(lp2607
g56
(g77
g58
NtRp2608
(dp2609
g61
(dp2610
g81
g82
ssg70
g2604
sg63
(lp2611
S'PATH_INFO'
p2612
asbag56
(g77
g58
NtRp2613
(dp2614
g61
(dp2615
g88
g89
ssg70
g2604
sg63
(lp2616
S':'
asbag56
(g77
g58
NtRp2617
(dp2618
g61
(dp2619
sg70
g2604
sg63
(lp2620
g56
(g57
g58
NtRp2621
(dp2622
g61
(dp2623
g69
I3
ssg70
g2617
sg63
(lp2624
g1459
asbasbasbag56
(g72
g58
NtRp2625
(dp2626
g61
(dp2627
sg70
g2369
sg63
(lp2628
g56
(g77
g58
NtRp2629
(dp2630
g61
(dp2631
g81
g82
ssg70
g2625
sg63
(lp2632
S'PATH_TRANSLATED'
p2633
asbag56
(g77
g58
NtRp2634
(dp2635
g61
(dp2636
g88
g89
ssg70
g2625
sg63
(lp2637
S':'
asbag56
(g77
g58
NtRp2638
(dp2639
g61
(dp2640
sg70
g2625
sg63
(lp2641
g56
(g57
g58
NtRp2642
(dp2643
g61
(dp2644
g69
I3
ssg70
g2638
sg63
(lp2645
g1481
asbasbasbag56
(g72
g58
NtRp2646
(dp2647
g61
(dp2648
sg70
g2369
sg63
(lp2649
g56
(g77
g58
NtRp2650
(dp2651
g61
(dp2652
g81
g82
ssg70
g2646
sg63
(lp2653
S'QUERY_STRING'
p2654
asbag56
(g77
g58
NtRp2655
(dp2656
g61
(dp2657
g88
g89
ssg70
g2646
sg63
(lp2658
S':'
asbag56
(g77
g58
NtRp2659
(dp2660
g61
(dp2661
sg70
g2646
sg63
(lp2662
g56
(g57
g58
NtRp2663
(dp2664
g61
(dp2665
g69
I3
ssg70
g2659
sg63
(lp2666
S''
asbasbasbag56
(g72
g58
NtRp2667
(dp2668
g61
(dp2669
sg70
g2369
sg63
(lp2670
g56
(g77
g58
NtRp2671
(dp2672
g61
(dp2673
g81
g82
ssg70
g2667
sg63
(lp2674
S'REMOTE_ADDR'
p2675
asbag56
(g77
g58
NtRp2676
(dp2677
g61
(dp2678
g88
g89
ssg70
g2667
sg63
(lp2679
S':'
asbag56
(g77
g58
NtRp2680
(dp2681
g61
(dp2682
sg70
g2667
sg63
(lp2683
g56
(g57
g58
NtRp2684
(dp2685
g61
(dp2686
g69
I3
ssg70
g2680
sg63
(lp2687
g189
asbasbasbag56
(g72
g58
NtRp2688
(dp2689
g61
(dp2690
sg70
g2369
sg63
(lp2691
g56
(g77
g58
NtRp2692
(dp2693
g61
(dp2694
g81
g82
ssg70
g2688
sg63
(lp2695
S'REMOTE_PORT'
p2696
asbag56
(g77
g58
NtRp2697
(dp2698
g61
(dp2699
g88
g89
ssg70
g2688
sg63
(lp2700
S':'
asbag56
(g77
g58
NtRp2701
(dp2702
g61
(dp2703
sg70
g2688
sg63
(lp2704
g56
(g57
g58
NtRp2705
(dp2706
g61
(dp2707
g69
I3
ssg70
g2701
sg63
(lp2708
g1545
asbasbasbag56
(g72
g58
NtRp2709
(dp2710
g61
(dp2711
sg70
g2369
sg63
(lp2712
g56
(g77
g58
NtRp2713
(dp2714
g61
(dp2715
g81
g82
ssg70
g2709
sg63
(lp2716
S'REQUEST_METHOD'
p2717
asbag56
(g77
g58
NtRp2718
(dp2719
g61
(dp2720
g88
g89
ssg70
g2709
sg63
(lp2721
S':'
asbag56
(g77
g58
NtRp2722
(dp2723
g61
(dp2724
sg70
g2709
sg63
(lp2725
g56
(g57
g58
NtRp2726
(dp2727
g61
(dp2728
g69
I3
ssg70
g2722
sg63
(lp2729
g1567
asbasbasbag56
(g72
g58
NtRp2730
(dp2731
g61
(dp2732
sg70
g2369
sg63
(lp2733
g56
(g77
g58
NtRp2734
(dp2735
g61
(dp2736
g81
g82
ssg70
g2730
sg63
(lp2737
S'REQUEST_URI'
p2738
asbag56
(g77
g58
NtRp2739
(dp2740
g61
(dp2741
g88
g89
ssg70
g2730
sg63
(lp2742
S':'
asbag56
(g77
g58
NtRp2743
(dp2744
g61
(dp2745
sg70
g2730
sg63
(lp2746
g56
(g57
g58
NtRp2747
(dp2748
g61
(dp2749
g69
I3
ssg70
g2743
sg63
(lp2750
g1589
asbasbasbag56
(g72
g58
NtRp2751
(dp2752
g61
(dp2753
sg70
g2369
sg63
(lp2754
g56
(g77
g58
NtRp2755
(dp2756
g61
(dp2757
g81
g82
ssg70
g2751
sg63
(lp2758
S'SCRIPT_FILENAME'
p2759
asbag56
(g77
g58
NtRp2760
(dp2761
g61
(dp2762
g88
g89
ssg70
g2751
sg63
(lp2763
S':'
asbag56
(g77
g58
NtRp2764
(dp2765
g61
(dp2766
sg70
g2751
sg63
(lp2767
g56
(g57
g58
NtRp2768
(dp2769
g61
(dp2770
g69
I3
ssg70
g2764
sg63
(lp2771
g1611
asbasbasbag56
(g72
g58
NtRp2772
(dp2773
g61
(dp2774
sg70
g2369
sg63
(lp2775
g56
(g77
g58
NtRp2776
(dp2777
g61
(dp2778
g81
g82
ssg70
g2772
sg63
(lp2779
S'SCRIPT_NAME'
p2780
asbag56
(g77
g58
NtRp2781
(dp2782
g61
(dp2783
g88
g89
ssg70
g2772
sg63
(lp2784
S':'
asbag56
(g77
g58
NtRp2785
(dp2786
g61
(dp2787
sg70
g2772
sg63
(lp2788
g56
(g57
g58
NtRp2789
(dp2790
g61
(dp2791
g69
I3
ssg70
g2785
sg63
(lp2792
S''
asbasbasbag56
(g72
g58
NtRp2793
(dp2794
g61
(dp2795
sg70
g2369
sg63
(lp2796
g56
(g77
g58
NtRp2797
(dp2798
g61
(dp2799
g81
g82
ssg70
g2793
sg63
(lp2800
S'SERVER_ADDR'
p2801
asbag56
(g77
g58
NtRp2802
(dp2803
g61
(dp2804
g88
g89
ssg70
g2793
sg63
(lp2805
S':'
asbag56
(g77
g58
NtRp2806
(dp2807
g61
(dp2808
sg70
g2793
sg63
(lp2809
g56
(g57
g58
NtRp2810
(dp2811
g61
(dp2812
g69
I3
ssg70
g2806
sg63
(lp2813
g1654
asbasbasbag56
(g72
g58
NtRp2814
(dp2815
g61
(dp2816
sg70
g2369
sg63
(lp2817
g56
(g77
g58
NtRp2818
(dp2819
g61
(dp2820
g81
g82
ssg70
g2814
sg63
(lp2821
S'SERVER_ADMIN'
p2822
asbag56
(g77
g58
NtRp2823
(dp2824
g61
(dp2825
g88
g89
ssg70
g2814
sg63
(lp2826
S':'
asbag56
(g77
g58
NtRp2827
(dp2828
g61
(dp2829
sg70
g2814
sg63
(lp2830
g56
(g57
g58
NtRp2831
(dp2832
g61
(dp2833
g69
I3
ssg70
g2827
sg63
(lp2834
g1676
asbasbasbag56
(g72
g58
NtRp2835
(dp2836
g61
(dp2837
sg70
g2369
sg63
(lp2838
g56
(g77
g58
NtRp2839
(dp2840
g61
(dp2841
g81
g82
ssg70
g2835
sg63
(lp2842
S'SERVER_NAME'
p2843
asbag56
(g77
g58
NtRp2844
(dp2845
g61
(dp2846
g88
g89
ssg70
g2835
sg63
(lp2847
S':'
asbag56
(g77
g58
NtRp2848
(dp2849
g61
(dp2850
sg70
g2835
sg63
(lp2851
g56
(g57
g58
NtRp2852
(dp2853
g61
(dp2854
g69
I3
ssg70
g2848
sg63
(lp2855
g1698
asbasbasbag56
(g72
g58
NtRp2856
(dp2857
g61
(dp2858
sg70
g2369
sg63
(lp2859
g56
(g77
g58
NtRp2860
(dp2861
g61
(dp2862
g81
g82
ssg70
g2856
sg63
(lp2863
S'SERVER_PORT'
p2864
asbag56
(g77
g58
NtRp2865
(dp2866
g61
(dp2867
g88
g89
ssg70
g2856
sg63
(lp2868
S':'
asbag56
(g77
g58
NtRp2869
(dp2870
g61
(dp2871
sg70
g2856
sg63
(lp2872
g56
(g57
g58
NtRp2873
(dp2874
g61
(dp2875
g69
I3
ssg70
g2869
sg63
(lp2876
g1720
asbasbasbag56
(g72
g58
NtRp2877
(dp2878
g61
(dp2879
sg70
g2369
sg63
(lp2880
g56
(g77
g58
NtRp2881
(dp2882
g61
(dp2883
g81
g82
ssg70
g2877
sg63
(lp2884
S'SERVER_PROTOCOL'
p2885
asbag56
(g77
g58
NtRp2886
(dp2887
g61
(dp2888
g88
g89
ssg70
g2877
sg63
(lp2889
S':'
asbag56
(g77
g58
NtRp2890
(dp2891
g61
(dp2892
sg70
g2877
sg63
(lp2893
g56
(g57
g58
NtRp2894
(dp2895
g61
(dp2896
g69
I3
ssg70
g2890
sg63
(lp2897
g1742
asbasbasbag56
(g72
g58
NtRp2898
(dp2899
g61
(dp2900
sg70
g2369
sg63
(lp2901
g56
(g77
g58
NtRp2902
(dp2903
g61
(dp2904
g81
g82
ssg70
g2898
sg63
(lp2905
S'SERVER_SIGNATURE'
p2906
asbag56
(g77
g58
NtRp2907
(dp2908
g61
(dp2909
g88
g89
ssg70
g2898
sg63
(lp2910
S':'
asbag56
(g77
g58
NtRp2911
(dp2912
g61
(dp2913
sg70
g2898
sg63
(lp2914
g56
(g57
g58
NtRp2915
(dp2916
g61
(dp2917
g69
I3
ssg70
g2911
sg63
(lp2918
g1764
asbasbasbag56
(g72
g58
NtRp2919
(dp2920
g61
(dp2921
sg70
g2369
sg63
(lp2922
g56
(g77
g58
NtRp2923
(dp2924
g61
(dp2925
g81
g82
ssg70
g2919
sg63
(lp2926
S'SERVER_SOFTWARE'
p2927
asbag56
(g77
g58
NtRp2928
(dp2929
g61
(dp2930
g88
g89
ssg70
g2919
sg63
(lp2931
S':'
asbag56
(g77
g58
NtRp2932
(dp2933
g61
(dp2934
sg70
g2919
sg63
(lp2935
g56
(g57
g58
NtRp2936
(dp2937
g61
(dp2938
g69
I3
ssg70
g2932
sg63
(lp2939
g1786
asbasbasbag56
(g72
g58
NtRp2940
(dp2941
g61
(dp2942
sg70
g2369
sg63
(lp2943
g56
(g77
g58
NtRp2944
(dp2945
g61
(dp2946
g81
g82
ssg70
g2940
sg63
(lp2947
S'SSL_TLS_SNI'
p2948
asbag56
(g77
g58
NtRp2949
(dp2950
g61
(dp2951
g88
g89
ssg70
g2940
sg63
(lp2952
S':'
asbag56
(g77
g58
NtRp2953
(dp2954
g61
(dp2955
sg70
g2940
sg63
(lp2956
g56
(g57
g58
NtRp2957
(dp2958
g61
(dp2959
g69
I3
ssg70
g2953
sg63
(lp2960
g1808
asbasbasbag56
(g72
g58
NtRp2961
(dp2962
g61
(dp2963
sg70
g2369
sg63
(lp2964
g56
(g77
g58
NtRp2965
(dp2966
g61
(dp2967
g81
g82
ssg70
g2961
sg63
(lp2968
S'mod_wsgi.application_group'
p2969
asbag56
(g77
g58
NtRp2970
(dp2971
g61
(dp2972
g88
g89
ssg70
g2961
sg63
(lp2973
S':'
asbag56
(g77
g58
NtRp2974
(dp2975
g61
(dp2976
sg70
g2961
sg63
(lp2977
g56
(g57
g58
NtRp2978
(dp2979
g61
(dp2980
g69
I3
ssg70
g2974
sg63
(lp2981
g1216
asbasbasbag56
(g72
g58
NtRp2982
(dp2983
g61
(dp2984
sg70
g2369
sg63
(lp2985
g56
(g77
g58
NtRp2986
(dp2987
g61
(dp2988
g81
g82
ssg70
g2982
sg63
(lp2989
S'mod_wsgi.callable_object'
p2990
asbag56
(g77
g58
NtRp2991
(dp2992
g61
(dp2993
g88
g89
ssg70
g2982
sg63
(lp2994
S':'
asbag56
(g77
g58
NtRp2995
(dp2996
g61
(dp2997
sg70
g2982
sg63
(lp2998
g56
(g57
g58
NtRp2999
(dp3000
g61
(dp3001
g69
I3
ssg70
g2995
sg63
(lp3002
g1238
asbasbasbag56
(g72
g58
NtRp3003
(dp3004
g61
(dp3005
sg70
g2369
sg63
(lp3006
g56
(g77
g58
NtRp3007
(dp3008
g61
(dp3009
g81
g82
ssg70
g3003
sg63
(lp3010
S'mod_wsgi.handler_script'
p3011
asbag56
(g77
g58
NtRp3012
(dp3013
g61
(dp3014
g88
g89
ssg70
g3003
sg63
(lp3015
S':'
asbag56
(g77
g58
NtRp3016
(dp3017
g61
(dp3018
sg70
g3003
sg63
(lp3019
g56
(g57
g58
NtRp3020
(dp3021
g61
(dp3022
g69
I3
ssg70
g3016
sg63
(lp3023
S''
asbasbasbag56
(g72
g58
NtRp3024
(dp3025
g61
(dp3026
sg70
g2369
sg63
(lp3027
g56
(g77
g58
NtRp3028
(dp3029
g61
(dp3030
g81
g82
ssg70
g3024
sg63
(lp3031
S'mod_wsgi.input_chunked'
p3032
asbag56
(g77
g58
NtRp3033
(dp3034
g61
(dp3035
g88
g89
ssg70
g3024
sg63
(lp3036
S':'
asbag56
(g77
g58
NtRp3037
(dp3038
g61
(dp3039
sg70
g3024
sg63
(lp3040
g56
(g57
g58
NtRp3041
(dp3042
g61
(dp3043
g69
I3
ssg70
g3037
sg63
(lp3044
S'0'
asbasbasbag56
(g72
g58
NtRp3045
(dp3046
g61
(dp3047
sg70
g2369
sg63
(lp3048
g56
(g77
g58
NtRp3049
(dp3050
g61
(dp3051
g81
g82
ssg70
g3045
sg63
(lp3052
S'mod_wsgi.listener_host'
p3053
asbag56
(g77
g58
NtRp3054
(dp3055
g61
(dp3056
g88
g89
ssg70
g3045
sg63
(lp3057
S':'
asbag56
(g77
g58
NtRp3058
(dp3059
g61
(dp3060
sg70
g3045
sg63
(lp3061
g56
(g57
g58
NtRp3062
(dp3063
g61
(dp3064
g69
I3
ssg70
g3058
sg63
(lp3065
S''
asbasbasbag56
(g72
g58
NtRp3066
(dp3067
g61
(dp3068
sg70
g2369
sg63
(lp3069
g56
(g77
g58
NtRp3070
(dp3071
g61
(dp3072
g81
g82
ssg70
g3066
sg63
(lp3073
S'mod_wsgi.listener_port'
p3074
asbag56
(g77
g58
NtRp3075
(dp3076
g61
(dp3077
g88
g89
ssg70
g3066
sg63
(lp3078
S':'
asbag56
(g77
g58
NtRp3079
(dp3080
g61
(dp3081
sg70
g3066
sg63
(lp3082
g56
(g57
g58
NtRp3083
(dp3084
g61
(dp3085
g69
I3
ssg70
g3079
sg63
(lp3086
g1323
asbasbasbag56
(g72
g58
NtRp3087
(dp3088
g61
(dp3089
sg70
g2369
sg63
(lp3090
g56
(g77
g58
NtRp3091
(dp3092
g61
(dp3093
g81
g82
ssg70
g3087
sg63
(lp3094
S'mod_wsgi.process_group'
p3095
asbag56
(g77
g58
NtRp3096
(dp3097
g61
(dp3098
g88
g89
ssg70
g3087
sg63
(lp3099
S':'
asbag56
(g77
g58
NtRp3100
(dp3101
g61
(dp3102
sg70
g3087
sg63
(lp3103
g56
(g57
g58
NtRp3104
(dp3105
g61
(dp3106
g69
I3
ssg70
g3100
sg63
(lp3107
g1345
asbasbasbag56
(g72
g58
NtRp3108
(dp3109
g61
(dp3110
sg70
g2369
sg63
(lp3111
g56
(g77
g58
NtRp3112
(dp3113
g61
(dp3114
g81
g82
ssg70
g3108
sg63
(lp3115
S'mod_wsgi.request_handler'
p3116
asbag56
(g77
g58
NtRp3117
(dp3118
g61
(dp3119
g88
g89
ssg70
g3108
sg63
(lp3120
S':'
asbag56
(g77
g58
NtRp3121
(dp3122
g61
(dp3123
sg70
g3108
sg63
(lp3124
g56
(g57
g58
NtRp3125
(dp3126
g61
(dp3127
g69
I3
ssg70
g3121
sg63
(lp3128
g1367
asbasbasbag56
(g72
g58
NtRp3129
(dp3130
g61
(dp3131
sg70
g2369
sg63
(lp3132
g56
(g77
g58
NtRp3133
(dp3134
g61
(dp3135
g81
g82
ssg70
g3129
sg63
(lp3136
S'mod_wsgi.script_reloading'
p3137
asbag56
(g77
g58
NtRp3138
(dp3139
g61
(dp3140
g88
g89
ssg70
g3129
sg63
(lp3141
S':'
asbag56
(g77
g58
NtRp3142
(dp3143
g61
(dp3144
sg70
g3129
sg63
(lp3145
g56
(g57
g58
NtRp3146
(dp3147
g61
(dp3148
g69
I3
ssg70
g3142
sg63
(lp3149
S'1'
asbasbasbag56
(g72
g58
NtRp3150
(dp3151
g61
(dp3152
sg70
g2369
sg63
(lp3153
g56
(g77
g58
NtRp3154
(dp3155
g61
(dp3156
g81
g82
ssg70
g3150
sg63
(lp3157
S'mod_wsgi.version'
p3158
asbag56
(g77
g58
NtRp3159
(dp3160
g61
(dp3161
g88
g89
ssg70
g3150
sg63
(lp3162
S':'
asbag56
(g77
g58
NtRp3163
(dp3164
g61
(dp3165
sg70
g3150
sg63
(lp3166
g56
(g57
g58
NtRp3167
(dp3168
g61
(dp3169
g69
I3
ssg70
g3163
sg63
(lp3170
g56
(g65
g58
NtRp3171
(dp3172
g61
(dp3173
g69
I2
ssg70
Nsg63
(lp3174
g56
(g72
g58
NtRp3175
(dp3176
g61
(dp3177
sg70
g3171
sg63
(lp3178
g56
(g77
g58
NtRp3179
(dp3180
g61
(dp3181
sg70
g3175
sg63
(lp3182
g56
(g57
g58
NtRp3183
(dp3184
g61
(dp3185
g69
I2
ssg70
g3179
sg63
(lp3186
S'3'
asbasbasbag56
(g72
g58
NtRp3187
(dp3188
g61
(dp3189
sg70
g3171
sg63
(lp3190
g56
(g77
g58
NtRp3191
(dp3192
g61
(dp3193
sg70
g3187
sg63
(lp3194
g56
(g57
g58
NtRp3195
(dp3196
g61
(dp3197
g69
I2
ssg70
g3191
sg63
(lp3198
S'3'
asbasbasbasbasbasbasbag56
(g72
g58
NtRp3199
(dp3200
g61
(dp3201
sg70
g2369
sg63
(lp3202
g56
(g77
g58
NtRp3203
(dp3204
g61
(dp3205
g81
g82
ssg70
g3199
sg63
(lp3206
S'wsgi.errors'
p3207
asbag56
(g77
g58
NtRp3208
(dp3209
g61
(dp3210
g88
g89
ssg70
g3199
sg63
(lp3211
S':'
asbag56
(g77
g58
NtRp3212
(dp3213
g61
(dp3214
sg70
g3199
sg63
(lp3215
g56
(g57
g58
NtRp3216
(dp3217
g61
(dp3218
g69
I3
ssg70
g3212
sg63
(lp3219
S'<mod_wsgi.Log object at 0xb98c3390>'
p3220
asbasbasbag56
(g72
g58
NtRp3221
(dp3222
g61
(dp3223
sg70
g2369
sg63
(lp3224
g56
(g77
g58
NtRp3225
(dp3226
g61
(dp3227
g81
g82
ssg70
g3221
sg63
(lp3228
S'wsgi.file_wrapper'
p3229
asbag56
(g77
g58
NtRp3230
(dp3231
g61
(dp3232
g88
g89
ssg70
g3221
sg63
(lp3233
S':'
asbag56
(g77
g58
NtRp3234
(dp3235
g61
(dp3236
sg70
g3221
sg63
(lp3237
g56
(g57
g58
NtRp3238
(dp3239
g61
(dp3240
g69
I3
ssg70
g3234
sg63
(lp3241
S'<built-in method file_wrapper of mod_wsgi.Adapter object at 0xb95bab60>'
p3242
asbasbasbag56
(g72
g58
NtRp3243
(dp3244
g61
(dp3245
sg70
g2369
sg63
(lp3246
g56
(g77
g58
NtRp3247
(dp3248
g61
(dp3249
g81
g82
ssg70
g3243
sg63
(lp3250
S'wsgi.input'
p3251
asbag56
(g77
g58
NtRp3252
(dp3253
g61
(dp3254
g88
g89
ssg70
g3243
sg63
(lp3255
S':'
asbag56
(g77
g58
NtRp3256
(dp3257
g61
(dp3258
sg70
g3243
sg63
(lp3259
g56
(g57
g58
NtRp3260
(dp3261
g61
(dp3262
g69
I3
ssg70
g3256
sg63
(lp3263
S'<cStringIO.StringO object at 0xb9aacca0>'
p3264
asbasbasbag56
(g72
g58
NtRp3265
(dp3266
g61
(dp3267
sg70
g2369
sg63
(lp3268
g56
(g77
g58
NtRp3269
(dp3270
g61
(dp3271
g81
g82
ssg70
g3265
sg63
(lp3272
S'wsgi.multiprocess'
p3273
asbag56
(g77
g58
NtRp3274
(dp3275
g61
(dp3276
g88
g89
ssg70
g3265
sg63
(lp3277
S':'
asbag56
(g77
g58
NtRp3278
(dp3279
g61
(dp3280
sg70
g3265
sg63
(lp3281
g56
(g57
g58
NtRp3282
(dp3283
g61
(dp3284
g69
I3
ssg70
g3278
sg63
(lp3285
g99
asbasbasbag56
(g72
g58
NtRp3286
(dp3287
g61
(dp3288
sg70
g2369
sg63
(lp3289
g56
(g77
g58
NtRp3290
(dp3291
g61
(dp3292
g81
g82
ssg70
g3286
sg63
(lp3293
S'wsgi.multithread'
p3294
asbag56
(g77
g58
NtRp3295
(dp3296
g61
(dp3297
g88
g89
ssg70
g3286
sg63
(lp3298
S':'
asbag56
(g77
g58
NtRp3299
(dp3300
g61
(dp3301
sg70
g3286
sg63
(lp3302
g56
(g57
g58
NtRp3303
(dp3304
g61
(dp3305
g69
I3
ssg70
g3299
sg63
(lp3306
g1960
asbasbasbag56
(g72
g58
NtRp3307
(dp3308
g61
(dp3309
sg70
g2369
sg63
(lp3310
g56
(g77
g58
NtRp3311
(dp3312
g61
(dp3313
g81
g82
ssg70
g3307
sg63
(lp3314
S'wsgi.run_once'
p3315
asbag56
(g77
g58
NtRp3316
(dp3317
g61
(dp3318
g88
g89
ssg70
g3307
sg63
(lp3319
S':'
asbag56
(g77
g58
NtRp3320
(dp3321
g61
(dp3322
sg70
g3307
sg63
(lp3323
g56
(g57
g58
NtRp3324
(dp3325
g61
(dp3326
g69
I3
ssg70
g3320
sg63
(lp3327
g99
asbasbasbag56
(g72
g58
NtRp3328
(dp3329
g61
(dp3330
sg70
g2369
sg63
(lp3331
g56
(g77
g58
NtRp3332
(dp3333
g61
(dp3334
g81
g82
ssg70
g3328
sg63
(lp3335
S'wsgi.url_scheme'
p3336
asbag56
(g77
g58
NtRp3337
(dp3338
g61
(dp3339
g88
g89
ssg70
g3328
sg63
(lp3340
S':'
asbag56
(g77
g58
NtRp3341
(dp3342
g61
(dp3343
sg70
g3328
sg63
(lp3344
g56
(g57
g58
NtRp3345
(dp3346
g61
(dp3347
g69
I3
ssg70
g3341
sg63
(lp3348
g2003
asbasbasbag56
(g72
g58
NtRp3349
(dp3350
g61
(dp3351
sg70
g2369
sg63
(lp3352
g56
(g77
g58
NtRp3353
(dp3354
g61
(dp3355
g81
g82
ssg70
g3349
sg63
(lp3356
S'wsgi.version'
p3357
asbag56
(g77
g58
NtRp3358
(dp3359
g61
(dp3360
g88
g89
ssg70
g3349
sg63
(lp3361
S':'
asbag56
(g77
g58
NtRp3362
(dp3363
g61
(dp3364
sg70
g3349
sg63
(lp3365
g56
(g57
g58
NtRp3366
(dp3367
g61
(dp3368
g69
I3
ssg70
g3362
sg63
(lp3369
S'1'
asbasbasbasbasbasbasbasbasbasbasbasbasbsS'frames'
p3370
(lp3371
(dp3372
S'file'
p3373
S'/home/www-data/web2py/gluon/restricted.py'
p3374
sS'dump'
p3375
(dp3376
S'environment'
p3377
S"{'A': <class 'gluon.html.A'>, 'Auth': <class 'gluon.tools.Auth'>, 'B': <class 'gluon.html.B'>, 'BEAUTIFY': <class 'gluon.html.BEAUTIFY'>, 'BODY': <class 'gluon.html.BODY'>, 'BR': <class 'gluon.html.BR'>, 'BRAZILIAN_DATE': <gluon.validators.IS_DATE object>, 'BUTTON': <class 'gluon.html.BUTTON'>, 'CAT': <class 'gluon.html.CAT'>, 'CENTER': <class 'gluon.html.CENTER'>, ...}"
p3378
sS'ccode'
p3379
S'<code object <module> at 0xb990ea88, file "/home...pplications/scrum/controllers/ticket.py", line 2>'
p3380
ssS'lnum'
p3381
I192
sS'lines'
p3382
(dp3383
I192
S'        exec ccode in environment'
p3384
sI193
S'    except HTTP:'
p3385
sI194
S'        raise'
p3386
sI195
S'    except Exception, error:'
p3387
sI196
S'        # XXX Show exception in Wing IDE if running in debugger'
p3388
sI187
S'    try:'
p3389
sI188
S'        if type(code) == types.CodeType:'
p3390
sI189
S'            ccode = code'
p3391
sI190
S'        else:'
p3392
sI191
S'            ccode = compile2(code,layer)'
p3393
ssS'call'
p3394
S"(code='# coding: utf8# tente algo como\\n@auth.requires(a...orm=form)\\n\\nresponse._vars=response._caller(novo)\\n', environment={'A': <class 'gluon.html.A'>, 'Auth': <class 'gluon.tools.Auth'>, 'B': <class 'gluon.html.B'>, 'BEAUTIFY': <class 'gluon.html.BEAUTIFY'>, 'BODY': <class 'gluon.html.BODY'>, 'BR': <class 'gluon.html.BR'>, 'BRAZILIAN_DATE': <gluon.validators.IS_DATE object>, 'BUTTON': <class 'gluon.html.BUTTON'>, 'CAT': <class 'gluon.html.CAT'>, 'CENTER': <class 'gluon.html.CENTER'>, ...}, layer='/home/www-data/web2py/applications/scrum/controllers/ticket.py')"
p3395
sS'func'
p3396
S'restricted'
p3397
sa(dp3398
g3373
S'/home/www-data/web2py/applications/scrum/controllers/ticket.py'
p3399
sg3375
(dp3400
sg3381
I16
sg3382
(dp3401
I5
S'                 (db.ticket.analista == auth.user_id)).select()'
p3402
sI6
S'    return dict(tickets=tickets)'
p3403
sI7
S''
sI8
S'@auth.requires(auth.has_membership(config.grupo_consultor))'
p3404
sI9
S'def novo():'
p3405
sI10
S"    response.view = 'simple_form.html'"
p3406
sI11
S'    db.ticket.consultor.default = auth.user_id'
p3407
sI12
S'    db.ticket.consultor.writable = False'
p3408
sI13
S'    form = crud.create(db.ticket)'
p3409
sI14
S'    return dict(form=form)'
p3410
ssg3394
S'()'
p3411
sg3396
S'<module>'
p3412
sa(dp3413
g3373
S'/home/www-data/web2py/gluon/globals.py'
p3414
sg3375
(dp3415
S'self'
p3416
S'undefined'
p3417
sS'f'
S'<function novo>'
p3418
ssg3381
I145
sg3382
(dp3419
I140
S'        self.meta = Storage()      # used by web2py_ajax.html'
p3420
sI141
S'        self.menu = []             # used by the default view layout'
p3421
sI142
S'        self.files = []            # used by web2py_ajax.html'
p3422
sI143
S'        self.generic_patterns = [] # patterns to allow generic views'
p3423
sI144
S'        self._vars = None'
p3424
sI145
S'        self._caller = lambda f: f()'
p3425
sI146
S'        self._view_environment = None'
p3426
sI147
S'        self._custom_commit = None'
p3427
sI148
S'        self._custom_rollback = None'
p3428
sI149
S''
ssg3394
S'(f=<function novo>)'
p3429
sg3396
S'<lambda>'
p3430
sa(dp3431
g3373
S'/home/www-data/web2py/gluon/tools.py'
p3432
sg3375
(dp3433
S'action'
p3434
S'<function novo>'
p3435
sS'a'
S'()'
p3436
sS'b'
g44
ssg3381
I2429
sg3382
(dp3437
I2432
S'            f.__dict__.update(action.__dict__)'
p3438
sI2433
S'            return f'
p3439
sI2424
S'                            self.settings.on_failed_authentication,'
p3440
sI2425
S"                            self.settings.login_url + '?_next='+urllib.quote(next))"
p3441
sI2426
S'                    else:'
p3442
sI2427
S'                        current.session.flash = self.messages.access_denied'
p3443
sI2428
S'                        return call_or_redirect(self.settings.on_failed_authorization)'
p3444
sI2429
S'                return action(*a, **b)'
p3445
sI2430
S'            f.__doc__ = action.__doc__'
p3446
sI2431
S'            f.__name__ = action.__name__'
p3447
ssg3394
S'(*a=(), **b={})'
p3448
sg3396
S'f'
sa(dp3449
g3373
S'/home/www-data/web2py/applications/scrum/controllers/ticket.py'
p3450
sg3375
(dp3451
S'global crud'
p3452
S'<gluon.tools.Crud object>'
p3453
sS'crud.create'
p3454
S'<bound method Crud.create of <gluon.tools.Crud object>>'
p3455
sS'global db'
p3456
S"<DAL {'auth_event': <Table {'origin': <gluon.dal... 'id': <gluon.dal.Field object at 0xb9e320ac>}>}>"
p3457
sS'form'
p3458
g3417
sS'db.ticket'
p3459
S"<Table {'ALL': <gluon.dal.SQLALL object at 0xb9e...>, 'id': <gluon.dal.Field object at 0xb9e1ec6c>}>"
p3460
ssg3381
I13
sg3382
(dp3461
I5
S'                 (db.ticket.analista == auth.user_id)).select()'
p3462
sI6
S'    return dict(tickets=tickets)'
p3463
sI7
S''
sI8
S'@auth.requires(auth.has_membership(config.grupo_consultor))'
p3464
sI9
S'def novo():'
p3465
sI10
S"    response.view = 'simple_form.html'"
p3466
sI11
S'    db.ticket.consultor.default = auth.user_id'
p3467
sI12
S'    db.ticket.consultor.writable = False'
p3468
sI13
S'    form = crud.create(db.ticket)'
p3469
sI14
S'    return dict(form=form)'
p3470
ssg3394
S'()'
p3471
sg3396
S'novo'
p3472
sa(dp3473
g3373
S'/home/www-data/web2py/gluon/tools.py'
p3474
sg3375
(dp3475
S'formname'
p3476
S'<function <lambda>>'
p3477
ssg3381
I3136
sg3382
(dp3478
I3136
S'            formname=formname,'
p3479
sI3137
S'            )'
p3480
sI3138
S''
sI3139
S'    def read(self, table, record):'
p3481
sI3140
S'        if not (isinstance(table, self.db.Table) or table in self.db.tables) \\'
p3482
sI3131
S'            onvalidation=onvalidation,'
p3483
sI3132
S'            onaccept=onaccept,'
p3484
sI3133
S'            log=log,'
p3485
sI3134
S'            message=message,'
p3486
sI3135
S'            deletable=False,'
p3487
ssg3394
S"(self=<gluon.tools.Crud object>, table=<Table {'ALL': <gluon.dal.SQLALL object at 0xb9e...>, 'id': <gluon.dal.Field object at 0xb9e1ec6c>}>, next=None, onvalidation=<Storage {}>, onaccept=<Storage {'item_biv': [<function <lambda> at 0xb932f72c>, <function <lambda> at 0xb932f2cc>]}>, log='Registro %(id)s criado', message='Registro Criado', formname=<function <lambda>>)"
p3488
sg3396
S'create'
p3489
sa(dp3490
g3373
S'/home/www-data/web2py/gluon/tools.py'
p3491
sg3375
(dp3492
S'self'
p3493
S'<gluon.tools.Crud object>'
p3494
sS'separator'
p3495
g3417
sS'self.settings.label_separator'
p3496
S"': '"
p3497
sS'self.settings'
p3498
S"<Storage {'showid': False, 'delete_onaccept': <S...ble': True, 'create_onvalidation': <Storage {}>}>"
p3499
ssg3381
I3048
sg3382
(dp3500
I3043
S'            submit_button=self.messages.submit_button,'
p3501
sI3044
S'            delete_label=self.messages.delete_label,'
p3502
sI3045
S'            deletable=deletable,'
p3503
sI3046
S'            upload=self.settings.download_url,'
p3504
sI3047
S'            formstyle=self.settings.formstyle,'
p3505
sI3048
S'            separator=self.settings.label_separator'
p3506
sI3049
S'            )'
p3507
sI3050
S'        self.accepted = False'
p3508
sI3051
S'        self.deleted = False'
p3509
sI3052
S'        captcha = self.settings.update_captcha or \\'
p3510
ssg3394
S"(self=<gluon.tools.Crud object>, table=<Table {'ALL': <gluon.dal.SQLALL object at 0xb9e...>, 'id': <gluon.dal.Field object at 0xb9e1ec6c>}>, record=None, next=None, onvalidation=<Storage {}>, onaccept=<Storage {'item_biv': [<function <lambda> at 0xb932f72c>, <function <lambda> at 0xb932f2cc>]}>, ondelete=<Storage {}>, log='Registro %(id)s criado', message='Registro Criado', deletable=False, formname=<function <lambda>>)"
p3511
sg3396
S'update'
p3512
sa(dp3513
g3373
S'/home/www-data/web2py/gluon/sqlhtml.py'
p3514
sg3375
(dp3515
S'default'
p3516
S'None'
p3517
sS'self.widgets.options.widget'
p3518
S'<function widget>'
p3519
sS'self'
p3520
S'<gluon.sqlhtml.SQLFORM object>'
p3521
sS'inp'
p3522
S"'Carlos Jos\\xc3\\xa9 da Costa (1)'"
p3523
sS'self.widgets'
p3524
S"<Storage {'multiple': <class 'gluon.sqlhtml.Mult...ss 'gluon.sqlhtml.OptionsWidget'>, 'blob': None}>"
p3525
sS'field'
p3526
S'<gluon.dal.Field object>'
p3527
sS'self.widgets.options'
p3528
S"<class 'gluon.sqlhtml.OptionsWidget'>"
p3529
ssg3381
I830
sg3382
(dp3530
I832
S'                    inp = self.widgets.multiple.widget(field, default)'
p3531
sI833
S'                if fieldname in keepopts:'
p3532
sI834
S"                    inpval = TAG[''](*inp.components)"
p3533
sI825
S"                    inpval = 'checked'"
p3534
sI826
S'                else:'
p3535
sI827
S"                    inpval = ''"
p3536
sI828
S'            elif OptionsWidget.has_options(field):'
p3537
sI829
S'                if not field.requires.multiple:'
p3538
sI830
S'                    inp = self.widgets.options.widget(field, default)'
p3539
sI831
S'                else:'
p3540
ssg3394
S"(self=<gluon.sqlhtml.SQLFORM object>, table=<Table {'ALL': <gluon.dal.SQLALL object at 0xb9e...>, 'id': <gluon.dal.Field object at 0xb9e1ec6c>}>, record=None, deletable=False, linkto=None, upload='/scrum/default/download', fields=['id', 'chamado', 'consultor', 'analista', 'estado', 'patch', 'local_teste'], labels=None, col3={}, submit_button='Enviar', delete_label='Marque para deletar:', showid=False, readonly=False, comments=True, keepopts=[], ignore_rw=False, record_id=None, formstyle='table3cols', buttons=['submit'], separator=': ', **attributes={'hidden': {'_next': None}})"
p3541
sg3396
g49
sa(dp3542
g3373
S'/home/www-data/web2py/gluon/sqlhtml.py'
p3543
sg3375
(dp3544
S'].options'
p3545
g3417
sS'requires'
p3546
S'[<gluon.validators.IS_IN_DB object>]'
p3547
sS'options'
p3548
g3417
ssg3381
I218
sg3382
(dp3549
I213
S'        requires = field.requires'
p3550
sI214
S'        if not isinstance(requires, (list, tuple)):'
p3551
sI215
S'            requires = [requires]'
p3552
sI216
S'        if requires:'
p3553
sI217
S"            if hasattr(requires[0], 'options'):"
p3554
sI218
S'                options = requires[0].options()'
p3555
sI219
S'            else:'
p3556
sI220
S"                raise SyntaxError, 'widget cannot determine options of %s' \\"
p3557
sI221
S'                    % field'
p3558
sI222
S'        opts = [OPTION(v, _value=k) for (k, v) in options]'
p3559
ssg3394
S'(field=<gluon.dal.Field object>, value=None, **attributes={})'
p3560
sg3396
S'widget'
p3561
sa(dp3562
g3373
S'/home/www-data/web2py/gluon/validators.py'
p3563
sg3375
(dp3564
S'self'
p3565
S'<gluon.validators.IS_IN_DB object>'
p3566
sS'self.build_set'
p3567
S'<bound method IS_IN_DB.build_set of <gluon.validators.IS_IN_DB object>>'
p3568
ssg3381
I438
sg3382
(dp3569
I433
S'            self.labels = [self.label % dict(r) for r in records]'
p3570
sI434
S'        else:'
p3571
sI435
S'            self.labels = [self.label(r) for r in records]'
p3572
sI436
S''
sI437
S'    def options(self, zero=True):'
p3573
sI438
S'        self.build_set()'
p3574
sI439
S'        items = [(k, self.labels[i]) for (i, k) in enumerate(self.theset)]'
p3575
sI440
S'        if self.sort:'
p3576
sI441
S'            items.sort(options_sorter)'
p3577
sI442
S'        if zero and self.zero != None and not self.multiple:'
p3578
ssg3394
S'(self=<gluon.validators.IS_IN_DB object>, zero=True)'
p3579
sg3396
S'options'
p3580
sa(dp3581
g3373
S'/home/www-data/web2py/gluon/validators.py'
p3582
sg3375
(dp3583
S'self.labels'
p3584
g3417
sS'self'
p3585
S'<gluon.validators.IS_IN_DB object>'
p3586
sS'records'
p3587
S'<gluon.dal.Rows object>'
p3588
sS'r'
S"<Row {'auth_event': <gluon.dal.Set object at 0xb...lete_record': <function <lambda> at 0xb932f534>}>"
p3589
sS'self.label'
p3590
S"'%(first_name)'"
p3591
sS'builtindict'
p3592
S"<type 'dict'>"
p3593
ssg3381
I433
sg3382
(dp3594
I428
S"            orderby = self.orderby or reduce(lambda a,b:a|b,(f for f in fields if not f.name=='id'))"
p3595
sI429
S'            dd = dict(orderby=orderby, cache=self.cache)'
p3596
sI430
S'            records = self.dbset.select(self.dbset.db[self.ktable].ALL, **dd)'
p3597
sI431
S'        self.theset = [str(r[self.kfield]) for r in records]'
p3598
sI432
S'        if isinstance(self.label,str):'
p3599
sI433
S'            self.labels = [self.label % dict(r) for r in records]'
p3600
sI434
S'        else:'
p3601
sI435
S'            self.labels = [self.label(r) for r in records]'
p3602
sI436
S''
sI437
S'    def options(self, zero=True):'
p3603
ssg3394
S'(self=<gluon.validators.IS_IN_DB object>)'
p3604
sg3396
S'build_set'
p3605
sasS'pyver'
p3606
S'Python 2.7.1+: /usr/bin/python'
p3607
sS'session'
p3608
g56
(g57
g58
NtRp3609
(dp3610
g61
(dp3611
sg63
(lp3612
g56
(g65
g58
NtRp3613
(dp3614
g61
(dp3615
g69
I5
ssg70
Nsg63
(lp3616
g56
(g72
g58
NtRp3617
(dp3618
g61
(dp3619
sg70
g3613
sg63
(lp3620
g56
(g77
g58
NtRp3621
(dp3622
g61
(dp3623
g81
g82
ssg70
g3617
sg63
(lp3624
S'auth'
p3625
asbag56
(g77
g58
NtRp3626
(dp3627
g61
(dp3628
g88
g89
ssg70
g3617
sg63
(lp3629
S':'
asbag56
(g77
g58
NtRp3630
(dp3631
g61
(dp3632
sg70
g3617
sg63
(lp3633
g56
(g57
g58
NtRp3634
(dp3635
g61
(dp3636
g69
I5
ssg70
g3630
sg63
(lp3637
g56
(g65
g58
NtRp3638
(dp3639
g61
(dp3640
g69
I4
ssg70
Nsg63
(lp3641
g56
(g72
g58
NtRp3642
(dp3643
g61
(dp3644
sg70
g3638
sg63
(lp3645
g56
(g77
g58
NtRp3646
(dp3647
g61
(dp3648
g81
g82
ssg70
g3642
sg63
(lp3649
S'expiration'
p3650
asbag56
(g77
g58
NtRp3651
(dp3652
g61
(dp3653
g88
g89
ssg70
g3642
sg63
(lp3654
S':'
asbag56
(g77
g58
NtRp3655
(dp3656
g61
(dp3657
sg70
g3642
sg63
(lp3658
g56
(g57
g58
NtRp3659
(dp3660
g61
(dp3661
g69
I4
ssg70
g3655
sg63
(lp3662
S'3600'
p3663
asbasbasbag56
(g72
g58
NtRp3664
(dp3665
g61
(dp3666
sg70
g3638
sg63
(lp3667
g56
(g77
g58
NtRp3668
(dp3669
g61
(dp3670
g81
g82
ssg70
g3664
sg63
(lp3671
S'hmac_key'
p3672
asbag56
(g77
g58
NtRp3673
(dp3674
g61
(dp3675
g88
g89
ssg70
g3664
sg63
(lp3676
S':'
asbag56
(g77
g58
NtRp3677
(dp3678
g61
(dp3679
sg70
g3664
sg63
(lp3680
g56
(g57
g58
NtRp3681
(dp3682
g61
(dp3683
g69
I4
ssg70
g3677
sg63
(lp3684
S'c18b391f-62d1-4a51-8b2b-1e809e4c900d'
p3685
asbasbasbag56
(g72
g58
NtRp3686
(dp3687
g61
(dp3688
sg70
g3638
sg63
(lp3689
g56
(g77
g58
NtRp3690
(dp3691
g61
(dp3692
g81
g82
ssg70
g3686
sg63
(lp3693
S'last_visit'
p3694
asbag56
(g77
g58
NtRp3695
(dp3696
g61
(dp3697
g88
g89
ssg70
g3686
sg63
(lp3698
S':'
asbag56
(g77
g58
NtRp3699
(dp3700
g61
(dp3701
sg70
g3686
sg63
(lp3702
g56
(g57
g58
NtRp3703
(dp3704
g61
(dp3705
g69
I4
ssg70
g3699
sg63
(lp3706
S'datetime.datetime(2011, 9, 8, 16, 16, 30, 704136)'
p3707
asbasbasbag56
(g72
g58
NtRp3708
(dp3709
g61
(dp3710
sg70
g3638
sg63
(lp3711
g56
(g77
g58
NtRp3712
(dp3713
g61
(dp3714
g81
g82
ssg70
g3708
sg63
(lp3715
S'user'
p3716
asbag56
(g77
g58
NtRp3717
(dp3718
g61
(dp3719
g88
g89
ssg70
g3708
sg63
(lp3720
S':'
asbag56
(g77
g58
NtRp3721
(dp3722
g61
(dp3723
sg70
g3708
sg63
(lp3724
g56
(g57
g58
NtRp3725
(dp3726
g61
(dp3727
g69
I4
ssg70
g3721
sg63
(lp3728
g56
(g65
g58
NtRp3729
(dp3730
g61
(dp3731
g69
I3
ssg70
Nsg63
(lp3732
g56
(g72
g58
NtRp3733
(dp3734
g61
(dp3735
sg70
g3729
sg63
(lp3736
g56
(g77
g58
NtRp3737
(dp3738
g61
(dp3739
g81
g82
ssg70
g3733
sg63
(lp3740
S'email'
p3741
asbag56
(g77
g58
NtRp3742
(dp3743
g61
(dp3744
g88
g89
ssg70
g3733
sg63
(lp3745
S':'
asbag56
(g77
g58
NtRp3746
(dp3747
g61
(dp3748
sg70
g3733
sg63
(lp3749
g56
(g57
g58
NtRp3750
(dp3751
g61
(dp3752
g69
I3
ssg70
g3746
sg63
(lp3753
S'carlos.mg@vilesoft.com.br'
p3754
asbasbasbag56
(g72
g58
NtRp3755
(dp3756
g61
(dp3757
sg70
g3729
sg63
(lp3758
g56
(g77
g58
NtRp3759
(dp3760
g61
(dp3761
g81
g82
ssg70
g3755
sg63
(lp3762
S'first_name'
p3763
asbag56
(g77
g58
NtRp3764
(dp3765
g61
(dp3766
g88
g89
ssg70
g3755
sg63
(lp3767
S':'
asbag56
(g77
g58
NtRp3768
(dp3769
g61
(dp3770
sg70
g3755
sg63
(lp3771
g56
(g57
g58
NtRp3772
(dp3773
g61
(dp3774
g69
I3
ssg70
g3768
sg63
(lp3775
S'Carlos Jos\xc3\xa9'
p3776
asbasbasbag56
(g72
g58
NtRp3777
(dp3778
g61
(dp3779
sg70
g3729
sg63
(lp3780
g56
(g77
g58
NtRp3781
(dp3782
g61
(dp3783
g81
g82
ssg70
g3777
sg63
(lp3784
S'id'
p3785
asbag56
(g77
g58
NtRp3786
(dp3787
g61
(dp3788
g88
g89
ssg70
g3777
sg63
(lp3789
S':'
asbag56
(g77
g58
NtRp3790
(dp3791
g61
(dp3792
sg70
g3777
sg63
(lp3793
g56
(g57
g58
NtRp3794
(dp3795
g61
(dp3796
g69
I3
ssg70
g3790
sg63
(lp3797
S'1'
asbasbasbag56
(g72
g58
NtRp3798
(dp3799
g61
(dp3800
sg70
g3729
sg63
(lp3801
g56
(g77
g58
NtRp3802
(dp3803
g61
(dp3804
g81
g82
ssg70
g3798
sg63
(lp3805
S'last_name'
p3806
asbag56
(g77
g58
NtRp3807
(dp3808
g61
(dp3809
g88
g89
ssg70
g3798
sg63
(lp3810
S':'
asbag56
(g77
g58
NtRp3811
(dp3812
g61
(dp3813
sg70
g3798
sg63
(lp3814
g56
(g57
g58
NtRp3815
(dp3816
g61
(dp3817
g69
I3
ssg70
g3811
sg63
(lp3818
S'da Costa'
p3819
asbasbasbag56
(g72
g58
NtRp3820
(dp3821
g61
(dp3822
sg70
g3729
sg63
(lp3823
g56
(g77
g58
NtRp3824
(dp3825
g61
(dp3826
g81
g82
ssg70
g3820
sg63
(lp3827
S'password'
p3828
asbag56
(g77
g58
NtRp3829
(dp3830
g61
(dp3831
g88
g89
ssg70
g3820
sg63
(lp3832
S':'
asbag56
(g77
g58
NtRp3833
(dp3834
g61
(dp3835
sg70
g3820
sg63
(lp3836
g56
(g57
g58
NtRp3837
(dp3838
g61
(dp3839
g69
I3
ssg70
g3833
sg63
(lp3840
S'00a7a128f71552b063e36943370dd0944d5adb4000c6382d33eb3e1a93dc679cb99beb47e3003d318803f96ef839a18a379eae2e2bb917ca3c52c4e45231b331'
p3841
asbasbasbag56
(g72
g58
NtRp3842
(dp3843
g61
(dp3844
sg70
g3729
sg63
(lp3845
g56
(g77
g58
NtRp3846
(dp3847
g61
(dp3848
g81
g82
ssg70
g3842
sg63
(lp3849
S'registration_key'
p3850
asbag56
(g77
g58
NtRp3851
(dp3852
g61
(dp3853
g88
g89
ssg70
g3842
sg63
(lp3854
S':'
asbag56
(g77
g58
NtRp3855
(dp3856
g61
(dp3857
sg70
g3842
sg63
(lp3858
g56
(g57
g58
NtRp3859
(dp3860
g61
(dp3861
g69
I3
ssg70
g3855
sg63
(lp3862
S''
asbasbasbag56
(g72
g58
NtRp3863
(dp3864
g61
(dp3865
sg70
g3729
sg63
(lp3866
g56
(g77
g58
NtRp3867
(dp3868
g61
(dp3869
g81
g82
ssg70
g3863
sg63
(lp3870
S'reset_password_key'
p3871
asbag56
(g77
g58
NtRp3872
(dp3873
g61
(dp3874
g88
g89
ssg70
g3863
sg63
(lp3875
S':'
asbag56
(g77
g58
NtRp3876
(dp3877
g61
(dp3878
sg70
g3863
sg63
(lp3879
g56
(g57
g58
NtRp3880
(dp3881
g61
(dp3882
g69
I3
ssg70
g3876
sg63
(lp3883
S''
asbasbasbasbasbasbasbasbasbasbasbag56
(g72
g58
NtRp3884
(dp3885
g61
(dp3886
sg70
g3613
sg63
(lp3887
g56
(g77
g58
NtRp3888
(dp3889
g61
(dp3890
g81
g82
ssg70
g3884
sg63
(lp3891
S'last_query'
p3892
asbag56
(g77
g58
NtRp3893
(dp3894
g61
(dp3895
g88
g89
ssg70
g3884
sg63
(lp3896
S':'
asbag56
(g77
g58
NtRp3897
(dp3898
g61
(dp3899
sg70
g3884
sg63
(lp3900
g56
(g57
g58
NtRp3901
(dp3902
g61
(dp3903
g69
I5
ssg70
g3897
sg63
(lp3904
S'db.auth_user.id>0'
p3905
asbasbasbasbasbsS'etype'
p3906
S"<type 'exceptions.KeyError'>"
p3907
sS'date'
p3908
S'Thu Sep  8 16:22:09 2011'
p3909
sS'response'
p3910
g56
(g57
g58
NtRp3911
(dp3912
g61
(dp3913
sg63
(lp3914
g56
(g65
g58
NtRp3915
(dp3916
g61
(dp3917
g69
I5
ssg70
Nsg63
(lp3918
g56
(g72
g58
NtRp3919
(dp3920
g61
(dp3921
sg70
g3915
sg63
(lp3922
g56
(g77
g58
NtRp3923
(dp3924
g61
(dp3925
g81
g82
ssg70
g3919
sg63
(lp3926
g154
asbag56
(g77
g58
NtRp3927
(dp3928
g61
(dp3929
g88
g89
ssg70
g3919
sg63
(lp3930
S':'
asbag56
(g77
g58
NtRp3931
(dp3932
g61
(dp3933
sg70
g3919
sg63
(lp3934
g56
(g57
g58
NtRp3935
(dp3936
g61
(dp3937
g69
I5
ssg70
g3931
sg63
(lp3938
S'<cStringIO.StringO object at 0xb9e2dea0>'
p3939
asbasbasbag56
(g72
g58
NtRp3940
(dp3941
g61
(dp3942
sg70
g3915
sg63
(lp3943
g56
(g77
g58
NtRp3944
(dp3945
g61
(dp3946
g81
g82
ssg70
g3940
sg63
(lp3947
g220
asbag56
(g77
g58
NtRp3948
(dp3949
g61
(dp3950
g88
g89
ssg70
g3940
sg63
(lp3951
S':'
asbag56
(g77
g58
NtRp3952
(dp3953
g61
(dp3954
sg70
g3940
sg63
(lp3955
g56
(g57
g58
NtRp3956
(dp3957
g61
(dp3958
g69
I5
ssg70
g3952
sg63
(lp3959
g56
(g65
g58
NtRp3960
(dp3961
g61
(dp3962
g69
I4
ssg70
Nsg63
(lp3963
g56
(g72
g58
NtRp3964
(dp3965
g61
(dp3966
sg70
g3960
sg63
(lp3967
g56
(g77
g58
NtRp3968
(dp3969
g61
(dp3970
g81
g82
ssg70
g3964
sg63
(lp3971
S'session_id_scrum'
p3972
asbag56
(g77
g58
NtRp3973
(dp3974
g61
(dp3975
g88
g89
ssg70
g3964
sg63
(lp3976
S':'
asbag56
(g77
g58
NtRp3977
(dp3978
g61
(dp3979
sg70
g3964
sg63
(lp3980
g56
(g57
g58
NtRp3981
(dp3982
g61
(dp3983
g69
I4
ssg70
g3977
sg63
(lp3984
g56
(g65
g58
NtRp3985
(dp3986
g61
(dp3987
g69
I3
ssg70
Nsg63
(lp3988
g56
(g72
g58
NtRp3989
(dp3990
g61
(dp3991
sg70
g3985
sg63
(lp3992
g56
(g77
g58
NtRp3993
(dp3994
g61
(dp3995
g81
g82
ssg70
g3989
sg63
(lp3996
g270
asbag56
(g77
g58
NtRp3997
(dp3998
g61
(dp3999
g88
g89
ssg70
g3989
sg63
(lp4000
S':'
asbag56
(g77
g58
NtRp4001
(dp4002
g61
(dp4003
sg70
g3989
sg63
(lp4004
g56
(g57
g58
NtRp4005
(dp4006
g61
(dp4007
g69
I3
ssg70
g4001
sg63
(lp4008
S''
asbasbasbag56
(g72
g58
NtRp4009
(dp4010
g61
(dp4011
sg70
g3985
sg63
(lp4012
g56
(g77
g58
NtRp4013
(dp4014
g61
(dp4015
g81
g82
ssg70
g4009
sg63
(lp4016
g291
asbag56
(g77
g58
NtRp4017
(dp4018
g61
(dp4019
g88
g89
ssg70
g4009
sg63
(lp4020
S':'
asbag56
(g77
g58
NtRp4021
(dp4022
g61
(dp4023
sg70
g4009
sg63
(lp4024
g56
(g57
g58
NtRp4025
(dp4026
g61
(dp4027
g69
I3
ssg70
g4021
sg63
(lp4028
S''
asbasbasbag56
(g72
g58
NtRp4029
(dp4030
g61
(dp4031
sg70
g3985
sg63
(lp4032
g56
(g77
g58
NtRp4033
(dp4034
g61
(dp4035
g81
g82
ssg70
g4029
sg63
(lp4036
g312
asbag56
(g77
g58
NtRp4037
(dp4038
g61
(dp4039
g88
g89
ssg70
g4029
sg63
(lp4040
S':'
asbag56
(g77
g58
NtRp4041
(dp4042
g61
(dp4043
sg70
g4029
sg63
(lp4044
g56
(g57
g58
NtRp4045
(dp4046
g61
(dp4047
g69
I3
ssg70
g4041
sg63
(lp4048
S''
asbasbasbag56
(g72
g58
NtRp4049
(dp4050
g61
(dp4051
sg70
g3985
sg63
(lp4052
g56
(g77
g58
NtRp4053
(dp4054
g61
(dp4055
g81
g82
ssg70
g4049
sg63
(lp4056
g333
asbag56
(g77
g58
NtRp4057
(dp4058
g61
(dp4059
g88
g89
ssg70
g4049
sg63
(lp4060
S':'
asbag56
(g77
g58
NtRp4061
(dp4062
g61
(dp4063
sg70
g4049
sg63
(lp4064
g56
(g57
g58
NtRp4065
(dp4066
g61
(dp4067
g69
I3
ssg70
g4061
sg63
(lp4068
S''
asbasbasbag56
(g72
g58
NtRp4069
(dp4070
g61
(dp4071
sg70
g3985
sg63
(lp4072
g56
(g77
g58
NtRp4073
(dp4074
g61
(dp4075
g81
g82
ssg70
g4069
sg63
(lp4076
g354
asbag56
(g77
g58
NtRp4077
(dp4078
g61
(dp4079
g88
g89
ssg70
g4069
sg63
(lp4080
S':'
asbag56
(g77
g58
NtRp4081
(dp4082
g61
(dp4083
sg70
g4069
sg63
(lp4084
g56
(g57
g58
NtRp4085
(dp4086
g61
(dp4087
g69
I3
ssg70
g4081
sg63
(lp4088
S''
asbasbasbag56
(g72
g58
NtRp4089
(dp4090
g61
(dp4091
sg70
g3985
sg63
(lp4092
g56
(g77
g58
NtRp4093
(dp4094
g61
(dp4095
g81
g82
ssg70
g4089
sg63
(lp4096
g375
asbag56
(g77
g58
NtRp4097
(dp4098
g61
(dp4099
g88
g89
ssg70
g4089
sg63
(lp4100
S':'
asbag56
(g77
g58
NtRp4101
(dp4102
g61
(dp4103
sg70
g4089
sg63
(lp4104
g56
(g57
g58
NtRp4105
(dp4106
g61
(dp4107
g69
I3
ssg70
g4101
sg63
(lp4108
S'/'
asbasbasbag56
(g72
g58
NtRp4109
(dp4110
g61
(dp4111
sg70
g3985
sg63
(lp4112
g56
(g77
g58
NtRp4113
(dp4114
g61
(dp4115
g81
g82
ssg70
g4109
sg63
(lp4116
g396
asbag56
(g77
g58
NtRp4117
(dp4118
g61
(dp4119
g88
g89
ssg70
g4109
sg63
(lp4120
S':'
asbag56
(g77
g58
NtRp4121
(dp4122
g61
(dp4123
sg70
g4109
sg63
(lp4124
g56
(g57
g58
NtRp4125
(dp4126
g61
(dp4127
g69
I3
ssg70
g4121
sg63
(lp4128
S''
asbasbasbag56
(g72
g58
NtRp4129
(dp4130
g61
(dp4131
sg70
g3985
sg63
(lp4132
g56
(g77
g58
NtRp4133
(dp4134
g61
(dp4135
g81
g82
ssg70
g4129
sg63
(lp4136
g417
asbag56
(g77
g58
NtRp4137
(dp4138
g61
(dp4139
g88
g89
ssg70
g4129
sg63
(lp4140
S':'
asbag56
(g77
g58
NtRp4141
(dp4142
g61
(dp4143
sg70
g4129
sg63
(lp4144
g56
(g57
g58
NtRp4145
(dp4146
g61
(dp4147
g69
I3
ssg70
g4141
sg63
(lp4148
S''
asbasbasbasbasbasbasbasbasbasbasbag56
(g72
g58
NtRp4149
(dp4150
g61
(dp4151
sg70
g3915
sg63
(lp4152
g56
(g77
g58
NtRp4153
(dp4154
g61
(dp4155
g81
g82
ssg70
g4149
sg63
(lp4156
S'files'
p4157
asbag56
(g77
g58
NtRp4158
(dp4159
g61
(dp4160
g88
g89
ssg70
g4149
sg63
(lp4161
S':'
asbag56
(g77
g58
NtRp4162
(dp4163
g61
(dp4164
sg70
g4149
sg63
(lp4165
g56
(g57
g58
NtRp4166
(dp4167
g61
(dp4168
g69
I5
ssg70
g4162
sg63
(lp4169
g56
(g65
g58
NtRp4170
(dp4171
g61
(dp4172
g69
I4
ssg70
Nsg63
(lp4173
sbasbasbasbag56
(g72
g58
NtRp4174
(dp4175
g61
(dp4176
sg70
g3915
sg63
(lp4177
g56
(g77
g58
NtRp4178
(dp4179
g61
(dp4180
g81
g82
ssg70
g4174
sg63
(lp4181
S'flash'
p4182
asbag56
(g77
g58
NtRp4183
(dp4184
g61
(dp4185
g88
g89
ssg70
g4174
sg63
(lp4186
S':'
asbag56
(g77
g58
NtRp4187
(dp4188
g61
(dp4189
sg70
g4174
sg63
(lp4190
g56
(g57
g58
NtRp4191
(dp4192
g61
(dp4193
g69
I5
ssg70
g4187
sg63
(lp4194
S''
asbasbasbag56
(g72
g58
NtRp4195
(dp4196
g61
(dp4197
sg70
g3915
sg63
(lp4198
g56
(g77
g58
NtRp4199
(dp4200
g61
(dp4201
g81
g82
ssg70
g4195
sg63
(lp4202
S'generic_patterns'
p4203
asbag56
(g77
g58
NtRp4204
(dp4205
g61
(dp4206
g88
g89
ssg70
g4195
sg63
(lp4207
S':'
asbag56
(g77
g58
NtRp4208
(dp4209
g61
(dp4210
sg70
g4195
sg63
(lp4211
g56
(g57
g58
NtRp4212
(dp4213
g61
(dp4214
g69
I5
ssg70
g4208
sg63
(lp4215
g56
(g65
g58
NtRp4216
(dp4217
g61
(dp4218
g69
I4
ssg70
Nsg63
(lp4219
sbasbasbasbag56
(g72
g58
NtRp4220
(dp4221
g61
(dp4222
sg70
g3915
sg63
(lp4223
g56
(g77
g58
NtRp4224
(dp4225
g61
(dp4226
g81
g82
ssg70
g4220
sg63
(lp4227
S'headers'
p4228
asbag56
(g77
g58
NtRp4229
(dp4230
g61
(dp4231
g88
g89
ssg70
g4220
sg63
(lp4232
S':'
asbag56
(g77
g58
NtRp4233
(dp4234
g61
(dp4235
sg70
g4220
sg63
(lp4236
g56
(g57
g58
NtRp4237
(dp4238
g61
(dp4239
g69
I5
ssg70
g4233
sg63
(lp4240
g56
(g65
g58
NtRp4241
(dp4242
g61
(dp4243
g69
I4
ssg70
Nsg63
(lp4244
g56
(g72
g58
NtRp4245
(dp4246
g61
(dp4247
sg70
g4241
sg63
(lp4248
g56
(g77
g58
NtRp4249
(dp4250
g61
(dp4251
g81
g82
ssg70
g4245
sg63
(lp4252
S'Cache-Control'
p4253
asbag56
(g77
g58
NtRp4254
(dp4255
g61
(dp4256
g88
g89
ssg70
g4245
sg63
(lp4257
S':'
asbag56
(g77
g58
NtRp4258
(dp4259
g61
(dp4260
sg70
g4245
sg63
(lp4261
g56
(g57
g58
NtRp4262
(dp4263
g61
(dp4264
g69
I4
ssg70
g4258
sg63
(lp4265
S'no-store, no-cache, must-revalidate, post-check=0, pre-check=0'
p4266
asbasbasbag56
(g72
g58
NtRp4267
(dp4268
g61
(dp4269
sg70
g4241
sg63
(lp4270
g56
(g77
g58
NtRp4271
(dp4272
g61
(dp4273
g81
g82
ssg70
g4267
sg63
(lp4274
S'Content-Type'
p4275
asbag56
(g77
g58
NtRp4276
(dp4277
g61
(dp4278
g88
g89
ssg70
g4267
sg63
(lp4279
S':'
asbag56
(g77
g58
NtRp4280
(dp4281
g61
(dp4282
sg70
g4267
sg63
(lp4283
g56
(g57
g58
NtRp4284
(dp4285
g61
(dp4286
g69
I4
ssg70
g4280
sg63
(lp4287
S'text/html; charset=utf-8'
p4288
asbasbasbag56
(g72
g58
NtRp4289
(dp4290
g61
(dp4291
sg70
g4241
sg63
(lp4292
g56
(g77
g58
NtRp4293
(dp4294
g61
(dp4295
g81
g82
ssg70
g4289
sg63
(lp4296
S'Expires'
p4297
asbag56
(g77
g58
NtRp4298
(dp4299
g61
(dp4300
g88
g89
ssg70
g4289
sg63
(lp4301
S':'
asbag56
(g77
g58
NtRp4302
(dp4303
g61
(dp4304
sg70
g4289
sg63
(lp4305
g56
(g57
g58
NtRp4306
(dp4307
g61
(dp4308
g69
I4
ssg70
g4302
sg63
(lp4309
S'Thu, 08 Sep 2011 19:22:09 GMT'
p4310
asbasbasbag56
(g72
g58
NtRp4311
(dp4312
g61
(dp4313
sg70
g4241
sg63
(lp4314
g56
(g77
g58
NtRp4315
(dp4316
g61
(dp4317
g81
g82
ssg70
g4311
sg63
(lp4318
S'Pragma'
p4319
asbag56
(g77
g58
NtRp4320
(dp4321
g61
(dp4322
g88
g89
ssg70
g4311
sg63
(lp4323
S':'
asbag56
(g77
g58
NtRp4324
(dp4325
g61
(dp4326
sg70
g4311
sg63
(lp4327
g56
(g57
g58
NtRp4328
(dp4329
g61
(dp4330
g69
I4
ssg70
g4324
sg63
(lp4331
S'no-cache'
p4332
asbasbasbag56
(g72
g58
NtRp4333
(dp4334
g61
(dp4335
sg70
g4241
sg63
(lp4336
g56
(g77
g58
NtRp4337
(dp4338
g61
(dp4339
g81
g82
ssg70
g4333
sg63
(lp4340
S'X-Powered-By'
p4341
asbag56
(g77
g58
NtRp4342
(dp4343
g61
(dp4344
g88
g89
ssg70
g4333
sg63
(lp4345
S':'
asbag56
(g77
g58
NtRp4346
(dp4347
g61
(dp4348
sg70
g4333
sg63
(lp4349
g56
(g57
g58
NtRp4350
(dp4351
g61
(dp4352
g69
I4
ssg70
g4346
sg63
(lp4353
S'web2py'
p4354
asbasbasbasbasbasbasbag56
(g72
g58
NtRp4355
(dp4356
g61
(dp4357
sg70
g3915
sg63
(lp4358
g56
(g77
g58
NtRp4359
(dp4360
g61
(dp4361
g81
g82
ssg70
g4355
sg63
(lp4362
S'menu'
p4363
asbag56
(g77
g58
NtRp4364
(dp4365
g61
(dp4366
g88
g89
ssg70
g4355
sg63
(lp4367
S':'
asbag56
(g77
g58
NtRp4368
(dp4369
g61
(dp4370
sg70
g4355
sg63
(lp4371
g56
(g57
g58
NtRp4372
(dp4373
g61
(dp4374
g69
I5
ssg70
g4368
sg63
(lp4375
g56
(g65
g58
NtRp4376
(dp4377
g61
(dp4378
g69
I4
ssg70
Nsg63
(lp4379
g56
(g72
g58
NtRp4380
(dp4381
g61
(dp4382
sg70
g4376
sg63
(lp4383
g56
(g77
g58
NtRp4384
(dp4385
g61
(dp4386
sg70
g4380
sg63
(lp4387
g56
(g57
g58
NtRp4388
(dp4389
g61
(dp4390
g69
I4
ssg70
g4384
sg63
(lp4391
g56
(g65
g58
NtRp4392
(dp4393
g61
(dp4394
g69
I3
ssg70
Nsg63
(lp4395
g56
(g72
g58
NtRp4396
(dp4397
g61
(dp4398
sg70
g4392
sg63
(lp4399
g56
(g77
g58
NtRp4400
(dp4401
g61
(dp4402
sg70
g4396
sg63
(lp4403
g56
(g57
g58
NtRp4404
(dp4405
g61
(dp4406
g69
I3
ssg70
g4400
sg63
(lp4407
cgluon.languages
lazyT_unpickle
p4408
(S't\x04\x00\x00\x00Home'
tRp4409
asbasbasbag56
(g72
g58
NtRp4410
(dp4411
g61
(dp4412
sg70
g4392
sg63
(lp4413
g56
(g77
g58
NtRp4414
(dp4415
g61
(dp4416
sg70
g4410
sg63
(lp4417
g56
(g57
g58
NtRp4418
(dp4419
g61
(dp4420
g69
I3
ssg70
g4414
sg63
(lp4421
g99
asbasbasbag56
(g72
g58
NtRp4422
(dp4423
g61
(dp4424
sg70
g4392
sg63
(lp4425
g56
(g77
g58
NtRp4426
(dp4427
g61
(dp4428
sg70
g4422
sg63
(lp4429
g56
(g57
g58
NtRp4430
(dp4431
g61
(dp4432
g69
I3
ssg70
g4426
sg63
(lp4433
S'/scrum/default/index'
p4434
asbasbasbag56
(g72
g58
NtRp4435
(dp4436
g61
(dp4437
sg70
g4392
sg63
(lp4438
g56
(g77
g58
NtRp4439
(dp4440
g61
(dp4441
sg70
g4435
sg63
(lp4442
g56
(g57
g58
NtRp4443
(dp4444
g61
(dp4445
g69
I3
ssg70
g4439
sg63
(lp4446
g56
(g65
g58
NtRp4447
(dp4448
g61
(dp4449
g69
I2
ssg70
Nsg63
(lp4450
sbasbasbasbasbasbasbasbag56
(g72
g58
NtRp4451
(dp4452
g61
(dp4453
sg70
g4376
sg63
(lp4454
g56
(g77
g58
NtRp4455
(dp4456
g61
(dp4457
sg70
g4451
sg63
(lp4458
g56
(g57
g58
NtRp4459
(dp4460
g61
(dp4461
g69
I4
ssg70
g4455
sg63
(lp4462
g56
(g65
g58
NtRp4463
(dp4464
g61
(dp4465
g69
I3
ssg70
Nsg63
(lp4466
g56
(g72
g58
NtRp4467
(dp4468
g61
(dp4469
sg70
g4463
sg63
(lp4470
g56
(g77
g58
NtRp4471
(dp4472
g61
(dp4473
sg70
g4467
sg63
(lp4474
g56
(g57
g58
NtRp4475
(dp4476
g61
(dp4477
g69
I3
ssg70
g4471
sg63
(lp4478
g4408
(S't\x03\x00\x00\x00BIV'
tRp4479
asbasbasbag56
(g72
g58
NtRp4480
(dp4481
g61
(dp4482
sg70
g4463
sg63
(lp4483
g56
(g77
g58
NtRp4484
(dp4485
g61
(dp4486
sg70
g4480
sg63
(lp4487
g56
(g57
g58
NtRp4488
(dp4489
g61
(dp4490
g69
I3
ssg70
g4484
sg63
(lp4491
g99
asbasbasbag56
(g72
g58
NtRp4492
(dp4493
g61
(dp4494
sg70
g4463
sg63
(lp4495
g56
(g77
g58
NtRp4496
(dp4497
g61
(dp4498
sg70
g4492
sg63
(lp4499
g56
(g57
g58
NtRp4500
(dp4501
g61
(dp4502
g69
I3
ssg70
g4496
sg63
(lp4503
S''
asbasbasbag56
(g72
g58
NtRp4504
(dp4505
g61
(dp4506
sg70
g4463
sg63
(lp4507
g56
(g77
g58
NtRp4508
(dp4509
g61
(dp4510
sg70
g4504
sg63
(lp4511
g56
(g57
g58
NtRp4512
(dp4513
g61
(dp4514
g69
I3
ssg70
g4508
sg63
(lp4515
g56
(g65
g58
NtRp4516
(dp4517
g61
(dp4518
g69
I2
ssg70
Nsg63
(lp4519
g56
(g72
g58
NtRp4520
(dp4521
g61
(dp4522
sg70
g4516
sg63
(lp4523
g56
(g77
g58
NtRp4524
(dp4525
g61
(dp4526
sg70
g4520
sg63
(lp4527
g56
(g57
g58
NtRp4528
(dp4529
g61
(dp4530
g69
I2
ssg70
g4524
sg63
(lp4531
g56
(g65
g58
NtRp4532
(dp4533
g61
(dp4534
g69
I1
ssg70
Nsg63
(lp4535
g56
(g72
g58
NtRp4536
(dp4537
g61
(dp4538
sg70
g4532
sg63
(lp4539
g56
(g77
g58
NtRp4540
(dp4541
g61
(dp4542
sg70
g4536
sg63
(lp4543
g56
(g57
g58
NtRp4544
(dp4545
g61
(dp4546
g69
I1
ssg70
g4540
sg63
(lp4547
g4408
(S't\x04\x00\x00\x00Novo'
tRp4548
asbasbasbag56
(g72
g58
NtRp4549
(dp4550
g61
(dp4551
sg70
g4532
sg63
(lp4552
g56
(g77
g58
NtRp4553
(dp4554
g61
(dp4555
sg70
g4549
sg63
(lp4556
g56
(g57
g58
NtRp4557
(dp4558
g61
(dp4559
g69
I1
ssg70
g4553
sg63
(lp4560
I00
asbasbasbag56
(g72
g58
NtRp4561
(dp4562
g61
(dp4563
sg70
g4532
sg63
(lp4564
g56
(g77
g58
NtRp4565
(dp4566
g61
(dp4567
sg70
g4561
sg63
(lp4568
g56
(g57
g58
NtRp4569
(dp4570
g61
(dp4571
g69
I1
ssg70
g4565
sg63
(lp4572
S'/scrum/default/novo_biv'
p4573
asbasbasbag56
(g72
g58
NtRp4574
(dp4575
g61
(dp4576
sg70
g4532
sg63
(lp4577
g56
(g77
g58
NtRp4578
(dp4579
g61
(dp4580
sg70
g4574
sg63
(lp4581
g56
(g57
g58
NtRp4582
(dp4583
g61
(dp4584
g69
I1
ssg70
g4578
sg63
(lp4585
(lp4586
asbasbasbasbasbasbasbag56
(g72
g58
NtRp4587
(dp4588
g61
(dp4589
sg70
g4516
sg63
(lp4590
g56
(g77
g58
NtRp4591
(dp4592
g61
(dp4593
sg70
g4587
sg63
(lp4594
g56
(g57
g58
NtRp4595
(dp4596
g61
(dp4597
g69
I2
ssg70
g4591
sg63
(lp4598
g56
(g65
g58
NtRp4599
(dp4600
g61
(dp4601
g69
I1
ssg70
Nsg63
(lp4602
g56
(g72
g58
NtRp4603
(dp4604
g61
(dp4605
sg70
g4599
sg63
(lp4606
g56
(g77
g58
NtRp4607
(dp4608
g61
(dp4609
sg70
g4603
sg63
(lp4610
g56
(g57
g58
NtRp4611
(dp4612
g61
(dp4613
g69
I1
ssg70
g4607
sg63
(lp4614
g4408
(S't\n\x00\x00\x00Selecionar'
tRp4615
asbasbasbag56
(g72
g58
NtRp4616
(dp4617
g61
(dp4618
sg70
g4599
sg63
(lp4619
g56
(g77
g58
NtRp4620
(dp4621
g61
(dp4622
sg70
g4616
sg63
(lp4623
g56
(g57
g58
NtRp4624
(dp4625
g61
(dp4626
g69
I1
ssg70
g4620
sg63
(lp4627
I00
asbasbasbag56
(g72
g58
NtRp4628
(dp4629
g61
(dp4630
sg70
g4599
sg63
(lp4631
g56
(g77
g58
NtRp4632
(dp4633
g61
(dp4634
sg70
g4628
sg63
(lp4635
g56
(g57
g58
NtRp4636
(dp4637
g61
(dp4638
g69
I1
ssg70
g4632
sg63
(lp4639
S'/scrum/default/selecionar_biv'
p4640
asbasbasbag56
(g72
g58
NtRp4641
(dp4642
g61
(dp4643
sg70
g4599
sg63
(lp4644
g56
(g77
g58
NtRp4645
(dp4646
g61
(dp4647
sg70
g4641
sg63
(lp4648
g56
(g57
g58
NtRp4649
(dp4650
g61
(dp4651
g69
I1
ssg70
g4645
sg63
(lp4652
(lp4653
asbasbasbasbasbasbasbasbasbasbasbasbasbasbasbag56
(g72
g58
NtRp4654
(dp4655
g61
(dp4656
sg70
g4376
sg63
(lp4657
g56
(g77
g58
NtRp4658
(dp4659
g61
(dp4660
sg70
g4654
sg63
(lp4661
g56
(g57
g58
NtRp4662
(dp4663
g61
(dp4664
g69
I4
ssg70
g4658
sg63
(lp4665
g56
(g65
g58
NtRp4666
(dp4667
g61
(dp4668
g69
I3
ssg70
Nsg63
(lp4669
g56
(g72
g58
NtRp4670
(dp4671
g61
(dp4672
sg70
g4666
sg63
(lp4673
g56
(g77
g58
NtRp4674
(dp4675
g61
(dp4676
sg70
g4670
sg63
(lp4677
g56
(g57
g58
NtRp4678
(dp4679
g61
(dp4680
g69
I3
ssg70
g4674
sg63
(lp4681
g4408
(S't\x07\x00\x00\x00Tickets'
tRp4682
asbasbasbag56
(g72
g58
NtRp4683
(dp4684
g61
(dp4685
sg70
g4666
sg63
(lp4686
g56
(g77
g58
NtRp4687
(dp4688
g61
(dp4689
sg70
g4683
sg63
(lp4690
g56
(g57
g58
NtRp4691
(dp4692
g61
(dp4693
g69
I3
ssg70
g4687
sg63
(lp4694
g99
asbasbasbag56
(g72
g58
NtRp4695
(dp4696
g61
(dp4697
sg70
g4666
sg63
(lp4698
g56
(g77
g58
NtRp4699
(dp4700
g61
(dp4701
sg70
g4695
sg63
(lp4702
g56
(g57
g58
NtRp4703
(dp4704
g61
(dp4705
g69
I3
ssg70
g4699
sg63
(lp4706
S'/scrum/ticket/index'
p4707
asbasbasbag56
(g72
g58
NtRp4708
(dp4709
g61
(dp4710
sg70
g4666
sg63
(lp4711
g56
(g77
g58
NtRp4712
(dp4713
g61
(dp4714
sg70
g4708
sg63
(lp4715
g56
(g57
g58
NtRp4716
(dp4717
g61
(dp4718
g69
I3
ssg70
g4712
sg63
(lp4719
g56
(g65
g58
NtRp4720
(dp4721
g61
(dp4722
g69
I2
ssg70
Nsg63
(lp4723
g56
(g72
g58
NtRp4724
(dp4725
g61
(dp4726
sg70
g4720
sg63
(lp4727
g56
(g77
g58
NtRp4728
(dp4729
g61
(dp4730
sg70
g4724
sg63
(lp4731
g56
(g57
g58
NtRp4732
(dp4733
g61
(dp4734
g69
I2
ssg70
g4728
sg63
(lp4735
g56
(g65
g58
NtRp4736
(dp4737
g61
(dp4738
g69
I1
ssg70
Nsg63
(lp4739
g56
(g72
g58
NtRp4740
(dp4741
g61
(dp4742
sg70
g4736
sg63
(lp4743
g56
(g77
g58
NtRp4744
(dp4745
g61
(dp4746
sg70
g4740
sg63
(lp4747
g56
(g57
g58
NtRp4748
(dp4749
g61
(dp4750
g69
I1
ssg70
g4744
sg63
(lp4751
g4408
(S't\x04\x00\x00\x00Novo'
tRp4752
asbasbasbag56
(g72
g58
NtRp4753
(dp4754
g61
(dp4755
sg70
g4736
sg63
(lp4756
g56
(g77
g58
NtRp4757
(dp4758
g61
(dp4759
sg70
g4753
sg63
(lp4760
g56
(g57
g58
NtRp4761
(dp4762
g61
(dp4763
g69
I1
ssg70
g4757
sg63
(lp4764
I00
asbasbasbag56
(g72
g58
NtRp4765
(dp4766
g61
(dp4767
sg70
g4736
sg63
(lp4768
g56
(g77
g58
NtRp4769
(dp4770
g61
(dp4771
sg70
g4765
sg63
(lp4772
g56
(g57
g58
NtRp4773
(dp4774
g61
(dp4775
g69
I1
ssg70
g4769
sg63
(lp4776
S'/scrum/ticket/novo'
p4777
asbasbasbag56
(g72
g58
NtRp4778
(dp4779
g61
(dp4780
sg70
g4736
sg63
(lp4781
g56
(g77
g58
NtRp4782
(dp4783
g61
(dp4784
sg70
g4778
sg63
(lp4785
g56
(g57
g58
NtRp4786
(dp4787
g61
(dp4788
g69
I1
ssg70
g4782
sg63
(lp4789
(lp4790
asbasbasbasbasbasbasbag56
(g72
g58
NtRp4791
(dp4792
g61
(dp4793
sg70
g4720
sg63
(lp4794
g56
(g77
g58
NtRp4795
(dp4796
g61
(dp4797
sg70
g4791
sg63
(lp4798
g56
(g57
g58
NtRp4799
(dp4800
g61
(dp4801
g69
I2
ssg70
g4795
sg63
(lp4802
g56
(g65
g58
NtRp4803
(dp4804
g61
(dp4805
g69
I1
ssg70
Nsg63
(lp4806
g56
(g72
g58
NtRp4807
(dp4808
g61
(dp4809
sg70
g4803
sg63
(lp4810
g56
(g77
g58
NtRp4811
(dp4812
g61
(dp4813
sg70
g4807
sg63
(lp4814
g56
(g57
g58
NtRp4815
(dp4816
g61
(dp4817
g69
I1
ssg70
g4811
sg63
(lp4818
g4408
(S't\n\x00\x00\x00Selecionar'
tRp4819
asbasbasbag56
(g72
g58
NtRp4820
(dp4821
g61
(dp4822
sg70
g4803
sg63
(lp4823
g56
(g77
g58
NtRp4824
(dp4825
g61
(dp4826
sg70
g4820
sg63
(lp4827
g56
(g57
g58
NtRp4828
(dp4829
g61
(dp4830
g69
I1
ssg70
g4824
sg63
(lp4831
I00
asbasbasbag56
(g72
g58
NtRp4832
(dp4833
g61
(dp4834
sg70
g4803
sg63
(lp4835
g56
(g77
g58
NtRp4836
(dp4837
g61
(dp4838
sg70
g4832
sg63
(lp4839
g56
(g57
g58
NtRp4840
(dp4841
g61
(dp4842
g69
I1
ssg70
g4836
sg63
(lp4843
S'/scrum/ticket/index'
p4844
asbasbasbag56
(g72
g58
NtRp4845
(dp4846
g61
(dp4847
sg70
g4803
sg63
(lp4848
g56
(g77
g58
NtRp4849
(dp4850
g61
(dp4851
sg70
g4845
sg63
(lp4852
g56
(g57
g58
NtRp4853
(dp4854
g61
(dp4855
g69
I1
ssg70
g4849
sg63
(lp4856
(lp4857
asbasbasbasbasbasbasbasbasbasbasbasbasbasbasbag56
(g72
g58
NtRp4858
(dp4859
g61
(dp4860
sg70
g4376
sg63
(lp4861
g56
(g77
g58
NtRp4862
(dp4863
g61
(dp4864
sg70
g4858
sg63
(lp4865
g56
(g57
g58
NtRp4866
(dp4867
g61
(dp4868
g69
I4
ssg70
g4862
sg63
(lp4869
g56
(g65
g58
NtRp4870
(dp4871
g61
(dp4872
g69
I3
ssg70
Nsg63
(lp4873
g56
(g72
g58
NtRp4874
(dp4875
g61
(dp4876
sg70
g4870
sg63
(lp4877
g56
(g77
g58
NtRp4878
(dp4879
g61
(dp4880
sg70
g4874
sg63
(lp4881
g56
(g57
g58
NtRp4882
(dp4883
g61
(dp4884
g69
I3
ssg70
g4878
sg63
(lp4885
g4408
(S't\x06\x00\x00\x00Sprint'
tRp4886
asbasbasbag56
(g72
g58
NtRp4887
(dp4888
g61
(dp4889
sg70
g4870
sg63
(lp4890
g56
(g77
g58
NtRp4891
(dp4892
g61
(dp4893
sg70
g4887
sg63
(lp4894
g56
(g57
g58
NtRp4895
(dp4896
g61
(dp4897
g69
I3
ssg70
g4891
sg63
(lp4898
g99
asbasbasbag56
(g72
g58
NtRp4899
(dp4900
g61
(dp4901
sg70
g4870
sg63
(lp4902
g56
(g77
g58
NtRp4903
(dp4904
g61
(dp4905
sg70
g4899
sg63
(lp4906
g56
(g57
g58
NtRp4907
(dp4908
g61
(dp4909
g69
I3
ssg70
g4903
sg63
(lp4910
S''
asbasbasbag56
(g72
g58
NtRp4911
(dp4912
g61
(dp4913
sg70
g4870
sg63
(lp4914
g56
(g77
g58
NtRp4915
(dp4916
g61
(dp4917
sg70
g4911
sg63
(lp4918
g56
(g57
g58
NtRp4919
(dp4920
g61
(dp4921
g69
I3
ssg70
g4915
sg63
(lp4922
g56
(g65
g58
NtRp4923
(dp4924
g61
(dp4925
g69
I2
ssg70
Nsg63
(lp4926
g56
(g72
g58
NtRp4927
(dp4928
g61
(dp4929
sg70
g4923
sg63
(lp4930
g56
(g77
g58
NtRp4931
(dp4932
g61
(dp4933
sg70
g4927
sg63
(lp4934
g56
(g57
g58
NtRp4935
(dp4936
g61
(dp4937
g69
I2
ssg70
g4931
sg63
(lp4938
g56
(g65
g58
NtRp4939
(dp4940
g61
(dp4941
g69
I1
ssg70
Nsg63
(lp4942
g56
(g72
g58
NtRp4943
(dp4944
g61
(dp4945
sg70
g4939
sg63
(lp4946
g56
(g77
g58
NtRp4947
(dp4948
g61
(dp4949
sg70
g4943
sg63
(lp4950
g56
(g57
g58
NtRp4951
(dp4952
g61
(dp4953
g69
I1
ssg70
g4947
sg63
(lp4954
g4408
(S't\x04\x00\x00\x00Novo'
tRp4955
asbasbasbag56
(g72
g58
NtRp4956
(dp4957
g61
(dp4958
sg70
g4939
sg63
(lp4959
g56
(g77
g58
NtRp4960
(dp4961
g61
(dp4962
sg70
g4956
sg63
(lp4963
g56
(g57
g58
NtRp4964
(dp4965
g61
(dp4966
g69
I1
ssg70
g4960
sg63
(lp4967
I00
asbasbasbag56
(g72
g58
NtRp4968
(dp4969
g61
(dp4970
sg70
g4939
sg63
(lp4971
g56
(g77
g58
NtRp4972
(dp4973
g61
(dp4974
sg70
g4968
sg63
(lp4975
g56
(g57
g58
NtRp4976
(dp4977
g61
(dp4978
g69
I1
ssg70
g4972
sg63
(lp4979
S'/scrum/sprint/novo'
p4980
asbasbasbag56
(g72
g58
NtRp4981
(dp4982
g61
(dp4983
sg70
g4939
sg63
(lp4984
g56
(g77
g58
NtRp4985
(dp4986
g61
(dp4987
sg70
g4981
sg63
(lp4988
g56
(g57
g58
NtRp4989
(dp4990
g61
(dp4991
g69
I1
ssg70
g4985
sg63
(lp4992
(lp4993
asbasbasbasbasbasbasbag56
(g72
g58
NtRp4994
(dp4995
g61
(dp4996
sg70
g4923
sg63
(lp4997
g56
(g77
g58
NtRp4998
(dp4999
g61
(dp5000
sg70
g4994
sg63
(lp5001
g56
(g57
g58
NtRp5002
(dp5003
g61
(dp5004
g69
I2
ssg70
g4998
sg63
(lp5005
g56
(g65
g58
NtRp5006
(dp5007
g61
(dp5008
g69
I1
ssg70
Nsg63
(lp5009
g56
(g72
g58
NtRp5010
(dp5011
g61
(dp5012
sg70
g5006
sg63
(lp5013
g56
(g77
g58
NtRp5014
(dp5015
g61
(dp5016
sg70
g5010
sg63
(lp5017
g56
(g57
g58
NtRp5018
(dp5019
g61
(dp5020
g69
I1
ssg70
g5014
sg63
(lp5021
g4408
(S't\n\x00\x00\x00Selecionar'
tRp5022
asbasbasbag56
(g72
g58
NtRp5023
(dp5024
g61
(dp5025
sg70
g5006
sg63
(lp5026
g56
(g77
g58
NtRp5027
(dp5028
g61
(dp5029
sg70
g5023
sg63
(lp5030
g56
(g57
g58
NtRp5031
(dp5032
g61
(dp5033
g69
I1
ssg70
g5027
sg63
(lp5034
I00
asbasbasbag56
(g72
g58
NtRp5035
(dp5036
g61
(dp5037
sg70
g5006
sg63
(lp5038
g56
(g77
g58
NtRp5039
(dp5040
g61
(dp5041
sg70
g5035
sg63
(lp5042
g56
(g57
g58
NtRp5043
(dp5044
g61
(dp5045
g69
I1
ssg70
g5039
sg63
(lp5046
S'/scrum/sprint/index'
p5047
asbasbasbag56
(g72
g58
NtRp5048
(dp5049
g61
(dp5050
sg70
g5006
sg63
(lp5051
g56
(g77
g58
NtRp5052
(dp5053
g61
(dp5054
sg70
g5048
sg63
(lp5055
g56
(g57
g58
NtRp5056
(dp5057
g61
(dp5058
g69
I1
ssg70
g5052
sg63
(lp5059
(lp5060
asbasbasbasbasbasbasbasbasbasbasbasbasbasbasbasbasbasbasbag56
(g72
g58
NtRp5061
(dp5062
g61
(dp5063
sg70
g3915
sg63
(lp5064
g56
(g77
g58
NtRp5065
(dp5066
g61
(dp5067
g81
g82
ssg70
g5061
sg63
(lp5068
S'meta'
p5069
asbag56
(g77
g58
NtRp5070
(dp5071
g61
(dp5072
g88
g89
ssg70
g5061
sg63
(lp5073
S':'
asbag56
(g77
g58
NtRp5074
(dp5075
g61
(dp5076
sg70
g5061
sg63
(lp5077
g56
(g57
g58
NtRp5078
(dp5079
g61
(dp5080
g69
I5
ssg70
g5074
sg63
(lp5081
g56
(g65
g58
NtRp5082
(dp5083
g61
(dp5084
g69
I4
ssg70
Nsg63
(lp5085
g56
(g72
g58
NtRp5086
(dp5087
g61
(dp5088
sg70
g5082
sg63
(lp5089
g56
(g77
g58
NtRp5090
(dp5091
g61
(dp5092
g81
g82
ssg70
g5086
sg63
(lp5093
S'author'
p5094
asbag56
(g77
g58
NtRp5095
(dp5096
g61
(dp5097
g88
g89
ssg70
g5086
sg63
(lp5098
S':'
asbag56
(g77
g58
NtRp5099
(dp5100
g61
(dp5101
sg70
g5086
sg63
(lp5102
g56
(g57
g58
NtRp5103
(dp5104
g61
(dp5105
g69
I4
ssg70
g5099
sg63
(lp5106
S'Carlos J. Costa'
p5107
asbasbasbag56
(g72
g58
NtRp5108
(dp5109
g61
(dp5110
sg70
g5082
sg63
(lp5111
g56
(g77
g58
NtRp5112
(dp5113
g61
(dp5114
g81
g82
ssg70
g5108
sg63
(lp5115
S'copyright'
p5116
asbag56
(g77
g58
NtRp5117
(dp5118
g61
(dp5119
g88
g89
ssg70
g5108
sg63
(lp5120
S':'
asbag56
(g77
g58
NtRp5121
(dp5122
g61
(dp5123
sg70
g5108
sg63
(lp5124
g56
(g57
g58
NtRp5125
(dp5126
g61
(dp5127
g69
I4
ssg70
g5121
sg63
(lp5128
S'Copyright 2007-2010'
p5129
asbasbasbag56
(g72
g58
NtRp5130
(dp5131
g61
(dp5132
sg70
g5082
sg63
(lp5133
g56
(g77
g58
NtRp5134
(dp5135
g61
(dp5136
g81
g82
ssg70
g5130
sg63
(lp5137
S'description'
p5138
asbag56
(g77
g58
NtRp5139
(dp5140
g61
(dp5141
g88
g89
ssg70
g5130
sg63
(lp5142
S':'
asbag56
(g77
g58
NtRp5143
(dp5144
g61
(dp5145
sg70
g5130
sg63
(lp5146
g56
(g57
g58
NtRp5147
(dp5148
g61
(dp5149
g69
I4
ssg70
g5143
sg63
(lp5150
S'Development track'
p5151
asbasbasbag56
(g72
g58
NtRp5152
(dp5153
g61
(dp5154
sg70
g5082
sg63
(lp5155
g56
(g77
g58
NtRp5156
(dp5157
g61
(dp5158
g81
g82
ssg70
g5152
sg63
(lp5159
S'generator'
p5160
asbag56
(g77
g58
NtRp5161
(dp5162
g61
(dp5163
g88
g89
ssg70
g5152
sg63
(lp5164
S':'
asbag56
(g77
g58
NtRp5165
(dp5166
g61
(dp5167
sg70
g5152
sg63
(lp5168
g56
(g57
g58
NtRp5169
(dp5170
g61
(dp5171
g69
I4
ssg70
g5165
sg63
(lp5172
S'Web2py Enterprise Framework'
p5173
asbasbasbag56
(g72
g58
NtRp5174
(dp5175
g61
(dp5176
sg70
g5082
sg63
(lp5177
g56
(g77
g58
NtRp5178
(dp5179
g61
(dp5180
g81
g82
ssg70
g5174
sg63
(lp5181
S'keywords'
p5182
asbag56
(g77
g58
NtRp5183
(dp5184
g61
(dp5185
g88
g89
ssg70
g5174
sg63
(lp5186
S':'
asbag56
(g77
g58
NtRp5187
(dp5188
g61
(dp5189
sg70
g5174
sg63
(lp5190
g56
(g57
g58
NtRp5191
(dp5192
g61
(dp5193
g69
I4
ssg70
g5187
sg63
(lp5194
S'test, issue'
p5195
asbasbasbasbasbasbasbag56
(g72
g58
NtRp5196
(dp5197
g61
(dp5198
sg70
g3915
sg63
(lp5199
g56
(g77
g58
NtRp5200
(dp5201
g61
(dp5202
g81
g82
ssg70
g5196
sg63
(lp5203
S'postprocessing'
p5204
asbag56
(g77
g58
NtRp5205
(dp5206
g61
(dp5207
g88
g89
ssg70
g5196
sg63
(lp5208
S':'
asbag56
(g77
g58
NtRp5209
(dp5210
g61
(dp5211
sg70
g5196
sg63
(lp5212
g56
(g57
g58
NtRp5213
(dp5214
g61
(dp5215
g69
I5
ssg70
g5209
sg63
(lp5216
g56
(g65
g58
NtRp5217
(dp5218
g61
(dp5219
g69
I4
ssg70
Nsg63
(lp5220
sbasbasbasbag56
(g72
g58
NtRp5221
(dp5222
g61
(dp5223
sg70
g3915
sg63
(lp5224
g56
(g77
g58
NtRp5225
(dp5226
g61
(dp5227
g81
g82
ssg70
g5221
sg63
(lp5228
S'session_file'
p5229
asbag56
(g77
g58
NtRp5230
(dp5231
g61
(dp5232
g88
g89
ssg70
g5221
sg63
(lp5233
S':'
asbag56
(g77
g58
NtRp5234
(dp5235
g61
(dp5236
sg70
g5221
sg63
(lp5237
g56
(g57
g58
NtRp5238
(dp5239
g61
(dp5240
g69
I5
ssg70
g5234
sg63
(lp5241
S"<open file '/home/www-data/web2py/applications/scrum/sessions/127.0.0.1-f47d3ac4-8d8c-46d5-8321-f944561d518f', mode 'rb+' at 0xb98353e8>"
p5242
asbasbasbag56
(g72
g58
NtRp5243
(dp5244
g61
(dp5245
sg70
g3915
sg63
(lp5246
g56
(g77
g58
NtRp5247
(dp5248
g61
(dp5249
g81
g82
ssg70
g5243
sg63
(lp5250
S'session_filename'
p5251
asbag56
(g77
g58
NtRp5252
(dp5253
g61
(dp5254
g88
g89
ssg70
g5243
sg63
(lp5255
S':'
asbag56
(g77
g58
NtRp5256
(dp5257
g61
(dp5258
sg70
g5243
sg63
(lp5259
g56
(g57
g58
NtRp5260
(dp5261
g61
(dp5262
g69
I5
ssg70
g5256
sg63
(lp5263
S'/home/www-data/web2py/applications/scrum/sessions/127.0.0.1-f47d3ac4-8d8c-46d5-8321-f944561d518f'
p5264
asbasbasbag56
(g72
g58
NtRp5265
(dp5266
g61
(dp5267
sg70
g3915
sg63
(lp5268
g56
(g77
g58
NtRp5269
(dp5270
g61
(dp5271
g81
g82
ssg70
g5265
sg63
(lp5272
S'session_id'
p5273
asbag56
(g77
g58
NtRp5274
(dp5275
g61
(dp5276
g88
g89
ssg70
g5265
sg63
(lp5277
S':'
asbag56
(g77
g58
NtRp5278
(dp5279
g61
(dp5280
sg70
g5265
sg63
(lp5281
g56
(g57
g58
NtRp5282
(dp5283
g61
(dp5284
g69
I5
ssg70
g5278
sg63
(lp5285
S'127.0.0.1-f47d3ac4-8d8c-46d5-8321-f944561d518f'
p5286
asbasbasbag56
(g72
g58
NtRp5287
(dp5288
g61
(dp5289
sg70
g3915
sg63
(lp5290
g56
(g77
g58
NtRp5291
(dp5292
g61
(dp5293
g81
g82
ssg70
g5287
sg63
(lp5294
S'session_id_name'
p5295
asbag56
(g77
g58
NtRp5296
(dp5297
g61
(dp5298
g88
g89
ssg70
g5287
sg63
(lp5299
S':'
asbag56
(g77
g58
NtRp5300
(dp5301
g61
(dp5302
sg70
g5287
sg63
(lp5303
g56
(g57
g58
NtRp5304
(dp5305
g61
(dp5306
g69
I5
ssg70
g5300
sg63
(lp5307
g3972
asbasbasbag56
(g72
g58
NtRp5308
(dp5309
g61
(dp5310
sg70
g3915
sg63
(lp5311
g56
(g77
g58
NtRp5312
(dp5313
g61
(dp5314
g81
g82
ssg70
g5308
sg63
(lp5315
S'session_locked'
p5316
asbag56
(g77
g58
NtRp5317
(dp5318
g61
(dp5319
g88
g89
ssg70
g5308
sg63
(lp5320
S':'
asbag56
(g77
g58
NtRp5321
(dp5322
g61
(dp5323
sg70
g5308
sg63
(lp5324
g56
(g57
g58
NtRp5325
(dp5326
g61
(dp5327
g69
I5
ssg70
g5321
sg63
(lp5328
g1960
asbasbasbag56
(g72
g58
NtRp5329
(dp5330
g61
(dp5331
sg70
g3915
sg63
(lp5332
g56
(g77
g58
NtRp5333
(dp5334
g61
(dp5335
g81
g82
ssg70
g5329
sg63
(lp5336
S'session_new'
p5337
asbag56
(g77
g58
NtRp5338
(dp5339
g61
(dp5340
g88
g89
ssg70
g5329
sg63
(lp5341
S':'
asbag56
(g77
g58
NtRp5342
(dp5343
g61
(dp5344
sg70
g5329
sg63
(lp5345
g56
(g57
g58
NtRp5346
(dp5347
g61
(dp5348
g69
I5
ssg70
g5342
sg63
(lp5349
g99
asbasbasbag56
(g72
g58
NtRp5350
(dp5351
g61
(dp5352
sg70
g3915
sg63
(lp5353
g56
(g77
g58
NtRp5354
(dp5355
g61
(dp5356
g81
g82
ssg70
g5350
sg63
(lp5357
S'status'
p5358
asbag56
(g77
g58
NtRp5359
(dp5360
g61
(dp5361
g88
g89
ssg70
g5350
sg63
(lp5362
S':'
asbag56
(g77
g58
NtRp5363
(dp5364
g61
(dp5365
sg70
g5350
sg63
(lp5366
g56
(g57
g58
NtRp5367
(dp5368
g61
(dp5369
g69
I5
ssg70
g5363
sg63
(lp5370
S'200'
p5371
asbasbasbag56
(g72
g58
NtRp5372
(dp5373
g61
(dp5374
sg70
g3915
sg63
(lp5375
g56
(g77
g58
NtRp5376
(dp5377
g61
(dp5378
g81
g82
ssg70
g5372
sg63
(lp5379
S'subtitle'
p5380
asbag56
(g77
g58
NtRp5381
(dp5382
g61
(dp5383
g88
g89
ssg70
g5372
sg63
(lp5384
S':'
asbag56
(g77
g58
NtRp5385
(dp5386
g61
(dp5387
sg70
g5372
sg63
(lp5388
g56
(g57
g58
NtRp5389
(dp5390
g61
(dp5391
g69
I5
ssg70
g5385
sg63
(lp5392
g4408
(S's\x0f\x00\x00\x00Personalize-me!'
tRp5393
asbasbasbag56
(g72
g58
NtRp5394
(dp5395
g61
(dp5396
sg70
g3915
sg63
(lp5397
g56
(g77
g58
NtRp5398
(dp5399
g61
(dp5400
g81
g82
ssg70
g5394
sg63
(lp5401
S'title'
p5402
asbag56
(g77
g58
NtRp5403
(dp5404
g61
(dp5405
g88
g89
ssg70
g5394
sg63
(lp5406
S':'
asbag56
(g77
g58
NtRp5407
(dp5408
g61
(dp5409
sg70
g5394
sg63
(lp5410
g56
(g57
g58
NtRp5411
(dp5412
g61
(dp5413
g69
I5
ssg70
g5407
sg63
(lp5414
g121
asbasbasbag56
(g72
g58
NtRp5415
(dp5416
g61
(dp5417
sg70
g3915
sg63
(lp5418
g56
(g77
g58
NtRp5419
(dp5420
g61
(dp5421
g81
g82
ssg70
g5415
sg63
(lp5422
g2284
asbag56
(g77
g58
NtRp5423
(dp5424
g61
(dp5425
g88
g89
ssg70
g5415
sg63
(lp5426
S':'
asbag56
(g77
g58
NtRp5427
(dp5428
g61
(dp5429
sg70
g5415
sg63
(lp5430
g56
(g57
g58
NtRp5431
(dp5432
g61
(dp5433
g69
I5
ssg70
g5427
sg63
(lp5434
g2297
asbasbasbag56
(g72
g58
NtRp5435
(dp5436
g61
(dp5437
sg70
g3915
sg63
(lp5438
g56
(g77
g58
NtRp5439
(dp5440
g61
(dp5441
g81
g82
ssg70
g5435
sg63
(lp5442
S'view'
p5443
asbag56
(g77
g58
NtRp5444
(dp5445
g61
(dp5446
g88
g89
ssg70
g5435
sg63
(lp5447
S':'
asbag56
(g77
g58
NtRp5448
(dp5449
g61
(dp5450
sg70
g5435
sg63
(lp5451
g56
(g57
g58
NtRp5452
(dp5453
g61
(dp5454
g69
I5
ssg70
g5448
sg63
(lp5455
S'simple_form.html'
p5456
asbasbasbasbasbsS'locals'
p5457
(dp5458
S'orderby'
p5459
S'<gluon.dal.Field object>'
p5460
sS'fields'
p5461
S'[<gluon.dal.Field object>]'
p5462
sS'dd'
p5463
S"{'cache': None, 'groupby': None, 'orderby': <gluon.dal.Field object>}"
p5464
sS'groupby'
p5465
S'None'
p5466
sS'records'
p5467
S'<gluon.dal.Rows object>'
p5468
sS'r'
S"<Row {'auth_event': <gluon.dal.Set object at 0xb...lete_record': <function <lambda> at 0xb932f534>}>"
p5469
sS'k'
S"'id'"
p5470
sS'self'
p5471
S'<gluon.validators.IS_IN_DB object>'
p5472
sssS'traceback'
p5473
S'Traceback (most recent call last):\n  File "/home/www-data/web2py/gluon/restricted.py", line 192, in restricted\n    exec ccode in environment\n  File "/home/www-data/web2py/applications/scrum/controllers/ticket.py", line 16, in <module>\n  File "/home/www-data/web2py/gluon/globals.py", line 145, in <lambda>\n    self._caller = lambda f: f()\n  File "/home/www-data/web2py/gluon/tools.py", line 2429, in f\n    return action(*a, **b)\n  File "/home/www-data/web2py/applications/scrum/controllers/ticket.py", line 13, in novo\n    form = crud.create(db.ticket)\n  File "/home/www-data/web2py/gluon/tools.py", line 3136, in create\n    formname=formname,\n  File "/home/www-data/web2py/gluon/tools.py", line 3048, in update\n    separator=self.settings.label_separator\n  File "/home/www-data/web2py/gluon/sqlhtml.py", line 830, in __init__\n    inp = self.widgets.options.widget(field, default)\n  File "/home/www-data/web2py/gluon/sqlhtml.py", line 218, in widget\n    options = requires[0].options()\n  File "/home/www-data/web2py/gluon/validators.py", line 438, in options\n    self.build_set()\n  File "/home/www-data/web2py/gluon/validators.py", line 433, in build_set\n    self.labels = [self.label % dict(r) for r in records]\nKeyError: \'first_name\'\n'
p5474
s.