(dp1
S'output'
p2
S''
sS'layer'
p3
S'/home/www-data/web2py/applications/scrum/models/db1.py'
p4
sS'code'
p5
S"#coding: utf8\n\ndb.define_table('biv',\n                Field('numero','integer'),\n                Field('data','date',requires= IS_DATE(format=T('%Y-%m-%d'),\n                                                      error_message=T('deve ser dd/mm/yyyy!'))),\n                Field('versao'))\ndb.biv.id.represent = lambda id: A('Editar BIV %i' % db.biv[id].numero,_href=URL(r=request,f='edita_biv',args=[id]))                                                       \n\ndb.define_table('menu',\n                Field('caminho'))\n               \ndb.define_table('menu_dom',\n                Field('codigo'),\n                Field('descricao'),\n                Field('nome'),\n                Field('modulo'))\n           \ndb.define_table('modulo',\n                Field('codigo','integer'),\n                Field('nome'))\n\ndb.define_table('ticket',\n                Field('chamado'),\n                Field('consultor',db.auth_user),\n                Field('analista',db.auth_user),\n                Field('estado'),\n                Field('patch','boolean'),\n                Field('local_teste'))\n               \ndb.define_table('caso_teste',\n                Field('ticket',db.ticket),\n                Field('acao','text'),\n                Field('resultado','text'),\n                Field('anexo','file'), \n                Field('ordem','integer'))\n\ndb.define_table('item_biv',\n                Field('biv',db.biv),\n                Field('ticket',db.ticket), \n                Field('menu','text',widget=SQLFORM.widgets.autocomplete(request,db.menu.caminho,limitby=(0,10), min_length=2)),\n                Field('modulo',widget=SQLFORM.widgets.autocomplete(request,db.modulo.nome,limitby=(0,10), min_length=2)),\n                Field('texto','text'))\n\ndb.define_table('teste',\n                Field('ticket',db.ticket),\n                Field('caso',db.caso_test),\n                Field('resultado','text'),\n                Field('conclusao'))      \n\ndb.define_table('config',\n                Field('grupo_desenvolvedor',db.auth_group),\n                Field('grupo_consultor',db.auth_group),\n                Field('grupo_administrador',db.auth_group))                           \n               \nconfig = db(db.config).select().first()\n\ndb.item_biv.id.represent = lambda id: SPAN(A('Editar',_href=URL(r=request,c='default',f='edita_biv',args=[db.item_biv[id].biv,id])))                \n               \ndef insere_menu(form):       \n    if len(form.vars.menu) > 0:\n       db.menu.insert(caminho=form.vars.menu) \n\ndef insere_modulo(form):\n    if len(form.vars.modulo) > 0:\n       db.modulo.insert(nome=form.vars.modulo)        \n      \ncrud.settings.create_onaccept.item_biv.append(lambda form: insere_menu(form))\ncrud.settings.create_onaccept.item_biv.append(lambda form: insere_modulo(form))\n"
p6
sS'snapshot'
p7
(dp8
S'exception'
p9
(dp10
S'__getslice__'
p11
S"<method-wrapper '__getslice__' of exceptions.SyntaxError object>"
p12
sS'text'
p13
S'None'
p14
sS'__str__'
p15
S"<method-wrapper '__str__' of exceptions.SyntaxError object>"
p16
sS'__reduce__'
p17
S'<built-in method __reduce__ of exceptions.SyntaxError object>'
p18
sS'__dict__'
p19
S'{}'
p20
sS'__sizeof__'
p21
S'<built-in method __sizeof__ of exceptions.SyntaxError object>'
p22
sS'__init__'
p23
S"<method-wrapper '__init__' of exceptions.SyntaxError object>"
p24
sS'__setattr__'
p25
S"<method-wrapper '__setattr__' of exceptions.SyntaxError object>"
p26
sS'__reduce_ex__'
p27
S'<built-in method __reduce_ex__ of exceptions.SyntaxError object>'
p28
sS'__new__'
p29
S'<built-in method __new__ of type object>'
p30
sS'__format__'
p31
S'<built-in method __format__ of exceptions.SyntaxError object>'
p32
sS'__class__'
p33
S"<type 'exceptions.SyntaxError'>"
p34
sS'filename'
p35
S'None'
p36
sS'lineno'
p37
S'None'
p38
sS'msg'
p39
S"'Field: unknown field type: file for anexo'"
p40
sS'__doc__'
p41
S"'Invalid syntax.'"
p42
sS'__getitem__'
p43
S"<method-wrapper '__getitem__' of exceptions.SyntaxError object>"
p44
sS'__setstate__'
p45
S'<built-in method __setstate__ of exceptions.SyntaxError object>'
p46
sS'__getattribute__'
p47
S"<method-wrapper '__getattribute__' of exceptions.SyntaxError object>"
p48
sS'print_file_and_line'
p49
S'None'
p50
sS'args'
p51
S"('Field: unknown field type: file for anexo',)"
p52
sS'__subclasshook__'
p53
S'<built-in method __subclasshook__ of type object>'
p54
sS'offset'
p55
S'None'
p56
sS'__unicode__'
p57
S'<built-in method __unicode__ of exceptions.SyntaxError object>'
p58
sS'__delattr__'
p59
S"<method-wrapper '__delattr__' of exceptions.SyntaxError object>"
p60
sS'__repr__'
p61
S"<method-wrapper '__repr__' of exceptions.SyntaxError object>"
p62
sS'__hash__'
p63
S"<method-wrapper '__hash__' of exceptions.SyntaxError object>"
p64
ssS'evalue'
p65
S'Field: unknown field type: file for anexo'
p66
sS'request'
p67
ccopy_reg
_reconstructor
p68
(cgluon.html
BEAUTIFY
p69
c__builtin__
object
p70
NtRp71
(dp72
S'attributes'
p73
(dp74
sS'components'
p75
(lp76
g68
(cgluon.html
TABLE
p77
g70
NtRp78
(dp79
g73
(dp80
S'level'
p81
I5
ssS'parent'
p82
Nsg75
(lp83
g68
(cgluon.html
TR
p84
g70
NtRp85
(dp86
g73
(dp87
sg82
g78
sg75
(lp88
g68
(cgluon.html
TD
p89
g70
NtRp90
(dp91
g73
(dp92
S'_style'
p93
S'font-weight:bold;'
p94
ssg82
g85
sg75
(lp95
S'ajax'
p96
asbag68
(g89
g70
NtRp97
(dp98
g73
(dp99
S'_valign'
p100
S'top'
p101
ssg82
g85
sg75
(lp102
S':'
asbag68
(g89
g70
NtRp103
(dp104
g73
(dp105
sg82
g85
sg75
(lp106
g68
(g69
g70
NtRp107
(dp108
g73
(dp109
g81
I5
ssg82
g103
sg75
(lp110
S'False'
p111
asbasbasbag68
(g84
g70
NtRp112
(dp113
g73
(dp114
sg82
g78
sg75
(lp115
g68
(g89
g70
NtRp116
(dp117
g73
(dp118
g93
g94
ssg82
g112
sg75
(lp119
S'application'
p120
asbag68
(g89
g70
NtRp121
(dp122
g73
(dp123
g100
g101
ssg82
g112
sg75
(lp124
S':'
asbag68
(g89
g70
NtRp125
(dp126
g73
(dp127
sg82
g112
sg75
(lp128
g68
(g69
g70
NtRp129
(dp130
g73
(dp131
g81
I5
ssg82
g125
sg75
(lp132
S'scrum'
p133
asbasbasbag68
(g84
g70
NtRp134
(dp135
g73
(dp136
sg82
g78
sg75
(lp137
g68
(g89
g70
NtRp138
(dp139
g73
(dp140
g93
g94
ssg82
g134
sg75
(lp141
g51
asbag68
(g89
g70
NtRp142
(dp143
g73
(dp144
g100
g101
ssg82
g134
sg75
(lp145
S':'
asbag68
(g89
g70
NtRp146
(dp147
g73
(dp148
sg82
g134
sg75
(lp149
g68
(g69
g70
NtRp150
(dp151
g73
(dp152
g81
I5
ssg82
g146
sg75
(lp153
g68
(g77
g70
NtRp154
(dp155
g73
(dp156
g81
I4
ssg82
Nsg75
(lp157
sbasbasbasbag68
(g84
g70
NtRp158
(dp159
g73
(dp160
sg82
g78
sg75
(lp161
g68
(g89
g70
NtRp162
(dp163
g73
(dp164
g93
g94
ssg82
g158
sg75
(lp165
S'body'
p166
asbag68
(g89
g70
NtRp167
(dp168
g73
(dp169
g100
g101
ssg82
g158
sg75
(lp170
S':'
asbag68
(g89
g70
NtRp171
(dp172
g73
(dp173
sg82
g158
sg75
(lp174
g68
(g69
g70
NtRp175
(dp176
g73
(dp177
g81
I5
ssg82
g171
sg75
(lp178
S'<cStringIO.StringO object at 0xb97c5600>'
p179
asbasbasbag68
(g84
g70
NtRp180
(dp181
g73
(dp182
sg82
g78
sg75
(lp183
g68
(g89
g70
NtRp184
(dp185
g73
(dp186
g93
g94
ssg82
g180
sg75
(lp187
S'client'
p188
asbag68
(g89
g70
NtRp189
(dp190
g73
(dp191
g100
g101
ssg82
g180
sg75
(lp192
S':'
asbag68
(g89
g70
NtRp193
(dp194
g73
(dp195
sg82
g180
sg75
(lp196
g68
(g69
g70
NtRp197
(dp198
g73
(dp199
g81
I5
ssg82
g193
sg75
(lp200
S'127.0.0.1'
p201
asbasbasbag68
(g84
g70
NtRp202
(dp203
g73
(dp204
sg82
g78
sg75
(lp205
g68
(g89
g70
NtRp206
(dp207
g73
(dp208
g93
g94
ssg82
g202
sg75
(lp209
S'controller'
p210
asbag68
(g89
g70
NtRp211
(dp212
g73
(dp213
g100
g101
ssg82
g202
sg75
(lp214
S':'
asbag68
(g89
g70
NtRp215
(dp216
g73
(dp217
sg82
g202
sg75
(lp218
g68
(g69
g70
NtRp219
(dp220
g73
(dp221
g81
I5
ssg82
g215
sg75
(lp222
S'ticket'
p223
asbasbasbag68
(g84
g70
NtRp224
(dp225
g73
(dp226
sg82
g78
sg75
(lp227
g68
(g89
g70
NtRp228
(dp229
g73
(dp230
g93
g94
ssg82
g224
sg75
(lp231
S'cookies'
p232
asbag68
(g89
g70
NtRp233
(dp234
g73
(dp235
g100
g101
ssg82
g224
sg75
(lp236
S':'
asbag68
(g89
g70
NtRp237
(dp238
g73
(dp239
sg82
g224
sg75
(lp240
g68
(g69
g70
NtRp241
(dp242
g73
(dp243
g81
I5
ssg82
g237
sg75
(lp244
g68
(g77
g70
NtRp245
(dp246
g73
(dp247
g81
I4
ssg82
Nsg75
(lp248
g68
(g84
g70
NtRp249
(dp250
g73
(dp251
sg82
g245
sg75
(lp252
g68
(g89
g70
NtRp253
(dp254
g73
(dp255
g93
g94
ssg82
g249
sg75
(lp256
S'session_id_admin'
p257
asbag68
(g89
g70
NtRp258
(dp259
g73
(dp260
g100
g101
ssg82
g249
sg75
(lp261
S':'
asbag68
(g89
g70
NtRp262
(dp263
g73
(dp264
sg82
g249
sg75
(lp265
g68
(g69
g70
NtRp266
(dp267
g73
(dp268
g81
I4
ssg82
g262
sg75
(lp269
g68
(g77
g70
NtRp270
(dp271
g73
(dp272
g81
I3
ssg82
Nsg75
(lp273
g68
(g84
g70
NtRp274
(dp275
g73
(dp276
sg82
g270
sg75
(lp277
g68
(g89
g70
NtRp278
(dp279
g73
(dp280
g93
g94
ssg82
g274
sg75
(lp281
S'comment'
p282
asbag68
(g89
g70
NtRp283
(dp284
g73
(dp285
g100
g101
ssg82
g274
sg75
(lp286
S':'
asbag68
(g89
g70
NtRp287
(dp288
g73
(dp289
sg82
g274
sg75
(lp290
g68
(g69
g70
NtRp291
(dp292
g73
(dp293
g81
I3
ssg82
g287
sg75
(lp294
S''
asbasbasbag68
(g84
g70
NtRp295
(dp296
g73
(dp297
sg82
g270
sg75
(lp298
g68
(g89
g70
NtRp299
(dp300
g73
(dp301
g93
g94
ssg82
g295
sg75
(lp302
S'domain'
p303
asbag68
(g89
g70
NtRp304
(dp305
g73
(dp306
g100
g101
ssg82
g295
sg75
(lp307
S':'
asbag68
(g89
g70
NtRp308
(dp309
g73
(dp310
sg82
g295
sg75
(lp311
g68
(g69
g70
NtRp312
(dp313
g73
(dp314
g81
I3
ssg82
g308
sg75
(lp315
S''
asbasbasbag68
(g84
g70
NtRp316
(dp317
g73
(dp318
sg82
g270
sg75
(lp319
g68
(g89
g70
NtRp320
(dp321
g73
(dp322
g93
g94
ssg82
g316
sg75
(lp323
S'expires'
p324
asbag68
(g89
g70
NtRp325
(dp326
g73
(dp327
g100
g101
ssg82
g316
sg75
(lp328
S':'
asbag68
(g89
g70
NtRp329
(dp330
g73
(dp331
sg82
g316
sg75
(lp332
g68
(g69
g70
NtRp333
(dp334
g73
(dp335
g81
I3
ssg82
g329
sg75
(lp336
S''
asbasbasbag68
(g84
g70
NtRp337
(dp338
g73
(dp339
sg82
g270
sg75
(lp340
g68
(g89
g70
NtRp341
(dp342
g73
(dp343
g93
g94
ssg82
g337
sg75
(lp344
S'httponly'
p345
asbag68
(g89
g70
NtRp346
(dp347
g73
(dp348
g100
g101
ssg82
g337
sg75
(lp349
S':'
asbag68
(g89
g70
NtRp350
(dp351
g73
(dp352
sg82
g337
sg75
(lp353
g68
(g69
g70
NtRp354
(dp355
g73
(dp356
g81
I3
ssg82
g350
sg75
(lp357
S''
asbasbasbag68
(g84
g70
NtRp358
(dp359
g73
(dp360
sg82
g270
sg75
(lp361
g68
(g89
g70
NtRp362
(dp363
g73
(dp364
g93
g94
ssg82
g358
sg75
(lp365
S'max-age'
p366
asbag68
(g89
g70
NtRp367
(dp368
g73
(dp369
g100
g101
ssg82
g358
sg75
(lp370
S':'
asbag68
(g89
g70
NtRp371
(dp372
g73
(dp373
sg82
g358
sg75
(lp374
g68
(g69
g70
NtRp375
(dp376
g73
(dp377
g81
I3
ssg82
g371
sg75
(lp378
S''
asbasbasbag68
(g84
g70
NtRp379
(dp380
g73
(dp381
sg82
g270
sg75
(lp382
g68
(g89
g70
NtRp383
(dp384
g73
(dp385
g93
g94
ssg82
g379
sg75
(lp386
S'path'
p387
asbag68
(g89
g70
NtRp388
(dp389
g73
(dp390
g100
g101
ssg82
g379
sg75
(lp391
S':'
asbag68
(g89
g70
NtRp392
(dp393
g73
(dp394
sg82
g379
sg75
(lp395
g68
(g69
g70
NtRp396
(dp397
g73
(dp398
g81
I3
ssg82
g392
sg75
(lp399
S''
asbasbasbag68
(g84
g70
NtRp400
(dp401
g73
(dp402
sg82
g270
sg75
(lp403
g68
(g89
g70
NtRp404
(dp405
g73
(dp406
g93
g94
ssg82
g400
sg75
(lp407
S'secure'
p408
asbag68
(g89
g70
NtRp409
(dp410
g73
(dp411
g100
g101
ssg82
g400
sg75
(lp412
S':'
asbag68
(g89
g70
NtRp413
(dp414
g73
(dp415
sg82
g400
sg75
(lp416
g68
(g69
g70
NtRp417
(dp418
g73
(dp419
g81
I3
ssg82
g413
sg75
(lp420
S''
asbasbasbag68
(g84
g70
NtRp421
(dp422
g73
(dp423
sg82
g270
sg75
(lp424
g68
(g89
g70
NtRp425
(dp426
g73
(dp427
g93
g94
ssg82
g421
sg75
(lp428
S'version'
p429
asbag68
(g89
g70
NtRp430
(dp431
g73
(dp432
g100
g101
ssg82
g421
sg75
(lp433
S':'
asbag68
(g89
g70
NtRp434
(dp435
g73
(dp436
sg82
g421
sg75
(lp437
g68
(g69
g70
NtRp438
(dp439
g73
(dp440
g81
I3
ssg82
g434
sg75
(lp441
S''
asbasbasbasbasbasbasbasbasbasbasbag68
(g84
g70
NtRp442
(dp443
g73
(dp444
sg82
g78
sg75
(lp445
g68
(g89
g70
NtRp446
(dp447
g73
(dp448
g93
g94
ssg82
g442
sg75
(lp449
S'env'
p450
asbag68
(g89
g70
NtRp451
(dp452
g73
(dp453
g100
g101
ssg82
g442
sg75
(lp454
S':'
asbag68
(g89
g70
NtRp455
(dp456
g73
(dp457
sg82
g442
sg75
(lp458
g68
(g69
g70
NtRp459
(dp460
g73
(dp461
g81
I5
ssg82
g455
sg75
(lp462
g68
(g77
g70
NtRp463
(dp464
g73
(dp465
g81
I4
ssg82
Nsg75
(lp466
g68
(g84
g70
NtRp467
(dp468
g73
(dp469
sg82
g463
sg75
(lp470
g68
(g89
g70
NtRp471
(dp472
g73
(dp473
g93
g94
ssg82
g467
sg75
(lp474
S'app_folders'
p475
asbag68
(g89
g70
NtRp476
(dp477
g73
(dp478
g100
g101
ssg82
g467
sg75
(lp479
S':'
asbag68
(g89
g70
NtRp480
(dp481
g73
(dp482
sg82
g467
sg75
(lp483
g68
(g69
g70
NtRp484
(dp485
g73
(dp486
g81
I4
ssg82
g480
sg75
(lp487
S"set(['/home/www-data/web2py/applications/scrum/', '/home/www-data/web2py/applications/admin/'])"
p488
asbasbasbag68
(g84
g70
NtRp489
(dp490
g73
(dp491
sg82
g463
sg75
(lp492
g68
(g89
g70
NtRp493
(dp494
g73
(dp495
g93
g94
ssg82
g489
sg75
(lp496
S'applications_parent'
p497
asbag68
(g89
g70
NtRp498
(dp499
g73
(dp500
g100
g101
ssg82
g489
sg75
(lp501
S':'
asbag68
(g89
g70
NtRp502
(dp503
g73
(dp504
sg82
g489
sg75
(lp505
g68
(g69
g70
NtRp506
(dp507
g73
(dp508
g81
I4
ssg82
g502
sg75
(lp509
S'/home/www-data/web2py'
p510
asbasbasbag68
(g84
g70
NtRp511
(dp512
g73
(dp513
sg82
g463
sg75
(lp514
g68
(g89
g70
NtRp515
(dp516
g73
(dp517
g93
g94
ssg82
g511
sg75
(lp518
S'db_sessions'
p519
asbag68
(g89
g70
NtRp520
(dp521
g73
(dp522
g100
g101
ssg82
g511
sg75
(lp523
S':'
asbag68
(g89
g70
NtRp524
(dp525
g73
(dp526
sg82
g511
sg75
(lp527
g68
(g69
g70
NtRp528
(dp529
g73
(dp530
g81
I4
ssg82
g524
sg75
(lp531
S'set([])'
p532
asbasbasbag68
(g84
g70
NtRp533
(dp534
g73
(dp535
sg82
g463
sg75
(lp536
g68
(g89
g70
NtRp537
(dp538
g73
(dp539
g93
g94
ssg82
g533
sg75
(lp540
S'debugging'
p541
asbag68
(g89
g70
NtRp542
(dp543
g73
(dp544
g100
g101
ssg82
g533
sg75
(lp545
S':'
asbag68
(g89
g70
NtRp546
(dp547
g73
(dp548
sg82
g533
sg75
(lp549
g68
(g69
g70
NtRp550
(dp551
g73
(dp552
g81
I4
ssg82
g546
sg75
(lp553
g111
asbasbasbag68
(g84
g70
NtRp554
(dp555
g73
(dp556
sg82
g463
sg75
(lp557
g68
(g89
g70
NtRp558
(dp559
g73
(dp560
g93
g94
ssg82
g554
sg75
(lp561
S'document_root'
p562
asbag68
(g89
g70
NtRp563
(dp564
g73
(dp565
g100
g101
ssg82
g554
sg75
(lp566
S':'
asbag68
(g89
g70
NtRp567
(dp568
g73
(dp569
sg82
g554
sg75
(lp570
g68
(g69
g70
NtRp571
(dp572
g73
(dp573
g81
I4
ssg82
g567
sg75
(lp574
S'/etc/apache2/htdocs'
p575
asbasbasbag68
(g84
g70
NtRp576
(dp577
g73
(dp578
sg82
g463
sg75
(lp579
g68
(g89
g70
NtRp580
(dp581
g73
(dp582
g93
g94
ssg82
g576
sg75
(lp583
S'gateway_interface'
p584
asbag68
(g89
g70
NtRp585
(dp586
g73
(dp587
g100
g101
ssg82
g576
sg75
(lp588
S':'
asbag68
(g89
g70
NtRp589
(dp590
g73
(dp591
sg82
g576
sg75
(lp592
g68
(g69
g70
NtRp593
(dp594
g73
(dp595
g81
I4
ssg82
g589
sg75
(lp596
S'CGI/1.1'
p597
asbasbasbag68
(g84
g70
NtRp598
(dp599
g73
(dp600
sg82
g463
sg75
(lp601
g68
(g89
g70
NtRp602
(dp603
g73
(dp604
g93
g94
ssg82
g598
sg75
(lp605
S'gluon_parent'
p606
asbag68
(g89
g70
NtRp607
(dp608
g73
(dp609
g100
g101
ssg82
g598
sg75
(lp610
S':'
asbag68
(g89
g70
NtRp611
(dp612
g73
(dp613
sg82
g598
sg75
(lp614
g68
(g69
g70
NtRp615
(dp616
g73
(dp617
g81
I4
ssg82
g611
sg75
(lp618
g510
asbasbasbag68
(g84
g70
NtRp619
(dp620
g73
(dp621
sg82
g463
sg75
(lp622
g68
(g89
g70
NtRp623
(dp624
g73
(dp625
g93
g94
ssg82
g619
sg75
(lp626
S'http_accept'
p627
asbag68
(g89
g70
NtRp628
(dp629
g73
(dp630
g100
g101
ssg82
g619
sg75
(lp631
S':'
asbag68
(g89
g70
NtRp632
(dp633
g73
(dp634
sg82
g619
sg75
(lp635
g68
(g69
g70
NtRp636
(dp637
g73
(dp638
g81
I4
ssg82
g632
sg75
(lp639
S'text/html, application/xml;q=0.9, application/xhtml+xml, image/png, image/webp, image/jpeg, image/gif, image/x-xbitmap, */*;q=0.1'
p640
asbasbasbag68
(g84
g70
NtRp641
(dp642
g73
(dp643
sg82
g463
sg75
(lp644
g68
(g89
g70
NtRp645
(dp646
g73
(dp647
g93
g94
ssg82
g641
sg75
(lp648
S'http_accept_encoding'
p649
asbag68
(g89
g70
NtRp650
(dp651
g73
(dp652
g100
g101
ssg82
g641
sg75
(lp653
S':'
asbag68
(g89
g70
NtRp654
(dp655
g73
(dp656
sg82
g641
sg75
(lp657
g68
(g69
g70
NtRp658
(dp659
g73
(dp660
g81
I4
ssg82
g654
sg75
(lp661
S'gzip, deflate'
p662
asbasbasbag68
(g84
g70
NtRp663
(dp664
g73
(dp665
sg82
g463
sg75
(lp666
g68
(g89
g70
NtRp667
(dp668
g73
(dp669
g93
g94
ssg82
g663
sg75
(lp670
S'http_accept_language'
p671
asbag68
(g89
g70
NtRp672
(dp673
g73
(dp674
g100
g101
ssg82
g663
sg75
(lp675
S':'
asbag68
(g89
g70
NtRp676
(dp677
g73
(dp678
sg82
g663
sg75
(lp679
g68
(g69
g70
NtRp680
(dp681
g73
(dp682
g81
I4
ssg82
g676
sg75
(lp683
S'pt-BR,pt;q=0.9,en;q=0.8'
p684
asbasbasbag68
(g84
g70
NtRp685
(dp686
g73
(dp687
sg82
g463
sg75
(lp688
g68
(g89
g70
NtRp689
(dp690
g73
(dp691
g93
g94
ssg82
g685
sg75
(lp692
S'http_connection'
p693
asbag68
(g89
g70
NtRp694
(dp695
g73
(dp696
g100
g101
ssg82
g685
sg75
(lp697
S':'
asbag68
(g89
g70
NtRp698
(dp699
g73
(dp700
sg82
g685
sg75
(lp701
g68
(g69
g70
NtRp702
(dp703
g73
(dp704
g81
I4
ssg82
g698
sg75
(lp705
S'Keep-Alive'
p706
asbasbasbag68
(g84
g70
NtRp707
(dp708
g73
(dp709
sg82
g463
sg75
(lp710
g68
(g89
g70
NtRp711
(dp712
g73
(dp713
g93
g94
ssg82
g707
sg75
(lp714
S'http_cookie'
p715
asbag68
(g89
g70
NtRp716
(dp717
g73
(dp718
g100
g101
ssg82
g707
sg75
(lp719
S':'
asbag68
(g89
g70
NtRp720
(dp721
g73
(dp722
sg82
g707
sg75
(lp723
g68
(g69
g70
NtRp724
(dp725
g73
(dp726
g81
I4
ssg82
g720
sg75
(lp727
S'session_id_admin=127.0.0.1-ce034cfe-dc55-49ae-8249-b059df779a22'
p728
asbasbasbag68
(g84
g70
NtRp729
(dp730
g73
(dp731
sg82
g463
sg75
(lp732
g68
(g89
g70
NtRp733
(dp734
g73
(dp735
g93
g94
ssg82
g729
sg75
(lp736
S'http_host'
p737
asbag68
(g89
g70
NtRp738
(dp739
g73
(dp740
g100
g101
ssg82
g729
sg75
(lp741
S':'
asbag68
(g89
g70
NtRp742
(dp743
g73
(dp744
sg82
g729
sg75
(lp745
g68
(g69
g70
NtRp746
(dp747
g73
(dp748
g81
I4
ssg82
g742
sg75
(lp749
S'localhost'
p750
asbasbasbag68
(g84
g70
NtRp751
(dp752
g73
(dp753
sg82
g463
sg75
(lp754
g68
(g89
g70
NtRp755
(dp756
g73
(dp757
g93
g94
ssg82
g751
sg75
(lp758
S'http_referer'
p759
asbag68
(g89
g70
NtRp760
(dp761
g73
(dp762
g100
g101
ssg82
g751
sg75
(lp763
S':'
asbag68
(g89
g70
NtRp764
(dp765
g73
(dp766
sg82
g751
sg75
(lp767
g68
(g69
g70
NtRp768
(dp769
g73
(dp770
g81
I4
ssg82
g764
sg75
(lp771
S'https://localhost/admin/default/edit/scrum/controllers/ticket.py'
p772
asbasbasbag68
(g84
g70
NtRp773
(dp774
g73
(dp775
sg82
g463
sg75
(lp776
g68
(g89
g70
NtRp777
(dp778
g73
(dp779
g93
g94
ssg82
g773
sg75
(lp780
S'http_user_agent'
p781
asbag68
(g89
g70
NtRp782
(dp783
g73
(dp784
g100
g101
ssg82
g773
sg75
(lp785
S':'
asbag68
(g89
g70
NtRp786
(dp787
g73
(dp788
sg82
g773
sg75
(lp789
g68
(g69
g70
NtRp790
(dp791
g73
(dp792
g81
I4
ssg82
g786
sg75
(lp793
S'Opera/9.80 (X11; Linux i686; U; pt-BR) Presto/2.9.168 Version/11.51'
p794
asbasbasbag68
(g84
g70
NtRp795
(dp796
g73
(dp797
sg82
g463
sg75
(lp798
g68
(g89
g70
NtRp799
(dp800
g73
(dp801
g93
g94
ssg82
g795
sg75
(lp802
S'https'
p803
asbag68
(g89
g70
NtRp804
(dp805
g73
(dp806
g100
g101
ssg82
g795
sg75
(lp807
S':'
asbag68
(g89
g70
NtRp808
(dp809
g73
(dp810
sg82
g795
sg75
(lp811
g68
(g69
g70
NtRp812
(dp813
g73
(dp814
g81
I4
ssg82
g808
sg75
(lp815
S'1'
asbasbasbag68
(g84
g70
NtRp816
(dp817
g73
(dp818
sg82
g463
sg75
(lp819
g68
(g89
g70
NtRp820
(dp821
g73
(dp822
g93
g94
ssg82
g816
sg75
(lp823
S'is_jython'
p824
asbag68
(g89
g70
NtRp825
(dp826
g73
(dp827
g100
g101
ssg82
g816
sg75
(lp828
S':'
asbag68
(g89
g70
NtRp829
(dp830
g73
(dp831
sg82
g816
sg75
(lp832
g68
(g69
g70
NtRp833
(dp834
g73
(dp835
g81
I4
ssg82
g829
sg75
(lp836
g111
asbasbasbag68
(g84
g70
NtRp837
(dp838
g73
(dp839
sg82
g463
sg75
(lp840
g68
(g89
g70
NtRp841
(dp842
g73
(dp843
g93
g94
ssg82
g837
sg75
(lp844
S'mod_wsgi_application_group'
p845
asbag68
(g89
g70
NtRp846
(dp847
g73
(dp848
g100
g101
ssg82
g837
sg75
(lp849
S':'
asbag68
(g89
g70
NtRp850
(dp851
g73
(dp852
sg82
g837
sg75
(lp853
g68
(g69
g70
NtRp854
(dp855
g73
(dp856
g81
I4
ssg82
g850
sg75
(lp857
S'localhost.localdomain|'
p858
asbasbasbag68
(g84
g70
NtRp859
(dp860
g73
(dp861
sg82
g463
sg75
(lp862
g68
(g89
g70
NtRp863
(dp864
g73
(dp865
g93
g94
ssg82
g859
sg75
(lp866
S'mod_wsgi_callable_object'
p867
asbag68
(g89
g70
NtRp868
(dp869
g73
(dp870
g100
g101
ssg82
g859
sg75
(lp871
S':'
asbag68
(g89
g70
NtRp872
(dp873
g73
(dp874
sg82
g859
sg75
(lp875
g68
(g69
g70
NtRp876
(dp877
g73
(dp878
g81
I4
ssg82
g872
sg75
(lp879
S'application'
p880
asbasbasbag68
(g84
g70
NtRp881
(dp882
g73
(dp883
sg82
g463
sg75
(lp884
g68
(g89
g70
NtRp885
(dp886
g73
(dp887
g93
g94
ssg82
g881
sg75
(lp888
S'mod_wsgi_handler_script'
p889
asbag68
(g89
g70
NtRp890
(dp891
g73
(dp892
g100
g101
ssg82
g881
sg75
(lp893
S':'
asbag68
(g89
g70
NtRp894
(dp895
g73
(dp896
sg82
g881
sg75
(lp897
g68
(g69
g70
NtRp898
(dp899
g73
(dp900
g81
I4
ssg82
g894
sg75
(lp901
S''
asbasbasbag68
(g84
g70
NtRp902
(dp903
g73
(dp904
sg82
g463
sg75
(lp905
g68
(g89
g70
NtRp906
(dp907
g73
(dp908
g93
g94
ssg82
g902
sg75
(lp909
S'mod_wsgi_input_chunked'
p910
asbag68
(g89
g70
NtRp911
(dp912
g73
(dp913
g100
g101
ssg82
g902
sg75
(lp914
S':'
asbag68
(g89
g70
NtRp915
(dp916
g73
(dp917
sg82
g902
sg75
(lp918
g68
(g69
g70
NtRp919
(dp920
g73
(dp921
g81
I4
ssg82
g915
sg75
(lp922
S'0'
asbasbasbag68
(g84
g70
NtRp923
(dp924
g73
(dp925
sg82
g463
sg75
(lp926
g68
(g89
g70
NtRp927
(dp928
g73
(dp929
g93
g94
ssg82
g923
sg75
(lp930
S'mod_wsgi_listener_host'
p931
asbag68
(g89
g70
NtRp932
(dp933
g73
(dp934
g100
g101
ssg82
g923
sg75
(lp935
S':'
asbag68
(g89
g70
NtRp936
(dp937
g73
(dp938
sg82
g923
sg75
(lp939
g68
(g69
g70
NtRp940
(dp941
g73
(dp942
g81
I4
ssg82
g936
sg75
(lp943
S''
asbasbasbag68
(g84
g70
NtRp944
(dp945
g73
(dp946
sg82
g463
sg75
(lp947
g68
(g89
g70
NtRp948
(dp949
g73
(dp950
g93
g94
ssg82
g944
sg75
(lp951
S'mod_wsgi_listener_port'
p952
asbag68
(g89
g70
NtRp953
(dp954
g73
(dp955
g100
g101
ssg82
g944
sg75
(lp956
S':'
asbag68
(g89
g70
NtRp957
(dp958
g73
(dp959
sg82
g944
sg75
(lp960
g68
(g69
g70
NtRp961
(dp962
g73
(dp963
g81
I4
ssg82
g957
sg75
(lp964
S'443'
p965
asbasbasbag68
(g84
g70
NtRp966
(dp967
g73
(dp968
sg82
g463
sg75
(lp969
g68
(g89
g70
NtRp970
(dp971
g73
(dp972
g93
g94
ssg82
g966
sg75
(lp973
S'mod_wsgi_process_group'
p974
asbag68
(g89
g70
NtRp975
(dp976
g73
(dp977
g100
g101
ssg82
g966
sg75
(lp978
S':'
asbag68
(g89
g70
NtRp979
(dp980
g73
(dp981
sg82
g966
sg75
(lp982
g68
(g69
g70
NtRp983
(dp984
g73
(dp985
g81
I4
ssg82
g979
sg75
(lp986
S'web2py'
p987
asbasbasbag68
(g84
g70
NtRp988
(dp989
g73
(dp990
sg82
g463
sg75
(lp991
g68
(g89
g70
NtRp992
(dp993
g73
(dp994
g93
g94
ssg82
g988
sg75
(lp995
S'mod_wsgi_request_handler'
p996
asbag68
(g89
g70
NtRp997
(dp998
g73
(dp999
g100
g101
ssg82
g988
sg75
(lp1000
S':'
asbag68
(g89
g70
NtRp1001
(dp1002
g73
(dp1003
sg82
g988
sg75
(lp1004
g68
(g69
g70
NtRp1005
(dp1006
g73
(dp1007
g81
I4
ssg82
g1001
sg75
(lp1008
S'wsgi-script'
p1009
asbasbasbag68
(g84
g70
NtRp1010
(dp1011
g73
(dp1012
sg82
g463
sg75
(lp1013
g68
(g89
g70
NtRp1014
(dp1015
g73
(dp1016
g93
g94
ssg82
g1010
sg75
(lp1017
S'mod_wsgi_script_reloading'
p1018
asbag68
(g89
g70
NtRp1019
(dp1020
g73
(dp1021
g100
g101
ssg82
g1010
sg75
(lp1022
S':'
asbag68
(g89
g70
NtRp1023
(dp1024
g73
(dp1025
sg82
g1010
sg75
(lp1026
g68
(g69
g70
NtRp1027
(dp1028
g73
(dp1029
g81
I4
ssg82
g1023
sg75
(lp1030
S'1'
asbasbasbag68
(g84
g70
NtRp1031
(dp1032
g73
(dp1033
sg82
g463
sg75
(lp1034
g68
(g89
g70
NtRp1035
(dp1036
g73
(dp1037
g93
g94
ssg82
g1031
sg75
(lp1038
S'mod_wsgi_version'
p1039
asbag68
(g89
g70
NtRp1040
(dp1041
g73
(dp1042
g100
g101
ssg82
g1031
sg75
(lp1043
S':'
asbag68
(g89
g70
NtRp1044
(dp1045
g73
(dp1046
sg82
g1031
sg75
(lp1047
g68
(g69
g70
NtRp1048
(dp1049
g73
(dp1050
g81
I4
ssg82
g1044
sg75
(lp1051
g68
(g77
g70
NtRp1052
(dp1053
g73
(dp1054
g81
I3
ssg82
Nsg75
(lp1055
g68
(g84
g70
NtRp1056
(dp1057
g73
(dp1058
sg82
g1052
sg75
(lp1059
g68
(g89
g70
NtRp1060
(dp1061
g73
(dp1062
sg82
g1056
sg75
(lp1063
g68
(g69
g70
NtRp1064
(dp1065
g73
(dp1066
g81
I3
ssg82
g1060
sg75
(lp1067
S'3'
asbasbasbag68
(g84
g70
NtRp1068
(dp1069
g73
(dp1070
sg82
g1052
sg75
(lp1071
g68
(g89
g70
NtRp1072
(dp1073
g73
(dp1074
sg82
g1068
sg75
(lp1075
g68
(g69
g70
NtRp1076
(dp1077
g73
(dp1078
g81
I3
ssg82
g1072
sg75
(lp1079
S'3'
asbasbasbasbasbasbasbag68
(g84
g70
NtRp1080
(dp1081
g73
(dp1082
sg82
g463
sg75
(lp1083
g68
(g89
g70
NtRp1084
(dp1085
g73
(dp1086
g93
g94
ssg82
g1080
sg75
(lp1087
S'path_info'
p1088
asbag68
(g89
g70
NtRp1089
(dp1090
g73
(dp1091
g100
g101
ssg82
g1080
sg75
(lp1092
S':'
asbag68
(g89
g70
NtRp1093
(dp1094
g73
(dp1095
sg82
g1080
sg75
(lp1096
g68
(g69
g70
NtRp1097
(dp1098
g73
(dp1099
g81
I4
ssg82
g1093
sg75
(lp1100
S'/scrum/ticket/index'
p1101
asbasbasbag68
(g84
g70
NtRp1102
(dp1103
g73
(dp1104
sg82
g463
sg75
(lp1105
g68
(g89
g70
NtRp1106
(dp1107
g73
(dp1108
g93
g94
ssg82
g1102
sg75
(lp1109
S'path_translated'
p1110
asbag68
(g89
g70
NtRp1111
(dp1112
g73
(dp1113
g100
g101
ssg82
g1102
sg75
(lp1114
S':'
asbag68
(g89
g70
NtRp1115
(dp1116
g73
(dp1117
sg82
g1102
sg75
(lp1118
g68
(g69
g70
NtRp1119
(dp1120
g73
(dp1121
g81
I4
ssg82
g1115
sg75
(lp1122
S'/home/www-data/web2py/wsgihandler.py/scrum/ticket/index'
p1123
asbasbasbag68
(g84
g70
NtRp1124
(dp1125
g73
(dp1126
sg82
g463
sg75
(lp1127
g68
(g89
g70
NtRp1128
(dp1129
g73
(dp1130
g93
g94
ssg82
g1124
sg75
(lp1131
S'query_string'
p1132
asbag68
(g89
g70
NtRp1133
(dp1134
g73
(dp1135
g100
g101
ssg82
g1124
sg75
(lp1136
S':'
asbag68
(g89
g70
NtRp1137
(dp1138
g73
(dp1139
sg82
g1124
sg75
(lp1140
g68
(g69
g70
NtRp1141
(dp1142
g73
(dp1143
g81
I4
ssg82
g1137
sg75
(lp1144
S''
asbasbasbag68
(g84
g70
NtRp1145
(dp1146
g73
(dp1147
sg82
g463
sg75
(lp1148
g68
(g89
g70
NtRp1149
(dp1150
g73
(dp1151
g93
g94
ssg82
g1145
sg75
(lp1152
S'remote_addr'
p1153
asbag68
(g89
g70
NtRp1154
(dp1155
g73
(dp1156
g100
g101
ssg82
g1145
sg75
(lp1157
S':'
asbag68
(g89
g70
NtRp1158
(dp1159
g73
(dp1160
sg82
g1145
sg75
(lp1161
g68
(g69
g70
NtRp1162
(dp1163
g73
(dp1164
g81
I4
ssg82
g1158
sg75
(lp1165
g201
asbasbasbag68
(g84
g70
NtRp1166
(dp1167
g73
(dp1168
sg82
g463
sg75
(lp1169
g68
(g89
g70
NtRp1170
(dp1171
g73
(dp1172
g93
g94
ssg82
g1166
sg75
(lp1173
S'remote_port'
p1174
asbag68
(g89
g70
NtRp1175
(dp1176
g73
(dp1177
g100
g101
ssg82
g1166
sg75
(lp1178
S':'
asbag68
(g89
g70
NtRp1179
(dp1180
g73
(dp1181
sg82
g1166
sg75
(lp1182
g68
(g69
g70
NtRp1183
(dp1184
g73
(dp1185
g81
I4
ssg82
g1179
sg75
(lp1186
S'56110'
p1187
asbasbasbag68
(g84
g70
NtRp1188
(dp1189
g73
(dp1190
sg82
g463
sg75
(lp1191
g68
(g89
g70
NtRp1192
(dp1193
g73
(dp1194
g93
g94
ssg82
g1188
sg75
(lp1195
S'request_method'
p1196
asbag68
(g89
g70
NtRp1197
(dp1198
g73
(dp1199
g100
g101
ssg82
g1188
sg75
(lp1200
S':'
asbag68
(g89
g70
NtRp1201
(dp1202
g73
(dp1203
sg82
g1188
sg75
(lp1204
g68
(g69
g70
NtRp1205
(dp1206
g73
(dp1207
g81
I4
ssg82
g1201
sg75
(lp1208
S'GET'
p1209
asbasbasbag68
(g84
g70
NtRp1210
(dp1211
g73
(dp1212
sg82
g463
sg75
(lp1213
g68
(g89
g70
NtRp1214
(dp1215
g73
(dp1216
g93
g94
ssg82
g1210
sg75
(lp1217
S'request_uri'
p1218
asbag68
(g89
g70
NtRp1219
(dp1220
g73
(dp1221
g100
g101
ssg82
g1210
sg75
(lp1222
S':'
asbag68
(g89
g70
NtRp1223
(dp1224
g73
(dp1225
sg82
g1210
sg75
(lp1226
g68
(g69
g70
NtRp1227
(dp1228
g73
(dp1229
g81
I4
ssg82
g1223
sg75
(lp1230
S'/scrum/ticket/index'
p1231
asbasbasbag68
(g84
g70
NtRp1232
(dp1233
g73
(dp1234
sg82
g463
sg75
(lp1235
g68
(g89
g70
NtRp1236
(dp1237
g73
(dp1238
g93
g94
ssg82
g1232
sg75
(lp1239
S'script_filename'
p1240
asbag68
(g89
g70
NtRp1241
(dp1242
g73
(dp1243
g100
g101
ssg82
g1232
sg75
(lp1244
S':'
asbag68
(g89
g70
NtRp1245
(dp1246
g73
(dp1247
sg82
g1232
sg75
(lp1248
g68
(g69
g70
NtRp1249
(dp1250
g73
(dp1251
g81
I4
ssg82
g1245
sg75
(lp1252
S'/home/www-data/web2py/wsgihandler.py'
p1253
asbasbasbag68
(g84
g70
NtRp1254
(dp1255
g73
(dp1256
sg82
g463
sg75
(lp1257
g68
(g89
g70
NtRp1258
(dp1259
g73
(dp1260
g93
g94
ssg82
g1254
sg75
(lp1261
S'script_name'
p1262
asbag68
(g89
g70
NtRp1263
(dp1264
g73
(dp1265
g100
g101
ssg82
g1254
sg75
(lp1266
S':'
asbag68
(g89
g70
NtRp1267
(dp1268
g73
(dp1269
sg82
g1254
sg75
(lp1270
g68
(g69
g70
NtRp1271
(dp1272
g73
(dp1273
g81
I4
ssg82
g1267
sg75
(lp1274
S''
asbasbasbag68
(g84
g70
NtRp1275
(dp1276
g73
(dp1277
sg82
g463
sg75
(lp1278
g68
(g89
g70
NtRp1279
(dp1280
g73
(dp1281
g93
g94
ssg82
g1275
sg75
(lp1282
S'server_addr'
p1283
asbag68
(g89
g70
NtRp1284
(dp1285
g73
(dp1286
g100
g101
ssg82
g1275
sg75
(lp1287
S':'
asbag68
(g89
g70
NtRp1288
(dp1289
g73
(dp1290
sg82
g1275
sg75
(lp1291
g68
(g69
g70
NtRp1292
(dp1293
g73
(dp1294
g81
I4
ssg82
g1288
sg75
(lp1295
S'127.0.0.1'
p1296
asbasbasbag68
(g84
g70
NtRp1297
(dp1298
g73
(dp1299
sg82
g463
sg75
(lp1300
g68
(g89
g70
NtRp1301
(dp1302
g73
(dp1303
g93
g94
ssg82
g1297
sg75
(lp1304
S'server_admin'
p1305
asbag68
(g89
g70
NtRp1306
(dp1307
g73
(dp1308
g100
g101
ssg82
g1297
sg75
(lp1309
S':'
asbag68
(g89
g70
NtRp1310
(dp1311
g73
(dp1312
sg82
g1297
sg75
(lp1313
g68
(g69
g70
NtRp1314
(dp1315
g73
(dp1316
g81
I4
ssg82
g1310
sg75
(lp1317
S'[no address given]'
p1318
asbasbasbag68
(g84
g70
NtRp1319
(dp1320
g73
(dp1321
sg82
g463
sg75
(lp1322
g68
(g89
g70
NtRp1323
(dp1324
g73
(dp1325
g93
g94
ssg82
g1319
sg75
(lp1326
S'server_name'
p1327
asbag68
(g89
g70
NtRp1328
(dp1329
g73
(dp1330
g100
g101
ssg82
g1319
sg75
(lp1331
S':'
asbag68
(g89
g70
NtRp1332
(dp1333
g73
(dp1334
sg82
g1319
sg75
(lp1335
g68
(g69
g70
NtRp1336
(dp1337
g73
(dp1338
g81
I4
ssg82
g1332
sg75
(lp1339
S'localhost'
p1340
asbasbasbag68
(g84
g70
NtRp1341
(dp1342
g73
(dp1343
sg82
g463
sg75
(lp1344
g68
(g89
g70
NtRp1345
(dp1346
g73
(dp1347
g93
g94
ssg82
g1341
sg75
(lp1348
S'server_port'
p1349
asbag68
(g89
g70
NtRp1350
(dp1351
g73
(dp1352
g100
g101
ssg82
g1341
sg75
(lp1353
S':'
asbag68
(g89
g70
NtRp1354
(dp1355
g73
(dp1356
sg82
g1341
sg75
(lp1357
g68
(g69
g70
NtRp1358
(dp1359
g73
(dp1360
g81
I4
ssg82
g1354
sg75
(lp1361
S'443'
p1362
asbasbasbag68
(g84
g70
NtRp1363
(dp1364
g73
(dp1365
sg82
g463
sg75
(lp1366
g68
(g89
g70
NtRp1367
(dp1368
g73
(dp1369
g93
g94
ssg82
g1363
sg75
(lp1370
S'server_protocol'
p1371
asbag68
(g89
g70
NtRp1372
(dp1373
g73
(dp1374
g100
g101
ssg82
g1363
sg75
(lp1375
S':'
asbag68
(g89
g70
NtRp1376
(dp1377
g73
(dp1378
sg82
g1363
sg75
(lp1379
g68
(g69
g70
NtRp1380
(dp1381
g73
(dp1382
g81
I4
ssg82
g1376
sg75
(lp1383
S'HTTP/1.1'
p1384
asbasbasbag68
(g84
g70
NtRp1385
(dp1386
g73
(dp1387
sg82
g463
sg75
(lp1388
g68
(g89
g70
NtRp1389
(dp1390
g73
(dp1391
g93
g94
ssg82
g1385
sg75
(lp1392
S'server_signature'
p1393
asbag68
(g89
g70
NtRp1394
(dp1395
g73
(dp1396
g100
g101
ssg82
g1385
sg75
(lp1397
S':'
asbag68
(g89
g70
NtRp1398
(dp1399
g73
(dp1400
sg82
g1385
sg75
(lp1401
g68
(g69
g70
NtRp1402
(dp1403
g73
(dp1404
g81
I4
ssg82
g1398
sg75
(lp1405
S'<address>Apache/2.2.17 (Ubuntu) Server at localhost Port 443</address>\n'
p1406
asbasbasbag68
(g84
g70
NtRp1407
(dp1408
g73
(dp1409
sg82
g463
sg75
(lp1410
g68
(g89
g70
NtRp1411
(dp1412
g73
(dp1413
g93
g94
ssg82
g1407
sg75
(lp1414
S'server_software'
p1415
asbag68
(g89
g70
NtRp1416
(dp1417
g73
(dp1418
g100
g101
ssg82
g1407
sg75
(lp1419
S':'
asbag68
(g89
g70
NtRp1420
(dp1421
g73
(dp1422
sg82
g1407
sg75
(lp1423
g68
(g69
g70
NtRp1424
(dp1425
g73
(dp1426
g81
I4
ssg82
g1420
sg75
(lp1427
S'Apache/2.2.17 (Ubuntu)'
p1428
asbasbasbag68
(g84
g70
NtRp1429
(dp1430
g73
(dp1431
sg82
g463
sg75
(lp1432
g68
(g89
g70
NtRp1433
(dp1434
g73
(dp1435
g93
g94
ssg82
g1429
sg75
(lp1436
S'ssl_tls_sni'
p1437
asbag68
(g89
g70
NtRp1438
(dp1439
g73
(dp1440
g100
g101
ssg82
g1429
sg75
(lp1441
S':'
asbag68
(g89
g70
NtRp1442
(dp1443
g73
(dp1444
sg82
g1429
sg75
(lp1445
g68
(g69
g70
NtRp1446
(dp1447
g73
(dp1448
g81
I4
ssg82
g1442
sg75
(lp1449
S'localhost'
p1450
asbasbasbag68
(g84
g70
NtRp1451
(dp1452
g73
(dp1453
sg82
g463
sg75
(lp1454
g68
(g89
g70
NtRp1455
(dp1456
g73
(dp1457
g93
g94
ssg82
g1451
sg75
(lp1458
S'web2py_path'
p1459
asbag68
(g89
g70
NtRp1460
(dp1461
g73
(dp1462
g100
g101
ssg82
g1451
sg75
(lp1463
S':'
asbag68
(g89
g70
NtRp1464
(dp1465
g73
(dp1466
sg82
g1451
sg75
(lp1467
g68
(g69
g70
NtRp1468
(dp1469
g73
(dp1470
g81
I4
ssg82
g1464
sg75
(lp1471
g510
asbasbasbag68
(g84
g70
NtRp1472
(dp1473
g73
(dp1474
sg82
g463
sg75
(lp1475
g68
(g89
g70
NtRp1476
(dp1477
g73
(dp1478
g93
g94
ssg82
g1472
sg75
(lp1479
S'web2py_version'
p1480
asbag68
(g89
g70
NtRp1481
(dp1482
g73
(dp1483
g100
g101
ssg82
g1472
sg75
(lp1484
S':'
asbag68
(g89
g70
NtRp1485
(dp1486
g73
(dp1487
sg82
g1472
sg75
(lp1488
g68
(g69
g70
NtRp1489
(dp1490
g73
(dp1491
g81
I4
ssg82
g1485
sg75
(lp1492
S'Version 1.98.2 (2011-08-04 00:47:09)\n'
p1493
asbasbasbag68
(g84
g70
NtRp1494
(dp1495
g73
(dp1496
sg82
g463
sg75
(lp1497
g68
(g89
g70
NtRp1498
(dp1499
g73
(dp1500
g93
g94
ssg82
g1494
sg75
(lp1501
S'wsgi_errors'
p1502
asbag68
(g89
g70
NtRp1503
(dp1504
g73
(dp1505
g100
g101
ssg82
g1494
sg75
(lp1506
S':'
asbag68
(g89
g70
NtRp1507
(dp1508
g73
(dp1509
sg82
g1494
sg75
(lp1510
g68
(g69
g70
NtRp1511
(dp1512
g73
(dp1513
g81
I4
ssg82
g1507
sg75
(lp1514
S'<mod_wsgi.Log object at 0xb93e8ae8>'
p1515
asbasbasbag68
(g84
g70
NtRp1516
(dp1517
g73
(dp1518
sg82
g463
sg75
(lp1519
g68
(g89
g70
NtRp1520
(dp1521
g73
(dp1522
g93
g94
ssg82
g1516
sg75
(lp1523
S'wsgi_file_wrapper'
p1524
asbag68
(g89
g70
NtRp1525
(dp1526
g73
(dp1527
g100
g101
ssg82
g1516
sg75
(lp1528
S':'
asbag68
(g89
g70
NtRp1529
(dp1530
g73
(dp1531
sg82
g1516
sg75
(lp1532
g68
(g69
g70
NtRp1533
(dp1534
g73
(dp1535
g81
I4
ssg82
g1529
sg75
(lp1536
S'<built-in method file_wrapper of mod_wsgi.Adapter object at 0xb9529410>'
p1537
asbasbasbag68
(g84
g70
NtRp1538
(dp1539
g73
(dp1540
sg82
g463
sg75
(lp1541
g68
(g89
g70
NtRp1542
(dp1543
g73
(dp1544
g93
g94
ssg82
g1538
sg75
(lp1545
S'wsgi_input'
p1546
asbag68
(g89
g70
NtRp1547
(dp1548
g73
(dp1549
g100
g101
ssg82
g1538
sg75
(lp1550
S':'
asbag68
(g89
g70
NtRp1551
(dp1552
g73
(dp1553
sg82
g1538
sg75
(lp1554
g68
(g69
g70
NtRp1555
(dp1556
g73
(dp1557
g81
I4
ssg82
g1551
sg75
(lp1558
S'<mod_wsgi.Input object at 0xb93e8110>'
p1559
asbasbasbag68
(g84
g70
NtRp1560
(dp1561
g73
(dp1562
sg82
g463
sg75
(lp1563
g68
(g89
g70
NtRp1564
(dp1565
g73
(dp1566
g93
g94
ssg82
g1560
sg75
(lp1567
S'wsgi_multiprocess'
p1568
asbag68
(g89
g70
NtRp1569
(dp1570
g73
(dp1571
g100
g101
ssg82
g1560
sg75
(lp1572
S':'
asbag68
(g89
g70
NtRp1573
(dp1574
g73
(dp1575
sg82
g1560
sg75
(lp1576
g68
(g69
g70
NtRp1577
(dp1578
g73
(dp1579
g81
I4
ssg82
g1573
sg75
(lp1580
g111
asbasbasbag68
(g84
g70
NtRp1581
(dp1582
g73
(dp1583
sg82
g463
sg75
(lp1584
g68
(g89
g70
NtRp1585
(dp1586
g73
(dp1587
g93
g94
ssg82
g1581
sg75
(lp1588
S'wsgi_multithread'
p1589
asbag68
(g89
g70
NtRp1590
(dp1591
g73
(dp1592
g100
g101
ssg82
g1581
sg75
(lp1593
S':'
asbag68
(g89
g70
NtRp1594
(dp1595
g73
(dp1596
sg82
g1581
sg75
(lp1597
g68
(g69
g70
NtRp1598
(dp1599
g73
(dp1600
g81
I4
ssg82
g1594
sg75
(lp1601
S'True'
p1602
asbasbasbag68
(g84
g70
NtRp1603
(dp1604
g73
(dp1605
sg82
g463
sg75
(lp1606
g68
(g89
g70
NtRp1607
(dp1608
g73
(dp1609
g93
g94
ssg82
g1603
sg75
(lp1610
S'wsgi_run_once'
p1611
asbag68
(g89
g70
NtRp1612
(dp1613
g73
(dp1614
g100
g101
ssg82
g1603
sg75
(lp1615
S':'
asbag68
(g89
g70
NtRp1616
(dp1617
g73
(dp1618
sg82
g1603
sg75
(lp1619
g68
(g69
g70
NtRp1620
(dp1621
g73
(dp1622
g81
I4
ssg82
g1616
sg75
(lp1623
g111
asbasbasbag68
(g84
g70
NtRp1624
(dp1625
g73
(dp1626
sg82
g463
sg75
(lp1627
g68
(g89
g70
NtRp1628
(dp1629
g73
(dp1630
g93
g94
ssg82
g1624
sg75
(lp1631
S'wsgi_url_scheme'
p1632
asbag68
(g89
g70
NtRp1633
(dp1634
g73
(dp1635
g100
g101
ssg82
g1624
sg75
(lp1636
S':'
asbag68
(g89
g70
NtRp1637
(dp1638
g73
(dp1639
sg82
g1624
sg75
(lp1640
g68
(g69
g70
NtRp1641
(dp1642
g73
(dp1643
g81
I4
ssg82
g1637
sg75
(lp1644
S'https'
p1645
asbasbasbag68
(g84
g70
NtRp1646
(dp1647
g73
(dp1648
sg82
g463
sg75
(lp1649
g68
(g89
g70
NtRp1650
(dp1651
g73
(dp1652
g93
g94
ssg82
g1646
sg75
(lp1653
S'wsgi_version'
p1654
asbag68
(g89
g70
NtRp1655
(dp1656
g73
(dp1657
g100
g101
ssg82
g1646
sg75
(lp1658
S':'
asbag68
(g89
g70
NtRp1659
(dp1660
g73
(dp1661
sg82
g1646
sg75
(lp1662
g68
(g69
g70
NtRp1663
(dp1664
g73
(dp1665
g81
I4
ssg82
g1659
sg75
(lp1666
g68
(g77
g70
NtRp1667
(dp1668
g73
(dp1669
g81
I3
ssg82
Nsg75
(lp1670
g68
(g84
g70
NtRp1671
(dp1672
g73
(dp1673
sg82
g1667
sg75
(lp1674
g68
(g89
g70
NtRp1675
(dp1676
g73
(dp1677
sg82
g1671
sg75
(lp1678
g68
(g69
g70
NtRp1679
(dp1680
g73
(dp1681
g81
I3
ssg82
g1675
sg75
(lp1682
S'1'
asbasbasbag68
(g84
g70
NtRp1683
(dp1684
g73
(dp1685
sg82
g1667
sg75
(lp1686
g68
(g89
g70
NtRp1687
(dp1688
g73
(dp1689
sg82
g1683
sg75
(lp1690
g68
(g69
g70
NtRp1691
(dp1692
g73
(dp1693
g81
I3
ssg82
g1687
sg75
(lp1694
S'1'
asbasbasbasbasbasbasbasbasbasbasbag68
(g84
g70
NtRp1695
(dp1696
g73
(dp1697
sg82
g78
sg75
(lp1698
g68
(g89
g70
NtRp1699
(dp1700
g73
(dp1701
g93
g94
ssg82
g1695
sg75
(lp1702
S'extension'
p1703
asbag68
(g89
g70
NtRp1704
(dp1705
g73
(dp1706
g100
g101
ssg82
g1695
sg75
(lp1707
S':'
asbag68
(g89
g70
NtRp1708
(dp1709
g73
(dp1710
sg82
g1695
sg75
(lp1711
g68
(g69
g70
NtRp1712
(dp1713
g73
(dp1714
g81
I5
ssg82
g1708
sg75
(lp1715
S'html'
p1716
asbasbasbag68
(g84
g70
NtRp1717
(dp1718
g73
(dp1719
sg82
g78
sg75
(lp1720
g68
(g89
g70
NtRp1721
(dp1722
g73
(dp1723
g93
g94
ssg82
g1717
sg75
(lp1724
S'folder'
p1725
asbag68
(g89
g70
NtRp1726
(dp1727
g73
(dp1728
g100
g101
ssg82
g1717
sg75
(lp1729
S':'
asbag68
(g89
g70
NtRp1730
(dp1731
g73
(dp1732
sg82
g1717
sg75
(lp1733
g68
(g69
g70
NtRp1734
(dp1735
g73
(dp1736
g81
I5
ssg82
g1730
sg75
(lp1737
S'/home/www-data/web2py/applications/scrum/'
p1738
asbasbasbag68
(g84
g70
NtRp1739
(dp1740
g73
(dp1741
sg82
g78
sg75
(lp1742
g68
(g89
g70
NtRp1743
(dp1744
g73
(dp1745
g93
g94
ssg82
g1739
sg75
(lp1746
S'function'
p1747
asbag68
(g89
g70
NtRp1748
(dp1749
g73
(dp1750
g100
g101
ssg82
g1739
sg75
(lp1751
S':'
asbag68
(g89
g70
NtRp1752
(dp1753
g73
(dp1754
sg82
g1739
sg75
(lp1755
g68
(g69
g70
NtRp1756
(dp1757
g73
(dp1758
g81
I5
ssg82
g1752
sg75
(lp1759
S'index'
p1760
asbasbasbag68
(g84
g70
NtRp1761
(dp1762
g73
(dp1763
sg82
g78
sg75
(lp1764
g68
(g89
g70
NtRp1765
(dp1766
g73
(dp1767
g93
g94
ssg82
g1761
sg75
(lp1768
S'get_vars'
p1769
asbag68
(g89
g70
NtRp1770
(dp1771
g73
(dp1772
g100
g101
ssg82
g1761
sg75
(lp1773
S':'
asbag68
(g89
g70
NtRp1774
(dp1775
g73
(dp1776
sg82
g1761
sg75
(lp1777
g68
(g69
g70
NtRp1778
(dp1779
g73
(dp1780
g81
I5
ssg82
g1774
sg75
(lp1781
g68
(g77
g70
NtRp1782
(dp1783
g73
(dp1784
g81
I4
ssg82
Nsg75
(lp1785
sbasbasbasbag68
(g84
g70
NtRp1786
(dp1787
g73
(dp1788
sg82
g78
sg75
(lp1789
g68
(g89
g70
NtRp1790
(dp1791
g73
(dp1792
g93
g94
ssg82
g1786
sg75
(lp1793
S'is_https'
p1794
asbag68
(g89
g70
NtRp1795
(dp1796
g73
(dp1797
g100
g101
ssg82
g1786
sg75
(lp1798
S':'
asbag68
(g89
g70
NtRp1799
(dp1800
g73
(dp1801
sg82
g1786
sg75
(lp1802
g68
(g69
g70
NtRp1803
(dp1804
g73
(dp1805
g81
I5
ssg82
g1799
sg75
(lp1806
g1602
asbasbasbag68
(g84
g70
NtRp1807
(dp1808
g73
(dp1809
sg82
g78
sg75
(lp1810
g68
(g89
g70
NtRp1811
(dp1812
g73
(dp1813
g93
g94
ssg82
g1807
sg75
(lp1814
S'is_local'
p1815
asbag68
(g89
g70
NtRp1816
(dp1817
g73
(dp1818
g100
g101
ssg82
g1807
sg75
(lp1819
S':'
asbag68
(g89
g70
NtRp1820
(dp1821
g73
(dp1822
sg82
g1807
sg75
(lp1823
g68
(g69
g70
NtRp1824
(dp1825
g73
(dp1826
g81
I5
ssg82
g1820
sg75
(lp1827
g1602
asbasbasbag68
(g84
g70
NtRp1828
(dp1829
g73
(dp1830
sg82
g78
sg75
(lp1831
g68
(g89
g70
NtRp1832
(dp1833
g73
(dp1834
g93
g94
ssg82
g1828
sg75
(lp1835
S'is_restful'
p1836
asbag68
(g89
g70
NtRp1837
(dp1838
g73
(dp1839
g100
g101
ssg82
g1828
sg75
(lp1840
S':'
asbag68
(g89
g70
NtRp1841
(dp1842
g73
(dp1843
sg82
g1828
sg75
(lp1844
g68
(g69
g70
NtRp1845
(dp1846
g73
(dp1847
g81
I5
ssg82
g1841
sg75
(lp1848
g111
asbasbasbag68
(g84
g70
NtRp1849
(dp1850
g73
(dp1851
sg82
g78
sg75
(lp1852
g68
(g89
g70
NtRp1853
(dp1854
g73
(dp1855
g93
g94
ssg82
g1849
sg75
(lp1856
S'now'
p1857
asbag68
(g89
g70
NtRp1858
(dp1859
g73
(dp1860
g100
g101
ssg82
g1849
sg75
(lp1861
S':'
asbag68
(g89
g70
NtRp1862
(dp1863
g73
(dp1864
sg82
g1849
sg75
(lp1865
g68
(g69
g70
NtRp1866
(dp1867
g73
(dp1868
g81
I5
ssg82
g1862
sg75
(lp1869
S'datetime.datetime(2011, 9, 8, 13, 37, 4, 244466)'
p1870
asbasbasbag68
(g84
g70
NtRp1871
(dp1872
g73
(dp1873
sg82
g78
sg75
(lp1874
g68
(g89
g70
NtRp1875
(dp1876
g73
(dp1877
g93
g94
ssg82
g1871
sg75
(lp1878
S'post_vars'
p1879
asbag68
(g89
g70
NtRp1880
(dp1881
g73
(dp1882
g100
g101
ssg82
g1871
sg75
(lp1883
S':'
asbag68
(g89
g70
NtRp1884
(dp1885
g73
(dp1886
sg82
g1871
sg75
(lp1887
g68
(g69
g70
NtRp1888
(dp1889
g73
(dp1890
g81
I5
ssg82
g1884
sg75
(lp1891
g68
(g77
g70
NtRp1892
(dp1893
g73
(dp1894
g81
I4
ssg82
Nsg75
(lp1895
sbasbasbasbag68
(g84
g70
NtRp1896
(dp1897
g73
(dp1898
sg82
g78
sg75
(lp1899
g68
(g89
g70
NtRp1900
(dp1901
g73
(dp1902
g93
g94
ssg82
g1896
sg75
(lp1903
S'url'
p1904
asbag68
(g89
g70
NtRp1905
(dp1906
g73
(dp1907
g100
g101
ssg82
g1896
sg75
(lp1908
S':'
asbag68
(g89
g70
NtRp1909
(dp1910
g73
(dp1911
sg82
g1896
sg75
(lp1912
g68
(g69
g70
NtRp1913
(dp1914
g73
(dp1915
g81
I5
ssg82
g1909
sg75
(lp1916
S'/scrum/ticket/index'
p1917
asbasbasbag68
(g84
g70
NtRp1918
(dp1919
g73
(dp1920
sg82
g78
sg75
(lp1921
g68
(g89
g70
NtRp1922
(dp1923
g73
(dp1924
g93
g94
ssg82
g1918
sg75
(lp1925
S'uuid'
p1926
asbag68
(g89
g70
NtRp1927
(dp1928
g73
(dp1929
g100
g101
ssg82
g1918
sg75
(lp1930
S':'
asbag68
(g89
g70
NtRp1931
(dp1932
g73
(dp1933
sg82
g1918
sg75
(lp1934
g68
(g69
g70
NtRp1935
(dp1936
g73
(dp1937
g81
I5
ssg82
g1931
sg75
(lp1938
S'scrum/127.0.0.1.2011-09-08.13-37-04.d6038f7a-2ba4-4c47-88cc-48accb47240f'
p1939
asbasbasbag68
(g84
g70
NtRp1940
(dp1941
g73
(dp1942
sg82
g78
sg75
(lp1943
g68
(g89
g70
NtRp1944
(dp1945
g73
(dp1946
g93
g94
ssg82
g1940
sg75
(lp1947
S'vars'
p1948
asbag68
(g89
g70
NtRp1949
(dp1950
g73
(dp1951
g100
g101
ssg82
g1940
sg75
(lp1952
S':'
asbag68
(g89
g70
NtRp1953
(dp1954
g73
(dp1955
sg82
g1940
sg75
(lp1956
g68
(g69
g70
NtRp1957
(dp1958
g73
(dp1959
g81
I5
ssg82
g1953
sg75
(lp1960
g68
(g77
g70
NtRp1961
(dp1962
g73
(dp1963
g81
I4
ssg82
Nsg75
(lp1964
sbasbasbasbag68
(g84
g70
NtRp1965
(dp1966
g73
(dp1967
sg82
g78
sg75
(lp1968
g68
(g89
g70
NtRp1969
(dp1970
g73
(dp1971
g93
g94
ssg82
g1965
sg75
(lp1972
S'wsgi'
p1973
asbag68
(g89
g70
NtRp1974
(dp1975
g73
(dp1976
g100
g101
ssg82
g1965
sg75
(lp1977
S':'
asbag68
(g89
g70
NtRp1978
(dp1979
g73
(dp1980
sg82
g1965
sg75
(lp1981
g68
(g69
g70
NtRp1982
(dp1983
g73
(dp1984
g81
I5
ssg82
g1978
sg75
(lp1985
g68
(g77
g70
NtRp1986
(dp1987
g73
(dp1988
g81
I4
ssg82
Nsg75
(lp1989
g68
(g84
g70
NtRp1990
(dp1991
g73
(dp1992
sg82
g1986
sg75
(lp1993
g68
(g89
g70
NtRp1994
(dp1995
g73
(dp1996
g93
g94
ssg82
g1990
sg75
(lp1997
S'environ'
p1998
asbag68
(g89
g70
NtRp1999
(dp2000
g73
(dp2001
g100
g101
ssg82
g1990
sg75
(lp2002
S':'
asbag68
(g89
g70
NtRp2003
(dp2004
g73
(dp2005
sg82
g1990
sg75
(lp2006
g68
(g69
g70
NtRp2007
(dp2008
g73
(dp2009
g81
I4
ssg82
g2003
sg75
(lp2010
g68
(g77
g70
NtRp2011
(dp2012
g73
(dp2013
g81
I3
ssg82
Nsg75
(lp2014
g68
(g84
g70
NtRp2015
(dp2016
g73
(dp2017
sg82
g2011
sg75
(lp2018
g68
(g89
g70
NtRp2019
(dp2020
g73
(dp2021
g93
g94
ssg82
g2015
sg75
(lp2022
S'DOCUMENT_ROOT'
p2023
asbag68
(g89
g70
NtRp2024
(dp2025
g73
(dp2026
g100
g101
ssg82
g2015
sg75
(lp2027
S':'
asbag68
(g89
g70
NtRp2028
(dp2029
g73
(dp2030
sg82
g2015
sg75
(lp2031
g68
(g69
g70
NtRp2032
(dp2033
g73
(dp2034
g81
I3
ssg82
g2028
sg75
(lp2035
g575
asbasbasbag68
(g84
g70
NtRp2036
(dp2037
g73
(dp2038
sg82
g2011
sg75
(lp2039
g68
(g89
g70
NtRp2040
(dp2041
g73
(dp2042
g93
g94
ssg82
g2036
sg75
(lp2043
S'GATEWAY_INTERFACE'
p2044
asbag68
(g89
g70
NtRp2045
(dp2046
g73
(dp2047
g100
g101
ssg82
g2036
sg75
(lp2048
S':'
asbag68
(g89
g70
NtRp2049
(dp2050
g73
(dp2051
sg82
g2036
sg75
(lp2052
g68
(g69
g70
NtRp2053
(dp2054
g73
(dp2055
g81
I3
ssg82
g2049
sg75
(lp2056
g597
asbasbasbag68
(g84
g70
NtRp2057
(dp2058
g73
(dp2059
sg82
g2011
sg75
(lp2060
g68
(g89
g70
NtRp2061
(dp2062
g73
(dp2063
g93
g94
ssg82
g2057
sg75
(lp2064
S'HTTPS'
p2065
asbag68
(g89
g70
NtRp2066
(dp2067
g73
(dp2068
g100
g101
ssg82
g2057
sg75
(lp2069
S':'
asbag68
(g89
g70
NtRp2070
(dp2071
g73
(dp2072
sg82
g2057
sg75
(lp2073
g68
(g69
g70
NtRp2074
(dp2075
g73
(dp2076
g81
I3
ssg82
g2070
sg75
(lp2077
S'1'
asbasbasbag68
(g84
g70
NtRp2078
(dp2079
g73
(dp2080
sg82
g2011
sg75
(lp2081
g68
(g89
g70
NtRp2082
(dp2083
g73
(dp2084
g93
g94
ssg82
g2078
sg75
(lp2085
S'HTTP_ACCEPT'
p2086
asbag68
(g89
g70
NtRp2087
(dp2088
g73
(dp2089
g100
g101
ssg82
g2078
sg75
(lp2090
S':'
asbag68
(g89
g70
NtRp2091
(dp2092
g73
(dp2093
sg82
g2078
sg75
(lp2094
g68
(g69
g70
NtRp2095
(dp2096
g73
(dp2097
g81
I3
ssg82
g2091
sg75
(lp2098
g640
asbasbasbag68
(g84
g70
NtRp2099
(dp2100
g73
(dp2101
sg82
g2011
sg75
(lp2102
g68
(g89
g70
NtRp2103
(dp2104
g73
(dp2105
g93
g94
ssg82
g2099
sg75
(lp2106
S'HTTP_ACCEPT_ENCODING'
p2107
asbag68
(g89
g70
NtRp2108
(dp2109
g73
(dp2110
g100
g101
ssg82
g2099
sg75
(lp2111
S':'
asbag68
(g89
g70
NtRp2112
(dp2113
g73
(dp2114
sg82
g2099
sg75
(lp2115
g68
(g69
g70
NtRp2116
(dp2117
g73
(dp2118
g81
I3
ssg82
g2112
sg75
(lp2119
g662
asbasbasbag68
(g84
g70
NtRp2120
(dp2121
g73
(dp2122
sg82
g2011
sg75
(lp2123
g68
(g89
g70
NtRp2124
(dp2125
g73
(dp2126
g93
g94
ssg82
g2120
sg75
(lp2127
S'HTTP_ACCEPT_LANGUAGE'
p2128
asbag68
(g89
g70
NtRp2129
(dp2130
g73
(dp2131
g100
g101
ssg82
g2120
sg75
(lp2132
S':'
asbag68
(g89
g70
NtRp2133
(dp2134
g73
(dp2135
sg82
g2120
sg75
(lp2136
g68
(g69
g70
NtRp2137
(dp2138
g73
(dp2139
g81
I3
ssg82
g2133
sg75
(lp2140
g684
asbasbasbag68
(g84
g70
NtRp2141
(dp2142
g73
(dp2143
sg82
g2011
sg75
(lp2144
g68
(g89
g70
NtRp2145
(dp2146
g73
(dp2147
g93
g94
ssg82
g2141
sg75
(lp2148
S'HTTP_CONNECTION'
p2149
asbag68
(g89
g70
NtRp2150
(dp2151
g73
(dp2152
g100
g101
ssg82
g2141
sg75
(lp2153
S':'
asbag68
(g89
g70
NtRp2154
(dp2155
g73
(dp2156
sg82
g2141
sg75
(lp2157
g68
(g69
g70
NtRp2158
(dp2159
g73
(dp2160
g81
I3
ssg82
g2154
sg75
(lp2161
g706
asbasbasbag68
(g84
g70
NtRp2162
(dp2163
g73
(dp2164
sg82
g2011
sg75
(lp2165
g68
(g89
g70
NtRp2166
(dp2167
g73
(dp2168
g93
g94
ssg82
g2162
sg75
(lp2169
S'HTTP_COOKIE'
p2170
asbag68
(g89
g70
NtRp2171
(dp2172
g73
(dp2173
g100
g101
ssg82
g2162
sg75
(lp2174
S':'
asbag68
(g89
g70
NtRp2175
(dp2176
g73
(dp2177
sg82
g2162
sg75
(lp2178
g68
(g69
g70
NtRp2179
(dp2180
g73
(dp2181
g81
I3
ssg82
g2175
sg75
(lp2182
g728
asbasbasbag68
(g84
g70
NtRp2183
(dp2184
g73
(dp2185
sg82
g2011
sg75
(lp2186
g68
(g89
g70
NtRp2187
(dp2188
g73
(dp2189
g93
g94
ssg82
g2183
sg75
(lp2190
S'HTTP_HOST'
p2191
asbag68
(g89
g70
NtRp2192
(dp2193
g73
(dp2194
g100
g101
ssg82
g2183
sg75
(lp2195
S':'
asbag68
(g89
g70
NtRp2196
(dp2197
g73
(dp2198
sg82
g2183
sg75
(lp2199
g68
(g69
g70
NtRp2200
(dp2201
g73
(dp2202
g81
I3
ssg82
g2196
sg75
(lp2203
g750
asbasbasbag68
(g84
g70
NtRp2204
(dp2205
g73
(dp2206
sg82
g2011
sg75
(lp2207
g68
(g89
g70
NtRp2208
(dp2209
g73
(dp2210
g93
g94
ssg82
g2204
sg75
(lp2211
S'HTTP_REFERER'
p2212
asbag68
(g89
g70
NtRp2213
(dp2214
g73
(dp2215
g100
g101
ssg82
g2204
sg75
(lp2216
S':'
asbag68
(g89
g70
NtRp2217
(dp2218
g73
(dp2219
sg82
g2204
sg75
(lp2220
g68
(g69
g70
NtRp2221
(dp2222
g73
(dp2223
g81
I3
ssg82
g2217
sg75
(lp2224
g772
asbasbasbag68
(g84
g70
NtRp2225
(dp2226
g73
(dp2227
sg82
g2011
sg75
(lp2228
g68
(g89
g70
NtRp2229
(dp2230
g73
(dp2231
g93
g94
ssg82
g2225
sg75
(lp2232
S'HTTP_USER_AGENT'
p2233
asbag68
(g89
g70
NtRp2234
(dp2235
g73
(dp2236
g100
g101
ssg82
g2225
sg75
(lp2237
S':'
asbag68
(g89
g70
NtRp2238
(dp2239
g73
(dp2240
sg82
g2225
sg75
(lp2241
g68
(g69
g70
NtRp2242
(dp2243
g73
(dp2244
g81
I3
ssg82
g2238
sg75
(lp2245
g794
asbasbasbag68
(g84
g70
NtRp2246
(dp2247
g73
(dp2248
sg82
g2011
sg75
(lp2249
g68
(g89
g70
NtRp2250
(dp2251
g73
(dp2252
g93
g94
ssg82
g2246
sg75
(lp2253
S'PATH_INFO'
p2254
asbag68
(g89
g70
NtRp2255
(dp2256
g73
(dp2257
g100
g101
ssg82
g2246
sg75
(lp2258
S':'
asbag68
(g89
g70
NtRp2259
(dp2260
g73
(dp2261
sg82
g2246
sg75
(lp2262
g68
(g69
g70
NtRp2263
(dp2264
g73
(dp2265
g81
I3
ssg82
g2259
sg75
(lp2266
g1101
asbasbasbag68
(g84
g70
NtRp2267
(dp2268
g73
(dp2269
sg82
g2011
sg75
(lp2270
g68
(g89
g70
NtRp2271
(dp2272
g73
(dp2273
g93
g94
ssg82
g2267
sg75
(lp2274
S'PATH_TRANSLATED'
p2275
asbag68
(g89
g70
NtRp2276
(dp2277
g73
(dp2278
g100
g101
ssg82
g2267
sg75
(lp2279
S':'
asbag68
(g89
g70
NtRp2280
(dp2281
g73
(dp2282
sg82
g2267
sg75
(lp2283
g68
(g69
g70
NtRp2284
(dp2285
g73
(dp2286
g81
I3
ssg82
g2280
sg75
(lp2287
g1123
asbasbasbag68
(g84
g70
NtRp2288
(dp2289
g73
(dp2290
sg82
g2011
sg75
(lp2291
g68
(g89
g70
NtRp2292
(dp2293
g73
(dp2294
g93
g94
ssg82
g2288
sg75
(lp2295
S'QUERY_STRING'
p2296
asbag68
(g89
g70
NtRp2297
(dp2298
g73
(dp2299
g100
g101
ssg82
g2288
sg75
(lp2300
S':'
asbag68
(g89
g70
NtRp2301
(dp2302
g73
(dp2303
sg82
g2288
sg75
(lp2304
g68
(g69
g70
NtRp2305
(dp2306
g73
(dp2307
g81
I3
ssg82
g2301
sg75
(lp2308
S''
asbasbasbag68
(g84
g70
NtRp2309
(dp2310
g73
(dp2311
sg82
g2011
sg75
(lp2312
g68
(g89
g70
NtRp2313
(dp2314
g73
(dp2315
g93
g94
ssg82
g2309
sg75
(lp2316
S'REMOTE_ADDR'
p2317
asbag68
(g89
g70
NtRp2318
(dp2319
g73
(dp2320
g100
g101
ssg82
g2309
sg75
(lp2321
S':'
asbag68
(g89
g70
NtRp2322
(dp2323
g73
(dp2324
sg82
g2309
sg75
(lp2325
g68
(g69
g70
NtRp2326
(dp2327
g73
(dp2328
g81
I3
ssg82
g2322
sg75
(lp2329
g201
asbasbasbag68
(g84
g70
NtRp2330
(dp2331
g73
(dp2332
sg82
g2011
sg75
(lp2333
g68
(g89
g70
NtRp2334
(dp2335
g73
(dp2336
g93
g94
ssg82
g2330
sg75
(lp2337
S'REMOTE_PORT'
p2338
asbag68
(g89
g70
NtRp2339
(dp2340
g73
(dp2341
g100
g101
ssg82
g2330
sg75
(lp2342
S':'
asbag68
(g89
g70
NtRp2343
(dp2344
g73
(dp2345
sg82
g2330
sg75
(lp2346
g68
(g69
g70
NtRp2347
(dp2348
g73
(dp2349
g81
I3
ssg82
g2343
sg75
(lp2350
g1187
asbasbasbag68
(g84
g70
NtRp2351
(dp2352
g73
(dp2353
sg82
g2011
sg75
(lp2354
g68
(g89
g70
NtRp2355
(dp2356
g73
(dp2357
g93
g94
ssg82
g2351
sg75
(lp2358
S'REQUEST_METHOD'
p2359
asbag68
(g89
g70
NtRp2360
(dp2361
g73
(dp2362
g100
g101
ssg82
g2351
sg75
(lp2363
S':'
asbag68
(g89
g70
NtRp2364
(dp2365
g73
(dp2366
sg82
g2351
sg75
(lp2367
g68
(g69
g70
NtRp2368
(dp2369
g73
(dp2370
g81
I3
ssg82
g2364
sg75
(lp2371
g1209
asbasbasbag68
(g84
g70
NtRp2372
(dp2373
g73
(dp2374
sg82
g2011
sg75
(lp2375
g68
(g89
g70
NtRp2376
(dp2377
g73
(dp2378
g93
g94
ssg82
g2372
sg75
(lp2379
S'REQUEST_URI'
p2380
asbag68
(g89
g70
NtRp2381
(dp2382
g73
(dp2383
g100
g101
ssg82
g2372
sg75
(lp2384
S':'
asbag68
(g89
g70
NtRp2385
(dp2386
g73
(dp2387
sg82
g2372
sg75
(lp2388
g68
(g69
g70
NtRp2389
(dp2390
g73
(dp2391
g81
I3
ssg82
g2385
sg75
(lp2392
g1231
asbasbasbag68
(g84
g70
NtRp2393
(dp2394
g73
(dp2395
sg82
g2011
sg75
(lp2396
g68
(g89
g70
NtRp2397
(dp2398
g73
(dp2399
g93
g94
ssg82
g2393
sg75
(lp2400
S'SCRIPT_FILENAME'
p2401
asbag68
(g89
g70
NtRp2402
(dp2403
g73
(dp2404
g100
g101
ssg82
g2393
sg75
(lp2405
S':'
asbag68
(g89
g70
NtRp2406
(dp2407
g73
(dp2408
sg82
g2393
sg75
(lp2409
g68
(g69
g70
NtRp2410
(dp2411
g73
(dp2412
g81
I3
ssg82
g2406
sg75
(lp2413
g1253
asbasbasbag68
(g84
g70
NtRp2414
(dp2415
g73
(dp2416
sg82
g2011
sg75
(lp2417
g68
(g89
g70
NtRp2418
(dp2419
g73
(dp2420
g93
g94
ssg82
g2414
sg75
(lp2421
S'SCRIPT_NAME'
p2422
asbag68
(g89
g70
NtRp2423
(dp2424
g73
(dp2425
g100
g101
ssg82
g2414
sg75
(lp2426
S':'
asbag68
(g89
g70
NtRp2427
(dp2428
g73
(dp2429
sg82
g2414
sg75
(lp2430
g68
(g69
g70
NtRp2431
(dp2432
g73
(dp2433
g81
I3
ssg82
g2427
sg75
(lp2434
S''
asbasbasbag68
(g84
g70
NtRp2435
(dp2436
g73
(dp2437
sg82
g2011
sg75
(lp2438
g68
(g89
g70
NtRp2439
(dp2440
g73
(dp2441
g93
g94
ssg82
g2435
sg75
(lp2442
S'SERVER_ADDR'
p2443
asbag68
(g89
g70
NtRp2444
(dp2445
g73
(dp2446
g100
g101
ssg82
g2435
sg75
(lp2447
S':'
asbag68
(g89
g70
NtRp2448
(dp2449
g73
(dp2450
sg82
g2435
sg75
(lp2451
g68
(g69
g70
NtRp2452
(dp2453
g73
(dp2454
g81
I3
ssg82
g2448
sg75
(lp2455
g1296
asbasbasbag68
(g84
g70
NtRp2456
(dp2457
g73
(dp2458
sg82
g2011
sg75
(lp2459
g68
(g89
g70
NtRp2460
(dp2461
g73
(dp2462
g93
g94
ssg82
g2456
sg75
(lp2463
S'SERVER_ADMIN'
p2464
asbag68
(g89
g70
NtRp2465
(dp2466
g73
(dp2467
g100
g101
ssg82
g2456
sg75
(lp2468
S':'
asbag68
(g89
g70
NtRp2469
(dp2470
g73
(dp2471
sg82
g2456
sg75
(lp2472
g68
(g69
g70
NtRp2473
(dp2474
g73
(dp2475
g81
I3
ssg82
g2469
sg75
(lp2476
g1318
asbasbasbag68
(g84
g70
NtRp2477
(dp2478
g73
(dp2479
sg82
g2011
sg75
(lp2480
g68
(g89
g70
NtRp2481
(dp2482
g73
(dp2483
g93
g94
ssg82
g2477
sg75
(lp2484
S'SERVER_NAME'
p2485
asbag68
(g89
g70
NtRp2486
(dp2487
g73
(dp2488
g100
g101
ssg82
g2477
sg75
(lp2489
S':'
asbag68
(g89
g70
NtRp2490
(dp2491
g73
(dp2492
sg82
g2477
sg75
(lp2493
g68
(g69
g70
NtRp2494
(dp2495
g73
(dp2496
g81
I3
ssg82
g2490
sg75
(lp2497
g1340
asbasbasbag68
(g84
g70
NtRp2498
(dp2499
g73
(dp2500
sg82
g2011
sg75
(lp2501
g68
(g89
g70
NtRp2502
(dp2503
g73
(dp2504
g93
g94
ssg82
g2498
sg75
(lp2505
S'SERVER_PORT'
p2506
asbag68
(g89
g70
NtRp2507
(dp2508
g73
(dp2509
g100
g101
ssg82
g2498
sg75
(lp2510
S':'
asbag68
(g89
g70
NtRp2511
(dp2512
g73
(dp2513
sg82
g2498
sg75
(lp2514
g68
(g69
g70
NtRp2515
(dp2516
g73
(dp2517
g81
I3
ssg82
g2511
sg75
(lp2518
g1362
asbasbasbag68
(g84
g70
NtRp2519
(dp2520
g73
(dp2521
sg82
g2011
sg75
(lp2522
g68
(g89
g70
NtRp2523
(dp2524
g73
(dp2525
g93
g94
ssg82
g2519
sg75
(lp2526
S'SERVER_PROTOCOL'
p2527
asbag68
(g89
g70
NtRp2528
(dp2529
g73
(dp2530
g100
g101
ssg82
g2519
sg75
(lp2531
S':'
asbag68
(g89
g70
NtRp2532
(dp2533
g73
(dp2534
sg82
g2519
sg75
(lp2535
g68
(g69
g70
NtRp2536
(dp2537
g73
(dp2538
g81
I3
ssg82
g2532
sg75
(lp2539
g1384
asbasbasbag68
(g84
g70
NtRp2540
(dp2541
g73
(dp2542
sg82
g2011
sg75
(lp2543
g68
(g89
g70
NtRp2544
(dp2545
g73
(dp2546
g93
g94
ssg82
g2540
sg75
(lp2547
S'SERVER_SIGNATURE'
p2548
asbag68
(g89
g70
NtRp2549
(dp2550
g73
(dp2551
g100
g101
ssg82
g2540
sg75
(lp2552
S':'
asbag68
(g89
g70
NtRp2553
(dp2554
g73
(dp2555
sg82
g2540
sg75
(lp2556
g68
(g69
g70
NtRp2557
(dp2558
g73
(dp2559
g81
I3
ssg82
g2553
sg75
(lp2560
g1406
asbasbasbag68
(g84
g70
NtRp2561
(dp2562
g73
(dp2563
sg82
g2011
sg75
(lp2564
g68
(g89
g70
NtRp2565
(dp2566
g73
(dp2567
g93
g94
ssg82
g2561
sg75
(lp2568
S'SERVER_SOFTWARE'
p2569
asbag68
(g89
g70
NtRp2570
(dp2571
g73
(dp2572
g100
g101
ssg82
g2561
sg75
(lp2573
S':'
asbag68
(g89
g70
NtRp2574
(dp2575
g73
(dp2576
sg82
g2561
sg75
(lp2577
g68
(g69
g70
NtRp2578
(dp2579
g73
(dp2580
g81
I3
ssg82
g2574
sg75
(lp2581
g1428
asbasbasbag68
(g84
g70
NtRp2582
(dp2583
g73
(dp2584
sg82
g2011
sg75
(lp2585
g68
(g89
g70
NtRp2586
(dp2587
g73
(dp2588
g93
g94
ssg82
g2582
sg75
(lp2589
S'SSL_TLS_SNI'
p2590
asbag68
(g89
g70
NtRp2591
(dp2592
g73
(dp2593
g100
g101
ssg82
g2582
sg75
(lp2594
S':'
asbag68
(g89
g70
NtRp2595
(dp2596
g73
(dp2597
sg82
g2582
sg75
(lp2598
g68
(g69
g70
NtRp2599
(dp2600
g73
(dp2601
g81
I3
ssg82
g2595
sg75
(lp2602
g1450
asbasbasbag68
(g84
g70
NtRp2603
(dp2604
g73
(dp2605
sg82
g2011
sg75
(lp2606
g68
(g89
g70
NtRp2607
(dp2608
g73
(dp2609
g93
g94
ssg82
g2603
sg75
(lp2610
S'mod_wsgi.application_group'
p2611
asbag68
(g89
g70
NtRp2612
(dp2613
g73
(dp2614
g100
g101
ssg82
g2603
sg75
(lp2615
S':'
asbag68
(g89
g70
NtRp2616
(dp2617
g73
(dp2618
sg82
g2603
sg75
(lp2619
g68
(g69
g70
NtRp2620
(dp2621
g73
(dp2622
g81
I3
ssg82
g2616
sg75
(lp2623
g858
asbasbasbag68
(g84
g70
NtRp2624
(dp2625
g73
(dp2626
sg82
g2011
sg75
(lp2627
g68
(g89
g70
NtRp2628
(dp2629
g73
(dp2630
g93
g94
ssg82
g2624
sg75
(lp2631
S'mod_wsgi.callable_object'
p2632
asbag68
(g89
g70
NtRp2633
(dp2634
g73
(dp2635
g100
g101
ssg82
g2624
sg75
(lp2636
S':'
asbag68
(g89
g70
NtRp2637
(dp2638
g73
(dp2639
sg82
g2624
sg75
(lp2640
g68
(g69
g70
NtRp2641
(dp2642
g73
(dp2643
g81
I3
ssg82
g2637
sg75
(lp2644
g880
asbasbasbag68
(g84
g70
NtRp2645
(dp2646
g73
(dp2647
sg82
g2011
sg75
(lp2648
g68
(g89
g70
NtRp2649
(dp2650
g73
(dp2651
g93
g94
ssg82
g2645
sg75
(lp2652
S'mod_wsgi.handler_script'
p2653
asbag68
(g89
g70
NtRp2654
(dp2655
g73
(dp2656
g100
g101
ssg82
g2645
sg75
(lp2657
S':'
asbag68
(g89
g70
NtRp2658
(dp2659
g73
(dp2660
sg82
g2645
sg75
(lp2661
g68
(g69
g70
NtRp2662
(dp2663
g73
(dp2664
g81
I3
ssg82
g2658
sg75
(lp2665
S''
asbasbasbag68
(g84
g70
NtRp2666
(dp2667
g73
(dp2668
sg82
g2011
sg75
(lp2669
g68
(g89
g70
NtRp2670
(dp2671
g73
(dp2672
g93
g94
ssg82
g2666
sg75
(lp2673
S'mod_wsgi.input_chunked'
p2674
asbag68
(g89
g70
NtRp2675
(dp2676
g73
(dp2677
g100
g101
ssg82
g2666
sg75
(lp2678
S':'
asbag68
(g89
g70
NtRp2679
(dp2680
g73
(dp2681
sg82
g2666
sg75
(lp2682
g68
(g69
g70
NtRp2683
(dp2684
g73
(dp2685
g81
I3
ssg82
g2679
sg75
(lp2686
S'0'
asbasbasbag68
(g84
g70
NtRp2687
(dp2688
g73
(dp2689
sg82
g2011
sg75
(lp2690
g68
(g89
g70
NtRp2691
(dp2692
g73
(dp2693
g93
g94
ssg82
g2687
sg75
(lp2694
S'mod_wsgi.listener_host'
p2695
asbag68
(g89
g70
NtRp2696
(dp2697
g73
(dp2698
g100
g101
ssg82
g2687
sg75
(lp2699
S':'
asbag68
(g89
g70
NtRp2700
(dp2701
g73
(dp2702
sg82
g2687
sg75
(lp2703
g68
(g69
g70
NtRp2704
(dp2705
g73
(dp2706
g81
I3
ssg82
g2700
sg75
(lp2707
S''
asbasbasbag68
(g84
g70
NtRp2708
(dp2709
g73
(dp2710
sg82
g2011
sg75
(lp2711
g68
(g89
g70
NtRp2712
(dp2713
g73
(dp2714
g93
g94
ssg82
g2708
sg75
(lp2715
S'mod_wsgi.listener_port'
p2716
asbag68
(g89
g70
NtRp2717
(dp2718
g73
(dp2719
g100
g101
ssg82
g2708
sg75
(lp2720
S':'
asbag68
(g89
g70
NtRp2721
(dp2722
g73
(dp2723
sg82
g2708
sg75
(lp2724
g68
(g69
g70
NtRp2725
(dp2726
g73
(dp2727
g81
I3
ssg82
g2721
sg75
(lp2728
g965
asbasbasbag68
(g84
g70
NtRp2729
(dp2730
g73
(dp2731
sg82
g2011
sg75
(lp2732
g68
(g89
g70
NtRp2733
(dp2734
g73
(dp2735
g93
g94
ssg82
g2729
sg75
(lp2736
S'mod_wsgi.process_group'
p2737
asbag68
(g89
g70
NtRp2738
(dp2739
g73
(dp2740
g100
g101
ssg82
g2729
sg75
(lp2741
S':'
asbag68
(g89
g70
NtRp2742
(dp2743
g73
(dp2744
sg82
g2729
sg75
(lp2745
g68
(g69
g70
NtRp2746
(dp2747
g73
(dp2748
g81
I3
ssg82
g2742
sg75
(lp2749
g987
asbasbasbag68
(g84
g70
NtRp2750
(dp2751
g73
(dp2752
sg82
g2011
sg75
(lp2753
g68
(g89
g70
NtRp2754
(dp2755
g73
(dp2756
g93
g94
ssg82
g2750
sg75
(lp2757
S'mod_wsgi.request_handler'
p2758
asbag68
(g89
g70
NtRp2759
(dp2760
g73
(dp2761
g100
g101
ssg82
g2750
sg75
(lp2762
S':'
asbag68
(g89
g70
NtRp2763
(dp2764
g73
(dp2765
sg82
g2750
sg75
(lp2766
g68
(g69
g70
NtRp2767
(dp2768
g73
(dp2769
g81
I3
ssg82
g2763
sg75
(lp2770
g1009
asbasbasbag68
(g84
g70
NtRp2771
(dp2772
g73
(dp2773
sg82
g2011
sg75
(lp2774
g68
(g89
g70
NtRp2775
(dp2776
g73
(dp2777
g93
g94
ssg82
g2771
sg75
(lp2778
S'mod_wsgi.script_reloading'
p2779
asbag68
(g89
g70
NtRp2780
(dp2781
g73
(dp2782
g100
g101
ssg82
g2771
sg75
(lp2783
S':'
asbag68
(g89
g70
NtRp2784
(dp2785
g73
(dp2786
sg82
g2771
sg75
(lp2787
g68
(g69
g70
NtRp2788
(dp2789
g73
(dp2790
g81
I3
ssg82
g2784
sg75
(lp2791
S'1'
asbasbasbag68
(g84
g70
NtRp2792
(dp2793
g73
(dp2794
sg82
g2011
sg75
(lp2795
g68
(g89
g70
NtRp2796
(dp2797
g73
(dp2798
g93
g94
ssg82
g2792
sg75
(lp2799
S'mod_wsgi.version'
p2800
asbag68
(g89
g70
NtRp2801
(dp2802
g73
(dp2803
g100
g101
ssg82
g2792
sg75
(lp2804
S':'
asbag68
(g89
g70
NtRp2805
(dp2806
g73
(dp2807
sg82
g2792
sg75
(lp2808
g68
(g69
g70
NtRp2809
(dp2810
g73
(dp2811
g81
I3
ssg82
g2805
sg75
(lp2812
g68
(g77
g70
NtRp2813
(dp2814
g73
(dp2815
g81
I2
ssg82
Nsg75
(lp2816
g68
(g84
g70
NtRp2817
(dp2818
g73
(dp2819
sg82
g2813
sg75
(lp2820
g68
(g89
g70
NtRp2821
(dp2822
g73
(dp2823
sg82
g2817
sg75
(lp2824
g68
(g69
g70
NtRp2825
(dp2826
g73
(dp2827
g81
I2
ssg82
g2821
sg75
(lp2828
S'3'
asbasbasbag68
(g84
g70
NtRp2829
(dp2830
g73
(dp2831
sg82
g2813
sg75
(lp2832
g68
(g89
g70
NtRp2833
(dp2834
g73
(dp2835
sg82
g2829
sg75
(lp2836
g68
(g69
g70
NtRp2837
(dp2838
g73
(dp2839
g81
I2
ssg82
g2833
sg75
(lp2840
S'3'
asbasbasbasbasbasbasbag68
(g84
g70
NtRp2841
(dp2842
g73
(dp2843
sg82
g2011
sg75
(lp2844
g68
(g89
g70
NtRp2845
(dp2846
g73
(dp2847
g93
g94
ssg82
g2841
sg75
(lp2848
S'wsgi.errors'
p2849
asbag68
(g89
g70
NtRp2850
(dp2851
g73
(dp2852
g100
g101
ssg82
g2841
sg75
(lp2853
S':'
asbag68
(g89
g70
NtRp2854
(dp2855
g73
(dp2856
sg82
g2841
sg75
(lp2857
g68
(g69
g70
NtRp2858
(dp2859
g73
(dp2860
g81
I3
ssg82
g2854
sg75
(lp2861
S'<mod_wsgi.Log object at 0xb93e8ae8>'
p2862
asbasbasbag68
(g84
g70
NtRp2863
(dp2864
g73
(dp2865
sg82
g2011
sg75
(lp2866
g68
(g89
g70
NtRp2867
(dp2868
g73
(dp2869
g93
g94
ssg82
g2863
sg75
(lp2870
S'wsgi.file_wrapper'
p2871
asbag68
(g89
g70
NtRp2872
(dp2873
g73
(dp2874
g100
g101
ssg82
g2863
sg75
(lp2875
S':'
asbag68
(g89
g70
NtRp2876
(dp2877
g73
(dp2878
sg82
g2863
sg75
(lp2879
g68
(g69
g70
NtRp2880
(dp2881
g73
(dp2882
g81
I3
ssg82
g2876
sg75
(lp2883
S'<built-in method file_wrapper of mod_wsgi.Adapter object at 0xb9529410>'
p2884
asbasbasbag68
(g84
g70
NtRp2885
(dp2886
g73
(dp2887
sg82
g2011
sg75
(lp2888
g68
(g89
g70
NtRp2889
(dp2890
g73
(dp2891
g93
g94
ssg82
g2885
sg75
(lp2892
S'wsgi.input'
p2893
asbag68
(g89
g70
NtRp2894
(dp2895
g73
(dp2896
g100
g101
ssg82
g2885
sg75
(lp2897
S':'
asbag68
(g89
g70
NtRp2898
(dp2899
g73
(dp2900
sg82
g2885
sg75
(lp2901
g68
(g69
g70
NtRp2902
(dp2903
g73
(dp2904
g81
I3
ssg82
g2898
sg75
(lp2905
S'<cStringIO.StringO object at 0xb97c5600>'
p2906
asbasbasbag68
(g84
g70
NtRp2907
(dp2908
g73
(dp2909
sg82
g2011
sg75
(lp2910
g68
(g89
g70
NtRp2911
(dp2912
g73
(dp2913
g93
g94
ssg82
g2907
sg75
(lp2914
S'wsgi.multiprocess'
p2915
asbag68
(g89
g70
NtRp2916
(dp2917
g73
(dp2918
g100
g101
ssg82
g2907
sg75
(lp2919
S':'
asbag68
(g89
g70
NtRp2920
(dp2921
g73
(dp2922
sg82
g2907
sg75
(lp2923
g68
(g69
g70
NtRp2924
(dp2925
g73
(dp2926
g81
I3
ssg82
g2920
sg75
(lp2927
g111
asbasbasbag68
(g84
g70
NtRp2928
(dp2929
g73
(dp2930
sg82
g2011
sg75
(lp2931
g68
(g89
g70
NtRp2932
(dp2933
g73
(dp2934
g93
g94
ssg82
g2928
sg75
(lp2935
S'wsgi.multithread'
p2936
asbag68
(g89
g70
NtRp2937
(dp2938
g73
(dp2939
g100
g101
ssg82
g2928
sg75
(lp2940
S':'
asbag68
(g89
g70
NtRp2941
(dp2942
g73
(dp2943
sg82
g2928
sg75
(lp2944
g68
(g69
g70
NtRp2945
(dp2946
g73
(dp2947
g81
I3
ssg82
g2941
sg75
(lp2948
g1602
asbasbasbag68
(g84
g70
NtRp2949
(dp2950
g73
(dp2951
sg82
g2011
sg75
(lp2952
g68
(g89
g70
NtRp2953
(dp2954
g73
(dp2955
g93
g94
ssg82
g2949
sg75
(lp2956
S'wsgi.run_once'
p2957
asbag68
(g89
g70
NtRp2958
(dp2959
g73
(dp2960
g100
g101
ssg82
g2949
sg75
(lp2961
S':'
asbag68
(g89
g70
NtRp2962
(dp2963
g73
(dp2964
sg82
g2949
sg75
(lp2965
g68
(g69
g70
NtRp2966
(dp2967
g73
(dp2968
g81
I3
ssg82
g2962
sg75
(lp2969
g111
asbasbasbag68
(g84
g70
NtRp2970
(dp2971
g73
(dp2972
sg82
g2011
sg75
(lp2973
g68
(g89
g70
NtRp2974
(dp2975
g73
(dp2976
g93
g94
ssg82
g2970
sg75
(lp2977
S'wsgi.url_scheme'
p2978
asbag68
(g89
g70
NtRp2979
(dp2980
g73
(dp2981
g100
g101
ssg82
g2970
sg75
(lp2982
S':'
asbag68
(g89
g70
NtRp2983
(dp2984
g73
(dp2985
sg82
g2970
sg75
(lp2986
g68
(g69
g70
NtRp2987
(dp2988
g73
(dp2989
g81
I3
ssg82
g2983
sg75
(lp2990
g1645
asbasbasbag68
(g84
g70
NtRp2991
(dp2992
g73
(dp2993
sg82
g2011
sg75
(lp2994
g68
(g89
g70
NtRp2995
(dp2996
g73
(dp2997
g93
g94
ssg82
g2991
sg75
(lp2998
S'wsgi.version'
p2999
asbag68
(g89
g70
NtRp3000
(dp3001
g73
(dp3002
g100
g101
ssg82
g2991
sg75
(lp3003
S':'
asbag68
(g89
g70
NtRp3004
(dp3005
g73
(dp3006
sg82
g2991
sg75
(lp3007
g68
(g69
g70
NtRp3008
(dp3009
g73
(dp3010
g81
I3
ssg82
g3004
sg75
(lp3011
S'1'
asbasbasbasbasbasbasbasbasbasbasbasbasbsS'frames'
p3012
(lp3013
(dp3014
S'file'
p3015
S'/home/www-data/web2py/gluon/restricted.py'
p3016
sS'dump'
p3017
(dp3018
S'environment'
p3019
S"{'A': <class 'gluon.html.A'>, 'Auth': <class 'gluon.tools.Auth'>, 'B': <class 'gluon.html.B'>, 'BEAUTIFY': <class 'gluon.html.BEAUTIFY'>, 'BODY': <class 'gluon.html.BODY'>, 'BR': <class 'gluon.html.BR'>, 'BUTTON': <class 'gluon.html.BUTTON'>, 'CAT': <class 'gluon.html.CAT'>, 'CENTER': <class 'gluon.html.CENTER'>, 'CLEANUP': <class 'gluon.validators.CLEANUP'>, ...}"
p3020
sS'ccode'
p3021
S'<code object <module> at 0xb9411b18, file "/home...web2py/applications/scrum/models/db1.py", line 3>'
p3022
ssS'lnum'
p3023
I192
sS'lines'
p3024
(dp3025
I192
S'        exec ccode in environment'
p3026
sI193
S'    except HTTP:'
p3027
sI194
S'        raise'
p3028
sI195
S'    except Exception, error:'
p3029
sI196
S'        # XXX Show exception in Wing IDE if running in debugger'
p3030
sI187
S'    try:'
p3031
sI188
S'        if type(code) == types.CodeType:'
p3032
sI189
S'            ccode = code'
p3033
sI190
S'        else:'
p3034
sI191
S'            ccode = compile2(code,layer)'
p3035
ssS'call'
p3036
S'(code="#coding: utf8\\n\\ndb.define_table(\'biv\',\\n          ...tem_biv.append(lambda form: insere_modulo(form))\\n", environment={\'A\': <class \'gluon.html.A\'>, \'Auth\': <class \'gluon.tools.Auth\'>, \'B\': <class \'gluon.html.B\'>, \'BEAUTIFY\': <class \'gluon.html.BEAUTIFY\'>, \'BODY\': <class \'gluon.html.BODY\'>, \'BR\': <class \'gluon.html.BR\'>, \'BUTTON\': <class \'gluon.html.BUTTON\'>, \'CAT\': <class \'gluon.html.CAT\'>, \'CENTER\': <class \'gluon.html.CENTER\'>, \'CLEANUP\': <class \'gluon.validators.CLEANUP\'>, ...}, layer=\'/home/www-data/web2py/applications/scrum/models/db1.py\')'
p3037
sS'func'
p3038
S'restricted'
p3039
sa(dp3040
g3015
S'/home/www-data/web2py/applications/scrum/models/db1.py'
p3041
sg3017
(dp3042
S'Field'
p3043
S"<class 'gluon.dal.Field'>"
p3044
ssg3023
I36
sg3024
(dp3045
I32
S"                Field('ticket',db.ticket),"
p3046
sI33
S"                Field('acao','text'),"
p3047
sI34
S"                Field('resultado','text'),"
p3048
sI35
S"                Field('anexo','file'),"
p3049
sI36
S"                Field('ordem','integer'))"
p3050
sI37
S''
sI38
S"db.define_table('item_biv',"
p3051
sI39
S"                Field('biv',db.biv),"
p3052
sI40
S"                Field('ticket',db.ticket),"
p3053
sI31
S"db.define_table('caso_teste',"
p3054
ssg3036
S'()'
p3055
sg3038
S'<module>'
p3056
sa(dp3057
g3015
S'/home/www-data/web2py/gluon/dal.py'
p3058
sg3017
(dp3059
S'polymodel'
p3060
S'None'
p3061
ssg3023
I4311
sg3024
(dp3062
I4306
S"        if migrate or self._adapter.dbengine=='google:datastore':"
p3063
sI4307
S'            try:'
p3064
sI4308
S'                sql_locker.acquire()'
p3065
sI4309
S'                self._adapter.create_table(t,migrate=migrate,'
p3066
sI4310
S'                                           fake_migrate=fake_migrate,'
p3067
sI4311
S'                                           polymodel=polymodel)'
p3068
sI4312
S'            finally:'
p3069
sI4313
S'                sql_locker.release()'
p3070
sI4314
S'        else:'
p3071
sI4315
S'            t._dbt = None'
p3072
ssg3036
S"(self=<DAL {'auth_event': <Table {'origin': <gluon.dal... 'id': <gluon.dal.Field object at 0xb9617ccc>}>}>, tablename='caso_teste', *fields=(<gluon.dal.Field object>, <gluon.dal.Field object>, <gluon.dal.Field object>, <gluon.dal.Field object>, <gluon.dal.Field object>), **args={})"
p3073
sg3038
S'define_table'
p3074
sa(dp3075
g3015
S'/home/www-data/web2py/gluon/dal.py'
p3076
sg3017
(dp3077
S'field.type'
p3078
S"'file'"
p3079
sS'field'
p3080
S'<gluon.dal.Field object>'
p3081
sS'field.name'
p3082
S"'anexo'"
p3083
ssg3023
I560
sg3024
(dp3084
I555
S"                precision, scale = map(int,field.type[8:-1].split(','))"
p3085
sI556
S'                ftype = self.types[field.type[:7]] % \\'
p3086
sI557
S'                    dict(precision=precision,scale=scale)'
p3087
sI558
S'            elif not field.type in self.types:'
p3088
sI559
S"                raise SyntaxError, 'Field: unknown field type: %s for %s' % \\"
p3089
sI560
S'                    (field.type, field.name)'
p3090
sI561
S'            else:'
p3091
sI562
S'                ftype = self.types[field.type]\\'
p3092
sI563
S'                     % dict(length=field.length)'
p3093
sI564
S"            if not field.type.startswith('id') and not field.type.startswith('reference'):"
p3094
ssg3036
S"(self=<gluon.dal.SQLiteAdapter object>, table=<Table {'ALL': <gluon.dal.SQLALL object at 0xb95...>, 'id': <gluon.dal.Field object at 0xb95576cc>}>, migrate=True, fake_migrate=False, polymodel=None)"
p3095
sg3038
S'create_table'
p3096
sasS'pyver'
p3097
S'Python 2.7.1+: /usr/bin/python'
p3098
sS'session'
p3099
g68
(g69
g70
NtRp3100
(dp3101
g73
(dp3102
sg75
(lp3103
g68
(g77
g70
NtRp3104
(dp3105
g73
(dp3106
g81
I5
ssg82
Nsg75
(lp3107
sbasbsS'etype'
p3108
S"<type 'exceptions.SyntaxError'>"
p3109
sS'date'
p3110
S'Thu Sep  8 13:37:04 2011'
p3111
sS'response'
p3112
g68
(g69
g70
NtRp3113
(dp3114
g73
(dp3115
sg75
(lp3116
g68
(g77
g70
NtRp3117
(dp3118
g73
(dp3119
g81
I5
ssg82
Nsg75
(lp3120
g68
(g84
g70
NtRp3121
(dp3122
g73
(dp3123
sg82
g3117
sg75
(lp3124
g68
(g89
g70
NtRp3125
(dp3126
g73
(dp3127
g93
g94
ssg82
g3121
sg75
(lp3128
g166
asbag68
(g89
g70
NtRp3129
(dp3130
g73
(dp3131
g100
g101
ssg82
g3121
sg75
(lp3132
S':'
asbag68
(g89
g70
NtRp3133
(dp3134
g73
(dp3135
sg82
g3121
sg75
(lp3136
g68
(g69
g70
NtRp3137
(dp3138
g73
(dp3139
g81
I5
ssg82
g3133
sg75
(lp3140
S'<cStringIO.StringO object at 0xb93eb5a0>'
p3141
asbasbasbag68
(g84
g70
NtRp3142
(dp3143
g73
(dp3144
sg82
g3117
sg75
(lp3145
g68
(g89
g70
NtRp3146
(dp3147
g73
(dp3148
g93
g94
ssg82
g3142
sg75
(lp3149
g232
asbag68
(g89
g70
NtRp3150
(dp3151
g73
(dp3152
g100
g101
ssg82
g3142
sg75
(lp3153
S':'
asbag68
(g89
g70
NtRp3154
(dp3155
g73
(dp3156
sg82
g3142
sg75
(lp3157
g68
(g69
g70
NtRp3158
(dp3159
g73
(dp3160
g81
I5
ssg82
g3154
sg75
(lp3161
g68
(g77
g70
NtRp3162
(dp3163
g73
(dp3164
g81
I4
ssg82
Nsg75
(lp3165
g68
(g84
g70
NtRp3166
(dp3167
g73
(dp3168
sg82
g3162
sg75
(lp3169
g68
(g89
g70
NtRp3170
(dp3171
g73
(dp3172
g93
g94
ssg82
g3166
sg75
(lp3173
S'session_id_scrum'
p3174
asbag68
(g89
g70
NtRp3175
(dp3176
g73
(dp3177
g100
g101
ssg82
g3166
sg75
(lp3178
S':'
asbag68
(g89
g70
NtRp3179
(dp3180
g73
(dp3181
sg82
g3166
sg75
(lp3182
g68
(g69
g70
NtRp3183
(dp3184
g73
(dp3185
g81
I4
ssg82
g3179
sg75
(lp3186
g68
(g77
g70
NtRp3187
(dp3188
g73
(dp3189
g81
I3
ssg82
Nsg75
(lp3190
g68
(g84
g70
NtRp3191
(dp3192
g73
(dp3193
sg82
g3187
sg75
(lp3194
g68
(g89
g70
NtRp3195
(dp3196
g73
(dp3197
g93
g94
ssg82
g3191
sg75
(lp3198
g282
asbag68
(g89
g70
NtRp3199
(dp3200
g73
(dp3201
g100
g101
ssg82
g3191
sg75
(lp3202
S':'
asbag68
(g89
g70
NtRp3203
(dp3204
g73
(dp3205
sg82
g3191
sg75
(lp3206
g68
(g69
g70
NtRp3207
(dp3208
g73
(dp3209
g81
I3
ssg82
g3203
sg75
(lp3210
S''
asbasbasbag68
(g84
g70
NtRp3211
(dp3212
g73
(dp3213
sg82
g3187
sg75
(lp3214
g68
(g89
g70
NtRp3215
(dp3216
g73
(dp3217
g93
g94
ssg82
g3211
sg75
(lp3218
g303
asbag68
(g89
g70
NtRp3219
(dp3220
g73
(dp3221
g100
g101
ssg82
g3211
sg75
(lp3222
S':'
asbag68
(g89
g70
NtRp3223
(dp3224
g73
(dp3225
sg82
g3211
sg75
(lp3226
g68
(g69
g70
NtRp3227
(dp3228
g73
(dp3229
g81
I3
ssg82
g3223
sg75
(lp3230
S''
asbasbasbag68
(g84
g70
NtRp3231
(dp3232
g73
(dp3233
sg82
g3187
sg75
(lp3234
g68
(g89
g70
NtRp3235
(dp3236
g73
(dp3237
g93
g94
ssg82
g3231
sg75
(lp3238
g324
asbag68
(g89
g70
NtRp3239
(dp3240
g73
(dp3241
g100
g101
ssg82
g3231
sg75
(lp3242
S':'
asbag68
(g89
g70
NtRp3243
(dp3244
g73
(dp3245
sg82
g3231
sg75
(lp3246
g68
(g69
g70
NtRp3247
(dp3248
g73
(dp3249
g81
I3
ssg82
g3243
sg75
(lp3250
S''
asbasbasbag68
(g84
g70
NtRp3251
(dp3252
g73
(dp3253
sg82
g3187
sg75
(lp3254
g68
(g89
g70
NtRp3255
(dp3256
g73
(dp3257
g93
g94
ssg82
g3251
sg75
(lp3258
g345
asbag68
(g89
g70
NtRp3259
(dp3260
g73
(dp3261
g100
g101
ssg82
g3251
sg75
(lp3262
S':'
asbag68
(g89
g70
NtRp3263
(dp3264
g73
(dp3265
sg82
g3251
sg75
(lp3266
g68
(g69
g70
NtRp3267
(dp3268
g73
(dp3269
g81
I3
ssg82
g3263
sg75
(lp3270
S''
asbasbasbag68
(g84
g70
NtRp3271
(dp3272
g73
(dp3273
sg82
g3187
sg75
(lp3274
g68
(g89
g70
NtRp3275
(dp3276
g73
(dp3277
g93
g94
ssg82
g3271
sg75
(lp3278
g366
asbag68
(g89
g70
NtRp3279
(dp3280
g73
(dp3281
g100
g101
ssg82
g3271
sg75
(lp3282
S':'
asbag68
(g89
g70
NtRp3283
(dp3284
g73
(dp3285
sg82
g3271
sg75
(lp3286
g68
(g69
g70
NtRp3287
(dp3288
g73
(dp3289
g81
I3
ssg82
g3283
sg75
(lp3290
S''
asbasbasbag68
(g84
g70
NtRp3291
(dp3292
g73
(dp3293
sg82
g3187
sg75
(lp3294
g68
(g89
g70
NtRp3295
(dp3296
g73
(dp3297
g93
g94
ssg82
g3291
sg75
(lp3298
g387
asbag68
(g89
g70
NtRp3299
(dp3300
g73
(dp3301
g100
g101
ssg82
g3291
sg75
(lp3302
S':'
asbag68
(g89
g70
NtRp3303
(dp3304
g73
(dp3305
sg82
g3291
sg75
(lp3306
g68
(g69
g70
NtRp3307
(dp3308
g73
(dp3309
g81
I3
ssg82
g3303
sg75
(lp3310
S'/'
asbasbasbag68
(g84
g70
NtRp3311
(dp3312
g73
(dp3313
sg82
g3187
sg75
(lp3314
g68
(g89
g70
NtRp3315
(dp3316
g73
(dp3317
g93
g94
ssg82
g3311
sg75
(lp3318
g408
asbag68
(g89
g70
NtRp3319
(dp3320
g73
(dp3321
g100
g101
ssg82
g3311
sg75
(lp3322
S':'
asbag68
(g89
g70
NtRp3323
(dp3324
g73
(dp3325
sg82
g3311
sg75
(lp3326
g68
(g69
g70
NtRp3327
(dp3328
g73
(dp3329
g81
I3
ssg82
g3323
sg75
(lp3330
S''
asbasbasbag68
(g84
g70
NtRp3331
(dp3332
g73
(dp3333
sg82
g3187
sg75
(lp3334
g68
(g89
g70
NtRp3335
(dp3336
g73
(dp3337
g93
g94
ssg82
g3331
sg75
(lp3338
g429
asbag68
(g89
g70
NtRp3339
(dp3340
g73
(dp3341
g100
g101
ssg82
g3331
sg75
(lp3342
S':'
asbag68
(g89
g70
NtRp3343
(dp3344
g73
(dp3345
sg82
g3331
sg75
(lp3346
g68
(g69
g70
NtRp3347
(dp3348
g73
(dp3349
g81
I3
ssg82
g3343
sg75
(lp3350
S''
asbasbasbasbasbasbasbasbasbasbasbag68
(g84
g70
NtRp3351
(dp3352
g73
(dp3353
sg82
g3117
sg75
(lp3354
g68
(g89
g70
NtRp3355
(dp3356
g73
(dp3357
g93
g94
ssg82
g3351
sg75
(lp3358
S'files'
p3359
asbag68
(g89
g70
NtRp3360
(dp3361
g73
(dp3362
g100
g101
ssg82
g3351
sg75
(lp3363
S':'
asbag68
(g89
g70
NtRp3364
(dp3365
g73
(dp3366
sg82
g3351
sg75
(lp3367
g68
(g69
g70
NtRp3368
(dp3369
g73
(dp3370
g81
I5
ssg82
g3364
sg75
(lp3371
g68
(g77
g70
NtRp3372
(dp3373
g73
(dp3374
g81
I4
ssg82
Nsg75
(lp3375
sbasbasbasbag68
(g84
g70
NtRp3376
(dp3377
g73
(dp3378
sg82
g3117
sg75
(lp3379
g68
(g89
g70
NtRp3380
(dp3381
g73
(dp3382
g93
g94
ssg82
g3376
sg75
(lp3383
S'flash'
p3384
asbag68
(g89
g70
NtRp3385
(dp3386
g73
(dp3387
g100
g101
ssg82
g3376
sg75
(lp3388
S':'
asbag68
(g89
g70
NtRp3389
(dp3390
g73
(dp3391
sg82
g3376
sg75
(lp3392
g68
(g69
g70
NtRp3393
(dp3394
g73
(dp3395
g81
I5
ssg82
g3389
sg75
(lp3396
S''
asbasbasbag68
(g84
g70
NtRp3397
(dp3398
g73
(dp3399
sg82
g3117
sg75
(lp3400
g68
(g89
g70
NtRp3401
(dp3402
g73
(dp3403
g93
g94
ssg82
g3397
sg75
(lp3404
S'generic_patterns'
p3405
asbag68
(g89
g70
NtRp3406
(dp3407
g73
(dp3408
g100
g101
ssg82
g3397
sg75
(lp3409
S':'
asbag68
(g89
g70
NtRp3410
(dp3411
g73
(dp3412
sg82
g3397
sg75
(lp3413
g68
(g69
g70
NtRp3414
(dp3415
g73
(dp3416
g81
I5
ssg82
g3410
sg75
(lp3417
g68
(g77
g70
NtRp3418
(dp3419
g73
(dp3420
g81
I4
ssg82
Nsg75
(lp3421
sbasbasbasbag68
(g84
g70
NtRp3422
(dp3423
g73
(dp3424
sg82
g3117
sg75
(lp3425
g68
(g89
g70
NtRp3426
(dp3427
g73
(dp3428
g93
g94
ssg82
g3422
sg75
(lp3429
S'headers'
p3430
asbag68
(g89
g70
NtRp3431
(dp3432
g73
(dp3433
g100
g101
ssg82
g3422
sg75
(lp3434
S':'
asbag68
(g89
g70
NtRp3435
(dp3436
g73
(dp3437
sg82
g3422
sg75
(lp3438
g68
(g69
g70
NtRp3439
(dp3440
g73
(dp3441
g81
I5
ssg82
g3435
sg75
(lp3442
g68
(g77
g70
NtRp3443
(dp3444
g73
(dp3445
g81
I4
ssg82
Nsg75
(lp3446
g68
(g84
g70
NtRp3447
(dp3448
g73
(dp3449
sg82
g3443
sg75
(lp3450
g68
(g89
g70
NtRp3451
(dp3452
g73
(dp3453
g93
g94
ssg82
g3447
sg75
(lp3454
S'Cache-Control'
p3455
asbag68
(g89
g70
NtRp3456
(dp3457
g73
(dp3458
g100
g101
ssg82
g3447
sg75
(lp3459
S':'
asbag68
(g89
g70
NtRp3460
(dp3461
g73
(dp3462
sg82
g3447
sg75
(lp3463
g68
(g69
g70
NtRp3464
(dp3465
g73
(dp3466
g81
I4
ssg82
g3460
sg75
(lp3467
S'no-store, no-cache, must-revalidate, post-check=0, pre-check=0'
p3468
asbasbasbag68
(g84
g70
NtRp3469
(dp3470
g73
(dp3471
sg82
g3443
sg75
(lp3472
g68
(g89
g70
NtRp3473
(dp3474
g73
(dp3475
g93
g94
ssg82
g3469
sg75
(lp3476
S'Content-Type'
p3477
asbag68
(g89
g70
NtRp3478
(dp3479
g73
(dp3480
g100
g101
ssg82
g3469
sg75
(lp3481
S':'
asbag68
(g89
g70
NtRp3482
(dp3483
g73
(dp3484
sg82
g3469
sg75
(lp3485
g68
(g69
g70
NtRp3486
(dp3487
g73
(dp3488
g81
I4
ssg82
g3482
sg75
(lp3489
S'text/html; charset=utf-8'
p3490
asbasbasbag68
(g84
g70
NtRp3491
(dp3492
g73
(dp3493
sg82
g3443
sg75
(lp3494
g68
(g89
g70
NtRp3495
(dp3496
g73
(dp3497
g93
g94
ssg82
g3491
sg75
(lp3498
S'Expires'
p3499
asbag68
(g89
g70
NtRp3500
(dp3501
g73
(dp3502
g100
g101
ssg82
g3491
sg75
(lp3503
S':'
asbag68
(g89
g70
NtRp3504
(dp3505
g73
(dp3506
sg82
g3491
sg75
(lp3507
g68
(g69
g70
NtRp3508
(dp3509
g73
(dp3510
g81
I4
ssg82
g3504
sg75
(lp3511
S'Thu, 08 Sep 2011 16:37:04 GMT'
p3512
asbasbasbag68
(g84
g70
NtRp3513
(dp3514
g73
(dp3515
sg82
g3443
sg75
(lp3516
g68
(g89
g70
NtRp3517
(dp3518
g73
(dp3519
g93
g94
ssg82
g3513
sg75
(lp3520
S'Pragma'
p3521
asbag68
(g89
g70
NtRp3522
(dp3523
g73
(dp3524
g100
g101
ssg82
g3513
sg75
(lp3525
S':'
asbag68
(g89
g70
NtRp3526
(dp3527
g73
(dp3528
sg82
g3513
sg75
(lp3529
g68
(g69
g70
NtRp3530
(dp3531
g73
(dp3532
g81
I4
ssg82
g3526
sg75
(lp3533
S'no-cache'
p3534
asbasbasbag68
(g84
g70
NtRp3535
(dp3536
g73
(dp3537
sg82
g3443
sg75
(lp3538
g68
(g89
g70
NtRp3539
(dp3540
g73
(dp3541
g93
g94
ssg82
g3535
sg75
(lp3542
S'X-Powered-By'
p3543
asbag68
(g89
g70
NtRp3544
(dp3545
g73
(dp3546
g100
g101
ssg82
g3535
sg75
(lp3547
S':'
asbag68
(g89
g70
NtRp3548
(dp3549
g73
(dp3550
sg82
g3535
sg75
(lp3551
g68
(g69
g70
NtRp3552
(dp3553
g73
(dp3554
g81
I4
ssg82
g3548
sg75
(lp3555
S'web2py'
p3556
asbasbasbasbasbasbasbag68
(g84
g70
NtRp3557
(dp3558
g73
(dp3559
sg82
g3117
sg75
(lp3560
g68
(g89
g70
NtRp3561
(dp3562
g73
(dp3563
g93
g94
ssg82
g3557
sg75
(lp3564
S'menu'
p3565
asbag68
(g89
g70
NtRp3566
(dp3567
g73
(dp3568
g100
g101
ssg82
g3557
sg75
(lp3569
S':'
asbag68
(g89
g70
NtRp3570
(dp3571
g73
(dp3572
sg82
g3557
sg75
(lp3573
g68
(g69
g70
NtRp3574
(dp3575
g73
(dp3576
g81
I5
ssg82
g3570
sg75
(lp3577
g68
(g77
g70
NtRp3578
(dp3579
g73
(dp3580
g81
I4
ssg82
Nsg75
(lp3581
sbasbasbasbag68
(g84
g70
NtRp3582
(dp3583
g73
(dp3584
sg82
g3117
sg75
(lp3585
g68
(g89
g70
NtRp3586
(dp3587
g73
(dp3588
g93
g94
ssg82
g3582
sg75
(lp3589
S'meta'
p3590
asbag68
(g89
g70
NtRp3591
(dp3592
g73
(dp3593
g100
g101
ssg82
g3582
sg75
(lp3594
S':'
asbag68
(g89
g70
NtRp3595
(dp3596
g73
(dp3597
sg82
g3582
sg75
(lp3598
g68
(g69
g70
NtRp3599
(dp3600
g73
(dp3601
g81
I5
ssg82
g3595
sg75
(lp3602
g68
(g77
g70
NtRp3603
(dp3604
g73
(dp3605
g81
I4
ssg82
Nsg75
(lp3606
sbasbasbasbag68
(g84
g70
NtRp3607
(dp3608
g73
(dp3609
sg82
g3117
sg75
(lp3610
g68
(g89
g70
NtRp3611
(dp3612
g73
(dp3613
g93
g94
ssg82
g3607
sg75
(lp3614
S'postprocessing'
p3615
asbag68
(g89
g70
NtRp3616
(dp3617
g73
(dp3618
g100
g101
ssg82
g3607
sg75
(lp3619
S':'
asbag68
(g89
g70
NtRp3620
(dp3621
g73
(dp3622
sg82
g3607
sg75
(lp3623
g68
(g69
g70
NtRp3624
(dp3625
g73
(dp3626
g81
I5
ssg82
g3620
sg75
(lp3627
g68
(g77
g70
NtRp3628
(dp3629
g73
(dp3630
g81
I4
ssg82
Nsg75
(lp3631
sbasbasbasbag68
(g84
g70
NtRp3632
(dp3633
g73
(dp3634
sg82
g3117
sg75
(lp3635
g68
(g89
g70
NtRp3636
(dp3637
g73
(dp3638
g93
g94
ssg82
g3632
sg75
(lp3639
S'session_filename'
p3640
asbag68
(g89
g70
NtRp3641
(dp3642
g73
(dp3643
g100
g101
ssg82
g3632
sg75
(lp3644
S':'
asbag68
(g89
g70
NtRp3645
(dp3646
g73
(dp3647
sg82
g3632
sg75
(lp3648
g68
(g69
g70
NtRp3649
(dp3650
g73
(dp3651
g81
I5
ssg82
g3645
sg75
(lp3652
S'/home/www-data/web2py/applications/scrum/sessions/127.0.0.1-4b771303-2182-40e9-af41-9f7d31dd2c7a'
p3653
asbasbasbag68
(g84
g70
NtRp3654
(dp3655
g73
(dp3656
sg82
g3117
sg75
(lp3657
g68
(g89
g70
NtRp3658
(dp3659
g73
(dp3660
g93
g94
ssg82
g3654
sg75
(lp3661
S'session_id'
p3662
asbag68
(g89
g70
NtRp3663
(dp3664
g73
(dp3665
g100
g101
ssg82
g3654
sg75
(lp3666
S':'
asbag68
(g89
g70
NtRp3667
(dp3668
g73
(dp3669
sg82
g3654
sg75
(lp3670
g68
(g69
g70
NtRp3671
(dp3672
g73
(dp3673
g81
I5
ssg82
g3667
sg75
(lp3674
S'127.0.0.1-4b771303-2182-40e9-af41-9f7d31dd2c7a'
p3675
asbasbasbag68
(g84
g70
NtRp3676
(dp3677
g73
(dp3678
sg82
g3117
sg75
(lp3679
g68
(g89
g70
NtRp3680
(dp3681
g73
(dp3682
g93
g94
ssg82
g3676
sg75
(lp3683
S'session_id_name'
p3684
asbag68
(g89
g70
NtRp3685
(dp3686
g73
(dp3687
g100
g101
ssg82
g3676
sg75
(lp3688
S':'
asbag68
(g89
g70
NtRp3689
(dp3690
g73
(dp3691
sg82
g3676
sg75
(lp3692
g68
(g69
g70
NtRp3693
(dp3694
g73
(dp3695
g81
I5
ssg82
g3689
sg75
(lp3696
g3174
asbasbasbag68
(g84
g70
NtRp3697
(dp3698
g73
(dp3699
sg82
g3117
sg75
(lp3700
g68
(g89
g70
NtRp3701
(dp3702
g73
(dp3703
g93
g94
ssg82
g3697
sg75
(lp3704
S'session_new'
p3705
asbag68
(g89
g70
NtRp3706
(dp3707
g73
(dp3708
g100
g101
ssg82
g3697
sg75
(lp3709
S':'
asbag68
(g89
g70
NtRp3710
(dp3711
g73
(dp3712
sg82
g3697
sg75
(lp3713
g68
(g69
g70
NtRp3714
(dp3715
g73
(dp3716
g81
I5
ssg82
g3710
sg75
(lp3717
g1602
asbasbasbag68
(g84
g70
NtRp3718
(dp3719
g73
(dp3720
sg82
g3117
sg75
(lp3721
g68
(g89
g70
NtRp3722
(dp3723
g73
(dp3724
g93
g94
ssg82
g3718
sg75
(lp3725
S'status'
p3726
asbag68
(g89
g70
NtRp3727
(dp3728
g73
(dp3729
g100
g101
ssg82
g3718
sg75
(lp3730
S':'
asbag68
(g89
g70
NtRp3731
(dp3732
g73
(dp3733
sg82
g3718
sg75
(lp3734
g68
(g69
g70
NtRp3735
(dp3736
g73
(dp3737
g81
I5
ssg82
g3731
sg75
(lp3738
S'200'
p3739
asbasbasbag68
(g84
g70
NtRp3740
(dp3741
g73
(dp3742
sg82
g3117
sg75
(lp3743
g68
(g89
g70
NtRp3744
(dp3745
g73
(dp3746
g93
g94
ssg82
g3740
sg75
(lp3747
g1926
asbag68
(g89
g70
NtRp3748
(dp3749
g73
(dp3750
g100
g101
ssg82
g3740
sg75
(lp3751
S':'
asbag68
(g89
g70
NtRp3752
(dp3753
g73
(dp3754
sg82
g3740
sg75
(lp3755
g68
(g69
g70
NtRp3756
(dp3757
g73
(dp3758
g81
I5
ssg82
g3752
sg75
(lp3759
g1939
asbasbasbag68
(g84
g70
NtRp3760
(dp3761
g73
(dp3762
sg82
g3117
sg75
(lp3763
g68
(g89
g70
NtRp3764
(dp3765
g73
(dp3766
g93
g94
ssg82
g3760
sg75
(lp3767
S'view'
p3768
asbag68
(g89
g70
NtRp3769
(dp3770
g73
(dp3771
g100
g101
ssg82
g3760
sg75
(lp3772
S':'
asbag68
(g89
g70
NtRp3773
(dp3774
g73
(dp3775
sg82
g3760
sg75
(lp3776
g68
(g69
g70
NtRp3777
(dp3778
g73
(dp3779
g81
I5
ssg82
g3773
sg75
(lp3780
S'ticket/index.html'
p3781
asbasbasbasbasbsS'locals'
p3782
(dp3783
S'polymodel'
p3784
S'None'
p3785
sS'referenced'
p3786
S"'ticket'"
p3787
sS'sortable'
p3788
S'5'
sS'sql_fields_aux'
p3789
S"{'acao': {'sql': 'TEXT'}, 'id': {'sql': 'INTEGER PRIMARY KEY AUTOINCREMENT'}, 'resultado': {'sql': 'TEXT'}, 'ticket': {'sql': 'INTEGER REFERENCES ticket(id) ON DELETE CASCADE'}}"
p3790
sS'TFK'
p3791
g20
sS'migrate'
p3792
g1602
sS'fields'
p3793
S"['id INTEGER PRIMARY KEY AUTOINCREMENT', 'ticket INTEGER REFERENCES ticket(id) ON DELETE CASCADE', 'acao TEXT', 'resultado TEXT']"
p3794
sS'k'
S"'anexo'"
p3795
sS'tablename'
p3796
S"'caso_teste'"
p3797
sS'fake_migrate'
p3798
g111
sS'field'
p3799
S'<gluon.dal.Field object>'
p3800
sS'ftype'
p3801
S"'TEXT'"
p3802
sS'constraint_name'
p3803
S"'caso_teste_ticket__constraint'"
p3804
sS'table'
p3805
S"<Table {'ALL': <gluon.dal.SQLALL object at 0xb95...>, 'id': <gluon.dal.Field object at 0xb95576cc>}>"
p3806
sS'sql_fields'
p3807
S"{'acao': {'sortable': 3, 'sql': 'TEXT', 'type': 'text'}, 'id': {'sortable': 1, 'sql': 'INTEGER PRIMARY KEY AUTOINCREMENT', 'type': 'id'}, 'resultado': {'sortable': 4, 'sql': 'TEXT', 'type': 'text'}, 'ticket': {'sortable': 2, 'sql': 'INTEGER REFERENCES ticket(id) ON DELETE CASCADE', 'type': 'reference ticket'}}"
p3808
sS'self'
p3809
S'<gluon.dal.SQLiteAdapter object>'
p3810
sS'id_fieldname'
p3811
S"'id'"
p3812
sssS'traceback'
p3813
S'Traceback (most recent call last):\n  File "/home/www-data/web2py/gluon/restricted.py", line 192, in restricted\n    exec ccode in environment\n  File "/home/www-data/web2py/applications/scrum/models/db1.py", line 36, in <module>\n    Field(\'ordem\',\'integer\'))\n  File "/home/www-data/web2py/gluon/dal.py", line 4311, in define_table\n    polymodel=polymodel)\n  File "/home/www-data/web2py/gluon/dal.py", line 560, in create_table\n    (field.type, field.name)\nSyntaxError: Field: unknown field type: file for anexo\n'
p3814
s.