(dp1
S'output'
p2
S''
sS'layer'
p3
S'/home/www-data/web2py/applications/scrum/controllers/sprint.py'
p4
sS'code'
p5
S"# coding: utf8\n\n@auth.requires_login()\ndef index(): \n    sprints = db(db.sprint).select()\n    return dict(sprints=crud.select(db.sprint))\n\n@auth.requires_login()   \ndef novo():\n    form = crud.create(db.sprint)\n    response.view = 'simple_form.html'\n    return dict(form=form)\n\n@auth.requires_login()\ndef editar():\n    form = crud.update(db.sprint,request.args(0))\n    response.view = 'simple_form.html'\n    response.subtitle = 'Editar Sprint' \n    powerTable = plugins.powerTable\n    powerTable.datasource = db.sprint\n    powerTable.headers = 'labels'\n    powerTable.showkeycolumn = False\n    powerTable.keycolumn = 'sprint.id'\n    powerTable.columns = ['sprint.id','sprint.numero']\n    powerTable.extrajs = dict(autoresize={},\n                             tooltip={},\n                             'detailscallback':URL(c='sprint',f='detalhes')\n                             })\n    return dict(form=form,table=powerTable)\n\nresponse._vars=response._caller(index)\n"
p6
sS'snapshot'
p7
(dp8
S'exception'
p9
(dp10
S'__getslice__'
p11
S"<method-wrapper '__getslice__' of exceptions.SyntaxError object>"
p12
sS'text'
p13
S'"                             \'detailscallback\':URL(c=\'sprint\',f=\'detalhes\')\\n"'
p14
sS'__str__'
p15
S"<method-wrapper '__str__' of exceptions.SyntaxError object>"
p16
sS'__reduce__'
p17
S'<built-in method __reduce__ of exceptions.SyntaxError object>'
p18
sS'__dict__'
p19
S'{}'
p20
sS'__sizeof__'
p21
S'<built-in method __sizeof__ of exceptions.SyntaxError object>'
p22
sS'__init__'
p23
S"<method-wrapper '__init__' of exceptions.SyntaxError object>"
p24
sS'__setattr__'
p25
S"<method-wrapper '__setattr__' of exceptions.SyntaxError object>"
p26
sS'__reduce_ex__'
p27
S'<built-in method __reduce_ex__ of exceptions.SyntaxError object>'
p28
sS'__new__'
p29
S'<built-in method __new__ of type object>'
p30
sS'__format__'
p31
S'<built-in method __format__ of exceptions.SyntaxError object>'
p32
sS'__class__'
p33
S"<type 'exceptions.SyntaxError'>"
p34
sS'filename'
p35
S"'/home/www-data/web2py/applications/scrum/controllers/sprint.py'"
p36
sS'lineno'
p37
S'27'
p38
sS'msg'
p39
S"'invalid syntax'"
p40
sS'__doc__'
p41
S"'Invalid syntax.'"
p42
sS'__getitem__'
p43
S"<method-wrapper '__getitem__' of exceptions.SyntaxError object>"
p44
sS'__setstate__'
p45
S'<built-in method __setstate__ of exceptions.SyntaxError object>'
p46
sS'__getattribute__'
p47
S"<method-wrapper '__getattribute__' of exceptions.SyntaxError object>"
p48
sS'print_file_and_line'
p49
S'None'
p50
sS'args'
p51
S'(\'invalid syntax\', (\'/home/www-data/web2py/applications/scrum/controllers/sprint.py\', 27, 47, "                             \'detailscallback\':URL(c=\'sprint\',f=\'detalhes\')\\n"))'
p52
sS'__subclasshook__'
p53
S'<built-in method __subclasshook__ of type object>'
p54
sS'offset'
p55
S'47'
p56
sS'__unicode__'
p57
S'<built-in method __unicode__ of exceptions.SyntaxError object>'
p58
sS'__delattr__'
p59
S"<method-wrapper '__delattr__' of exceptions.SyntaxError object>"
p60
sS'__repr__'
p61
S"<method-wrapper '__repr__' of exceptions.SyntaxError object>"
p62
sS'__hash__'
p63
S"<method-wrapper '__hash__' of exceptions.SyntaxError object>"
p64
ssS'evalue'
p65
S'invalid syntax (sprint.py, line 27)'
p66
sS'request'
p67
ccopy_reg
_reconstructor
p68
(cgluon.html
BEAUTIFY
p69
c__builtin__
object
p70
NtRp71
(dp72
S'attributes'
p73
(dp74
sS'components'
p75
(lp76
g68
(cgluon.html
TABLE
p77
g70
NtRp78
(dp79
g73
(dp80
S'level'
p81
I5
ssS'parent'
p82
Nsg75
(lp83
g68
(cgluon.html
TR
p84
g70
NtRp85
(dp86
g73
(dp87
sg82
g78
sg75
(lp88
g68
(cgluon.html
TD
p89
g70
NtRp90
(dp91
g73
(dp92
S'_style'
p93
S'font-weight:bold;'
p94
ssg82
g85
sg75
(lp95
S'ajax'
p96
asbag68
(g89
g70
NtRp97
(dp98
g73
(dp99
S'_valign'
p100
S'top'
p101
ssg82
g85
sg75
(lp102
S':'
asbag68
(g89
g70
NtRp103
(dp104
g73
(dp105
sg82
g85
sg75
(lp106
g68
(g69
g70
NtRp107
(dp108
g73
(dp109
g81
I5
ssg82
g103
sg75
(lp110
S'False'
p111
asbasbasbag68
(g84
g70
NtRp112
(dp113
g73
(dp114
sg82
g78
sg75
(lp115
g68
(g89
g70
NtRp116
(dp117
g73
(dp118
g93
g94
ssg82
g112
sg75
(lp119
S'application'
p120
asbag68
(g89
g70
NtRp121
(dp122
g73
(dp123
g100
g101
ssg82
g112
sg75
(lp124
S':'
asbag68
(g89
g70
NtRp125
(dp126
g73
(dp127
sg82
g112
sg75
(lp128
g68
(g69
g70
NtRp129
(dp130
g73
(dp131
g81
I5
ssg82
g125
sg75
(lp132
S'scrum'
p133
asbasbasbag68
(g84
g70
NtRp134
(dp135
g73
(dp136
sg82
g78
sg75
(lp137
g68
(g89
g70
NtRp138
(dp139
g73
(dp140
g93
g94
ssg82
g134
sg75
(lp141
g51
asbag68
(g89
g70
NtRp142
(dp143
g73
(dp144
g100
g101
ssg82
g134
sg75
(lp145
S':'
asbag68
(g89
g70
NtRp146
(dp147
g73
(dp148
sg82
g134
sg75
(lp149
g68
(g69
g70
NtRp150
(dp151
g73
(dp152
g81
I5
ssg82
g146
sg75
(lp153
g68
(g77
g70
NtRp154
(dp155
g73
(dp156
g81
I4
ssg82
Nsg75
(lp157
sbasbasbasbag68
(g84
g70
NtRp158
(dp159
g73
(dp160
sg82
g78
sg75
(lp161
g68
(g89
g70
NtRp162
(dp163
g73
(dp164
g93
g94
ssg82
g158
sg75
(lp165
S'body'
p166
asbag68
(g89
g70
NtRp167
(dp168
g73
(dp169
g100
g101
ssg82
g158
sg75
(lp170
S':'
asbag68
(g89
g70
NtRp171
(dp172
g73
(dp173
sg82
g158
sg75
(lp174
g68
(g69
g70
NtRp175
(dp176
g73
(dp177
g81
I5
ssg82
g171
sg75
(lp178
S'<cStringIO.StringO object at 0xb95de700>'
p179
asbasbasbag68
(g84
g70
NtRp180
(dp181
g73
(dp182
sg82
g78
sg75
(lp183
g68
(g89
g70
NtRp184
(dp185
g73
(dp186
g93
g94
ssg82
g180
sg75
(lp187
S'client'
p188
asbag68
(g89
g70
NtRp189
(dp190
g73
(dp191
g100
g101
ssg82
g180
sg75
(lp192
S':'
asbag68
(g89
g70
NtRp193
(dp194
g73
(dp195
sg82
g180
sg75
(lp196
g68
(g69
g70
NtRp197
(dp198
g73
(dp199
g81
I5
ssg82
g193
sg75
(lp200
S'127.0.0.1'
p201
asbasbasbag68
(g84
g70
NtRp202
(dp203
g73
(dp204
sg82
g78
sg75
(lp205
g68
(g89
g70
NtRp206
(dp207
g73
(dp208
g93
g94
ssg82
g202
sg75
(lp209
S'controller'
p210
asbag68
(g89
g70
NtRp211
(dp212
g73
(dp213
g100
g101
ssg82
g202
sg75
(lp214
S':'
asbag68
(g89
g70
NtRp215
(dp216
g73
(dp217
sg82
g202
sg75
(lp218
g68
(g69
g70
NtRp219
(dp220
g73
(dp221
g81
I5
ssg82
g215
sg75
(lp222
S'sprint'
p223
asbasbasbag68
(g84
g70
NtRp224
(dp225
g73
(dp226
sg82
g78
sg75
(lp227
g68
(g89
g70
NtRp228
(dp229
g73
(dp230
g93
g94
ssg82
g224
sg75
(lp231
S'cookies'
p232
asbag68
(g89
g70
NtRp233
(dp234
g73
(dp235
g100
g101
ssg82
g224
sg75
(lp236
S':'
asbag68
(g89
g70
NtRp237
(dp238
g73
(dp239
sg82
g224
sg75
(lp240
g68
(g69
g70
NtRp241
(dp242
g73
(dp243
g81
I5
ssg82
g237
sg75
(lp244
g68
(g77
g70
NtRp245
(dp246
g73
(dp247
g81
I4
ssg82
Nsg75
(lp248
g68
(g84
g70
NtRp249
(dp250
g73
(dp251
sg82
g245
sg75
(lp252
g68
(g89
g70
NtRp253
(dp254
g73
(dp255
g93
g94
ssg82
g249
sg75
(lp256
S'session_id_admin'
p257
asbag68
(g89
g70
NtRp258
(dp259
g73
(dp260
g100
g101
ssg82
g249
sg75
(lp261
S':'
asbag68
(g89
g70
NtRp262
(dp263
g73
(dp264
sg82
g249
sg75
(lp265
g68
(g69
g70
NtRp266
(dp267
g73
(dp268
g81
I4
ssg82
g262
sg75
(lp269
g68
(g77
g70
NtRp270
(dp271
g73
(dp272
g81
I3
ssg82
Nsg75
(lp273
g68
(g84
g70
NtRp274
(dp275
g73
(dp276
sg82
g270
sg75
(lp277
g68
(g89
g70
NtRp278
(dp279
g73
(dp280
g93
g94
ssg82
g274
sg75
(lp281
S'comment'
p282
asbag68
(g89
g70
NtRp283
(dp284
g73
(dp285
g100
g101
ssg82
g274
sg75
(lp286
S':'
asbag68
(g89
g70
NtRp287
(dp288
g73
(dp289
sg82
g274
sg75
(lp290
g68
(g69
g70
NtRp291
(dp292
g73
(dp293
g81
I3
ssg82
g287
sg75
(lp294
S''
asbasbasbag68
(g84
g70
NtRp295
(dp296
g73
(dp297
sg82
g270
sg75
(lp298
g68
(g89
g70
NtRp299
(dp300
g73
(dp301
g93
g94
ssg82
g295
sg75
(lp302
S'domain'
p303
asbag68
(g89
g70
NtRp304
(dp305
g73
(dp306
g100
g101
ssg82
g295
sg75
(lp307
S':'
asbag68
(g89
g70
NtRp308
(dp309
g73
(dp310
sg82
g295
sg75
(lp311
g68
(g69
g70
NtRp312
(dp313
g73
(dp314
g81
I3
ssg82
g308
sg75
(lp315
S''
asbasbasbag68
(g84
g70
NtRp316
(dp317
g73
(dp318
sg82
g270
sg75
(lp319
g68
(g89
g70
NtRp320
(dp321
g73
(dp322
g93
g94
ssg82
g316
sg75
(lp323
S'expires'
p324
asbag68
(g89
g70
NtRp325
(dp326
g73
(dp327
g100
g101
ssg82
g316
sg75
(lp328
S':'
asbag68
(g89
g70
NtRp329
(dp330
g73
(dp331
sg82
g316
sg75
(lp332
g68
(g69
g70
NtRp333
(dp334
g73
(dp335
g81
I3
ssg82
g329
sg75
(lp336
S''
asbasbasbag68
(g84
g70
NtRp337
(dp338
g73
(dp339
sg82
g270
sg75
(lp340
g68
(g89
g70
NtRp341
(dp342
g73
(dp343
g93
g94
ssg82
g337
sg75
(lp344
S'httponly'
p345
asbag68
(g89
g70
NtRp346
(dp347
g73
(dp348
g100
g101
ssg82
g337
sg75
(lp349
S':'
asbag68
(g89
g70
NtRp350
(dp351
g73
(dp352
sg82
g337
sg75
(lp353
g68
(g69
g70
NtRp354
(dp355
g73
(dp356
g81
I3
ssg82
g350
sg75
(lp357
S''
asbasbasbag68
(g84
g70
NtRp358
(dp359
g73
(dp360
sg82
g270
sg75
(lp361
g68
(g89
g70
NtRp362
(dp363
g73
(dp364
g93
g94
ssg82
g358
sg75
(lp365
S'max-age'
p366
asbag68
(g89
g70
NtRp367
(dp368
g73
(dp369
g100
g101
ssg82
g358
sg75
(lp370
S':'
asbag68
(g89
g70
NtRp371
(dp372
g73
(dp373
sg82
g358
sg75
(lp374
g68
(g69
g70
NtRp375
(dp376
g73
(dp377
g81
I3
ssg82
g371
sg75
(lp378
S''
asbasbasbag68
(g84
g70
NtRp379
(dp380
g73
(dp381
sg82
g270
sg75
(lp382
g68
(g89
g70
NtRp383
(dp384
g73
(dp385
g93
g94
ssg82
g379
sg75
(lp386
S'path'
p387
asbag68
(g89
g70
NtRp388
(dp389
g73
(dp390
g100
g101
ssg82
g379
sg75
(lp391
S':'
asbag68
(g89
g70
NtRp392
(dp393
g73
(dp394
sg82
g379
sg75
(lp395
g68
(g69
g70
NtRp396
(dp397
g73
(dp398
g81
I3
ssg82
g392
sg75
(lp399
S''
asbasbasbag68
(g84
g70
NtRp400
(dp401
g73
(dp402
sg82
g270
sg75
(lp403
g68
(g89
g70
NtRp404
(dp405
g73
(dp406
g93
g94
ssg82
g400
sg75
(lp407
S'secure'
p408
asbag68
(g89
g70
NtRp409
(dp410
g73
(dp411
g100
g101
ssg82
g400
sg75
(lp412
S':'
asbag68
(g89
g70
NtRp413
(dp414
g73
(dp415
sg82
g400
sg75
(lp416
g68
(g69
g70
NtRp417
(dp418
g73
(dp419
g81
I3
ssg82
g413
sg75
(lp420
S''
asbasbasbag68
(g84
g70
NtRp421
(dp422
g73
(dp423
sg82
g270
sg75
(lp424
g68
(g89
g70
NtRp425
(dp426
g73
(dp427
g93
g94
ssg82
g421
sg75
(lp428
S'version'
p429
asbag68
(g89
g70
NtRp430
(dp431
g73
(dp432
g100
g101
ssg82
g421
sg75
(lp433
S':'
asbag68
(g89
g70
NtRp434
(dp435
g73
(dp436
sg82
g421
sg75
(lp437
g68
(g69
g70
NtRp438
(dp439
g73
(dp440
g81
I3
ssg82
g434
sg75
(lp441
S''
asbasbasbasbasbasbasbasbasbasbasbag68
(g84
g70
NtRp442
(dp443
g73
(dp444
sg82
g78
sg75
(lp445
g68
(g89
g70
NtRp446
(dp447
g73
(dp448
g93
g94
ssg82
g442
sg75
(lp449
S'env'
p450
asbag68
(g89
g70
NtRp451
(dp452
g73
(dp453
g100
g101
ssg82
g442
sg75
(lp454
S':'
asbag68
(g89
g70
NtRp455
(dp456
g73
(dp457
sg82
g442
sg75
(lp458
g68
(g69
g70
NtRp459
(dp460
g73
(dp461
g81
I5
ssg82
g455
sg75
(lp462
g68
(g77
g70
NtRp463
(dp464
g73
(dp465
g81
I4
ssg82
Nsg75
(lp466
g68
(g84
g70
NtRp467
(dp468
g73
(dp469
sg82
g463
sg75
(lp470
g68
(g89
g70
NtRp471
(dp472
g73
(dp473
g93
g94
ssg82
g467
sg75
(lp474
S'app_folders'
p475
asbag68
(g89
g70
NtRp476
(dp477
g73
(dp478
g100
g101
ssg82
g467
sg75
(lp479
S':'
asbag68
(g89
g70
NtRp480
(dp481
g73
(dp482
sg82
g467
sg75
(lp483
g68
(g69
g70
NtRp484
(dp485
g73
(dp486
g81
I4
ssg82
g480
sg75
(lp487
S"set(['/home/www-data/web2py/applications/scrum/', '/home/www-data/web2py/applications/admin/'])"
p488
asbasbasbag68
(g84
g70
NtRp489
(dp490
g73
(dp491
sg82
g463
sg75
(lp492
g68
(g89
g70
NtRp493
(dp494
g73
(dp495
g93
g94
ssg82
g489
sg75
(lp496
S'applications_parent'
p497
asbag68
(g89
g70
NtRp498
(dp499
g73
(dp500
g100
g101
ssg82
g489
sg75
(lp501
S':'
asbag68
(g89
g70
NtRp502
(dp503
g73
(dp504
sg82
g489
sg75
(lp505
g68
(g69
g70
NtRp506
(dp507
g73
(dp508
g81
I4
ssg82
g502
sg75
(lp509
S'/home/www-data/web2py'
p510
asbasbasbag68
(g84
g70
NtRp511
(dp512
g73
(dp513
sg82
g463
sg75
(lp514
g68
(g89
g70
NtRp515
(dp516
g73
(dp517
g93
g94
ssg82
g511
sg75
(lp518
S'db_sessions'
p519
asbag68
(g89
g70
NtRp520
(dp521
g73
(dp522
g100
g101
ssg82
g511
sg75
(lp523
S':'
asbag68
(g89
g70
NtRp524
(dp525
g73
(dp526
sg82
g511
sg75
(lp527
g68
(g69
g70
NtRp528
(dp529
g73
(dp530
g81
I4
ssg82
g524
sg75
(lp531
S'set([])'
p532
asbasbasbag68
(g84
g70
NtRp533
(dp534
g73
(dp535
sg82
g463
sg75
(lp536
g68
(g89
g70
NtRp537
(dp538
g73
(dp539
g93
g94
ssg82
g533
sg75
(lp540
S'debugging'
p541
asbag68
(g89
g70
NtRp542
(dp543
g73
(dp544
g100
g101
ssg82
g533
sg75
(lp545
S':'
asbag68
(g89
g70
NtRp546
(dp547
g73
(dp548
sg82
g533
sg75
(lp549
g68
(g69
g70
NtRp550
(dp551
g73
(dp552
g81
I4
ssg82
g546
sg75
(lp553
g111
asbasbasbag68
(g84
g70
NtRp554
(dp555
g73
(dp556
sg82
g463
sg75
(lp557
g68
(g89
g70
NtRp558
(dp559
g73
(dp560
g93
g94
ssg82
g554
sg75
(lp561
S'document_root'
p562
asbag68
(g89
g70
NtRp563
(dp564
g73
(dp565
g100
g101
ssg82
g554
sg75
(lp566
S':'
asbag68
(g89
g70
NtRp567
(dp568
g73
(dp569
sg82
g554
sg75
(lp570
g68
(g69
g70
NtRp571
(dp572
g73
(dp573
g81
I4
ssg82
g567
sg75
(lp574
S'/etc/apache2/htdocs'
p575
asbasbasbag68
(g84
g70
NtRp576
(dp577
g73
(dp578
sg82
g463
sg75
(lp579
g68
(g89
g70
NtRp580
(dp581
g73
(dp582
g93
g94
ssg82
g576
sg75
(lp583
S'gateway_interface'
p584
asbag68
(g89
g70
NtRp585
(dp586
g73
(dp587
g100
g101
ssg82
g576
sg75
(lp588
S':'
asbag68
(g89
g70
NtRp589
(dp590
g73
(dp591
sg82
g576
sg75
(lp592
g68
(g69
g70
NtRp593
(dp594
g73
(dp595
g81
I4
ssg82
g589
sg75
(lp596
S'CGI/1.1'
p597
asbasbasbag68
(g84
g70
NtRp598
(dp599
g73
(dp600
sg82
g463
sg75
(lp601
g68
(g89
g70
NtRp602
(dp603
g73
(dp604
g93
g94
ssg82
g598
sg75
(lp605
S'gluon_parent'
p606
asbag68
(g89
g70
NtRp607
(dp608
g73
(dp609
g100
g101
ssg82
g598
sg75
(lp610
S':'
asbag68
(g89
g70
NtRp611
(dp612
g73
(dp613
sg82
g598
sg75
(lp614
g68
(g69
g70
NtRp615
(dp616
g73
(dp617
g81
I4
ssg82
g611
sg75
(lp618
g510
asbasbasbag68
(g84
g70
NtRp619
(dp620
g73
(dp621
sg82
g463
sg75
(lp622
g68
(g89
g70
NtRp623
(dp624
g73
(dp625
g93
g94
ssg82
g619
sg75
(lp626
S'http_accept'
p627
asbag68
(g89
g70
NtRp628
(dp629
g73
(dp630
g100
g101
ssg82
g619
sg75
(lp631
S':'
asbag68
(g89
g70
NtRp632
(dp633
g73
(dp634
sg82
g619
sg75
(lp635
g68
(g69
g70
NtRp636
(dp637
g73
(dp638
g81
I4
ssg82
g632
sg75
(lp639
S'text/html,application/xhtml+xml,application/xml;q=0.9,*/*;q=0.8'
p640
asbasbasbag68
(g84
g70
NtRp641
(dp642
g73
(dp643
sg82
g463
sg75
(lp644
g68
(g89
g70
NtRp645
(dp646
g73
(dp647
g93
g94
ssg82
g641
sg75
(lp648
S'http_accept_charset'
p649
asbag68
(g89
g70
NtRp650
(dp651
g73
(dp652
g100
g101
ssg82
g641
sg75
(lp653
S':'
asbag68
(g89
g70
NtRp654
(dp655
g73
(dp656
sg82
g641
sg75
(lp657
g68
(g69
g70
NtRp658
(dp659
g73
(dp660
g81
I4
ssg82
g654
sg75
(lp661
S'ISO-8859-1,utf-8;q=0.7,*;q=0.7'
p662
asbasbasbag68
(g84
g70
NtRp663
(dp664
g73
(dp665
sg82
g463
sg75
(lp666
g68
(g89
g70
NtRp667
(dp668
g73
(dp669
g93
g94
ssg82
g663
sg75
(lp670
S'http_accept_encoding'
p671
asbag68
(g89
g70
NtRp672
(dp673
g73
(dp674
g100
g101
ssg82
g663
sg75
(lp675
S':'
asbag68
(g89
g70
NtRp676
(dp677
g73
(dp678
sg82
g663
sg75
(lp679
g68
(g69
g70
NtRp680
(dp681
g73
(dp682
g81
I4
ssg82
g676
sg75
(lp683
S'gzip, deflate'
p684
asbasbasbag68
(g84
g70
NtRp685
(dp686
g73
(dp687
sg82
g463
sg75
(lp688
g68
(g89
g70
NtRp689
(dp690
g73
(dp691
g93
g94
ssg82
g685
sg75
(lp692
S'http_accept_language'
p693
asbag68
(g89
g70
NtRp694
(dp695
g73
(dp696
g100
g101
ssg82
g685
sg75
(lp697
S':'
asbag68
(g89
g70
NtRp698
(dp699
g73
(dp700
sg82
g685
sg75
(lp701
g68
(g69
g70
NtRp702
(dp703
g73
(dp704
g81
I4
ssg82
g698
sg75
(lp705
S'pt-br,pt;q=0.8,en-us;q=0.5,en;q=0.3'
p706
asbasbasbag68
(g84
g70
NtRp707
(dp708
g73
(dp709
sg82
g463
sg75
(lp710
g68
(g89
g70
NtRp711
(dp712
g73
(dp713
g93
g94
ssg82
g707
sg75
(lp714
S'http_connection'
p715
asbag68
(g89
g70
NtRp716
(dp717
g73
(dp718
g100
g101
ssg82
g707
sg75
(lp719
S':'
asbag68
(g89
g70
NtRp720
(dp721
g73
(dp722
sg82
g707
sg75
(lp723
g68
(g69
g70
NtRp724
(dp725
g73
(dp726
g81
I4
ssg82
g720
sg75
(lp727
S'keep-alive'
p728
asbasbasbag68
(g84
g70
NtRp729
(dp730
g73
(dp731
sg82
g463
sg75
(lp732
g68
(g89
g70
NtRp733
(dp734
g73
(dp735
g93
g94
ssg82
g729
sg75
(lp736
S'http_cookie'
p737
asbag68
(g89
g70
NtRp738
(dp739
g73
(dp740
g100
g101
ssg82
g729
sg75
(lp741
S':'
asbag68
(g89
g70
NtRp742
(dp743
g73
(dp744
sg82
g729
sg75
(lp745
g68
(g69
g70
NtRp746
(dp747
g73
(dp748
g81
I4
ssg82
g742
sg75
(lp749
S'session_id_admin=127.0.0.1-e5192660-39ef-4b4b-a6d6-48f8215e8275'
p750
asbasbasbag68
(g84
g70
NtRp751
(dp752
g73
(dp753
sg82
g463
sg75
(lp754
g68
(g89
g70
NtRp755
(dp756
g73
(dp757
g93
g94
ssg82
g751
sg75
(lp758
S'http_host'
p759
asbag68
(g89
g70
NtRp760
(dp761
g73
(dp762
g100
g101
ssg82
g751
sg75
(lp763
S':'
asbag68
(g89
g70
NtRp764
(dp765
g73
(dp766
sg82
g751
sg75
(lp767
g68
(g69
g70
NtRp768
(dp769
g73
(dp770
g81
I4
ssg82
g764
sg75
(lp771
S'localhost'
p772
asbasbasbag68
(g84
g70
NtRp773
(dp774
g73
(dp775
sg82
g463
sg75
(lp776
g68
(g89
g70
NtRp777
(dp778
g73
(dp779
g93
g94
ssg82
g773
sg75
(lp780
S'http_referer'
p781
asbag68
(g89
g70
NtRp782
(dp783
g73
(dp784
g100
g101
ssg82
g773
sg75
(lp785
S':'
asbag68
(g89
g70
NtRp786
(dp787
g73
(dp788
sg82
g773
sg75
(lp789
g68
(g69
g70
NtRp790
(dp791
g73
(dp792
g81
I4
ssg82
g786
sg75
(lp793
S'https://localhost/admin/default/edit/scrum/controllers/sprint.py'
p794
asbasbasbag68
(g84
g70
NtRp795
(dp796
g73
(dp797
sg82
g463
sg75
(lp798
g68
(g89
g70
NtRp799
(dp800
g73
(dp801
g93
g94
ssg82
g795
sg75
(lp802
S'http_user_agent'
p803
asbag68
(g89
g70
NtRp804
(dp805
g73
(dp806
g100
g101
ssg82
g795
sg75
(lp807
S':'
asbag68
(g89
g70
NtRp808
(dp809
g73
(dp810
sg82
g795
sg75
(lp811
g68
(g69
g70
NtRp812
(dp813
g73
(dp814
g81
I4
ssg82
g808
sg75
(lp815
S'Mozilla/5.0 (X11; Linux i686; rv:6.0.2) Gecko/20100101 Firefox/6.0.2'
p816
asbasbasbag68
(g84
g70
NtRp817
(dp818
g73
(dp819
sg82
g463
sg75
(lp820
g68
(g89
g70
NtRp821
(dp822
g73
(dp823
g93
g94
ssg82
g817
sg75
(lp824
S'https'
p825
asbag68
(g89
g70
NtRp826
(dp827
g73
(dp828
g100
g101
ssg82
g817
sg75
(lp829
S':'
asbag68
(g89
g70
NtRp830
(dp831
g73
(dp832
sg82
g817
sg75
(lp833
g68
(g69
g70
NtRp834
(dp835
g73
(dp836
g81
I4
ssg82
g830
sg75
(lp837
S'1'
asbasbasbag68
(g84
g70
NtRp838
(dp839
g73
(dp840
sg82
g463
sg75
(lp841
g68
(g89
g70
NtRp842
(dp843
g73
(dp844
g93
g94
ssg82
g838
sg75
(lp845
S'is_jython'
p846
asbag68
(g89
g70
NtRp847
(dp848
g73
(dp849
g100
g101
ssg82
g838
sg75
(lp850
S':'
asbag68
(g89
g70
NtRp851
(dp852
g73
(dp853
sg82
g838
sg75
(lp854
g68
(g69
g70
NtRp855
(dp856
g73
(dp857
g81
I4
ssg82
g851
sg75
(lp858
g111
asbasbasbag68
(g84
g70
NtRp859
(dp860
g73
(dp861
sg82
g463
sg75
(lp862
g68
(g89
g70
NtRp863
(dp864
g73
(dp865
g93
g94
ssg82
g859
sg75
(lp866
S'mod_wsgi_application_group'
p867
asbag68
(g89
g70
NtRp868
(dp869
g73
(dp870
g100
g101
ssg82
g859
sg75
(lp871
S':'
asbag68
(g89
g70
NtRp872
(dp873
g73
(dp874
sg82
g859
sg75
(lp875
g68
(g69
g70
NtRp876
(dp877
g73
(dp878
g81
I4
ssg82
g872
sg75
(lp879
S'localhost.localdomain|'
p880
asbasbasbag68
(g84
g70
NtRp881
(dp882
g73
(dp883
sg82
g463
sg75
(lp884
g68
(g89
g70
NtRp885
(dp886
g73
(dp887
g93
g94
ssg82
g881
sg75
(lp888
S'mod_wsgi_callable_object'
p889
asbag68
(g89
g70
NtRp890
(dp891
g73
(dp892
g100
g101
ssg82
g881
sg75
(lp893
S':'
asbag68
(g89
g70
NtRp894
(dp895
g73
(dp896
sg82
g881
sg75
(lp897
g68
(g69
g70
NtRp898
(dp899
g73
(dp900
g81
I4
ssg82
g894
sg75
(lp901
S'application'
p902
asbasbasbag68
(g84
g70
NtRp903
(dp904
g73
(dp905
sg82
g463
sg75
(lp906
g68
(g89
g70
NtRp907
(dp908
g73
(dp909
g93
g94
ssg82
g903
sg75
(lp910
S'mod_wsgi_handler_script'
p911
asbag68
(g89
g70
NtRp912
(dp913
g73
(dp914
g100
g101
ssg82
g903
sg75
(lp915
S':'
asbag68
(g89
g70
NtRp916
(dp917
g73
(dp918
sg82
g903
sg75
(lp919
g68
(g69
g70
NtRp920
(dp921
g73
(dp922
g81
I4
ssg82
g916
sg75
(lp923
S''
asbasbasbag68
(g84
g70
NtRp924
(dp925
g73
(dp926
sg82
g463
sg75
(lp927
g68
(g89
g70
NtRp928
(dp929
g73
(dp930
g93
g94
ssg82
g924
sg75
(lp931
S'mod_wsgi_input_chunked'
p932
asbag68
(g89
g70
NtRp933
(dp934
g73
(dp935
g100
g101
ssg82
g924
sg75
(lp936
S':'
asbag68
(g89
g70
NtRp937
(dp938
g73
(dp939
sg82
g924
sg75
(lp940
g68
(g69
g70
NtRp941
(dp942
g73
(dp943
g81
I4
ssg82
g937
sg75
(lp944
S'0'
asbasbasbag68
(g84
g70
NtRp945
(dp946
g73
(dp947
sg82
g463
sg75
(lp948
g68
(g89
g70
NtRp949
(dp950
g73
(dp951
g93
g94
ssg82
g945
sg75
(lp952
S'mod_wsgi_listener_host'
p953
asbag68
(g89
g70
NtRp954
(dp955
g73
(dp956
g100
g101
ssg82
g945
sg75
(lp957
S':'
asbag68
(g89
g70
NtRp958
(dp959
g73
(dp960
sg82
g945
sg75
(lp961
g68
(g69
g70
NtRp962
(dp963
g73
(dp964
g81
I4
ssg82
g958
sg75
(lp965
S''
asbasbasbag68
(g84
g70
NtRp966
(dp967
g73
(dp968
sg82
g463
sg75
(lp969
g68
(g89
g70
NtRp970
(dp971
g73
(dp972
g93
g94
ssg82
g966
sg75
(lp973
S'mod_wsgi_listener_port'
p974
asbag68
(g89
g70
NtRp975
(dp976
g73
(dp977
g100
g101
ssg82
g966
sg75
(lp978
S':'
asbag68
(g89
g70
NtRp979
(dp980
g73
(dp981
sg82
g966
sg75
(lp982
g68
(g69
g70
NtRp983
(dp984
g73
(dp985
g81
I4
ssg82
g979
sg75
(lp986
S'443'
p987
asbasbasbag68
(g84
g70
NtRp988
(dp989
g73
(dp990
sg82
g463
sg75
(lp991
g68
(g89
g70
NtRp992
(dp993
g73
(dp994
g93
g94
ssg82
g988
sg75
(lp995
S'mod_wsgi_process_group'
p996
asbag68
(g89
g70
NtRp997
(dp998
g73
(dp999
g100
g101
ssg82
g988
sg75
(lp1000
S':'
asbag68
(g89
g70
NtRp1001
(dp1002
g73
(dp1003
sg82
g988
sg75
(lp1004
g68
(g69
g70
NtRp1005
(dp1006
g73
(dp1007
g81
I4
ssg82
g1001
sg75
(lp1008
S'web2py'
p1009
asbasbasbag68
(g84
g70
NtRp1010
(dp1011
g73
(dp1012
sg82
g463
sg75
(lp1013
g68
(g89
g70
NtRp1014
(dp1015
g73
(dp1016
g93
g94
ssg82
g1010
sg75
(lp1017
S'mod_wsgi_request_handler'
p1018
asbag68
(g89
g70
NtRp1019
(dp1020
g73
(dp1021
g100
g101
ssg82
g1010
sg75
(lp1022
S':'
asbag68
(g89
g70
NtRp1023
(dp1024
g73
(dp1025
sg82
g1010
sg75
(lp1026
g68
(g69
g70
NtRp1027
(dp1028
g73
(dp1029
g81
I4
ssg82
g1023
sg75
(lp1030
S'wsgi-script'
p1031
asbasbasbag68
(g84
g70
NtRp1032
(dp1033
g73
(dp1034
sg82
g463
sg75
(lp1035
g68
(g89
g70
NtRp1036
(dp1037
g73
(dp1038
g93
g94
ssg82
g1032
sg75
(lp1039
S'mod_wsgi_script_reloading'
p1040
asbag68
(g89
g70
NtRp1041
(dp1042
g73
(dp1043
g100
g101
ssg82
g1032
sg75
(lp1044
S':'
asbag68
(g89
g70
NtRp1045
(dp1046
g73
(dp1047
sg82
g1032
sg75
(lp1048
g68
(g69
g70
NtRp1049
(dp1050
g73
(dp1051
g81
I4
ssg82
g1045
sg75
(lp1052
S'1'
asbasbasbag68
(g84
g70
NtRp1053
(dp1054
g73
(dp1055
sg82
g463
sg75
(lp1056
g68
(g89
g70
NtRp1057
(dp1058
g73
(dp1059
g93
g94
ssg82
g1053
sg75
(lp1060
S'mod_wsgi_version'
p1061
asbag68
(g89
g70
NtRp1062
(dp1063
g73
(dp1064
g100
g101
ssg82
g1053
sg75
(lp1065
S':'
asbag68
(g89
g70
NtRp1066
(dp1067
g73
(dp1068
sg82
g1053
sg75
(lp1069
g68
(g69
g70
NtRp1070
(dp1071
g73
(dp1072
g81
I4
ssg82
g1066
sg75
(lp1073
g68
(g77
g70
NtRp1074
(dp1075
g73
(dp1076
g81
I3
ssg82
Nsg75
(lp1077
g68
(g84
g70
NtRp1078
(dp1079
g73
(dp1080
sg82
g1074
sg75
(lp1081
g68
(g89
g70
NtRp1082
(dp1083
g73
(dp1084
sg82
g1078
sg75
(lp1085
g68
(g69
g70
NtRp1086
(dp1087
g73
(dp1088
g81
I3
ssg82
g1082
sg75
(lp1089
S'3'
asbasbasbag68
(g84
g70
NtRp1090
(dp1091
g73
(dp1092
sg82
g1074
sg75
(lp1093
g68
(g89
g70
NtRp1094
(dp1095
g73
(dp1096
sg82
g1090
sg75
(lp1097
g68
(g69
g70
NtRp1098
(dp1099
g73
(dp1100
g81
I3
ssg82
g1094
sg75
(lp1101
S'3'
asbasbasbasbasbasbasbag68
(g84
g70
NtRp1102
(dp1103
g73
(dp1104
sg82
g463
sg75
(lp1105
g68
(g89
g70
NtRp1106
(dp1107
g73
(dp1108
g93
g94
ssg82
g1102
sg75
(lp1109
S'path_info'
p1110
asbag68
(g89
g70
NtRp1111
(dp1112
g73
(dp1113
g100
g101
ssg82
g1102
sg75
(lp1114
S':'
asbag68
(g89
g70
NtRp1115
(dp1116
g73
(dp1117
sg82
g1102
sg75
(lp1118
g68
(g69
g70
NtRp1119
(dp1120
g73
(dp1121
g81
I4
ssg82
g1115
sg75
(lp1122
S'/scrum/sprint/index'
p1123
asbasbasbag68
(g84
g70
NtRp1124
(dp1125
g73
(dp1126
sg82
g463
sg75
(lp1127
g68
(g89
g70
NtRp1128
(dp1129
g73
(dp1130
g93
g94
ssg82
g1124
sg75
(lp1131
S'path_translated'
p1132
asbag68
(g89
g70
NtRp1133
(dp1134
g73
(dp1135
g100
g101
ssg82
g1124
sg75
(lp1136
S':'
asbag68
(g89
g70
NtRp1137
(dp1138
g73
(dp1139
sg82
g1124
sg75
(lp1140
g68
(g69
g70
NtRp1141
(dp1142
g73
(dp1143
g81
I4
ssg82
g1137
sg75
(lp1144
S'/home/www-data/web2py/wsgihandler.py/scrum/sprint/index'
p1145
asbasbasbag68
(g84
g70
NtRp1146
(dp1147
g73
(dp1148
sg82
g463
sg75
(lp1149
g68
(g89
g70
NtRp1150
(dp1151
g73
(dp1152
g93
g94
ssg82
g1146
sg75
(lp1153
S'query_string'
p1154
asbag68
(g89
g70
NtRp1155
(dp1156
g73
(dp1157
g100
g101
ssg82
g1146
sg75
(lp1158
S':'
asbag68
(g89
g70
NtRp1159
(dp1160
g73
(dp1161
sg82
g1146
sg75
(lp1162
g68
(g69
g70
NtRp1163
(dp1164
g73
(dp1165
g81
I4
ssg82
g1159
sg75
(lp1166
S''
asbasbasbag68
(g84
g70
NtRp1167
(dp1168
g73
(dp1169
sg82
g463
sg75
(lp1170
g68
(g89
g70
NtRp1171
(dp1172
g73
(dp1173
g93
g94
ssg82
g1167
sg75
(lp1174
S'remote_addr'
p1175
asbag68
(g89
g70
NtRp1176
(dp1177
g73
(dp1178
g100
g101
ssg82
g1167
sg75
(lp1179
S':'
asbag68
(g89
g70
NtRp1180
(dp1181
g73
(dp1182
sg82
g1167
sg75
(lp1183
g68
(g69
g70
NtRp1184
(dp1185
g73
(dp1186
g81
I4
ssg82
g1180
sg75
(lp1187
g201
asbasbasbag68
(g84
g70
NtRp1188
(dp1189
g73
(dp1190
sg82
g463
sg75
(lp1191
g68
(g89
g70
NtRp1192
(dp1193
g73
(dp1194
g93
g94
ssg82
g1188
sg75
(lp1195
S'remote_port'
p1196
asbag68
(g89
g70
NtRp1197
(dp1198
g73
(dp1199
g100
g101
ssg82
g1188
sg75
(lp1200
S':'
asbag68
(g89
g70
NtRp1201
(dp1202
g73
(dp1203
sg82
g1188
sg75
(lp1204
g68
(g69
g70
NtRp1205
(dp1206
g73
(dp1207
g81
I4
ssg82
g1201
sg75
(lp1208
S'37559'
p1209
asbasbasbag68
(g84
g70
NtRp1210
(dp1211
g73
(dp1212
sg82
g463
sg75
(lp1213
g68
(g89
g70
NtRp1214
(dp1215
g73
(dp1216
g93
g94
ssg82
g1210
sg75
(lp1217
S'request_method'
p1218
asbag68
(g89
g70
NtRp1219
(dp1220
g73
(dp1221
g100
g101
ssg82
g1210
sg75
(lp1222
S':'
asbag68
(g89
g70
NtRp1223
(dp1224
g73
(dp1225
sg82
g1210
sg75
(lp1226
g68
(g69
g70
NtRp1227
(dp1228
g73
(dp1229
g81
I4
ssg82
g1223
sg75
(lp1230
S'GET'
p1231
asbasbasbag68
(g84
g70
NtRp1232
(dp1233
g73
(dp1234
sg82
g463
sg75
(lp1235
g68
(g89
g70
NtRp1236
(dp1237
g73
(dp1238
g93
g94
ssg82
g1232
sg75
(lp1239
S'request_uri'
p1240
asbag68
(g89
g70
NtRp1241
(dp1242
g73
(dp1243
g100
g101
ssg82
g1232
sg75
(lp1244
S':'
asbag68
(g89
g70
NtRp1245
(dp1246
g73
(dp1247
sg82
g1232
sg75
(lp1248
g68
(g69
g70
NtRp1249
(dp1250
g73
(dp1251
g81
I4
ssg82
g1245
sg75
(lp1252
S'/scrum/sprint/index'
p1253
asbasbasbag68
(g84
g70
NtRp1254
(dp1255
g73
(dp1256
sg82
g463
sg75
(lp1257
g68
(g89
g70
NtRp1258
(dp1259
g73
(dp1260
g93
g94
ssg82
g1254
sg75
(lp1261
S'script_filename'
p1262
asbag68
(g89
g70
NtRp1263
(dp1264
g73
(dp1265
g100
g101
ssg82
g1254
sg75
(lp1266
S':'
asbag68
(g89
g70
NtRp1267
(dp1268
g73
(dp1269
sg82
g1254
sg75
(lp1270
g68
(g69
g70
NtRp1271
(dp1272
g73
(dp1273
g81
I4
ssg82
g1267
sg75
(lp1274
S'/home/www-data/web2py/wsgihandler.py'
p1275
asbasbasbag68
(g84
g70
NtRp1276
(dp1277
g73
(dp1278
sg82
g463
sg75
(lp1279
g68
(g89
g70
NtRp1280
(dp1281
g73
(dp1282
g93
g94
ssg82
g1276
sg75
(lp1283
S'script_name'
p1284
asbag68
(g89
g70
NtRp1285
(dp1286
g73
(dp1287
g100
g101
ssg82
g1276
sg75
(lp1288
S':'
asbag68
(g89
g70
NtRp1289
(dp1290
g73
(dp1291
sg82
g1276
sg75
(lp1292
g68
(g69
g70
NtRp1293
(dp1294
g73
(dp1295
g81
I4
ssg82
g1289
sg75
(lp1296
S''
asbasbasbag68
(g84
g70
NtRp1297
(dp1298
g73
(dp1299
sg82
g463
sg75
(lp1300
g68
(g89
g70
NtRp1301
(dp1302
g73
(dp1303
g93
g94
ssg82
g1297
sg75
(lp1304
S'server_addr'
p1305
asbag68
(g89
g70
NtRp1306
(dp1307
g73
(dp1308
g100
g101
ssg82
g1297
sg75
(lp1309
S':'
asbag68
(g89
g70
NtRp1310
(dp1311
g73
(dp1312
sg82
g1297
sg75
(lp1313
g68
(g69
g70
NtRp1314
(dp1315
g73
(dp1316
g81
I4
ssg82
g1310
sg75
(lp1317
S'127.0.0.1'
p1318
asbasbasbag68
(g84
g70
NtRp1319
(dp1320
g73
(dp1321
sg82
g463
sg75
(lp1322
g68
(g89
g70
NtRp1323
(dp1324
g73
(dp1325
g93
g94
ssg82
g1319
sg75
(lp1326
S'server_admin'
p1327
asbag68
(g89
g70
NtRp1328
(dp1329
g73
(dp1330
g100
g101
ssg82
g1319
sg75
(lp1331
S':'
asbag68
(g89
g70
NtRp1332
(dp1333
g73
(dp1334
sg82
g1319
sg75
(lp1335
g68
(g69
g70
NtRp1336
(dp1337
g73
(dp1338
g81
I4
ssg82
g1332
sg75
(lp1339
S'[no address given]'
p1340
asbasbasbag68
(g84
g70
NtRp1341
(dp1342
g73
(dp1343
sg82
g463
sg75
(lp1344
g68
(g89
g70
NtRp1345
(dp1346
g73
(dp1347
g93
g94
ssg82
g1341
sg75
(lp1348
S'server_name'
p1349
asbag68
(g89
g70
NtRp1350
(dp1351
g73
(dp1352
g100
g101
ssg82
g1341
sg75
(lp1353
S':'
asbag68
(g89
g70
NtRp1354
(dp1355
g73
(dp1356
sg82
g1341
sg75
(lp1357
g68
(g69
g70
NtRp1358
(dp1359
g73
(dp1360
g81
I4
ssg82
g1354
sg75
(lp1361
S'localhost'
p1362
asbasbasbag68
(g84
g70
NtRp1363
(dp1364
g73
(dp1365
sg82
g463
sg75
(lp1366
g68
(g89
g70
NtRp1367
(dp1368
g73
(dp1369
g93
g94
ssg82
g1363
sg75
(lp1370
S'server_port'
p1371
asbag68
(g89
g70
NtRp1372
(dp1373
g73
(dp1374
g100
g101
ssg82
g1363
sg75
(lp1375
S':'
asbag68
(g89
g70
NtRp1376
(dp1377
g73
(dp1378
sg82
g1363
sg75
(lp1379
g68
(g69
g70
NtRp1380
(dp1381
g73
(dp1382
g81
I4
ssg82
g1376
sg75
(lp1383
S'443'
p1384
asbasbasbag68
(g84
g70
NtRp1385
(dp1386
g73
(dp1387
sg82
g463
sg75
(lp1388
g68
(g89
g70
NtRp1389
(dp1390
g73
(dp1391
g93
g94
ssg82
g1385
sg75
(lp1392
S'server_protocol'
p1393
asbag68
(g89
g70
NtRp1394
(dp1395
g73
(dp1396
g100
g101
ssg82
g1385
sg75
(lp1397
S':'
asbag68
(g89
g70
NtRp1398
(dp1399
g73
(dp1400
sg82
g1385
sg75
(lp1401
g68
(g69
g70
NtRp1402
(dp1403
g73
(dp1404
g81
I4
ssg82
g1398
sg75
(lp1405
S'HTTP/1.1'
p1406
asbasbasbag68
(g84
g70
NtRp1407
(dp1408
g73
(dp1409
sg82
g463
sg75
(lp1410
g68
(g89
g70
NtRp1411
(dp1412
g73
(dp1413
g93
g94
ssg82
g1407
sg75
(lp1414
S'server_signature'
p1415
asbag68
(g89
g70
NtRp1416
(dp1417
g73
(dp1418
g100
g101
ssg82
g1407
sg75
(lp1419
S':'
asbag68
(g89
g70
NtRp1420
(dp1421
g73
(dp1422
sg82
g1407
sg75
(lp1423
g68
(g69
g70
NtRp1424
(dp1425
g73
(dp1426
g81
I4
ssg82
g1420
sg75
(lp1427
S'<address>Apache/2.2.17 (Ubuntu) Server at localhost Port 443</address>\n'
p1428
asbasbasbag68
(g84
g70
NtRp1429
(dp1430
g73
(dp1431
sg82
g463
sg75
(lp1432
g68
(g89
g70
NtRp1433
(dp1434
g73
(dp1435
g93
g94
ssg82
g1429
sg75
(lp1436
S'server_software'
p1437
asbag68
(g89
g70
NtRp1438
(dp1439
g73
(dp1440
g100
g101
ssg82
g1429
sg75
(lp1441
S':'
asbag68
(g89
g70
NtRp1442
(dp1443
g73
(dp1444
sg82
g1429
sg75
(lp1445
g68
(g69
g70
NtRp1446
(dp1447
g73
(dp1448
g81
I4
ssg82
g1442
sg75
(lp1449
S'Apache/2.2.17 (Ubuntu)'
p1450
asbasbasbag68
(g84
g70
NtRp1451
(dp1452
g73
(dp1453
sg82
g463
sg75
(lp1454
g68
(g89
g70
NtRp1455
(dp1456
g73
(dp1457
g93
g94
ssg82
g1451
sg75
(lp1458
S'ssl_tls_sni'
p1459
asbag68
(g89
g70
NtRp1460
(dp1461
g73
(dp1462
g100
g101
ssg82
g1451
sg75
(lp1463
S':'
asbag68
(g89
g70
NtRp1464
(dp1465
g73
(dp1466
sg82
g1451
sg75
(lp1467
g68
(g69
g70
NtRp1468
(dp1469
g73
(dp1470
g81
I4
ssg82
g1464
sg75
(lp1471
S'localhost'
p1472
asbasbasbag68
(g84
g70
NtRp1473
(dp1474
g73
(dp1475
sg82
g463
sg75
(lp1476
g68
(g89
g70
NtRp1477
(dp1478
g73
(dp1479
g93
g94
ssg82
g1473
sg75
(lp1480
S'web2py_path'
p1481
asbag68
(g89
g70
NtRp1482
(dp1483
g73
(dp1484
g100
g101
ssg82
g1473
sg75
(lp1485
S':'
asbag68
(g89
g70
NtRp1486
(dp1487
g73
(dp1488
sg82
g1473
sg75
(lp1489
g68
(g69
g70
NtRp1490
(dp1491
g73
(dp1492
g81
I4
ssg82
g1486
sg75
(lp1493
g510
asbasbasbag68
(g84
g70
NtRp1494
(dp1495
g73
(dp1496
sg82
g463
sg75
(lp1497
g68
(g89
g70
NtRp1498
(dp1499
g73
(dp1500
g93
g94
ssg82
g1494
sg75
(lp1501
S'web2py_version'
p1502
asbag68
(g89
g70
NtRp1503
(dp1504
g73
(dp1505
g100
g101
ssg82
g1494
sg75
(lp1506
S':'
asbag68
(g89
g70
NtRp1507
(dp1508
g73
(dp1509
sg82
g1494
sg75
(lp1510
g68
(g69
g70
NtRp1511
(dp1512
g73
(dp1513
g81
I4
ssg82
g1507
sg75
(lp1514
S'Version 1.98.2 (2011-08-04 00:47:09)\n'
p1515
asbasbasbag68
(g84
g70
NtRp1516
(dp1517
g73
(dp1518
sg82
g463
sg75
(lp1519
g68
(g89
g70
NtRp1520
(dp1521
g73
(dp1522
g93
g94
ssg82
g1516
sg75
(lp1523
S'wsgi_errors'
p1524
asbag68
(g89
g70
NtRp1525
(dp1526
g73
(dp1527
g100
g101
ssg82
g1516
sg75
(lp1528
S':'
asbag68
(g89
g70
NtRp1529
(dp1530
g73
(dp1531
sg82
g1516
sg75
(lp1532
g68
(g69
g70
NtRp1533
(dp1534
g73
(dp1535
g81
I4
ssg82
g1529
sg75
(lp1536
S'<mod_wsgi.Log object at 0xb905cb38>'
p1537
asbasbasbag68
(g84
g70
NtRp1538
(dp1539
g73
(dp1540
sg82
g463
sg75
(lp1541
g68
(g89
g70
NtRp1542
(dp1543
g73
(dp1544
g93
g94
ssg82
g1538
sg75
(lp1545
S'wsgi_file_wrapper'
p1546
asbag68
(g89
g70
NtRp1547
(dp1548
g73
(dp1549
g100
g101
ssg82
g1538
sg75
(lp1550
S':'
asbag68
(g89
g70
NtRp1551
(dp1552
g73
(dp1553
sg82
g1538
sg75
(lp1554
g68
(g69
g70
NtRp1555
(dp1556
g73
(dp1557
g81
I4
ssg82
g1551
sg75
(lp1558
S'<built-in method file_wrapper of mod_wsgi.Adapter object at 0xb8bca578>'
p1559
asbasbasbag68
(g84
g70
NtRp1560
(dp1561
g73
(dp1562
sg82
g463
sg75
(lp1563
g68
(g89
g70
NtRp1564
(dp1565
g73
(dp1566
g93
g94
ssg82
g1560
sg75
(lp1567
S'wsgi_input'
p1568
asbag68
(g89
g70
NtRp1569
(dp1570
g73
(dp1571
g100
g101
ssg82
g1560
sg75
(lp1572
S':'
asbag68
(g89
g70
NtRp1573
(dp1574
g73
(dp1575
sg82
g1560
sg75
(lp1576
g68
(g69
g70
NtRp1577
(dp1578
g73
(dp1579
g81
I4
ssg82
g1573
sg75
(lp1580
S'<mod_wsgi.Input object at 0xb905ce08>'
p1581
asbasbasbag68
(g84
g70
NtRp1582
(dp1583
g73
(dp1584
sg82
g463
sg75
(lp1585
g68
(g89
g70
NtRp1586
(dp1587
g73
(dp1588
g93
g94
ssg82
g1582
sg75
(lp1589
S'wsgi_multiprocess'
p1590
asbag68
(g89
g70
NtRp1591
(dp1592
g73
(dp1593
g100
g101
ssg82
g1582
sg75
(lp1594
S':'
asbag68
(g89
g70
NtRp1595
(dp1596
g73
(dp1597
sg82
g1582
sg75
(lp1598
g68
(g69
g70
NtRp1599
(dp1600
g73
(dp1601
g81
I4
ssg82
g1595
sg75
(lp1602
g111
asbasbasbag68
(g84
g70
NtRp1603
(dp1604
g73
(dp1605
sg82
g463
sg75
(lp1606
g68
(g89
g70
NtRp1607
(dp1608
g73
(dp1609
g93
g94
ssg82
g1603
sg75
(lp1610
S'wsgi_multithread'
p1611
asbag68
(g89
g70
NtRp1612
(dp1613
g73
(dp1614
g100
g101
ssg82
g1603
sg75
(lp1615
S':'
asbag68
(g89
g70
NtRp1616
(dp1617
g73
(dp1618
sg82
g1603
sg75
(lp1619
g68
(g69
g70
NtRp1620
(dp1621
g73
(dp1622
g81
I4
ssg82
g1616
sg75
(lp1623
S'True'
p1624
asbasbasbag68
(g84
g70
NtRp1625
(dp1626
g73
(dp1627
sg82
g463
sg75
(lp1628
g68
(g89
g70
NtRp1629
(dp1630
g73
(dp1631
g93
g94
ssg82
g1625
sg75
(lp1632
S'wsgi_run_once'
p1633
asbag68
(g89
g70
NtRp1634
(dp1635
g73
(dp1636
g100
g101
ssg82
g1625
sg75
(lp1637
S':'
asbag68
(g89
g70
NtRp1638
(dp1639
g73
(dp1640
sg82
g1625
sg75
(lp1641
g68
(g69
g70
NtRp1642
(dp1643
g73
(dp1644
g81
I4
ssg82
g1638
sg75
(lp1645
g111
asbasbasbag68
(g84
g70
NtRp1646
(dp1647
g73
(dp1648
sg82
g463
sg75
(lp1649
g68
(g89
g70
NtRp1650
(dp1651
g73
(dp1652
g93
g94
ssg82
g1646
sg75
(lp1653
S'wsgi_url_scheme'
p1654
asbag68
(g89
g70
NtRp1655
(dp1656
g73
(dp1657
g100
g101
ssg82
g1646
sg75
(lp1658
S':'
asbag68
(g89
g70
NtRp1659
(dp1660
g73
(dp1661
sg82
g1646
sg75
(lp1662
g68
(g69
g70
NtRp1663
(dp1664
g73
(dp1665
g81
I4
ssg82
g1659
sg75
(lp1666
S'https'
p1667
asbasbasbag68
(g84
g70
NtRp1668
(dp1669
g73
(dp1670
sg82
g463
sg75
(lp1671
g68
(g89
g70
NtRp1672
(dp1673
g73
(dp1674
g93
g94
ssg82
g1668
sg75
(lp1675
S'wsgi_version'
p1676
asbag68
(g89
g70
NtRp1677
(dp1678
g73
(dp1679
g100
g101
ssg82
g1668
sg75
(lp1680
S':'
asbag68
(g89
g70
NtRp1681
(dp1682
g73
(dp1683
sg82
g1668
sg75
(lp1684
g68
(g69
g70
NtRp1685
(dp1686
g73
(dp1687
g81
I4
ssg82
g1681
sg75
(lp1688
g68
(g77
g70
NtRp1689
(dp1690
g73
(dp1691
g81
I3
ssg82
Nsg75
(lp1692
g68
(g84
g70
NtRp1693
(dp1694
g73
(dp1695
sg82
g1689
sg75
(lp1696
g68
(g89
g70
NtRp1697
(dp1698
g73
(dp1699
sg82
g1693
sg75
(lp1700
g68
(g69
g70
NtRp1701
(dp1702
g73
(dp1703
g81
I3
ssg82
g1697
sg75
(lp1704
S'1'
asbasbasbag68
(g84
g70
NtRp1705
(dp1706
g73
(dp1707
sg82
g1689
sg75
(lp1708
g68
(g89
g70
NtRp1709
(dp1710
g73
(dp1711
sg82
g1705
sg75
(lp1712
g68
(g69
g70
NtRp1713
(dp1714
g73
(dp1715
g81
I3
ssg82
g1709
sg75
(lp1716
S'1'
asbasbasbasbasbasbasbasbasbasbasbag68
(g84
g70
NtRp1717
(dp1718
g73
(dp1719
sg82
g78
sg75
(lp1720
g68
(g89
g70
NtRp1721
(dp1722
g73
(dp1723
g93
g94
ssg82
g1717
sg75
(lp1724
S'extension'
p1725
asbag68
(g89
g70
NtRp1726
(dp1727
g73
(dp1728
g100
g101
ssg82
g1717
sg75
(lp1729
S':'
asbag68
(g89
g70
NtRp1730
(dp1731
g73
(dp1732
sg82
g1717
sg75
(lp1733
g68
(g69
g70
NtRp1734
(dp1735
g73
(dp1736
g81
I5
ssg82
g1730
sg75
(lp1737
S'html'
p1738
asbasbasbag68
(g84
g70
NtRp1739
(dp1740
g73
(dp1741
sg82
g78
sg75
(lp1742
g68
(g89
g70
NtRp1743
(dp1744
g73
(dp1745
g93
g94
ssg82
g1739
sg75
(lp1746
S'folder'
p1747
asbag68
(g89
g70
NtRp1748
(dp1749
g73
(dp1750
g100
g101
ssg82
g1739
sg75
(lp1751
S':'
asbag68
(g89
g70
NtRp1752
(dp1753
g73
(dp1754
sg82
g1739
sg75
(lp1755
g68
(g69
g70
NtRp1756
(dp1757
g73
(dp1758
g81
I5
ssg82
g1752
sg75
(lp1759
S'/home/www-data/web2py/applications/scrum/'
p1760
asbasbasbag68
(g84
g70
NtRp1761
(dp1762
g73
(dp1763
sg82
g78
sg75
(lp1764
g68
(g89
g70
NtRp1765
(dp1766
g73
(dp1767
g93
g94
ssg82
g1761
sg75
(lp1768
S'function'
p1769
asbag68
(g89
g70
NtRp1770
(dp1771
g73
(dp1772
g100
g101
ssg82
g1761
sg75
(lp1773
S':'
asbag68
(g89
g70
NtRp1774
(dp1775
g73
(dp1776
sg82
g1761
sg75
(lp1777
g68
(g69
g70
NtRp1778
(dp1779
g73
(dp1780
g81
I5
ssg82
g1774
sg75
(lp1781
S'index'
p1782
asbasbasbag68
(g84
g70
NtRp1783
(dp1784
g73
(dp1785
sg82
g78
sg75
(lp1786
g68
(g89
g70
NtRp1787
(dp1788
g73
(dp1789
g93
g94
ssg82
g1783
sg75
(lp1790
S'get_vars'
p1791
asbag68
(g89
g70
NtRp1792
(dp1793
g73
(dp1794
g100
g101
ssg82
g1783
sg75
(lp1795
S':'
asbag68
(g89
g70
NtRp1796
(dp1797
g73
(dp1798
sg82
g1783
sg75
(lp1799
g68
(g69
g70
NtRp1800
(dp1801
g73
(dp1802
g81
I5
ssg82
g1796
sg75
(lp1803
g68
(g77
g70
NtRp1804
(dp1805
g73
(dp1806
g81
I4
ssg82
Nsg75
(lp1807
sbasbasbasbag68
(g84
g70
NtRp1808
(dp1809
g73
(dp1810
sg82
g78
sg75
(lp1811
g68
(g89
g70
NtRp1812
(dp1813
g73
(dp1814
g93
g94
ssg82
g1808
sg75
(lp1815
S'is_https'
p1816
asbag68
(g89
g70
NtRp1817
(dp1818
g73
(dp1819
g100
g101
ssg82
g1808
sg75
(lp1820
S':'
asbag68
(g89
g70
NtRp1821
(dp1822
g73
(dp1823
sg82
g1808
sg75
(lp1824
g68
(g69
g70
NtRp1825
(dp1826
g73
(dp1827
g81
I5
ssg82
g1821
sg75
(lp1828
g1624
asbasbasbag68
(g84
g70
NtRp1829
(dp1830
g73
(dp1831
sg82
g78
sg75
(lp1832
g68
(g89
g70
NtRp1833
(dp1834
g73
(dp1835
g93
g94
ssg82
g1829
sg75
(lp1836
S'is_local'
p1837
asbag68
(g89
g70
NtRp1838
(dp1839
g73
(dp1840
g100
g101
ssg82
g1829
sg75
(lp1841
S':'
asbag68
(g89
g70
NtRp1842
(dp1843
g73
(dp1844
sg82
g1829
sg75
(lp1845
g68
(g69
g70
NtRp1846
(dp1847
g73
(dp1848
g81
I5
ssg82
g1842
sg75
(lp1849
g1624
asbasbasbag68
(g84
g70
NtRp1850
(dp1851
g73
(dp1852
sg82
g78
sg75
(lp1853
g68
(g89
g70
NtRp1854
(dp1855
g73
(dp1856
g93
g94
ssg82
g1850
sg75
(lp1857
S'is_restful'
p1858
asbag68
(g89
g70
NtRp1859
(dp1860
g73
(dp1861
g100
g101
ssg82
g1850
sg75
(lp1862
S':'
asbag68
(g89
g70
NtRp1863
(dp1864
g73
(dp1865
sg82
g1850
sg75
(lp1866
g68
(g69
g70
NtRp1867
(dp1868
g73
(dp1869
g81
I5
ssg82
g1863
sg75
(lp1870
g111
asbasbasbag68
(g84
g70
NtRp1871
(dp1872
g73
(dp1873
sg82
g78
sg75
(lp1874
g68
(g89
g70
NtRp1875
(dp1876
g73
(dp1877
g93
g94
ssg82
g1871
sg75
(lp1878
S'now'
p1879
asbag68
(g89
g70
NtRp1880
(dp1881
g73
(dp1882
g100
g101
ssg82
g1871
sg75
(lp1883
S':'
asbag68
(g89
g70
NtRp1884
(dp1885
g73
(dp1886
sg82
g1871
sg75
(lp1887
g68
(g69
g70
NtRp1888
(dp1889
g73
(dp1890
g81
I5
ssg82
g1884
sg75
(lp1891
S'datetime.datetime(2011, 9, 12, 16, 7, 25, 488607)'
p1892
asbasbasbag68
(g84
g70
NtRp1893
(dp1894
g73
(dp1895
sg82
g78
sg75
(lp1896
g68
(g89
g70
NtRp1897
(dp1898
g73
(dp1899
g93
g94
ssg82
g1893
sg75
(lp1900
S'post_vars'
p1901
asbag68
(g89
g70
NtRp1902
(dp1903
g73
(dp1904
g100
g101
ssg82
g1893
sg75
(lp1905
S':'
asbag68
(g89
g70
NtRp1906
(dp1907
g73
(dp1908
sg82
g1893
sg75
(lp1909
g68
(g69
g70
NtRp1910
(dp1911
g73
(dp1912
g81
I5
ssg82
g1906
sg75
(lp1913
g68
(g77
g70
NtRp1914
(dp1915
g73
(dp1916
g81
I4
ssg82
Nsg75
(lp1917
sbasbasbasbag68
(g84
g70
NtRp1918
(dp1919
g73
(dp1920
sg82
g78
sg75
(lp1921
g68
(g89
g70
NtRp1922
(dp1923
g73
(dp1924
g93
g94
ssg82
g1918
sg75
(lp1925
S'url'
p1926
asbag68
(g89
g70
NtRp1927
(dp1928
g73
(dp1929
g100
g101
ssg82
g1918
sg75
(lp1930
S':'
asbag68
(g89
g70
NtRp1931
(dp1932
g73
(dp1933
sg82
g1918
sg75
(lp1934
g68
(g69
g70
NtRp1935
(dp1936
g73
(dp1937
g81
I5
ssg82
g1931
sg75
(lp1938
S'/scrum/sprint/index'
p1939
asbasbasbag68
(g84
g70
NtRp1940
(dp1941
g73
(dp1942
sg82
g78
sg75
(lp1943
g68
(g89
g70
NtRp1944
(dp1945
g73
(dp1946
g93
g94
ssg82
g1940
sg75
(lp1947
S'uuid'
p1948
asbag68
(g89
g70
NtRp1949
(dp1950
g73
(dp1951
g100
g101
ssg82
g1940
sg75
(lp1952
S':'
asbag68
(g89
g70
NtRp1953
(dp1954
g73
(dp1955
sg82
g1940
sg75
(lp1956
g68
(g69
g70
NtRp1957
(dp1958
g73
(dp1959
g81
I5
ssg82
g1953
sg75
(lp1960
S'scrum/127.0.0.1.2011-09-12.16-07-25.6443e425-2b38-409c-a8b4-81100fa6562e'
p1961
asbasbasbag68
(g84
g70
NtRp1962
(dp1963
g73
(dp1964
sg82
g78
sg75
(lp1965
g68
(g89
g70
NtRp1966
(dp1967
g73
(dp1968
g93
g94
ssg82
g1962
sg75
(lp1969
S'vars'
p1970
asbag68
(g89
g70
NtRp1971
(dp1972
g73
(dp1973
g100
g101
ssg82
g1962
sg75
(lp1974
S':'
asbag68
(g89
g70
NtRp1975
(dp1976
g73
(dp1977
sg82
g1962
sg75
(lp1978
g68
(g69
g70
NtRp1979
(dp1980
g73
(dp1981
g81
I5
ssg82
g1975
sg75
(lp1982
g68
(g77
g70
NtRp1983
(dp1984
g73
(dp1985
g81
I4
ssg82
Nsg75
(lp1986
sbasbasbasbag68
(g84
g70
NtRp1987
(dp1988
g73
(dp1989
sg82
g78
sg75
(lp1990
g68
(g89
g70
NtRp1991
(dp1992
g73
(dp1993
g93
g94
ssg82
g1987
sg75
(lp1994
S'wsgi'
p1995
asbag68
(g89
g70
NtRp1996
(dp1997
g73
(dp1998
g100
g101
ssg82
g1987
sg75
(lp1999
S':'
asbag68
(g89
g70
NtRp2000
(dp2001
g73
(dp2002
sg82
g1987
sg75
(lp2003
g68
(g69
g70
NtRp2004
(dp2005
g73
(dp2006
g81
I5
ssg82
g2000
sg75
(lp2007
g68
(g77
g70
NtRp2008
(dp2009
g73
(dp2010
g81
I4
ssg82
Nsg75
(lp2011
g68
(g84
g70
NtRp2012
(dp2013
g73
(dp2014
sg82
g2008
sg75
(lp2015
g68
(g89
g70
NtRp2016
(dp2017
g73
(dp2018
g93
g94
ssg82
g2012
sg75
(lp2019
S'environ'
p2020
asbag68
(g89
g70
NtRp2021
(dp2022
g73
(dp2023
g100
g101
ssg82
g2012
sg75
(lp2024
S':'
asbag68
(g89
g70
NtRp2025
(dp2026
g73
(dp2027
sg82
g2012
sg75
(lp2028
g68
(g69
g70
NtRp2029
(dp2030
g73
(dp2031
g81
I4
ssg82
g2025
sg75
(lp2032
g68
(g77
g70
NtRp2033
(dp2034
g73
(dp2035
g81
I3
ssg82
Nsg75
(lp2036
g68
(g84
g70
NtRp2037
(dp2038
g73
(dp2039
sg82
g2033
sg75
(lp2040
g68
(g89
g70
NtRp2041
(dp2042
g73
(dp2043
g93
g94
ssg82
g2037
sg75
(lp2044
S'DOCUMENT_ROOT'
p2045
asbag68
(g89
g70
NtRp2046
(dp2047
g73
(dp2048
g100
g101
ssg82
g2037
sg75
(lp2049
S':'
asbag68
(g89
g70
NtRp2050
(dp2051
g73
(dp2052
sg82
g2037
sg75
(lp2053
g68
(g69
g70
NtRp2054
(dp2055
g73
(dp2056
g81
I3
ssg82
g2050
sg75
(lp2057
g575
asbasbasbag68
(g84
g70
NtRp2058
(dp2059
g73
(dp2060
sg82
g2033
sg75
(lp2061
g68
(g89
g70
NtRp2062
(dp2063
g73
(dp2064
g93
g94
ssg82
g2058
sg75
(lp2065
S'GATEWAY_INTERFACE'
p2066
asbag68
(g89
g70
NtRp2067
(dp2068
g73
(dp2069
g100
g101
ssg82
g2058
sg75
(lp2070
S':'
asbag68
(g89
g70
NtRp2071
(dp2072
g73
(dp2073
sg82
g2058
sg75
(lp2074
g68
(g69
g70
NtRp2075
(dp2076
g73
(dp2077
g81
I3
ssg82
g2071
sg75
(lp2078
g597
asbasbasbag68
(g84
g70
NtRp2079
(dp2080
g73
(dp2081
sg82
g2033
sg75
(lp2082
g68
(g89
g70
NtRp2083
(dp2084
g73
(dp2085
g93
g94
ssg82
g2079
sg75
(lp2086
S'HTTPS'
p2087
asbag68
(g89
g70
NtRp2088
(dp2089
g73
(dp2090
g100
g101
ssg82
g2079
sg75
(lp2091
S':'
asbag68
(g89
g70
NtRp2092
(dp2093
g73
(dp2094
sg82
g2079
sg75
(lp2095
g68
(g69
g70
NtRp2096
(dp2097
g73
(dp2098
g81
I3
ssg82
g2092
sg75
(lp2099
S'1'
asbasbasbag68
(g84
g70
NtRp2100
(dp2101
g73
(dp2102
sg82
g2033
sg75
(lp2103
g68
(g89
g70
NtRp2104
(dp2105
g73
(dp2106
g93
g94
ssg82
g2100
sg75
(lp2107
S'HTTP_ACCEPT'
p2108
asbag68
(g89
g70
NtRp2109
(dp2110
g73
(dp2111
g100
g101
ssg82
g2100
sg75
(lp2112
S':'
asbag68
(g89
g70
NtRp2113
(dp2114
g73
(dp2115
sg82
g2100
sg75
(lp2116
g68
(g69
g70
NtRp2117
(dp2118
g73
(dp2119
g81
I3
ssg82
g2113
sg75
(lp2120
g640
asbasbasbag68
(g84
g70
NtRp2121
(dp2122
g73
(dp2123
sg82
g2033
sg75
(lp2124
g68
(g89
g70
NtRp2125
(dp2126
g73
(dp2127
g93
g94
ssg82
g2121
sg75
(lp2128
S'HTTP_ACCEPT_CHARSET'
p2129
asbag68
(g89
g70
NtRp2130
(dp2131
g73
(dp2132
g100
g101
ssg82
g2121
sg75
(lp2133
S':'
asbag68
(g89
g70
NtRp2134
(dp2135
g73
(dp2136
sg82
g2121
sg75
(lp2137
g68
(g69
g70
NtRp2138
(dp2139
g73
(dp2140
g81
I3
ssg82
g2134
sg75
(lp2141
g662
asbasbasbag68
(g84
g70
NtRp2142
(dp2143
g73
(dp2144
sg82
g2033
sg75
(lp2145
g68
(g89
g70
NtRp2146
(dp2147
g73
(dp2148
g93
g94
ssg82
g2142
sg75
(lp2149
S'HTTP_ACCEPT_ENCODING'
p2150
asbag68
(g89
g70
NtRp2151
(dp2152
g73
(dp2153
g100
g101
ssg82
g2142
sg75
(lp2154
S':'
asbag68
(g89
g70
NtRp2155
(dp2156
g73
(dp2157
sg82
g2142
sg75
(lp2158
g68
(g69
g70
NtRp2159
(dp2160
g73
(dp2161
g81
I3
ssg82
g2155
sg75
(lp2162
g684
asbasbasbag68
(g84
g70
NtRp2163
(dp2164
g73
(dp2165
sg82
g2033
sg75
(lp2166
g68
(g89
g70
NtRp2167
(dp2168
g73
(dp2169
g93
g94
ssg82
g2163
sg75
(lp2170
S'HTTP_ACCEPT_LANGUAGE'
p2171
asbag68
(g89
g70
NtRp2172
(dp2173
g73
(dp2174
g100
g101
ssg82
g2163
sg75
(lp2175
S':'
asbag68
(g89
g70
NtRp2176
(dp2177
g73
(dp2178
sg82
g2163
sg75
(lp2179
g68
(g69
g70
NtRp2180
(dp2181
g73
(dp2182
g81
I3
ssg82
g2176
sg75
(lp2183
g706
asbasbasbag68
(g84
g70
NtRp2184
(dp2185
g73
(dp2186
sg82
g2033
sg75
(lp2187
g68
(g89
g70
NtRp2188
(dp2189
g73
(dp2190
g93
g94
ssg82
g2184
sg75
(lp2191
S'HTTP_CONNECTION'
p2192
asbag68
(g89
g70
NtRp2193
(dp2194
g73
(dp2195
g100
g101
ssg82
g2184
sg75
(lp2196
S':'
asbag68
(g89
g70
NtRp2197
(dp2198
g73
(dp2199
sg82
g2184
sg75
(lp2200
g68
(g69
g70
NtRp2201
(dp2202
g73
(dp2203
g81
I3
ssg82
g2197
sg75
(lp2204
g728
asbasbasbag68
(g84
g70
NtRp2205
(dp2206
g73
(dp2207
sg82
g2033
sg75
(lp2208
g68
(g89
g70
NtRp2209
(dp2210
g73
(dp2211
g93
g94
ssg82
g2205
sg75
(lp2212
S'HTTP_COOKIE'
p2213
asbag68
(g89
g70
NtRp2214
(dp2215
g73
(dp2216
g100
g101
ssg82
g2205
sg75
(lp2217
S':'
asbag68
(g89
g70
NtRp2218
(dp2219
g73
(dp2220
sg82
g2205
sg75
(lp2221
g68
(g69
g70
NtRp2222
(dp2223
g73
(dp2224
g81
I3
ssg82
g2218
sg75
(lp2225
g750
asbasbasbag68
(g84
g70
NtRp2226
(dp2227
g73
(dp2228
sg82
g2033
sg75
(lp2229
g68
(g89
g70
NtRp2230
(dp2231
g73
(dp2232
g93
g94
ssg82
g2226
sg75
(lp2233
S'HTTP_HOST'
p2234
asbag68
(g89
g70
NtRp2235
(dp2236
g73
(dp2237
g100
g101
ssg82
g2226
sg75
(lp2238
S':'
asbag68
(g89
g70
NtRp2239
(dp2240
g73
(dp2241
sg82
g2226
sg75
(lp2242
g68
(g69
g70
NtRp2243
(dp2244
g73
(dp2245
g81
I3
ssg82
g2239
sg75
(lp2246
g772
asbasbasbag68
(g84
g70
NtRp2247
(dp2248
g73
(dp2249
sg82
g2033
sg75
(lp2250
g68
(g89
g70
NtRp2251
(dp2252
g73
(dp2253
g93
g94
ssg82
g2247
sg75
(lp2254
S'HTTP_REFERER'
p2255
asbag68
(g89
g70
NtRp2256
(dp2257
g73
(dp2258
g100
g101
ssg82
g2247
sg75
(lp2259
S':'
asbag68
(g89
g70
NtRp2260
(dp2261
g73
(dp2262
sg82
g2247
sg75
(lp2263
g68
(g69
g70
NtRp2264
(dp2265
g73
(dp2266
g81
I3
ssg82
g2260
sg75
(lp2267
g794
asbasbasbag68
(g84
g70
NtRp2268
(dp2269
g73
(dp2270
sg82
g2033
sg75
(lp2271
g68
(g89
g70
NtRp2272
(dp2273
g73
(dp2274
g93
g94
ssg82
g2268
sg75
(lp2275
S'HTTP_USER_AGENT'
p2276
asbag68
(g89
g70
NtRp2277
(dp2278
g73
(dp2279
g100
g101
ssg82
g2268
sg75
(lp2280
S':'
asbag68
(g89
g70
NtRp2281
(dp2282
g73
(dp2283
sg82
g2268
sg75
(lp2284
g68
(g69
g70
NtRp2285
(dp2286
g73
(dp2287
g81
I3
ssg82
g2281
sg75
(lp2288
g816
asbasbasbag68
(g84
g70
NtRp2289
(dp2290
g73
(dp2291
sg82
g2033
sg75
(lp2292
g68
(g89
g70
NtRp2293
(dp2294
g73
(dp2295
g93
g94
ssg82
g2289
sg75
(lp2296
S'PATH_INFO'
p2297
asbag68
(g89
g70
NtRp2298
(dp2299
g73
(dp2300
g100
g101
ssg82
g2289
sg75
(lp2301
S':'
asbag68
(g89
g70
NtRp2302
(dp2303
g73
(dp2304
sg82
g2289
sg75
(lp2305
g68
(g69
g70
NtRp2306
(dp2307
g73
(dp2308
g81
I3
ssg82
g2302
sg75
(lp2309
g1123
asbasbasbag68
(g84
g70
NtRp2310
(dp2311
g73
(dp2312
sg82
g2033
sg75
(lp2313
g68
(g89
g70
NtRp2314
(dp2315
g73
(dp2316
g93
g94
ssg82
g2310
sg75
(lp2317
S'PATH_TRANSLATED'
p2318
asbag68
(g89
g70
NtRp2319
(dp2320
g73
(dp2321
g100
g101
ssg82
g2310
sg75
(lp2322
S':'
asbag68
(g89
g70
NtRp2323
(dp2324
g73
(dp2325
sg82
g2310
sg75
(lp2326
g68
(g69
g70
NtRp2327
(dp2328
g73
(dp2329
g81
I3
ssg82
g2323
sg75
(lp2330
g1145
asbasbasbag68
(g84
g70
NtRp2331
(dp2332
g73
(dp2333
sg82
g2033
sg75
(lp2334
g68
(g89
g70
NtRp2335
(dp2336
g73
(dp2337
g93
g94
ssg82
g2331
sg75
(lp2338
S'QUERY_STRING'
p2339
asbag68
(g89
g70
NtRp2340
(dp2341
g73
(dp2342
g100
g101
ssg82
g2331
sg75
(lp2343
S':'
asbag68
(g89
g70
NtRp2344
(dp2345
g73
(dp2346
sg82
g2331
sg75
(lp2347
g68
(g69
g70
NtRp2348
(dp2349
g73
(dp2350
g81
I3
ssg82
g2344
sg75
(lp2351
S''
asbasbasbag68
(g84
g70
NtRp2352
(dp2353
g73
(dp2354
sg82
g2033
sg75
(lp2355
g68
(g89
g70
NtRp2356
(dp2357
g73
(dp2358
g93
g94
ssg82
g2352
sg75
(lp2359
S'REMOTE_ADDR'
p2360
asbag68
(g89
g70
NtRp2361
(dp2362
g73
(dp2363
g100
g101
ssg82
g2352
sg75
(lp2364
S':'
asbag68
(g89
g70
NtRp2365
(dp2366
g73
(dp2367
sg82
g2352
sg75
(lp2368
g68
(g69
g70
NtRp2369
(dp2370
g73
(dp2371
g81
I3
ssg82
g2365
sg75
(lp2372
g201
asbasbasbag68
(g84
g70
NtRp2373
(dp2374
g73
(dp2375
sg82
g2033
sg75
(lp2376
g68
(g89
g70
NtRp2377
(dp2378
g73
(dp2379
g93
g94
ssg82
g2373
sg75
(lp2380
S'REMOTE_PORT'
p2381
asbag68
(g89
g70
NtRp2382
(dp2383
g73
(dp2384
g100
g101
ssg82
g2373
sg75
(lp2385
S':'
asbag68
(g89
g70
NtRp2386
(dp2387
g73
(dp2388
sg82
g2373
sg75
(lp2389
g68
(g69
g70
NtRp2390
(dp2391
g73
(dp2392
g81
I3
ssg82
g2386
sg75
(lp2393
g1209
asbasbasbag68
(g84
g70
NtRp2394
(dp2395
g73
(dp2396
sg82
g2033
sg75
(lp2397
g68
(g89
g70
NtRp2398
(dp2399
g73
(dp2400
g93
g94
ssg82
g2394
sg75
(lp2401
S'REQUEST_METHOD'
p2402
asbag68
(g89
g70
NtRp2403
(dp2404
g73
(dp2405
g100
g101
ssg82
g2394
sg75
(lp2406
S':'
asbag68
(g89
g70
NtRp2407
(dp2408
g73
(dp2409
sg82
g2394
sg75
(lp2410
g68
(g69
g70
NtRp2411
(dp2412
g73
(dp2413
g81
I3
ssg82
g2407
sg75
(lp2414
g1231
asbasbasbag68
(g84
g70
NtRp2415
(dp2416
g73
(dp2417
sg82
g2033
sg75
(lp2418
g68
(g89
g70
NtRp2419
(dp2420
g73
(dp2421
g93
g94
ssg82
g2415
sg75
(lp2422
S'REQUEST_URI'
p2423
asbag68
(g89
g70
NtRp2424
(dp2425
g73
(dp2426
g100
g101
ssg82
g2415
sg75
(lp2427
S':'
asbag68
(g89
g70
NtRp2428
(dp2429
g73
(dp2430
sg82
g2415
sg75
(lp2431
g68
(g69
g70
NtRp2432
(dp2433
g73
(dp2434
g81
I3
ssg82
g2428
sg75
(lp2435
g1253
asbasbasbag68
(g84
g70
NtRp2436
(dp2437
g73
(dp2438
sg82
g2033
sg75
(lp2439
g68
(g89
g70
NtRp2440
(dp2441
g73
(dp2442
g93
g94
ssg82
g2436
sg75
(lp2443
S'SCRIPT_FILENAME'
p2444
asbag68
(g89
g70
NtRp2445
(dp2446
g73
(dp2447
g100
g101
ssg82
g2436
sg75
(lp2448
S':'
asbag68
(g89
g70
NtRp2449
(dp2450
g73
(dp2451
sg82
g2436
sg75
(lp2452
g68
(g69
g70
NtRp2453
(dp2454
g73
(dp2455
g81
I3
ssg82
g2449
sg75
(lp2456
g1275
asbasbasbag68
(g84
g70
NtRp2457
(dp2458
g73
(dp2459
sg82
g2033
sg75
(lp2460
g68
(g89
g70
NtRp2461
(dp2462
g73
(dp2463
g93
g94
ssg82
g2457
sg75
(lp2464
S'SCRIPT_NAME'
p2465
asbag68
(g89
g70
NtRp2466
(dp2467
g73
(dp2468
g100
g101
ssg82
g2457
sg75
(lp2469
S':'
asbag68
(g89
g70
NtRp2470
(dp2471
g73
(dp2472
sg82
g2457
sg75
(lp2473
g68
(g69
g70
NtRp2474
(dp2475
g73
(dp2476
g81
I3
ssg82
g2470
sg75
(lp2477
S''
asbasbasbag68
(g84
g70
NtRp2478
(dp2479
g73
(dp2480
sg82
g2033
sg75
(lp2481
g68
(g89
g70
NtRp2482
(dp2483
g73
(dp2484
g93
g94
ssg82
g2478
sg75
(lp2485
S'SERVER_ADDR'
p2486
asbag68
(g89
g70
NtRp2487
(dp2488
g73
(dp2489
g100
g101
ssg82
g2478
sg75
(lp2490
S':'
asbag68
(g89
g70
NtRp2491
(dp2492
g73
(dp2493
sg82
g2478
sg75
(lp2494
g68
(g69
g70
NtRp2495
(dp2496
g73
(dp2497
g81
I3
ssg82
g2491
sg75
(lp2498
g1318
asbasbasbag68
(g84
g70
NtRp2499
(dp2500
g73
(dp2501
sg82
g2033
sg75
(lp2502
g68
(g89
g70
NtRp2503
(dp2504
g73
(dp2505
g93
g94
ssg82
g2499
sg75
(lp2506
S'SERVER_ADMIN'
p2507
asbag68
(g89
g70
NtRp2508
(dp2509
g73
(dp2510
g100
g101
ssg82
g2499
sg75
(lp2511
S':'
asbag68
(g89
g70
NtRp2512
(dp2513
g73
(dp2514
sg82
g2499
sg75
(lp2515
g68
(g69
g70
NtRp2516
(dp2517
g73
(dp2518
g81
I3
ssg82
g2512
sg75
(lp2519
g1340
asbasbasbag68
(g84
g70
NtRp2520
(dp2521
g73
(dp2522
sg82
g2033
sg75
(lp2523
g68
(g89
g70
NtRp2524
(dp2525
g73
(dp2526
g93
g94
ssg82
g2520
sg75
(lp2527
S'SERVER_NAME'
p2528
asbag68
(g89
g70
NtRp2529
(dp2530
g73
(dp2531
g100
g101
ssg82
g2520
sg75
(lp2532
S':'
asbag68
(g89
g70
NtRp2533
(dp2534
g73
(dp2535
sg82
g2520
sg75
(lp2536
g68
(g69
g70
NtRp2537
(dp2538
g73
(dp2539
g81
I3
ssg82
g2533
sg75
(lp2540
g1362
asbasbasbag68
(g84
g70
NtRp2541
(dp2542
g73
(dp2543
sg82
g2033
sg75
(lp2544
g68
(g89
g70
NtRp2545
(dp2546
g73
(dp2547
g93
g94
ssg82
g2541
sg75
(lp2548
S'SERVER_PORT'
p2549
asbag68
(g89
g70
NtRp2550
(dp2551
g73
(dp2552
g100
g101
ssg82
g2541
sg75
(lp2553
S':'
asbag68
(g89
g70
NtRp2554
(dp2555
g73
(dp2556
sg82
g2541
sg75
(lp2557
g68
(g69
g70
NtRp2558
(dp2559
g73
(dp2560
g81
I3
ssg82
g2554
sg75
(lp2561
g1384
asbasbasbag68
(g84
g70
NtRp2562
(dp2563
g73
(dp2564
sg82
g2033
sg75
(lp2565
g68
(g89
g70
NtRp2566
(dp2567
g73
(dp2568
g93
g94
ssg82
g2562
sg75
(lp2569
S'SERVER_PROTOCOL'
p2570
asbag68
(g89
g70
NtRp2571
(dp2572
g73
(dp2573
g100
g101
ssg82
g2562
sg75
(lp2574
S':'
asbag68
(g89
g70
NtRp2575
(dp2576
g73
(dp2577
sg82
g2562
sg75
(lp2578
g68
(g69
g70
NtRp2579
(dp2580
g73
(dp2581
g81
I3
ssg82
g2575
sg75
(lp2582
g1406
asbasbasbag68
(g84
g70
NtRp2583
(dp2584
g73
(dp2585
sg82
g2033
sg75
(lp2586
g68
(g89
g70
NtRp2587
(dp2588
g73
(dp2589
g93
g94
ssg82
g2583
sg75
(lp2590
S'SERVER_SIGNATURE'
p2591
asbag68
(g89
g70
NtRp2592
(dp2593
g73
(dp2594
g100
g101
ssg82
g2583
sg75
(lp2595
S':'
asbag68
(g89
g70
NtRp2596
(dp2597
g73
(dp2598
sg82
g2583
sg75
(lp2599
g68
(g69
g70
NtRp2600
(dp2601
g73
(dp2602
g81
I3
ssg82
g2596
sg75
(lp2603
g1428
asbasbasbag68
(g84
g70
NtRp2604
(dp2605
g73
(dp2606
sg82
g2033
sg75
(lp2607
g68
(g89
g70
NtRp2608
(dp2609
g73
(dp2610
g93
g94
ssg82
g2604
sg75
(lp2611
S'SERVER_SOFTWARE'
p2612
asbag68
(g89
g70
NtRp2613
(dp2614
g73
(dp2615
g100
g101
ssg82
g2604
sg75
(lp2616
S':'
asbag68
(g89
g70
NtRp2617
(dp2618
g73
(dp2619
sg82
g2604
sg75
(lp2620
g68
(g69
g70
NtRp2621
(dp2622
g73
(dp2623
g81
I3
ssg82
g2617
sg75
(lp2624
g1450
asbasbasbag68
(g84
g70
NtRp2625
(dp2626
g73
(dp2627
sg82
g2033
sg75
(lp2628
g68
(g89
g70
NtRp2629
(dp2630
g73
(dp2631
g93
g94
ssg82
g2625
sg75
(lp2632
S'SSL_TLS_SNI'
p2633
asbag68
(g89
g70
NtRp2634
(dp2635
g73
(dp2636
g100
g101
ssg82
g2625
sg75
(lp2637
S':'
asbag68
(g89
g70
NtRp2638
(dp2639
g73
(dp2640
sg82
g2625
sg75
(lp2641
g68
(g69
g70
NtRp2642
(dp2643
g73
(dp2644
g81
I3
ssg82
g2638
sg75
(lp2645
g1472
asbasbasbag68
(g84
g70
NtRp2646
(dp2647
g73
(dp2648
sg82
g2033
sg75
(lp2649
g68
(g89
g70
NtRp2650
(dp2651
g73
(dp2652
g93
g94
ssg82
g2646
sg75
(lp2653
S'mod_wsgi.application_group'
p2654
asbag68
(g89
g70
NtRp2655
(dp2656
g73
(dp2657
g100
g101
ssg82
g2646
sg75
(lp2658
S':'
asbag68
(g89
g70
NtRp2659
(dp2660
g73
(dp2661
sg82
g2646
sg75
(lp2662
g68
(g69
g70
NtRp2663
(dp2664
g73
(dp2665
g81
I3
ssg82
g2659
sg75
(lp2666
g880
asbasbasbag68
(g84
g70
NtRp2667
(dp2668
g73
(dp2669
sg82
g2033
sg75
(lp2670
g68
(g89
g70
NtRp2671
(dp2672
g73
(dp2673
g93
g94
ssg82
g2667
sg75
(lp2674
S'mod_wsgi.callable_object'
p2675
asbag68
(g89
g70
NtRp2676
(dp2677
g73
(dp2678
g100
g101
ssg82
g2667
sg75
(lp2679
S':'
asbag68
(g89
g70
NtRp2680
(dp2681
g73
(dp2682
sg82
g2667
sg75
(lp2683
g68
(g69
g70
NtRp2684
(dp2685
g73
(dp2686
g81
I3
ssg82
g2680
sg75
(lp2687
g902
asbasbasbag68
(g84
g70
NtRp2688
(dp2689
g73
(dp2690
sg82
g2033
sg75
(lp2691
g68
(g89
g70
NtRp2692
(dp2693
g73
(dp2694
g93
g94
ssg82
g2688
sg75
(lp2695
S'mod_wsgi.handler_script'
p2696
asbag68
(g89
g70
NtRp2697
(dp2698
g73
(dp2699
g100
g101
ssg82
g2688
sg75
(lp2700
S':'
asbag68
(g89
g70
NtRp2701
(dp2702
g73
(dp2703
sg82
g2688
sg75
(lp2704
g68
(g69
g70
NtRp2705
(dp2706
g73
(dp2707
g81
I3
ssg82
g2701
sg75
(lp2708
S''
asbasbasbag68
(g84
g70
NtRp2709
(dp2710
g73
(dp2711
sg82
g2033
sg75
(lp2712
g68
(g89
g70
NtRp2713
(dp2714
g73
(dp2715
g93
g94
ssg82
g2709
sg75
(lp2716
S'mod_wsgi.input_chunked'
p2717
asbag68
(g89
g70
NtRp2718
(dp2719
g73
(dp2720
g100
g101
ssg82
g2709
sg75
(lp2721
S':'
asbag68
(g89
g70
NtRp2722
(dp2723
g73
(dp2724
sg82
g2709
sg75
(lp2725
g68
(g69
g70
NtRp2726
(dp2727
g73
(dp2728
g81
I3
ssg82
g2722
sg75
(lp2729
S'0'
asbasbasbag68
(g84
g70
NtRp2730
(dp2731
g73
(dp2732
sg82
g2033
sg75
(lp2733
g68
(g89
g70
NtRp2734
(dp2735
g73
(dp2736
g93
g94
ssg82
g2730
sg75
(lp2737
S'mod_wsgi.listener_host'
p2738
asbag68
(g89
g70
NtRp2739
(dp2740
g73
(dp2741
g100
g101
ssg82
g2730
sg75
(lp2742
S':'
asbag68
(g89
g70
NtRp2743
(dp2744
g73
(dp2745
sg82
g2730
sg75
(lp2746
g68
(g69
g70
NtRp2747
(dp2748
g73
(dp2749
g81
I3
ssg82
g2743
sg75
(lp2750
S''
asbasbasbag68
(g84
g70
NtRp2751
(dp2752
g73
(dp2753
sg82
g2033
sg75
(lp2754
g68
(g89
g70
NtRp2755
(dp2756
g73
(dp2757
g93
g94
ssg82
g2751
sg75
(lp2758
S'mod_wsgi.listener_port'
p2759
asbag68
(g89
g70
NtRp2760
(dp2761
g73
(dp2762
g100
g101
ssg82
g2751
sg75
(lp2763
S':'
asbag68
(g89
g70
NtRp2764
(dp2765
g73
(dp2766
sg82
g2751
sg75
(lp2767
g68
(g69
g70
NtRp2768
(dp2769
g73
(dp2770
g81
I3
ssg82
g2764
sg75
(lp2771
g987
asbasbasbag68
(g84
g70
NtRp2772
(dp2773
g73
(dp2774
sg82
g2033
sg75
(lp2775
g68
(g89
g70
NtRp2776
(dp2777
g73
(dp2778
g93
g94
ssg82
g2772
sg75
(lp2779
S'mod_wsgi.process_group'
p2780
asbag68
(g89
g70
NtRp2781
(dp2782
g73
(dp2783
g100
g101
ssg82
g2772
sg75
(lp2784
S':'
asbag68
(g89
g70
NtRp2785
(dp2786
g73
(dp2787
sg82
g2772
sg75
(lp2788
g68
(g69
g70
NtRp2789
(dp2790
g73
(dp2791
g81
I3
ssg82
g2785
sg75
(lp2792
g1009
asbasbasbag68
(g84
g70
NtRp2793
(dp2794
g73
(dp2795
sg82
g2033
sg75
(lp2796
g68
(g89
g70
NtRp2797
(dp2798
g73
(dp2799
g93
g94
ssg82
g2793
sg75
(lp2800
S'mod_wsgi.request_handler'
p2801
asbag68
(g89
g70
NtRp2802
(dp2803
g73
(dp2804
g100
g101
ssg82
g2793
sg75
(lp2805
S':'
asbag68
(g89
g70
NtRp2806
(dp2807
g73
(dp2808
sg82
g2793
sg75
(lp2809
g68
(g69
g70
NtRp2810
(dp2811
g73
(dp2812
g81
I3
ssg82
g2806
sg75
(lp2813
g1031
asbasbasbag68
(g84
g70
NtRp2814
(dp2815
g73
(dp2816
sg82
g2033
sg75
(lp2817
g68
(g89
g70
NtRp2818
(dp2819
g73
(dp2820
g93
g94
ssg82
g2814
sg75
(lp2821
S'mod_wsgi.script_reloading'
p2822
asbag68
(g89
g70
NtRp2823
(dp2824
g73
(dp2825
g100
g101
ssg82
g2814
sg75
(lp2826
S':'
asbag68
(g89
g70
NtRp2827
(dp2828
g73
(dp2829
sg82
g2814
sg75
(lp2830
g68
(g69
g70
NtRp2831
(dp2832
g73
(dp2833
g81
I3
ssg82
g2827
sg75
(lp2834
S'1'
asbasbasbag68
(g84
g70
NtRp2835
(dp2836
g73
(dp2837
sg82
g2033
sg75
(lp2838
g68
(g89
g70
NtRp2839
(dp2840
g73
(dp2841
g93
g94
ssg82
g2835
sg75
(lp2842
S'mod_wsgi.version'
p2843
asbag68
(g89
g70
NtRp2844
(dp2845
g73
(dp2846
g100
g101
ssg82
g2835
sg75
(lp2847
S':'
asbag68
(g89
g70
NtRp2848
(dp2849
g73
(dp2850
sg82
g2835
sg75
(lp2851
g68
(g69
g70
NtRp2852
(dp2853
g73
(dp2854
g81
I3
ssg82
g2848
sg75
(lp2855
g68
(g77
g70
NtRp2856
(dp2857
g73
(dp2858
g81
I2
ssg82
Nsg75
(lp2859
g68
(g84
g70
NtRp2860
(dp2861
g73
(dp2862
sg82
g2856
sg75
(lp2863
g68
(g89
g70
NtRp2864
(dp2865
g73
(dp2866
sg82
g2860
sg75
(lp2867
g68
(g69
g70
NtRp2868
(dp2869
g73
(dp2870
g81
I2
ssg82
g2864
sg75
(lp2871
S'3'
asbasbasbag68
(g84
g70
NtRp2872
(dp2873
g73
(dp2874
sg82
g2856
sg75
(lp2875
g68
(g89
g70
NtRp2876
(dp2877
g73
(dp2878
sg82
g2872
sg75
(lp2879
g68
(g69
g70
NtRp2880
(dp2881
g73
(dp2882
g81
I2
ssg82
g2876
sg75
(lp2883
S'3'
asbasbasbasbasbasbasbag68
(g84
g70
NtRp2884
(dp2885
g73
(dp2886
sg82
g2033
sg75
(lp2887
g68
(g89
g70
NtRp2888
(dp2889
g73
(dp2890
g93
g94
ssg82
g2884
sg75
(lp2891
S'wsgi.errors'
p2892
asbag68
(g89
g70
NtRp2893
(dp2894
g73
(dp2895
g100
g101
ssg82
g2884
sg75
(lp2896
S':'
asbag68
(g89
g70
NtRp2897
(dp2898
g73
(dp2899
sg82
g2884
sg75
(lp2900
g68
(g69
g70
NtRp2901
(dp2902
g73
(dp2903
g81
I3
ssg82
g2897
sg75
(lp2904
S'<mod_wsgi.Log object at 0xb905cb38>'
p2905
asbasbasbag68
(g84
g70
NtRp2906
(dp2907
g73
(dp2908
sg82
g2033
sg75
(lp2909
g68
(g89
g70
NtRp2910
(dp2911
g73
(dp2912
g93
g94
ssg82
g2906
sg75
(lp2913
S'wsgi.file_wrapper'
p2914
asbag68
(g89
g70
NtRp2915
(dp2916
g73
(dp2917
g100
g101
ssg82
g2906
sg75
(lp2918
S':'
asbag68
(g89
g70
NtRp2919
(dp2920
g73
(dp2921
sg82
g2906
sg75
(lp2922
g68
(g69
g70
NtRp2923
(dp2924
g73
(dp2925
g81
I3
ssg82
g2919
sg75
(lp2926
S'<built-in method file_wrapper of mod_wsgi.Adapter object at 0xb8bca578>'
p2927
asbasbasbag68
(g84
g70
NtRp2928
(dp2929
g73
(dp2930
sg82
g2033
sg75
(lp2931
g68
(g89
g70
NtRp2932
(dp2933
g73
(dp2934
g93
g94
ssg82
g2928
sg75
(lp2935
S'wsgi.input'
p2936
asbag68
(g89
g70
NtRp2937
(dp2938
g73
(dp2939
g100
g101
ssg82
g2928
sg75
(lp2940
S':'
asbag68
(g89
g70
NtRp2941
(dp2942
g73
(dp2943
sg82
g2928
sg75
(lp2944
g68
(g69
g70
NtRp2945
(dp2946
g73
(dp2947
g81
I3
ssg82
g2941
sg75
(lp2948
S'<cStringIO.StringO object at 0xb95de700>'
p2949
asbasbasbag68
(g84
g70
NtRp2950
(dp2951
g73
(dp2952
sg82
g2033
sg75
(lp2953
g68
(g89
g70
NtRp2954
(dp2955
g73
(dp2956
g93
g94
ssg82
g2950
sg75
(lp2957
S'wsgi.multiprocess'
p2958
asbag68
(g89
g70
NtRp2959
(dp2960
g73
(dp2961
g100
g101
ssg82
g2950
sg75
(lp2962
S':'
asbag68
(g89
g70
NtRp2963
(dp2964
g73
(dp2965
sg82
g2950
sg75
(lp2966
g68
(g69
g70
NtRp2967
(dp2968
g73
(dp2969
g81
I3
ssg82
g2963
sg75
(lp2970
g111
asbasbasbag68
(g84
g70
NtRp2971
(dp2972
g73
(dp2973
sg82
g2033
sg75
(lp2974
g68
(g89
g70
NtRp2975
(dp2976
g73
(dp2977
g93
g94
ssg82
g2971
sg75
(lp2978
S'wsgi.multithread'
p2979
asbag68
(g89
g70
NtRp2980
(dp2981
g73
(dp2982
g100
g101
ssg82
g2971
sg75
(lp2983
S':'
asbag68
(g89
g70
NtRp2984
(dp2985
g73
(dp2986
sg82
g2971
sg75
(lp2987
g68
(g69
g70
NtRp2988
(dp2989
g73
(dp2990
g81
I3
ssg82
g2984
sg75
(lp2991
g1624
asbasbasbag68
(g84
g70
NtRp2992
(dp2993
g73
(dp2994
sg82
g2033
sg75
(lp2995
g68
(g89
g70
NtRp2996
(dp2997
g73
(dp2998
g93
g94
ssg82
g2992
sg75
(lp2999
S'wsgi.run_once'
p3000
asbag68
(g89
g70
NtRp3001
(dp3002
g73
(dp3003
g100
g101
ssg82
g2992
sg75
(lp3004
S':'
asbag68
(g89
g70
NtRp3005
(dp3006
g73
(dp3007
sg82
g2992
sg75
(lp3008
g68
(g69
g70
NtRp3009
(dp3010
g73
(dp3011
g81
I3
ssg82
g3005
sg75
(lp3012
g111
asbasbasbag68
(g84
g70
NtRp3013
(dp3014
g73
(dp3015
sg82
g2033
sg75
(lp3016
g68
(g89
g70
NtRp3017
(dp3018
g73
(dp3019
g93
g94
ssg82
g3013
sg75
(lp3020
S'wsgi.url_scheme'
p3021
asbag68
(g89
g70
NtRp3022
(dp3023
g73
(dp3024
g100
g101
ssg82
g3013
sg75
(lp3025
S':'
asbag68
(g89
g70
NtRp3026
(dp3027
g73
(dp3028
sg82
g3013
sg75
(lp3029
g68
(g69
g70
NtRp3030
(dp3031
g73
(dp3032
g81
I3
ssg82
g3026
sg75
(lp3033
g1667
asbasbasbag68
(g84
g70
NtRp3034
(dp3035
g73
(dp3036
sg82
g2033
sg75
(lp3037
g68
(g89
g70
NtRp3038
(dp3039
g73
(dp3040
g93
g94
ssg82
g3034
sg75
(lp3041
S'wsgi.version'
p3042
asbag68
(g89
g70
NtRp3043
(dp3044
g73
(dp3045
g100
g101
ssg82
g3034
sg75
(lp3046
S':'
asbag68
(g89
g70
NtRp3047
(dp3048
g73
(dp3049
sg82
g3034
sg75
(lp3050
g68
(g69
g70
NtRp3051
(dp3052
g73
(dp3053
g81
I3
ssg82
g3047
sg75
(lp3054
S'1'
asbasbasbasbasbasbasbasbasbasbasbasbasbsS'frames'
p3055
(lp3056
(dp3057
S'file'
p3058
S'/home/www-data/web2py/gluon/restricted.py'
p3059
sS'dump'
p3060
(dp3061
S'code'
p3062
S"'# coding: utf8\\n\\n@auth.requires_login()\\ndef index...erTable)\\n\\nresponse._vars=response._caller(index)\\n'"
p3063
sS'layer'
p3064
S"'/home/www-data/web2py/applications/scrum/controllers/sprint.py'"
p3065
sS'global compile2'
p3066
S'<function compile2>'
p3067
sS'ccode'
p3068
S'undefined'
p3069
ssS'lnum'
p3070
I191
sS'lines'
p3071
(dp3072
I192
S'        exec ccode in environment'
p3073
sI193
S'    except HTTP:'
p3074
sI194
S'        raise'
p3075
sI195
S'    except Exception, error:'
p3076
sI186
S"    environment['__file__'] = layer"
p3077
sI187
S'    try:'
p3078
sI188
S'        if type(code) == types.CodeType:'
p3079
sI189
S'            ccode = code'
p3080
sI190
S'        else:'
p3081
sI191
S'            ccode = compile2(code,layer)'
p3082
ssS'call'
p3083
S"(code='# coding: utf8\\n\\n@auth.requires_login()\\ndef index...erTable)\\n\\nresponse._vars=response._caller(index)\\n', environment={'A': <class 'gluon.html.A'>, 'Auth': <class 'gluon.tools.Auth'>, 'B': <class 'gluon.html.B'>, 'BEAUTIFY': <class 'gluon.html.BEAUTIFY'>, 'BODY': <class 'gluon.html.BODY'>, 'BR': <class 'gluon.html.BR'>, 'BRAZILIAN_DATE': <gluon.validators.IS_DATE object>, 'BUTTON': <class 'gluon.html.BUTTON'>, 'CAT': <class 'gluon.html.CAT'>, 'CENTER': <class 'gluon.html.CENTER'>, ...}, layer='/home/www-data/web2py/applications/scrum/controllers/sprint.py')"
p3084
sS'func'
p3085
S'restricted'
p3086
sa(dp3087
g3058
S'/home/www-data/web2py/gluon/restricted.py'
p3088
sg3060
(dp3089
S'builtincompile'
p3090
S'<built-in function compile>'
p3091
sS'code'
p3092
S"'# coding: utf8\\n\\n@auth.requires_login()\\ndef index...erTable)\\n\\nresponse._vars=response._caller(index)\\n'"
p3093
sS'code.rstrip'
p3094
S'<built-in method rstrip of str object>'
p3095
sS').replace'
p3096
g3069
sS'layer'
p3097
S"'/home/www-data/web2py/applications/scrum/controllers/sprint.py'"
p3098
ssg3070
I178
sg3071
(dp3099
I173
S''
sI174
S'def compile2(code,layer):'
p3100
sI175
S'    """'
p3101
sI176
S"    The +'\\n' is necessary else compile fails when code ends in a comment."
p3102
sI177
S'    """'
p3103
sI178
S"    return compile(code.rstrip().replace('\\r\\n','\\n')+'\\n', layer, 'exec')"
p3104
sI179
S''
sI180
S"def restricted(code, environment={}, layer='Unknown'):"
p3105
sI181
S'    """'
p3106
sI182
S'    runs code in environment and returns the output. if an exception occurs'
p3107
ssg3083
S"(code='# coding: utf8\\n\\n@auth.requires_login()\\ndef index...erTable)\\n\\nresponse._vars=response._caller(index)\\n', layer='/home/www-data/web2py/applications/scrum/controllers/sprint.py')"
p3108
sg3085
S'compile2'
p3109
sasS'pyver'
p3110
S'Python 2.7.1+: /usr/bin/python'
p3111
sS'session'
p3112
g68
(g69
g70
NtRp3113
(dp3114
g73
(dp3115
sg75
(lp3116
g68
(g77
g70
NtRp3117
(dp3118
g73
(dp3119
g81
I5
ssg82
Nsg75
(lp3120
sbasbsS'etype'
p3121
S"<type 'exceptions.SyntaxError'>"
p3122
sS'date'
p3123
S'Mon Sep 12 16:07:25 2011'
p3124
sS'response'
p3125
g68
(g69
g70
NtRp3126
(dp3127
g73
(dp3128
sg75
(lp3129
g68
(g77
g70
NtRp3130
(dp3131
g73
(dp3132
g81
I5
ssg82
Nsg75
(lp3133
g68
(g84
g70
NtRp3134
(dp3135
g73
(dp3136
sg82
g3130
sg75
(lp3137
g68
(g89
g70
NtRp3138
(dp3139
g73
(dp3140
g93
g94
ssg82
g3134
sg75
(lp3141
g166
asbag68
(g89
g70
NtRp3142
(dp3143
g73
(dp3144
g100
g101
ssg82
g3134
sg75
(lp3145
S':'
asbag68
(g89
g70
NtRp3146
(dp3147
g73
(dp3148
sg82
g3134
sg75
(lp3149
g68
(g69
g70
NtRp3150
(dp3151
g73
(dp3152
g81
I5
ssg82
g3146
sg75
(lp3153
S'<cStringIO.StringO object at 0xb94c7580>'
p3154
asbasbasbag68
(g84
g70
NtRp3155
(dp3156
g73
(dp3157
sg82
g3130
sg75
(lp3158
g68
(g89
g70
NtRp3159
(dp3160
g73
(dp3161
g93
g94
ssg82
g3155
sg75
(lp3162
g232
asbag68
(g89
g70
NtRp3163
(dp3164
g73
(dp3165
g100
g101
ssg82
g3155
sg75
(lp3166
S':'
asbag68
(g89
g70
NtRp3167
(dp3168
g73
(dp3169
sg82
g3155
sg75
(lp3170
g68
(g69
g70
NtRp3171
(dp3172
g73
(dp3173
g81
I5
ssg82
g3167
sg75
(lp3174
g68
(g77
g70
NtRp3175
(dp3176
g73
(dp3177
g81
I4
ssg82
Nsg75
(lp3178
g68
(g84
g70
NtRp3179
(dp3180
g73
(dp3181
sg82
g3175
sg75
(lp3182
g68
(g89
g70
NtRp3183
(dp3184
g73
(dp3185
g93
g94
ssg82
g3179
sg75
(lp3186
S'session_id_scrum'
p3187
asbag68
(g89
g70
NtRp3188
(dp3189
g73
(dp3190
g100
g101
ssg82
g3179
sg75
(lp3191
S':'
asbag68
(g89
g70
NtRp3192
(dp3193
g73
(dp3194
sg82
g3179
sg75
(lp3195
g68
(g69
g70
NtRp3196
(dp3197
g73
(dp3198
g81
I4
ssg82
g3192
sg75
(lp3199
g68
(g77
g70
NtRp3200
(dp3201
g73
(dp3202
g81
I3
ssg82
Nsg75
(lp3203
g68
(g84
g70
NtRp3204
(dp3205
g73
(dp3206
sg82
g3200
sg75
(lp3207
g68
(g89
g70
NtRp3208
(dp3209
g73
(dp3210
g93
g94
ssg82
g3204
sg75
(lp3211
g282
asbag68
(g89
g70
NtRp3212
(dp3213
g73
(dp3214
g100
g101
ssg82
g3204
sg75
(lp3215
S':'
asbag68
(g89
g70
NtRp3216
(dp3217
g73
(dp3218
sg82
g3204
sg75
(lp3219
g68
(g69
g70
NtRp3220
(dp3221
g73
(dp3222
g81
I3
ssg82
g3216
sg75
(lp3223
S''
asbasbasbag68
(g84
g70
NtRp3224
(dp3225
g73
(dp3226
sg82
g3200
sg75
(lp3227
g68
(g89
g70
NtRp3228
(dp3229
g73
(dp3230
g93
g94
ssg82
g3224
sg75
(lp3231
g303
asbag68
(g89
g70
NtRp3232
(dp3233
g73
(dp3234
g100
g101
ssg82
g3224
sg75
(lp3235
S':'
asbag68
(g89
g70
NtRp3236
(dp3237
g73
(dp3238
sg82
g3224
sg75
(lp3239
g68
(g69
g70
NtRp3240
(dp3241
g73
(dp3242
g81
I3
ssg82
g3236
sg75
(lp3243
S''
asbasbasbag68
(g84
g70
NtRp3244
(dp3245
g73
(dp3246
sg82
g3200
sg75
(lp3247
g68
(g89
g70
NtRp3248
(dp3249
g73
(dp3250
g93
g94
ssg82
g3244
sg75
(lp3251
g324
asbag68
(g89
g70
NtRp3252
(dp3253
g73
(dp3254
g100
g101
ssg82
g3244
sg75
(lp3255
S':'
asbag68
(g89
g70
NtRp3256
(dp3257
g73
(dp3258
sg82
g3244
sg75
(lp3259
g68
(g69
g70
NtRp3260
(dp3261
g73
(dp3262
g81
I3
ssg82
g3256
sg75
(lp3263
S''
asbasbasbag68
(g84
g70
NtRp3264
(dp3265
g73
(dp3266
sg82
g3200
sg75
(lp3267
g68
(g89
g70
NtRp3268
(dp3269
g73
(dp3270
g93
g94
ssg82
g3264
sg75
(lp3271
g345
asbag68
(g89
g70
NtRp3272
(dp3273
g73
(dp3274
g100
g101
ssg82
g3264
sg75
(lp3275
S':'
asbag68
(g89
g70
NtRp3276
(dp3277
g73
(dp3278
sg82
g3264
sg75
(lp3279
g68
(g69
g70
NtRp3280
(dp3281
g73
(dp3282
g81
I3
ssg82
g3276
sg75
(lp3283
S''
asbasbasbag68
(g84
g70
NtRp3284
(dp3285
g73
(dp3286
sg82
g3200
sg75
(lp3287
g68
(g89
g70
NtRp3288
(dp3289
g73
(dp3290
g93
g94
ssg82
g3284
sg75
(lp3291
g366
asbag68
(g89
g70
NtRp3292
(dp3293
g73
(dp3294
g100
g101
ssg82
g3284
sg75
(lp3295
S':'
asbag68
(g89
g70
NtRp3296
(dp3297
g73
(dp3298
sg82
g3284
sg75
(lp3299
g68
(g69
g70
NtRp3300
(dp3301
g73
(dp3302
g81
I3
ssg82
g3296
sg75
(lp3303
S''
asbasbasbag68
(g84
g70
NtRp3304
(dp3305
g73
(dp3306
sg82
g3200
sg75
(lp3307
g68
(g89
g70
NtRp3308
(dp3309
g73
(dp3310
g93
g94
ssg82
g3304
sg75
(lp3311
g387
asbag68
(g89
g70
NtRp3312
(dp3313
g73
(dp3314
g100
g101
ssg82
g3304
sg75
(lp3315
S':'
asbag68
(g89
g70
NtRp3316
(dp3317
g73
(dp3318
sg82
g3304
sg75
(lp3319
g68
(g69
g70
NtRp3320
(dp3321
g73
(dp3322
g81
I3
ssg82
g3316
sg75
(lp3323
S'/'
asbasbasbag68
(g84
g70
NtRp3324
(dp3325
g73
(dp3326
sg82
g3200
sg75
(lp3327
g68
(g89
g70
NtRp3328
(dp3329
g73
(dp3330
g93
g94
ssg82
g3324
sg75
(lp3331
g408
asbag68
(g89
g70
NtRp3332
(dp3333
g73
(dp3334
g100
g101
ssg82
g3324
sg75
(lp3335
S':'
asbag68
(g89
g70
NtRp3336
(dp3337
g73
(dp3338
sg82
g3324
sg75
(lp3339
g68
(g69
g70
NtRp3340
(dp3341
g73
(dp3342
g81
I3
ssg82
g3336
sg75
(lp3343
S''
asbasbasbag68
(g84
g70
NtRp3344
(dp3345
g73
(dp3346
sg82
g3200
sg75
(lp3347
g68
(g89
g70
NtRp3348
(dp3349
g73
(dp3350
g93
g94
ssg82
g3344
sg75
(lp3351
g429
asbag68
(g89
g70
NtRp3352
(dp3353
g73
(dp3354
g100
g101
ssg82
g3344
sg75
(lp3355
S':'
asbag68
(g89
g70
NtRp3356
(dp3357
g73
(dp3358
sg82
g3344
sg75
(lp3359
g68
(g69
g70
NtRp3360
(dp3361
g73
(dp3362
g81
I3
ssg82
g3356
sg75
(lp3363
S''
asbasbasbasbasbasbasbasbasbasbasbag68
(g84
g70
NtRp3364
(dp3365
g73
(dp3366
sg82
g3130
sg75
(lp3367
g68
(g89
g70
NtRp3368
(dp3369
g73
(dp3370
g93
g94
ssg82
g3364
sg75
(lp3371
S'files'
p3372
asbag68
(g89
g70
NtRp3373
(dp3374
g73
(dp3375
g100
g101
ssg82
g3364
sg75
(lp3376
S':'
asbag68
(g89
g70
NtRp3377
(dp3378
g73
(dp3379
sg82
g3364
sg75
(lp3380
g68
(g69
g70
NtRp3381
(dp3382
g73
(dp3383
g81
I5
ssg82
g3377
sg75
(lp3384
g68
(g77
g70
NtRp3385
(dp3386
g73
(dp3387
g81
I4
ssg82
Nsg75
(lp3388
sbasbasbasbag68
(g84
g70
NtRp3389
(dp3390
g73
(dp3391
sg82
g3130
sg75
(lp3392
g68
(g89
g70
NtRp3393
(dp3394
g73
(dp3395
g93
g94
ssg82
g3389
sg75
(lp3396
S'flash'
p3397
asbag68
(g89
g70
NtRp3398
(dp3399
g73
(dp3400
g100
g101
ssg82
g3389
sg75
(lp3401
S':'
asbag68
(g89
g70
NtRp3402
(dp3403
g73
(dp3404
sg82
g3389
sg75
(lp3405
g68
(g69
g70
NtRp3406
(dp3407
g73
(dp3408
g81
I5
ssg82
g3402
sg75
(lp3409
S''
asbasbasbag68
(g84
g70
NtRp3410
(dp3411
g73
(dp3412
sg82
g3130
sg75
(lp3413
g68
(g89
g70
NtRp3414
(dp3415
g73
(dp3416
g93
g94
ssg82
g3410
sg75
(lp3417
S'generic_patterns'
p3418
asbag68
(g89
g70
NtRp3419
(dp3420
g73
(dp3421
g100
g101
ssg82
g3410
sg75
(lp3422
S':'
asbag68
(g89
g70
NtRp3423
(dp3424
g73
(dp3425
sg82
g3410
sg75
(lp3426
g68
(g69
g70
NtRp3427
(dp3428
g73
(dp3429
g81
I5
ssg82
g3423
sg75
(lp3430
g68
(g77
g70
NtRp3431
(dp3432
g73
(dp3433
g81
I4
ssg82
Nsg75
(lp3434
sbasbasbasbag68
(g84
g70
NtRp3435
(dp3436
g73
(dp3437
sg82
g3130
sg75
(lp3438
g68
(g89
g70
NtRp3439
(dp3440
g73
(dp3441
g93
g94
ssg82
g3435
sg75
(lp3442
S'headers'
p3443
asbag68
(g89
g70
NtRp3444
(dp3445
g73
(dp3446
g100
g101
ssg82
g3435
sg75
(lp3447
S':'
asbag68
(g89
g70
NtRp3448
(dp3449
g73
(dp3450
sg82
g3435
sg75
(lp3451
g68
(g69
g70
NtRp3452
(dp3453
g73
(dp3454
g81
I5
ssg82
g3448
sg75
(lp3455
g68
(g77
g70
NtRp3456
(dp3457
g73
(dp3458
g81
I4
ssg82
Nsg75
(lp3459
g68
(g84
g70
NtRp3460
(dp3461
g73
(dp3462
sg82
g3456
sg75
(lp3463
g68
(g89
g70
NtRp3464
(dp3465
g73
(dp3466
g93
g94
ssg82
g3460
sg75
(lp3467
S'Cache-Control'
p3468
asbag68
(g89
g70
NtRp3469
(dp3470
g73
(dp3471
g100
g101
ssg82
g3460
sg75
(lp3472
S':'
asbag68
(g89
g70
NtRp3473
(dp3474
g73
(dp3475
sg82
g3460
sg75
(lp3476
g68
(g69
g70
NtRp3477
(dp3478
g73
(dp3479
g81
I4
ssg82
g3473
sg75
(lp3480
S'no-store, no-cache, must-revalidate, post-check=0, pre-check=0'
p3481
asbasbasbag68
(g84
g70
NtRp3482
(dp3483
g73
(dp3484
sg82
g3456
sg75
(lp3485
g68
(g89
g70
NtRp3486
(dp3487
g73
(dp3488
g93
g94
ssg82
g3482
sg75
(lp3489
S'Content-Type'
p3490
asbag68
(g89
g70
NtRp3491
(dp3492
g73
(dp3493
g100
g101
ssg82
g3482
sg75
(lp3494
S':'
asbag68
(g89
g70
NtRp3495
(dp3496
g73
(dp3497
sg82
g3482
sg75
(lp3498
g68
(g69
g70
NtRp3499
(dp3500
g73
(dp3501
g81
I4
ssg82
g3495
sg75
(lp3502
S'text/html; charset=utf-8'
p3503
asbasbasbag68
(g84
g70
NtRp3504
(dp3505
g73
(dp3506
sg82
g3456
sg75
(lp3507
g68
(g89
g70
NtRp3508
(dp3509
g73
(dp3510
g93
g94
ssg82
g3504
sg75
(lp3511
S'Expires'
p3512
asbag68
(g89
g70
NtRp3513
(dp3514
g73
(dp3515
g100
g101
ssg82
g3504
sg75
(lp3516
S':'
asbag68
(g89
g70
NtRp3517
(dp3518
g73
(dp3519
sg82
g3504
sg75
(lp3520
g68
(g69
g70
NtRp3521
(dp3522
g73
(dp3523
g81
I4
ssg82
g3517
sg75
(lp3524
S'Mon, 12 Sep 2011 19:07:25 GMT'
p3525
asbasbasbag68
(g84
g70
NtRp3526
(dp3527
g73
(dp3528
sg82
g3456
sg75
(lp3529
g68
(g89
g70
NtRp3530
(dp3531
g73
(dp3532
g93
g94
ssg82
g3526
sg75
(lp3533
S'Pragma'
p3534
asbag68
(g89
g70
NtRp3535
(dp3536
g73
(dp3537
g100
g101
ssg82
g3526
sg75
(lp3538
S':'
asbag68
(g89
g70
NtRp3539
(dp3540
g73
(dp3541
sg82
g3526
sg75
(lp3542
g68
(g69
g70
NtRp3543
(dp3544
g73
(dp3545
g81
I4
ssg82
g3539
sg75
(lp3546
S'no-cache'
p3547
asbasbasbag68
(g84
g70
NtRp3548
(dp3549
g73
(dp3550
sg82
g3456
sg75
(lp3551
g68
(g89
g70
NtRp3552
(dp3553
g73
(dp3554
g93
g94
ssg82
g3548
sg75
(lp3555
S'X-Powered-By'
p3556
asbag68
(g89
g70
NtRp3557
(dp3558
g73
(dp3559
g100
g101
ssg82
g3548
sg75
(lp3560
S':'
asbag68
(g89
g70
NtRp3561
(dp3562
g73
(dp3563
sg82
g3548
sg75
(lp3564
g68
(g69
g70
NtRp3565
(dp3566
g73
(dp3567
g81
I4
ssg82
g3561
sg75
(lp3568
S'web2py'
p3569
asbasbasbasbasbasbasbag68
(g84
g70
NtRp3570
(dp3571
g73
(dp3572
sg82
g3130
sg75
(lp3573
g68
(g89
g70
NtRp3574
(dp3575
g73
(dp3576
g93
g94
ssg82
g3570
sg75
(lp3577
S'menu'
p3578
asbag68
(g89
g70
NtRp3579
(dp3580
g73
(dp3581
g100
g101
ssg82
g3570
sg75
(lp3582
S':'
asbag68
(g89
g70
NtRp3583
(dp3584
g73
(dp3585
sg82
g3570
sg75
(lp3586
g68
(g69
g70
NtRp3587
(dp3588
g73
(dp3589
g81
I5
ssg82
g3583
sg75
(lp3590
g68
(g77
g70
NtRp3591
(dp3592
g73
(dp3593
g81
I4
ssg82
Nsg75
(lp3594
g68
(g84
g70
NtRp3595
(dp3596
g73
(dp3597
sg82
g3591
sg75
(lp3598
g68
(g89
g70
NtRp3599
(dp3600
g73
(dp3601
sg82
g3595
sg75
(lp3602
g68
(g69
g70
NtRp3603
(dp3604
g73
(dp3605
g81
I4
ssg82
g3599
sg75
(lp3606
g68
(g77
g70
NtRp3607
(dp3608
g73
(dp3609
g81
I3
ssg82
Nsg75
(lp3610
g68
(g84
g70
NtRp3611
(dp3612
g73
(dp3613
sg82
g3607
sg75
(lp3614
g68
(g89
g70
NtRp3615
(dp3616
g73
(dp3617
sg82
g3611
sg75
(lp3618
g68
(g69
g70
NtRp3619
(dp3620
g73
(dp3621
g81
I3
ssg82
g3615
sg75
(lp3622
cgluon.languages
lazyT_unpickle
p3623
(S't\x04\x00\x00\x00Home'
tRp3624
asbasbasbag68
(g84
g70
NtRp3625
(dp3626
g73
(dp3627
sg82
g3607
sg75
(lp3628
g68
(g89
g70
NtRp3629
(dp3630
g73
(dp3631
sg82
g3625
sg75
(lp3632
g68
(g69
g70
NtRp3633
(dp3634
g73
(dp3635
g81
I3
ssg82
g3629
sg75
(lp3636
g111
asbasbasbag68
(g84
g70
NtRp3637
(dp3638
g73
(dp3639
sg82
g3607
sg75
(lp3640
g68
(g89
g70
NtRp3641
(dp3642
g73
(dp3643
sg82
g3637
sg75
(lp3644
g68
(g69
g70
NtRp3645
(dp3646
g73
(dp3647
g81
I3
ssg82
g3641
sg75
(lp3648
S'/scrum/default/index'
p3649
asbasbasbag68
(g84
g70
NtRp3650
(dp3651
g73
(dp3652
sg82
g3607
sg75
(lp3653
g68
(g89
g70
NtRp3654
(dp3655
g73
(dp3656
sg82
g3650
sg75
(lp3657
g68
(g69
g70
NtRp3658
(dp3659
g73
(dp3660
g81
I3
ssg82
g3654
sg75
(lp3661
g68
(g77
g70
NtRp3662
(dp3663
g73
(dp3664
g81
I2
ssg82
Nsg75
(lp3665
sbasbasbasbasbasbasbasbag68
(g84
g70
NtRp3666
(dp3667
g73
(dp3668
sg82
g3591
sg75
(lp3669
g68
(g89
g70
NtRp3670
(dp3671
g73
(dp3672
sg82
g3666
sg75
(lp3673
g68
(g69
g70
NtRp3674
(dp3675
g73
(dp3676
g81
I4
ssg82
g3670
sg75
(lp3677
g68
(g77
g70
NtRp3678
(dp3679
g73
(dp3680
g81
I3
ssg82
Nsg75
(lp3681
g68
(g84
g70
NtRp3682
(dp3683
g73
(dp3684
sg82
g3678
sg75
(lp3685
g68
(g89
g70
NtRp3686
(dp3687
g73
(dp3688
sg82
g3682
sg75
(lp3689
g68
(g69
g70
NtRp3690
(dp3691
g73
(dp3692
g81
I3
ssg82
g3686
sg75
(lp3693
g3623
(S't\x03\x00\x00\x00BIV'
tRp3694
asbasbasbag68
(g84
g70
NtRp3695
(dp3696
g73
(dp3697
sg82
g3678
sg75
(lp3698
g68
(g89
g70
NtRp3699
(dp3700
g73
(dp3701
sg82
g3695
sg75
(lp3702
g68
(g69
g70
NtRp3703
(dp3704
g73
(dp3705
g81
I3
ssg82
g3699
sg75
(lp3706
g111
asbasbasbag68
(g84
g70
NtRp3707
(dp3708
g73
(dp3709
sg82
g3678
sg75
(lp3710
g68
(g89
g70
NtRp3711
(dp3712
g73
(dp3713
sg82
g3707
sg75
(lp3714
g68
(g69
g70
NtRp3715
(dp3716
g73
(dp3717
g81
I3
ssg82
g3711
sg75
(lp3718
S''
asbasbasbag68
(g84
g70
NtRp3719
(dp3720
g73
(dp3721
sg82
g3678
sg75
(lp3722
g68
(g89
g70
NtRp3723
(dp3724
g73
(dp3725
sg82
g3719
sg75
(lp3726
g68
(g69
g70
NtRp3727
(dp3728
g73
(dp3729
g81
I3
ssg82
g3723
sg75
(lp3730
g68
(g77
g70
NtRp3731
(dp3732
g73
(dp3733
g81
I2
ssg82
Nsg75
(lp3734
g68
(g84
g70
NtRp3735
(dp3736
g73
(dp3737
sg82
g3731
sg75
(lp3738
g68
(g89
g70
NtRp3739
(dp3740
g73
(dp3741
sg82
g3735
sg75
(lp3742
g68
(g69
g70
NtRp3743
(dp3744
g73
(dp3745
g81
I2
ssg82
g3739
sg75
(lp3746
g68
(g77
g70
NtRp3747
(dp3748
g73
(dp3749
g81
I1
ssg82
Nsg75
(lp3750
g68
(g84
g70
NtRp3751
(dp3752
g73
(dp3753
sg82
g3747
sg75
(lp3754
g68
(g89
g70
NtRp3755
(dp3756
g73
(dp3757
sg82
g3751
sg75
(lp3758
g68
(g69
g70
NtRp3759
(dp3760
g73
(dp3761
g81
I1
ssg82
g3755
sg75
(lp3762
g3623
(S't\x04\x00\x00\x00Novo'
tRp3763
asbasbasbag68
(g84
g70
NtRp3764
(dp3765
g73
(dp3766
sg82
g3747
sg75
(lp3767
g68
(g89
g70
NtRp3768
(dp3769
g73
(dp3770
sg82
g3764
sg75
(lp3771
g68
(g69
g70
NtRp3772
(dp3773
g73
(dp3774
g81
I1
ssg82
g3768
sg75
(lp3775
I00
asbasbasbag68
(g84
g70
NtRp3776
(dp3777
g73
(dp3778
sg82
g3747
sg75
(lp3779
g68
(g89
g70
NtRp3780
(dp3781
g73
(dp3782
sg82
g3776
sg75
(lp3783
g68
(g69
g70
NtRp3784
(dp3785
g73
(dp3786
g81
I1
ssg82
g3780
sg75
(lp3787
S'/scrum/default/novo_biv'
p3788
asbasbasbag68
(g84
g70
NtRp3789
(dp3790
g73
(dp3791
sg82
g3747
sg75
(lp3792
g68
(g89
g70
NtRp3793
(dp3794
g73
(dp3795
sg82
g3789
sg75
(lp3796
g68
(g69
g70
NtRp3797
(dp3798
g73
(dp3799
g81
I1
ssg82
g3793
sg75
(lp3800
(lp3801
asbasbasbasbasbasbasbag68
(g84
g70
NtRp3802
(dp3803
g73
(dp3804
sg82
g3731
sg75
(lp3805
g68
(g89
g70
NtRp3806
(dp3807
g73
(dp3808
sg82
g3802
sg75
(lp3809
g68
(g69
g70
NtRp3810
(dp3811
g73
(dp3812
g81
I2
ssg82
g3806
sg75
(lp3813
g68
(g77
g70
NtRp3814
(dp3815
g73
(dp3816
g81
I1
ssg82
Nsg75
(lp3817
g68
(g84
g70
NtRp3818
(dp3819
g73
(dp3820
sg82
g3814
sg75
(lp3821
g68
(g89
g70
NtRp3822
(dp3823
g73
(dp3824
sg82
g3818
sg75
(lp3825
g68
(g69
g70
NtRp3826
(dp3827
g73
(dp3828
g81
I1
ssg82
g3822
sg75
(lp3829
g3623
(S't\n\x00\x00\x00Selecionar'
tRp3830
asbasbasbag68
(g84
g70
NtRp3831
(dp3832
g73
(dp3833
sg82
g3814
sg75
(lp3834
g68
(g89
g70
NtRp3835
(dp3836
g73
(dp3837
sg82
g3831
sg75
(lp3838
g68
(g69
g70
NtRp3839
(dp3840
g73
(dp3841
g81
I1
ssg82
g3835
sg75
(lp3842
I00
asbasbasbag68
(g84
g70
NtRp3843
(dp3844
g73
(dp3845
sg82
g3814
sg75
(lp3846
g68
(g89
g70
NtRp3847
(dp3848
g73
(dp3849
sg82
g3843
sg75
(lp3850
g68
(g69
g70
NtRp3851
(dp3852
g73
(dp3853
g81
I1
ssg82
g3847
sg75
(lp3854
S'/scrum/default/selecionar_biv'
p3855
asbasbasbag68
(g84
g70
NtRp3856
(dp3857
g73
(dp3858
sg82
g3814
sg75
(lp3859
g68
(g89
g70
NtRp3860
(dp3861
g73
(dp3862
sg82
g3856
sg75
(lp3863
g68
(g69
g70
NtRp3864
(dp3865
g73
(dp3866
g81
I1
ssg82
g3860
sg75
(lp3867
(lp3868
asbasbasbasbasbasbasbasbasbasbasbasbasbasbasbag68
(g84
g70
NtRp3869
(dp3870
g73
(dp3871
sg82
g3591
sg75
(lp3872
g68
(g89
g70
NtRp3873
(dp3874
g73
(dp3875
sg82
g3869
sg75
(lp3876
g68
(g69
g70
NtRp3877
(dp3878
g73
(dp3879
g81
I4
ssg82
g3873
sg75
(lp3880
g68
(g77
g70
NtRp3881
(dp3882
g73
(dp3883
g81
I3
ssg82
Nsg75
(lp3884
g68
(g84
g70
NtRp3885
(dp3886
g73
(dp3887
sg82
g3881
sg75
(lp3888
g68
(g89
g70
NtRp3889
(dp3890
g73
(dp3891
sg82
g3885
sg75
(lp3892
g68
(g69
g70
NtRp3893
(dp3894
g73
(dp3895
g81
I3
ssg82
g3889
sg75
(lp3896
g3623
(S't\x07\x00\x00\x00Tickets'
tRp3897
asbasbasbag68
(g84
g70
NtRp3898
(dp3899
g73
(dp3900
sg82
g3881
sg75
(lp3901
g68
(g89
g70
NtRp3902
(dp3903
g73
(dp3904
sg82
g3898
sg75
(lp3905
g68
(g69
g70
NtRp3906
(dp3907
g73
(dp3908
g81
I3
ssg82
g3902
sg75
(lp3909
g111
asbasbasbag68
(g84
g70
NtRp3910
(dp3911
g73
(dp3912
sg82
g3881
sg75
(lp3913
g68
(g89
g70
NtRp3914
(dp3915
g73
(dp3916
sg82
g3910
sg75
(lp3917
g68
(g69
g70
NtRp3918
(dp3919
g73
(dp3920
g81
I3
ssg82
g3914
sg75
(lp3921
S'/scrum/ticket/index'
p3922
asbasbasbag68
(g84
g70
NtRp3923
(dp3924
g73
(dp3925
sg82
g3881
sg75
(lp3926
g68
(g89
g70
NtRp3927
(dp3928
g73
(dp3929
sg82
g3923
sg75
(lp3930
g68
(g69
g70
NtRp3931
(dp3932
g73
(dp3933
g81
I3
ssg82
g3927
sg75
(lp3934
g68
(g77
g70
NtRp3935
(dp3936
g73
(dp3937
g81
I2
ssg82
Nsg75
(lp3938
g68
(g84
g70
NtRp3939
(dp3940
g73
(dp3941
sg82
g3935
sg75
(lp3942
g68
(g89
g70
NtRp3943
(dp3944
g73
(dp3945
sg82
g3939
sg75
(lp3946
g68
(g69
g70
NtRp3947
(dp3948
g73
(dp3949
g81
I2
ssg82
g3943
sg75
(lp3950
g68
(g77
g70
NtRp3951
(dp3952
g73
(dp3953
g81
I1
ssg82
Nsg75
(lp3954
g68
(g84
g70
NtRp3955
(dp3956
g73
(dp3957
sg82
g3951
sg75
(lp3958
g68
(g89
g70
NtRp3959
(dp3960
g73
(dp3961
sg82
g3955
sg75
(lp3962
g68
(g69
g70
NtRp3963
(dp3964
g73
(dp3965
g81
I1
ssg82
g3959
sg75
(lp3966
g3623
(S't\x04\x00\x00\x00Novo'
tRp3967
asbasbasbag68
(g84
g70
NtRp3968
(dp3969
g73
(dp3970
sg82
g3951
sg75
(lp3971
g68
(g89
g70
NtRp3972
(dp3973
g73
(dp3974
sg82
g3968
sg75
(lp3975
g68
(g69
g70
NtRp3976
(dp3977
g73
(dp3978
g81
I1
ssg82
g3972
sg75
(lp3979
I00
asbasbasbag68
(g84
g70
NtRp3980
(dp3981
g73
(dp3982
sg82
g3951
sg75
(lp3983
g68
(g89
g70
NtRp3984
(dp3985
g73
(dp3986
sg82
g3980
sg75
(lp3987
g68
(g69
g70
NtRp3988
(dp3989
g73
(dp3990
g81
I1
ssg82
g3984
sg75
(lp3991
S'/scrum/ticket/novo'
p3992
asbasbasbag68
(g84
g70
NtRp3993
(dp3994
g73
(dp3995
sg82
g3951
sg75
(lp3996
g68
(g89
g70
NtRp3997
(dp3998
g73
(dp3999
sg82
g3993
sg75
(lp4000
g68
(g69
g70
NtRp4001
(dp4002
g73
(dp4003
g81
I1
ssg82
g3997
sg75
(lp4004
(lp4005
asbasbasbasbasbasbasbag68
(g84
g70
NtRp4006
(dp4007
g73
(dp4008
sg82
g3935
sg75
(lp4009
g68
(g89
g70
NtRp4010
(dp4011
g73
(dp4012
sg82
g4006
sg75
(lp4013
g68
(g69
g70
NtRp4014
(dp4015
g73
(dp4016
g81
I2
ssg82
g4010
sg75
(lp4017
g68
(g77
g70
NtRp4018
(dp4019
g73
(dp4020
g81
I1
ssg82
Nsg75
(lp4021
g68
(g84
g70
NtRp4022
(dp4023
g73
(dp4024
sg82
g4018
sg75
(lp4025
g68
(g89
g70
NtRp4026
(dp4027
g73
(dp4028
sg82
g4022
sg75
(lp4029
g68
(g69
g70
NtRp4030
(dp4031
g73
(dp4032
g81
I1
ssg82
g4026
sg75
(lp4033
g3623
(S't\n\x00\x00\x00Selecionar'
tRp4034
asbasbasbag68
(g84
g70
NtRp4035
(dp4036
g73
(dp4037
sg82
g4018
sg75
(lp4038
g68
(g89
g70
NtRp4039
(dp4040
g73
(dp4041
sg82
g4035
sg75
(lp4042
g68
(g69
g70
NtRp4043
(dp4044
g73
(dp4045
g81
I1
ssg82
g4039
sg75
(lp4046
I00
asbasbasbag68
(g84
g70
NtRp4047
(dp4048
g73
(dp4049
sg82
g4018
sg75
(lp4050
g68
(g89
g70
NtRp4051
(dp4052
g73
(dp4053
sg82
g4047
sg75
(lp4054
g68
(g69
g70
NtRp4055
(dp4056
g73
(dp4057
g81
I1
ssg82
g4051
sg75
(lp4058
S'/scrum/ticket/index'
p4059
asbasbasbag68
(g84
g70
NtRp4060
(dp4061
g73
(dp4062
sg82
g4018
sg75
(lp4063
g68
(g89
g70
NtRp4064
(dp4065
g73
(dp4066
sg82
g4060
sg75
(lp4067
g68
(g69
g70
NtRp4068
(dp4069
g73
(dp4070
g81
I1
ssg82
g4064
sg75
(lp4071
(lp4072
asbasbasbasbasbasbasbasbasbasbasbasbasbasbasbag68
(g84
g70
NtRp4073
(dp4074
g73
(dp4075
sg82
g3591
sg75
(lp4076
g68
(g89
g70
NtRp4077
(dp4078
g73
(dp4079
sg82
g4073
sg75
(lp4080
g68
(g69
g70
NtRp4081
(dp4082
g73
(dp4083
g81
I4
ssg82
g4077
sg75
(lp4084
g68
(g77
g70
NtRp4085
(dp4086
g73
(dp4087
g81
I3
ssg82
Nsg75
(lp4088
g68
(g84
g70
NtRp4089
(dp4090
g73
(dp4091
sg82
g4085
sg75
(lp4092
g68
(g89
g70
NtRp4093
(dp4094
g73
(dp4095
sg82
g4089
sg75
(lp4096
g68
(g69
g70
NtRp4097
(dp4098
g73
(dp4099
g81
I3
ssg82
g4093
sg75
(lp4100
g3623
(S't\x06\x00\x00\x00Sprint'
tRp4101
asbasbasbag68
(g84
g70
NtRp4102
(dp4103
g73
(dp4104
sg82
g4085
sg75
(lp4105
g68
(g89
g70
NtRp4106
(dp4107
g73
(dp4108
sg82
g4102
sg75
(lp4109
g68
(g69
g70
NtRp4110
(dp4111
g73
(dp4112
g81
I3
ssg82
g4106
sg75
(lp4113
g111
asbasbasbag68
(g84
g70
NtRp4114
(dp4115
g73
(dp4116
sg82
g4085
sg75
(lp4117
g68
(g89
g70
NtRp4118
(dp4119
g73
(dp4120
sg82
g4114
sg75
(lp4121
g68
(g69
g70
NtRp4122
(dp4123
g73
(dp4124
g81
I3
ssg82
g4118
sg75
(lp4125
S''
asbasbasbag68
(g84
g70
NtRp4126
(dp4127
g73
(dp4128
sg82
g4085
sg75
(lp4129
g68
(g89
g70
NtRp4130
(dp4131
g73
(dp4132
sg82
g4126
sg75
(lp4133
g68
(g69
g70
NtRp4134
(dp4135
g73
(dp4136
g81
I3
ssg82
g4130
sg75
(lp4137
g68
(g77
g70
NtRp4138
(dp4139
g73
(dp4140
g81
I2
ssg82
Nsg75
(lp4141
g68
(g84
g70
NtRp4142
(dp4143
g73
(dp4144
sg82
g4138
sg75
(lp4145
g68
(g89
g70
NtRp4146
(dp4147
g73
(dp4148
sg82
g4142
sg75
(lp4149
g68
(g69
g70
NtRp4150
(dp4151
g73
(dp4152
g81
I2
ssg82
g4146
sg75
(lp4153
g68
(g77
g70
NtRp4154
(dp4155
g73
(dp4156
g81
I1
ssg82
Nsg75
(lp4157
g68
(g84
g70
NtRp4158
(dp4159
g73
(dp4160
sg82
g4154
sg75
(lp4161
g68
(g89
g70
NtRp4162
(dp4163
g73
(dp4164
sg82
g4158
sg75
(lp4165
g68
(g69
g70
NtRp4166
(dp4167
g73
(dp4168
g81
I1
ssg82
g4162
sg75
(lp4169
g3623
(S't\x04\x00\x00\x00Novo'
tRp4170
asbasbasbag68
(g84
g70
NtRp4171
(dp4172
g73
(dp4173
sg82
g4154
sg75
(lp4174
g68
(g89
g70
NtRp4175
(dp4176
g73
(dp4177
sg82
g4171
sg75
(lp4178
g68
(g69
g70
NtRp4179
(dp4180
g73
(dp4181
g81
I1
ssg82
g4175
sg75
(lp4182
I00
asbasbasbag68
(g84
g70
NtRp4183
(dp4184
g73
(dp4185
sg82
g4154
sg75
(lp4186
g68
(g89
g70
NtRp4187
(dp4188
g73
(dp4189
sg82
g4183
sg75
(lp4190
g68
(g69
g70
NtRp4191
(dp4192
g73
(dp4193
g81
I1
ssg82
g4187
sg75
(lp4194
S'/scrum/sprint/novo'
p4195
asbasbasbag68
(g84
g70
NtRp4196
(dp4197
g73
(dp4198
sg82
g4154
sg75
(lp4199
g68
(g89
g70
NtRp4200
(dp4201
g73
(dp4202
sg82
g4196
sg75
(lp4203
g68
(g69
g70
NtRp4204
(dp4205
g73
(dp4206
g81
I1
ssg82
g4200
sg75
(lp4207
(lp4208
asbasbasbasbasbasbasbag68
(g84
g70
NtRp4209
(dp4210
g73
(dp4211
sg82
g4138
sg75
(lp4212
g68
(g89
g70
NtRp4213
(dp4214
g73
(dp4215
sg82
g4209
sg75
(lp4216
g68
(g69
g70
NtRp4217
(dp4218
g73
(dp4219
g81
I2
ssg82
g4213
sg75
(lp4220
g68
(g77
g70
NtRp4221
(dp4222
g73
(dp4223
g81
I1
ssg82
Nsg75
(lp4224
g68
(g84
g70
NtRp4225
(dp4226
g73
(dp4227
sg82
g4221
sg75
(lp4228
g68
(g89
g70
NtRp4229
(dp4230
g73
(dp4231
sg82
g4225
sg75
(lp4232
g68
(g69
g70
NtRp4233
(dp4234
g73
(dp4235
g81
I1
ssg82
g4229
sg75
(lp4236
g3623
(S't\n\x00\x00\x00Selecionar'
tRp4237
asbasbasbag68
(g84
g70
NtRp4238
(dp4239
g73
(dp4240
sg82
g4221
sg75
(lp4241
g68
(g89
g70
NtRp4242
(dp4243
g73
(dp4244
sg82
g4238
sg75
(lp4245
g68
(g69
g70
NtRp4246
(dp4247
g73
(dp4248
g81
I1
ssg82
g4242
sg75
(lp4249
I00
asbasbasbag68
(g84
g70
NtRp4250
(dp4251
g73
(dp4252
sg82
g4221
sg75
(lp4253
g68
(g89
g70
NtRp4254
(dp4255
g73
(dp4256
sg82
g4250
sg75
(lp4257
g68
(g69
g70
NtRp4258
(dp4259
g73
(dp4260
g81
I1
ssg82
g4254
sg75
(lp4261
S'/scrum/sprint/index'
p4262
asbasbasbag68
(g84
g70
NtRp4263
(dp4264
g73
(dp4265
sg82
g4221
sg75
(lp4266
g68
(g89
g70
NtRp4267
(dp4268
g73
(dp4269
sg82
g4263
sg75
(lp4270
g68
(g69
g70
NtRp4271
(dp4272
g73
(dp4273
g81
I1
ssg82
g4267
sg75
(lp4274
(lp4275
asbasbasbasbasbasbasbasbasbasbasbasbasbasbasbag68
(g84
g70
NtRp4276
(dp4277
g73
(dp4278
sg82
g3591
sg75
(lp4279
g68
(g89
g70
NtRp4280
(dp4281
g73
(dp4282
sg82
g4276
sg75
(lp4283
g68
(g69
g70
NtRp4284
(dp4285
g73
(dp4286
g81
I4
ssg82
g4280
sg75
(lp4287
g68
(g77
g70
NtRp4288
(dp4289
g73
(dp4290
g81
I3
ssg82
Nsg75
(lp4291
g68
(g84
g70
NtRp4292
(dp4293
g73
(dp4294
sg82
g4288
sg75
(lp4295
g68
(g89
g70
NtRp4296
(dp4297
g73
(dp4298
sg82
g4292
sg75
(lp4299
g68
(g69
g70
NtRp4300
(dp4301
g73
(dp4302
g81
I3
ssg82
g4296
sg75
(lp4303
g3623
(S't\x06\x00\x00\x00Config'
tRp4304
asbasbasbag68
(g84
g70
NtRp4305
(dp4306
g73
(dp4307
sg82
g4288
sg75
(lp4308
g68
(g89
g70
NtRp4309
(dp4310
g73
(dp4311
sg82
g4305
sg75
(lp4312
g68
(g69
g70
NtRp4313
(dp4314
g73
(dp4315
g81
I3
ssg82
g4309
sg75
(lp4316
g111
asbasbasbag68
(g84
g70
NtRp4317
(dp4318
g73
(dp4319
sg82
g4288
sg75
(lp4320
g68
(g89
g70
NtRp4321
(dp4322
g73
(dp4323
sg82
g4317
sg75
(lp4324
g68
(g69
g70
NtRp4325
(dp4326
g73
(dp4327
g81
I3
ssg82
g4321
sg75
(lp4328
S''
asbasbasbag68
(g84
g70
NtRp4329
(dp4330
g73
(dp4331
sg82
g4288
sg75
(lp4332
g68
(g89
g70
NtRp4333
(dp4334
g73
(dp4335
sg82
g4329
sg75
(lp4336
g68
(g69
g70
NtRp4337
(dp4338
g73
(dp4339
g81
I3
ssg82
g4333
sg75
(lp4340
g68
(g77
g70
NtRp4341
(dp4342
g73
(dp4343
g81
I2
ssg82
Nsg75
(lp4344
g68
(g84
g70
NtRp4345
(dp4346
g73
(dp4347
sg82
g4341
sg75
(lp4348
g68
(g89
g70
NtRp4349
(dp4350
g73
(dp4351
sg82
g4345
sg75
(lp4352
g68
(g69
g70
NtRp4353
(dp4354
g73
(dp4355
g81
I2
ssg82
g4349
sg75
(lp4356
g68
(g77
g70
NtRp4357
(dp4358
g73
(dp4359
g81
I1
ssg82
Nsg75
(lp4360
g68
(g84
g70
NtRp4361
(dp4362
g73
(dp4363
sg82
g4357
sg75
(lp4364
g68
(g89
g70
NtRp4365
(dp4366
g73
(dp4367
sg82
g4361
sg75
(lp4368
g68
(g69
g70
NtRp4369
(dp4370
g73
(dp4371
g81
I1
ssg82
g4365
sg75
(lp4372
g3623
(S't\x05\x00\x00\x00Geral'
tRp4373
asbasbasbag68
(g84
g70
NtRp4374
(dp4375
g73
(dp4376
sg82
g4357
sg75
(lp4377
g68
(g89
g70
NtRp4378
(dp4379
g73
(dp4380
sg82
g4374
sg75
(lp4381
g68
(g69
g70
NtRp4382
(dp4383
g73
(dp4384
g81
I1
ssg82
g4378
sg75
(lp4385
I00
asbasbasbag68
(g84
g70
NtRp4386
(dp4387
g73
(dp4388
sg82
g4357
sg75
(lp4389
g68
(g89
g70
NtRp4390
(dp4391
g73
(dp4392
sg82
g4386
sg75
(lp4393
g68
(g69
g70
NtRp4394
(dp4395
g73
(dp4396
g81
I1
ssg82
g4390
sg75
(lp4397
S'/scrum/config/index'
p4398
asbasbasbag68
(g84
g70
NtRp4399
(dp4400
g73
(dp4401
sg82
g4357
sg75
(lp4402
g68
(g89
g70
NtRp4403
(dp4404
g73
(dp4405
sg82
g4399
sg75
(lp4406
g68
(g69
g70
NtRp4407
(dp4408
g73
(dp4409
g81
I1
ssg82
g4403
sg75
(lp4410
(lp4411
asbasbasbasbasbasbasbag68
(g84
g70
NtRp4412
(dp4413
g73
(dp4414
sg82
g4341
sg75
(lp4415
g68
(g89
g70
NtRp4416
(dp4417
g73
(dp4418
sg82
g4412
sg75
(lp4419
g68
(g69
g70
NtRp4420
(dp4421
g73
(dp4422
g81
I2
ssg82
g4416
sg75
(lp4423
g68
(g77
g70
NtRp4424
(dp4425
g73
(dp4426
g81
I1
ssg82
Nsg75
(lp4427
g68
(g84
g70
NtRp4428
(dp4429
g73
(dp4430
sg82
g4424
sg75
(lp4431
g68
(g89
g70
NtRp4432
(dp4433
g73
(dp4434
sg82
g4428
sg75
(lp4435
g68
(g69
g70
NtRp4436
(dp4437
g73
(dp4438
g81
I1
ssg82
g4432
sg75
(lp4439
g3623
(S's\x12\x00\x00\x00Estados de Tickets'
tRp4440
asbasbasbag68
(g84
g70
NtRp4441
(dp4442
g73
(dp4443
sg82
g4424
sg75
(lp4444
g68
(g89
g70
NtRp4445
(dp4446
g73
(dp4447
sg82
g4441
sg75
(lp4448
g68
(g69
g70
NtRp4449
(dp4450
g73
(dp4451
g81
I1
ssg82
g4445
sg75
(lp4452
I00
asbasbasbag68
(g84
g70
NtRp4453
(dp4454
g73
(dp4455
sg82
g4424
sg75
(lp4456
g68
(g89
g70
NtRp4457
(dp4458
g73
(dp4459
sg82
g4453
sg75
(lp4460
g68
(g69
g70
NtRp4461
(dp4462
g73
(dp4463
g81
I1
ssg82
g4457
sg75
(lp4464
S'/scrum/config/estado_ticket'
p4465
asbasbasbag68
(g84
g70
NtRp4466
(dp4467
g73
(dp4468
sg82
g4424
sg75
(lp4469
g68
(g89
g70
NtRp4470
(dp4471
g73
(dp4472
sg82
g4466
sg75
(lp4473
g68
(g69
g70
NtRp4474
(dp4475
g73
(dp4476
g81
I1
ssg82
g4470
sg75
(lp4477
(lp4478
asbasbasbasbasbasbasbasbasbasbasbasbasbasbasbasbasbasbasbag68
(g84
g70
NtRp4479
(dp4480
g73
(dp4481
sg82
g3130
sg75
(lp4482
g68
(g89
g70
NtRp4483
(dp4484
g73
(dp4485
g93
g94
ssg82
g4479
sg75
(lp4486
S'meta'
p4487
asbag68
(g89
g70
NtRp4488
(dp4489
g73
(dp4490
g100
g101
ssg82
g4479
sg75
(lp4491
S':'
asbag68
(g89
g70
NtRp4492
(dp4493
g73
(dp4494
sg82
g4479
sg75
(lp4495
g68
(g69
g70
NtRp4496
(dp4497
g73
(dp4498
g81
I5
ssg82
g4492
sg75
(lp4499
g68
(g77
g70
NtRp4500
(dp4501
g73
(dp4502
g81
I4
ssg82
Nsg75
(lp4503
g68
(g84
g70
NtRp4504
(dp4505
g73
(dp4506
sg82
g4500
sg75
(lp4507
g68
(g89
g70
NtRp4508
(dp4509
g73
(dp4510
g93
g94
ssg82
g4504
sg75
(lp4511
S'author'
p4512
asbag68
(g89
g70
NtRp4513
(dp4514
g73
(dp4515
g100
g101
ssg82
g4504
sg75
(lp4516
S':'
asbag68
(g89
g70
NtRp4517
(dp4518
g73
(dp4519
sg82
g4504
sg75
(lp4520
g68
(g69
g70
NtRp4521
(dp4522
g73
(dp4523
g81
I4
ssg82
g4517
sg75
(lp4524
S'Carlos J. Costa'
p4525
asbasbasbag68
(g84
g70
NtRp4526
(dp4527
g73
(dp4528
sg82
g4500
sg75
(lp4529
g68
(g89
g70
NtRp4530
(dp4531
g73
(dp4532
g93
g94
ssg82
g4526
sg75
(lp4533
S'copyright'
p4534
asbag68
(g89
g70
NtRp4535
(dp4536
g73
(dp4537
g100
g101
ssg82
g4526
sg75
(lp4538
S':'
asbag68
(g89
g70
NtRp4539
(dp4540
g73
(dp4541
sg82
g4526
sg75
(lp4542
g68
(g69
g70
NtRp4543
(dp4544
g73
(dp4545
g81
I4
ssg82
g4539
sg75
(lp4546
S'Copyright 2007-2010'
p4547
asbasbasbag68
(g84
g70
NtRp4548
(dp4549
g73
(dp4550
sg82
g4500
sg75
(lp4551
g68
(g89
g70
NtRp4552
(dp4553
g73
(dp4554
g93
g94
ssg82
g4548
sg75
(lp4555
S'description'
p4556
asbag68
(g89
g70
NtRp4557
(dp4558
g73
(dp4559
g100
g101
ssg82
g4548
sg75
(lp4560
S':'
asbag68
(g89
g70
NtRp4561
(dp4562
g73
(dp4563
sg82
g4548
sg75
(lp4564
g68
(g69
g70
NtRp4565
(dp4566
g73
(dp4567
g81
I4
ssg82
g4561
sg75
(lp4568
S'Development track'
p4569
asbasbasbag68
(g84
g70
NtRp4570
(dp4571
g73
(dp4572
sg82
g4500
sg75
(lp4573
g68
(g89
g70
NtRp4574
(dp4575
g73
(dp4576
g93
g94
ssg82
g4570
sg75
(lp4577
S'generator'
p4578
asbag68
(g89
g70
NtRp4579
(dp4580
g73
(dp4581
g100
g101
ssg82
g4570
sg75
(lp4582
S':'
asbag68
(g89
g70
NtRp4583
(dp4584
g73
(dp4585
sg82
g4570
sg75
(lp4586
g68
(g69
g70
NtRp4587
(dp4588
g73
(dp4589
g81
I4
ssg82
g4583
sg75
(lp4590
S'Web2py Enterprise Framework'
p4591
asbasbasbag68
(g84
g70
NtRp4592
(dp4593
g73
(dp4594
sg82
g4500
sg75
(lp4595
g68
(g89
g70
NtRp4596
(dp4597
g73
(dp4598
g93
g94
ssg82
g4592
sg75
(lp4599
S'keywords'
p4600
asbag68
(g89
g70
NtRp4601
(dp4602
g73
(dp4603
g100
g101
ssg82
g4592
sg75
(lp4604
S':'
asbag68
(g89
g70
NtRp4605
(dp4606
g73
(dp4607
sg82
g4592
sg75
(lp4608
g68
(g69
g70
NtRp4609
(dp4610
g73
(dp4611
g81
I4
ssg82
g4605
sg75
(lp4612
S'test, issue'
p4613
asbasbasbasbasbasbasbag68
(g84
g70
NtRp4614
(dp4615
g73
(dp4616
sg82
g3130
sg75
(lp4617
g68
(g89
g70
NtRp4618
(dp4619
g73
(dp4620
g93
g94
ssg82
g4614
sg75
(lp4621
S'postprocessing'
p4622
asbag68
(g89
g70
NtRp4623
(dp4624
g73
(dp4625
g100
g101
ssg82
g4614
sg75
(lp4626
S':'
asbag68
(g89
g70
NtRp4627
(dp4628
g73
(dp4629
sg82
g4614
sg75
(lp4630
g68
(g69
g70
NtRp4631
(dp4632
g73
(dp4633
g81
I5
ssg82
g4627
sg75
(lp4634
g68
(g77
g70
NtRp4635
(dp4636
g73
(dp4637
g81
I4
ssg82
Nsg75
(lp4638
sbasbasbasbag68
(g84
g70
NtRp4639
(dp4640
g73
(dp4641
sg82
g3130
sg75
(lp4642
g68
(g89
g70
NtRp4643
(dp4644
g73
(dp4645
g93
g94
ssg82
g4639
sg75
(lp4646
S'session_filename'
p4647
asbag68
(g89
g70
NtRp4648
(dp4649
g73
(dp4650
g100
g101
ssg82
g4639
sg75
(lp4651
S':'
asbag68
(g89
g70
NtRp4652
(dp4653
g73
(dp4654
sg82
g4639
sg75
(lp4655
g68
(g69
g70
NtRp4656
(dp4657
g73
(dp4658
g81
I5
ssg82
g4652
sg75
(lp4659
S'/home/www-data/web2py/applications/scrum/sessions/127.0.0.1-a4b0ad87-4d9a-4826-9ab1-451f0e1e5751'
p4660
asbasbasbag68
(g84
g70
NtRp4661
(dp4662
g73
(dp4663
sg82
g3130
sg75
(lp4664
g68
(g89
g70
NtRp4665
(dp4666
g73
(dp4667
g93
g94
ssg82
g4661
sg75
(lp4668
S'session_id'
p4669
asbag68
(g89
g70
NtRp4670
(dp4671
g73
(dp4672
g100
g101
ssg82
g4661
sg75
(lp4673
S':'
asbag68
(g89
g70
NtRp4674
(dp4675
g73
(dp4676
sg82
g4661
sg75
(lp4677
g68
(g69
g70
NtRp4678
(dp4679
g73
(dp4680
g81
I5
ssg82
g4674
sg75
(lp4681
S'127.0.0.1-a4b0ad87-4d9a-4826-9ab1-451f0e1e5751'
p4682
asbasbasbag68
(g84
g70
NtRp4683
(dp4684
g73
(dp4685
sg82
g3130
sg75
(lp4686
g68
(g89
g70
NtRp4687
(dp4688
g73
(dp4689
g93
g94
ssg82
g4683
sg75
(lp4690
S'session_id_name'
p4691
asbag68
(g89
g70
NtRp4692
(dp4693
g73
(dp4694
g100
g101
ssg82
g4683
sg75
(lp4695
S':'
asbag68
(g89
g70
NtRp4696
(dp4697
g73
(dp4698
sg82
g4683
sg75
(lp4699
g68
(g69
g70
NtRp4700
(dp4701
g73
(dp4702
g81
I5
ssg82
g4696
sg75
(lp4703
g3187
asbasbasbag68
(g84
g70
NtRp4704
(dp4705
g73
(dp4706
sg82
g3130
sg75
(lp4707
g68
(g89
g70
NtRp4708
(dp4709
g73
(dp4710
g93
g94
ssg82
g4704
sg75
(lp4711
S'session_new'
p4712
asbag68
(g89
g70
NtRp4713
(dp4714
g73
(dp4715
g100
g101
ssg82
g4704
sg75
(lp4716
S':'
asbag68
(g89
g70
NtRp4717
(dp4718
g73
(dp4719
sg82
g4704
sg75
(lp4720
g68
(g69
g70
NtRp4721
(dp4722
g73
(dp4723
g81
I5
ssg82
g4717
sg75
(lp4724
g1624
asbasbasbag68
(g84
g70
NtRp4725
(dp4726
g73
(dp4727
sg82
g3130
sg75
(lp4728
g68
(g89
g70
NtRp4729
(dp4730
g73
(dp4731
g93
g94
ssg82
g4725
sg75
(lp4732
S'status'
p4733
asbag68
(g89
g70
NtRp4734
(dp4735
g73
(dp4736
g100
g101
ssg82
g4725
sg75
(lp4737
S':'
asbag68
(g89
g70
NtRp4738
(dp4739
g73
(dp4740
sg82
g4725
sg75
(lp4741
g68
(g69
g70
NtRp4742
(dp4743
g73
(dp4744
g81
I5
ssg82
g4738
sg75
(lp4745
S'200'
p4746
asbasbasbag68
(g84
g70
NtRp4747
(dp4748
g73
(dp4749
sg82
g3130
sg75
(lp4750
g68
(g89
g70
NtRp4751
(dp4752
g73
(dp4753
g93
g94
ssg82
g4747
sg75
(lp4754
S'subtitle'
p4755
asbag68
(g89
g70
NtRp4756
(dp4757
g73
(dp4758
g100
g101
ssg82
g4747
sg75
(lp4759
S':'
asbag68
(g89
g70
NtRp4760
(dp4761
g73
(dp4762
sg82
g4747
sg75
(lp4763
g68
(g69
g70
NtRp4764
(dp4765
g73
(dp4766
g81
I5
ssg82
g4760
sg75
(lp4767
g3623
(S's\x0f\x00\x00\x00Personalize-me!'
tRp4768
asbasbasbag68
(g84
g70
NtRp4769
(dp4770
g73
(dp4771
sg82
g3130
sg75
(lp4772
g68
(g89
g70
NtRp4773
(dp4774
g73
(dp4775
g93
g94
ssg82
g4769
sg75
(lp4776
S'title'
p4777
asbag68
(g89
g70
NtRp4778
(dp4779
g73
(dp4780
g100
g101
ssg82
g4769
sg75
(lp4781
S':'
asbag68
(g89
g70
NtRp4782
(dp4783
g73
(dp4784
sg82
g4769
sg75
(lp4785
g68
(g69
g70
NtRp4786
(dp4787
g73
(dp4788
g81
I5
ssg82
g4782
sg75
(lp4789
g133
asbasbasbag68
(g84
g70
NtRp4790
(dp4791
g73
(dp4792
sg82
g3130
sg75
(lp4793
g68
(g89
g70
NtRp4794
(dp4795
g73
(dp4796
g93
g94
ssg82
g4790
sg75
(lp4797
g1948
asbag68
(g89
g70
NtRp4798
(dp4799
g73
(dp4800
g100
g101
ssg82
g4790
sg75
(lp4801
S':'
asbag68
(g89
g70
NtRp4802
(dp4803
g73
(dp4804
sg82
g4790
sg75
(lp4805
g68
(g69
g70
NtRp4806
(dp4807
g73
(dp4808
g81
I5
ssg82
g4802
sg75
(lp4809
g1961
asbasbasbag68
(g84
g70
NtRp4810
(dp4811
g73
(dp4812
sg82
g3130
sg75
(lp4813
g68
(g89
g70
NtRp4814
(dp4815
g73
(dp4816
g93
g94
ssg82
g4810
sg75
(lp4817
S'view'
p4818
asbag68
(g89
g70
NtRp4819
(dp4820
g73
(dp4821
g100
g101
ssg82
g4810
sg75
(lp4822
S':'
asbag68
(g89
g70
NtRp4823
(dp4824
g73
(dp4825
sg82
g4810
sg75
(lp4826
g68
(g69
g70
NtRp4827
(dp4828
g73
(dp4829
g81
I5
ssg82
g4823
sg75
(lp4830
S'sprint/index.html'
p4831
asbasbasbasbasbsS'locals'
p4832
(dp4833
g3
S"'/home/www-data/web2py/applications/scrum/controllers/sprint.py'"
p4834
sg5
S"'# coding: utf8\\n\\n@auth.requires_login()\\ndef index...erTable)\\n\\nresponse._vars=response._caller(index)\\n'"
p4835
sssS'traceback'
p4836
S'Traceback (most recent call last):\n  File "/home/www-data/web2py/gluon/restricted.py", line 191, in restricted\n    ccode = compile2(code,layer)\n  File "/home/www-data/web2py/gluon/restricted.py", line 178, in compile2\n    return compile(code.rstrip().replace(\'\\r\\n\',\'\\n\')+\'\\n\', layer, \'exec\')\n  File "/home/www-data/web2py/applications/scrum/controllers/sprint.py", line 27\n    \'detailscallback\':URL(c=\'sprint\',f=\'detalhes\')\n                     ^\nSyntaxError: invalid syntax\n'
p4837
s.