(dp1
S'output'
p2
S''
sS'layer'
p3
S'/home/www-data/web2py/applications/scrum/controllers/sprint.py'
p4
sS'code'
p5
S"# coding: utf8\n\n@auth.requires_login()\ndef index(): \n    sprints = db(db.sprint).select()\n    return dict(sprints=crud.select(db.sprint))\n\n@auth.requires_login()   \ndef novo():\n    form = crud.create(db.sprint)\n    response.view = 'simple_form.html'\n    return dict(form=form)\n\n@auth.requires_login()\ndef editar():\n    form = crud.update(db.sprint,request.args(0))\n    response.subtitle = 'Editar Sprint' \n    powerTable = plugins.powerTable\n    powerTable.datasource = db.sprint.id == db.ticket.sprint\n    powerTable.headers = 'labels'\n    powerTable.uitheme = 'redmond'\n    powerTable.showkeycolumn = False\n    powerTable.keycolumn = 'sprint.id'\n    powerTable.columns = ['sprint.id','sprint.numero']\n    powerTable.extrajs = dict(autoresize={},\n                             tooltip={},\n                             details={'detailscolumns':'ticket.id,\\\n                                                        ticket.chamado,\\\n                                                        ticket.analista,\\\n                                                        ticket.cliente',\n                                     'detailscallback':URL(c='sprint',f='detalhes')\n                             })\n    return dict(form=form,table=powerTable.create())\n    \n@auth.requires_login()    \ndef detalhes():\n    #Key Processing\n    key = None\n    cols = None\n    for k in request.vars.keys():\n        if k[:3] == 'dt_':\n            key = request.vars[k]\n        elif k[:6] == 'dtcols':\n            cols = request.vars[k]\n    \n    #vars to work\n    tablename = key.split('.')[0]\n    fieldname = key.split('.')[1]\n    value = key.split('.')[2]\n    \n    tickets = db(db.ticket.sprint == value).select(db.ticket.chamado, db.ticket.analista, db.ticket.cliente.nome)\n    #return SQLTABLE(tickets)\n    return SQLTABLE(tickets,headers='labels')\n\nresponse._vars=response._caller(detalhes)\n"
p6
sS'snapshot'
p7
(dp8
S'exception'
p9
(dp10
S'__hash__'
p11
S"<method-wrapper '__hash__' of exceptions.AttributeError object>"
p12
sS'__setattr__'
p13
S"<method-wrapper '__setattr__' of exceptions.AttributeError object>"
p14
sS'__reduce_ex__'
p15
S'<built-in method __reduce_ex__ of exceptions.AttributeError object>'
p16
sS'__getslice__'
p17
S"<method-wrapper '__getslice__' of exceptions.AttributeError object>"
p18
sS'__getitem__'
p19
S"<method-wrapper '__getitem__' of exceptions.AttributeError object>"
p20
sS'__setstate__'
p21
S'<built-in method __setstate__ of exceptions.AttributeError object>'
p22
sS'__reduce__'
p23
S'<built-in method __reduce__ of exceptions.AttributeError object>'
p24
sS'__str__'
p25
S"<method-wrapper '__str__' of exceptions.AttributeError object>"
p26
sS'__format__'
p27
S'<built-in method __format__ of exceptions.AttributeError object>'
p28
sS'__getattribute__'
p29
S"<method-wrapper '__getattribute__' of exceptions.AttributeError object>"
p30
sS'__class__'
p31
S"<type 'exceptions.AttributeError'>"
p32
sS'__unicode__'
p33
S'<built-in method __unicode__ of exceptions.AttributeError object>'
p34
sS'__delattr__'
p35
S"<method-wrapper '__delattr__' of exceptions.AttributeError object>"
p36
sS'__subclasshook__'
p37
S'<built-in method __subclasshook__ of type object>'
p38
sS'__repr__'
p39
S"<method-wrapper '__repr__' of exceptions.AttributeError object>"
p40
sS'args'
p41
S'("\'Field\' object has no attribute \'nome\'",)'
p42
sS'__dict__'
p43
S'{}'
p44
sS'__sizeof__'
p45
S'<built-in method __sizeof__ of exceptions.AttributeError object>'
p46
sS'__doc__'
p47
S"'Attribute not found.'"
p48
sS'__init__'
p49
S"<method-wrapper '__init__' of exceptions.AttributeError object>"
p50
sS'__new__'
p51
S'<built-in method __new__ of type object>'
p52
ssS'evalue'
p53
S"'Field' object has no attribute 'nome'"
p54
sS'request'
p55
ccopy_reg
_reconstructor
p56
(cgluon.html
BEAUTIFY
p57
c__builtin__
object
p58
NtRp59
(dp60
S'attributes'
p61
(dp62
sS'components'
p63
(lp64
g56
(cgluon.html
TABLE
p65
g58
NtRp66
(dp67
g61
(dp68
S'level'
p69
I5
ssS'parent'
p70
Nsg63
(lp71
g56
(cgluon.html
TR
p72
g58
NtRp73
(dp74
g61
(dp75
sg70
g66
sg63
(lp76
g56
(cgluon.html
TD
p77
g58
NtRp78
(dp79
g61
(dp80
S'_style'
p81
S'font-weight:bold;'
p82
ssg70
g73
sg63
(lp83
S'ajax'
p84
asbag56
(g77
g58
NtRp85
(dp86
g61
(dp87
S'_valign'
p88
S'top'
p89
ssg70
g73
sg63
(lp90
S':'
asbag56
(g77
g58
NtRp91
(dp92
g61
(dp93
sg70
g73
sg63
(lp94
g56
(g57
g58
NtRp95
(dp96
g61
(dp97
g69
I5
ssg70
g91
sg63
(lp98
S'True'
p99
asbasbasbag56
(g72
g58
NtRp100
(dp101
g61
(dp102
sg70
g66
sg63
(lp103
g56
(g77
g58
NtRp104
(dp105
g61
(dp106
g81
g82
ssg70
g100
sg63
(lp107
S'application'
p108
asbag56
(g77
g58
NtRp109
(dp110
g61
(dp111
g88
g89
ssg70
g100
sg63
(lp112
S':'
asbag56
(g77
g58
NtRp113
(dp114
g61
(dp115
sg70
g100
sg63
(lp116
g56
(g57
g58
NtRp117
(dp118
g61
(dp119
g69
I5
ssg70
g113
sg63
(lp120
S'scrum'
p121
asbasbasbag56
(g72
g58
NtRp122
(dp123
g61
(dp124
sg70
g66
sg63
(lp125
g56
(g77
g58
NtRp126
(dp127
g61
(dp128
g81
g82
ssg70
g122
sg63
(lp129
g41
asbag56
(g77
g58
NtRp130
(dp131
g61
(dp132
g88
g89
ssg70
g122
sg63
(lp133
S':'
asbag56
(g77
g58
NtRp134
(dp135
g61
(dp136
sg70
g122
sg63
(lp137
g56
(g57
g58
NtRp138
(dp139
g61
(dp140
g69
I5
ssg70
g134
sg63
(lp141
g56
(g65
g58
NtRp142
(dp143
g61
(dp144
g69
I4
ssg70
Nsg63
(lp145
sbasbasbasbag56
(g72
g58
NtRp146
(dp147
g61
(dp148
sg70
g66
sg63
(lp149
g56
(g77
g58
NtRp150
(dp151
g61
(dp152
g81
g82
ssg70
g146
sg63
(lp153
S'body'
p154
asbag56
(g77
g58
NtRp155
(dp156
g61
(dp157
g88
g89
ssg70
g146
sg63
(lp158
S':'
asbag56
(g77
g58
NtRp159
(dp160
g61
(dp161
sg70
g146
sg63
(lp162
g56
(g57
g58
NtRp163
(dp164
g61
(dp165
g69
I5
ssg70
g159
sg63
(lp166
S"<open file '<fdopen>', mode 'w+b' at 0xb98c9e38>"
p167
asbasbasbag56
(g72
g58
NtRp168
(dp169
g61
(dp170
sg70
g66
sg63
(lp171
g56
(g77
g58
NtRp172
(dp173
g61
(dp174
g81
g82
ssg70
g168
sg63
(lp175
S'client'
p176
asbag56
(g77
g58
NtRp177
(dp178
g61
(dp179
g88
g89
ssg70
g168
sg63
(lp180
S':'
asbag56
(g77
g58
NtRp181
(dp182
g61
(dp183
sg70
g168
sg63
(lp184
g56
(g57
g58
NtRp185
(dp186
g61
(dp187
g69
I5
ssg70
g181
sg63
(lp188
S'127.0.0.1'
p189
asbasbasbag56
(g72
g58
NtRp190
(dp191
g61
(dp192
sg70
g66
sg63
(lp193
g56
(g77
g58
NtRp194
(dp195
g61
(dp196
g81
g82
ssg70
g190
sg63
(lp197
S'controller'
p198
asbag56
(g77
g58
NtRp199
(dp200
g61
(dp201
g88
g89
ssg70
g190
sg63
(lp202
S':'
asbag56
(g77
g58
NtRp203
(dp204
g61
(dp205
sg70
g190
sg63
(lp206
g56
(g57
g58
NtRp207
(dp208
g61
(dp209
g69
I5
ssg70
g203
sg63
(lp210
S'sprint'
p211
asbasbasbag56
(g72
g58
NtRp212
(dp213
g61
(dp214
sg70
g66
sg63
(lp215
g56
(g77
g58
NtRp216
(dp217
g61
(dp218
g81
g82
ssg70
g212
sg63
(lp219
S'cookies'
p220
asbag56
(g77
g58
NtRp221
(dp222
g61
(dp223
g88
g89
ssg70
g212
sg63
(lp224
S':'
asbag56
(g77
g58
NtRp225
(dp226
g61
(dp227
sg70
g212
sg63
(lp228
g56
(g57
g58
NtRp229
(dp230
g61
(dp231
g69
I5
ssg70
g225
sg63
(lp232
g56
(g65
g58
NtRp233
(dp234
g61
(dp235
g69
I4
ssg70
Nsg63
(lp236
g56
(g72
g58
NtRp237
(dp238
g61
(dp239
sg70
g233
sg63
(lp240
g56
(g77
g58
NtRp241
(dp242
g61
(dp243
g81
g82
ssg70
g237
sg63
(lp244
S'session_id_admin'
p245
asbag56
(g77
g58
NtRp246
(dp247
g61
(dp248
g88
g89
ssg70
g237
sg63
(lp249
S':'
asbag56
(g77
g58
NtRp250
(dp251
g61
(dp252
sg70
g237
sg63
(lp253
g56
(g57
g58
NtRp254
(dp255
g61
(dp256
g69
I4
ssg70
g250
sg63
(lp257
g56
(g65
g58
NtRp258
(dp259
g61
(dp260
g69
I3
ssg70
Nsg63
(lp261
g56
(g72
g58
NtRp262
(dp263
g61
(dp264
sg70
g258
sg63
(lp265
g56
(g77
g58
NtRp266
(dp267
g61
(dp268
g81
g82
ssg70
g262
sg63
(lp269
S'comment'
p270
asbag56
(g77
g58
NtRp271
(dp272
g61
(dp273
g88
g89
ssg70
g262
sg63
(lp274
S':'
asbag56
(g77
g58
NtRp275
(dp276
g61
(dp277
sg70
g262
sg63
(lp278
g56
(g57
g58
NtRp279
(dp280
g61
(dp281
g69
I3
ssg70
g275
sg63
(lp282
S''
asbasbasbag56
(g72
g58
NtRp283
(dp284
g61
(dp285
sg70
g258
sg63
(lp286
g56
(g77
g58
NtRp287
(dp288
g61
(dp289
g81
g82
ssg70
g283
sg63
(lp290
S'domain'
p291
asbag56
(g77
g58
NtRp292
(dp293
g61
(dp294
g88
g89
ssg70
g283
sg63
(lp295
S':'
asbag56
(g77
g58
NtRp296
(dp297
g61
(dp298
sg70
g283
sg63
(lp299
g56
(g57
g58
NtRp300
(dp301
g61
(dp302
g69
I3
ssg70
g296
sg63
(lp303
S''
asbasbasbag56
(g72
g58
NtRp304
(dp305
g61
(dp306
sg70
g258
sg63
(lp307
g56
(g77
g58
NtRp308
(dp309
g61
(dp310
g81
g82
ssg70
g304
sg63
(lp311
S'expires'
p312
asbag56
(g77
g58
NtRp313
(dp314
g61
(dp315
g88
g89
ssg70
g304
sg63
(lp316
S':'
asbag56
(g77
g58
NtRp317
(dp318
g61
(dp319
sg70
g304
sg63
(lp320
g56
(g57
g58
NtRp321
(dp322
g61
(dp323
g69
I3
ssg70
g317
sg63
(lp324
S''
asbasbasbag56
(g72
g58
NtRp325
(dp326
g61
(dp327
sg70
g258
sg63
(lp328
g56
(g77
g58
NtRp329
(dp330
g61
(dp331
g81
g82
ssg70
g325
sg63
(lp332
S'httponly'
p333
asbag56
(g77
g58
NtRp334
(dp335
g61
(dp336
g88
g89
ssg70
g325
sg63
(lp337
S':'
asbag56
(g77
g58
NtRp338
(dp339
g61
(dp340
sg70
g325
sg63
(lp341
g56
(g57
g58
NtRp342
(dp343
g61
(dp344
g69
I3
ssg70
g338
sg63
(lp345
S''
asbasbasbag56
(g72
g58
NtRp346
(dp347
g61
(dp348
sg70
g258
sg63
(lp349
g56
(g77
g58
NtRp350
(dp351
g61
(dp352
g81
g82
ssg70
g346
sg63
(lp353
S'max-age'
p354
asbag56
(g77
g58
NtRp355
(dp356
g61
(dp357
g88
g89
ssg70
g346
sg63
(lp358
S':'
asbag56
(g77
g58
NtRp359
(dp360
g61
(dp361
sg70
g346
sg63
(lp362
g56
(g57
g58
NtRp363
(dp364
g61
(dp365
g69
I3
ssg70
g359
sg63
(lp366
S''
asbasbasbag56
(g72
g58
NtRp367
(dp368
g61
(dp369
sg70
g258
sg63
(lp370
g56
(g77
g58
NtRp371
(dp372
g61
(dp373
g81
g82
ssg70
g367
sg63
(lp374
S'path'
p375
asbag56
(g77
g58
NtRp376
(dp377
g61
(dp378
g88
g89
ssg70
g367
sg63
(lp379
S':'
asbag56
(g77
g58
NtRp380
(dp381
g61
(dp382
sg70
g367
sg63
(lp383
g56
(g57
g58
NtRp384
(dp385
g61
(dp386
g69
I3
ssg70
g380
sg63
(lp387
S''
asbasbasbag56
(g72
g58
NtRp388
(dp389
g61
(dp390
sg70
g258
sg63
(lp391
g56
(g77
g58
NtRp392
(dp393
g61
(dp394
g81
g82
ssg70
g388
sg63
(lp395
S'secure'
p396
asbag56
(g77
g58
NtRp397
(dp398
g61
(dp399
g88
g89
ssg70
g388
sg63
(lp400
S':'
asbag56
(g77
g58
NtRp401
(dp402
g61
(dp403
sg70
g388
sg63
(lp404
g56
(g57
g58
NtRp405
(dp406
g61
(dp407
g69
I3
ssg70
g401
sg63
(lp408
S''
asbasbasbag56
(g72
g58
NtRp409
(dp410
g61
(dp411
sg70
g258
sg63
(lp412
g56
(g77
g58
NtRp413
(dp414
g61
(dp415
g81
g82
ssg70
g409
sg63
(lp416
S'version'
p417
asbag56
(g77
g58
NtRp418
(dp419
g61
(dp420
g88
g89
ssg70
g409
sg63
(lp421
S':'
asbag56
(g77
g58
NtRp422
(dp423
g61
(dp424
sg70
g409
sg63
(lp425
g56
(g57
g58
NtRp426
(dp427
g61
(dp428
g69
I3
ssg70
g422
sg63
(lp429
S''
asbasbasbasbasbasbasbag56
(g72
g58
NtRp430
(dp431
g61
(dp432
sg70
g233
sg63
(lp433
g56
(g77
g58
NtRp434
(dp435
g61
(dp436
g81
g82
ssg70
g430
sg63
(lp437
S'session_id_scrum'
p438
asbag56
(g77
g58
NtRp439
(dp440
g61
(dp441
g88
g89
ssg70
g430
sg63
(lp442
S':'
asbag56
(g77
g58
NtRp443
(dp444
g61
(dp445
sg70
g430
sg63
(lp446
g56
(g57
g58
NtRp447
(dp448
g61
(dp449
g69
I4
ssg70
g443
sg63
(lp450
g56
(g65
g58
NtRp451
(dp452
g61
(dp453
g69
I3
ssg70
Nsg63
(lp454
g56
(g72
g58
NtRp455
(dp456
g61
(dp457
sg70
g451
sg63
(lp458
g56
(g77
g58
NtRp459
(dp460
g61
(dp461
g81
g82
ssg70
g455
sg63
(lp462
g270
asbag56
(g77
g58
NtRp463
(dp464
g61
(dp465
g88
g89
ssg70
g455
sg63
(lp466
S':'
asbag56
(g77
g58
NtRp467
(dp468
g61
(dp469
sg70
g455
sg63
(lp470
g56
(g57
g58
NtRp471
(dp472
g61
(dp473
g69
I3
ssg70
g467
sg63
(lp474
S''
asbasbasbag56
(g72
g58
NtRp475
(dp476
g61
(dp477
sg70
g451
sg63
(lp478
g56
(g77
g58
NtRp479
(dp480
g61
(dp481
g81
g82
ssg70
g475
sg63
(lp482
g291
asbag56
(g77
g58
NtRp483
(dp484
g61
(dp485
g88
g89
ssg70
g475
sg63
(lp486
S':'
asbag56
(g77
g58
NtRp487
(dp488
g61
(dp489
sg70
g475
sg63
(lp490
g56
(g57
g58
NtRp491
(dp492
g61
(dp493
g69
I3
ssg70
g487
sg63
(lp494
S''
asbasbasbag56
(g72
g58
NtRp495
(dp496
g61
(dp497
sg70
g451
sg63
(lp498
g56
(g77
g58
NtRp499
(dp500
g61
(dp501
g81
g82
ssg70
g495
sg63
(lp502
g312
asbag56
(g77
g58
NtRp503
(dp504
g61
(dp505
g88
g89
ssg70
g495
sg63
(lp506
S':'
asbag56
(g77
g58
NtRp507
(dp508
g61
(dp509
sg70
g495
sg63
(lp510
g56
(g57
g58
NtRp511
(dp512
g61
(dp513
g69
I3
ssg70
g507
sg63
(lp514
S''
asbasbasbag56
(g72
g58
NtRp515
(dp516
g61
(dp517
sg70
g451
sg63
(lp518
g56
(g77
g58
NtRp519
(dp520
g61
(dp521
g81
g82
ssg70
g515
sg63
(lp522
g333
asbag56
(g77
g58
NtRp523
(dp524
g61
(dp525
g88
g89
ssg70
g515
sg63
(lp526
S':'
asbag56
(g77
g58
NtRp527
(dp528
g61
(dp529
sg70
g515
sg63
(lp530
g56
(g57
g58
NtRp531
(dp532
g61
(dp533
g69
I3
ssg70
g527
sg63
(lp534
S''
asbasbasbag56
(g72
g58
NtRp535
(dp536
g61
(dp537
sg70
g451
sg63
(lp538
g56
(g77
g58
NtRp539
(dp540
g61
(dp541
g81
g82
ssg70
g535
sg63
(lp542
g354
asbag56
(g77
g58
NtRp543
(dp544
g61
(dp545
g88
g89
ssg70
g535
sg63
(lp546
S':'
asbag56
(g77
g58
NtRp547
(dp548
g61
(dp549
sg70
g535
sg63
(lp550
g56
(g57
g58
NtRp551
(dp552
g61
(dp553
g69
I3
ssg70
g547
sg63
(lp554
S''
asbasbasbag56
(g72
g58
NtRp555
(dp556
g61
(dp557
sg70
g451
sg63
(lp558
g56
(g77
g58
NtRp559
(dp560
g61
(dp561
g81
g82
ssg70
g555
sg63
(lp562
g375
asbag56
(g77
g58
NtRp563
(dp564
g61
(dp565
g88
g89
ssg70
g555
sg63
(lp566
S':'
asbag56
(g77
g58
NtRp567
(dp568
g61
(dp569
sg70
g555
sg63
(lp570
g56
(g57
g58
NtRp571
(dp572
g61
(dp573
g69
I3
ssg70
g567
sg63
(lp574
S''
asbasbasbag56
(g72
g58
NtRp575
(dp576
g61
(dp577
sg70
g451
sg63
(lp578
g56
(g77
g58
NtRp579
(dp580
g61
(dp581
g81
g82
ssg70
g575
sg63
(lp582
g396
asbag56
(g77
g58
NtRp583
(dp584
g61
(dp585
g88
g89
ssg70
g575
sg63
(lp586
S':'
asbag56
(g77
g58
NtRp587
(dp588
g61
(dp589
sg70
g575
sg63
(lp590
g56
(g57
g58
NtRp591
(dp592
g61
(dp593
g69
I3
ssg70
g587
sg63
(lp594
S''
asbasbasbag56
(g72
g58
NtRp595
(dp596
g61
(dp597
sg70
g451
sg63
(lp598
g56
(g77
g58
NtRp599
(dp600
g61
(dp601
g81
g82
ssg70
g595
sg63
(lp602
g417
asbag56
(g77
g58
NtRp603
(dp604
g61
(dp605
g88
g89
ssg70
g595
sg63
(lp606
S':'
asbag56
(g77
g58
NtRp607
(dp608
g61
(dp609
sg70
g595
sg63
(lp610
g56
(g57
g58
NtRp611
(dp612
g61
(dp613
g69
I3
ssg70
g607
sg63
(lp614
S''
asbasbasbasbasbasbasbasbasbasbasbag56
(g72
g58
NtRp615
(dp616
g61
(dp617
sg70
g66
sg63
(lp618
g56
(g77
g58
NtRp619
(dp620
g61
(dp621
g81
g82
ssg70
g615
sg63
(lp622
S'env'
p623
asbag56
(g77
g58
NtRp624
(dp625
g61
(dp626
g88
g89
ssg70
g615
sg63
(lp627
S':'
asbag56
(g77
g58
NtRp628
(dp629
g61
(dp630
sg70
g615
sg63
(lp631
g56
(g57
g58
NtRp632
(dp633
g61
(dp634
g69
I5
ssg70
g628
sg63
(lp635
g56
(g65
g58
NtRp636
(dp637
g61
(dp638
g69
I4
ssg70
Nsg63
(lp639
g56
(g72
g58
NtRp640
(dp641
g61
(dp642
sg70
g636
sg63
(lp643
g56
(g77
g58
NtRp644
(dp645
g61
(dp646
g81
g82
ssg70
g640
sg63
(lp647
S'app_folders'
p648
asbag56
(g77
g58
NtRp649
(dp650
g61
(dp651
g88
g89
ssg70
g640
sg63
(lp652
S':'
asbag56
(g77
g58
NtRp653
(dp654
g61
(dp655
sg70
g640
sg63
(lp656
g56
(g57
g58
NtRp657
(dp658
g61
(dp659
g69
I4
ssg70
g653
sg63
(lp660
S"set(['/home/www-data/web2py/applications/scrum/', '/home/www-data/web2py/applications/examples/', '/home/www-data/web2py/applications/admin/'])"
p661
asbasbasbag56
(g72
g58
NtRp662
(dp663
g61
(dp664
sg70
g636
sg63
(lp665
g56
(g77
g58
NtRp666
(dp667
g61
(dp668
g81
g82
ssg70
g662
sg63
(lp669
S'applications_parent'
p670
asbag56
(g77
g58
NtRp671
(dp672
g61
(dp673
g88
g89
ssg70
g662
sg63
(lp674
S':'
asbag56
(g77
g58
NtRp675
(dp676
g61
(dp677
sg70
g662
sg63
(lp678
g56
(g57
g58
NtRp679
(dp680
g61
(dp681
g69
I4
ssg70
g675
sg63
(lp682
S'/home/www-data/web2py'
p683
asbasbasbag56
(g72
g58
NtRp684
(dp685
g61
(dp686
sg70
g636
sg63
(lp687
g56
(g77
g58
NtRp688
(dp689
g61
(dp690
g81
g82
ssg70
g684
sg63
(lp691
S'content_length'
p692
asbag56
(g77
g58
NtRp693
(dp694
g61
(dp695
g88
g89
ssg70
g684
sg63
(lp696
S':'
asbag56
(g77
g58
NtRp697
(dp698
g61
(dp699
sg70
g684
sg63
(lp700
g56
(g57
g58
NtRp701
(dp702
g61
(dp703
g69
I4
ssg70
g697
sg63
(lp704
S'255'
p705
asbasbasbag56
(g72
g58
NtRp706
(dp707
g61
(dp708
sg70
g636
sg63
(lp709
g56
(g77
g58
NtRp710
(dp711
g61
(dp712
g81
g82
ssg70
g706
sg63
(lp713
S'content_type'
p714
asbag56
(g77
g58
NtRp715
(dp716
g61
(dp717
g88
g89
ssg70
g706
sg63
(lp718
S':'
asbag56
(g77
g58
NtRp719
(dp720
g61
(dp721
sg70
g706
sg63
(lp722
g56
(g57
g58
NtRp723
(dp724
g61
(dp725
g69
I4
ssg70
g719
sg63
(lp726
S'application/x-www-form-urlencoded; charset=UTF-8'
p727
asbasbasbag56
(g72
g58
NtRp728
(dp729
g61
(dp730
sg70
g636
sg63
(lp731
g56
(g77
g58
NtRp732
(dp733
g61
(dp734
g81
g82
ssg70
g728
sg63
(lp735
S'db_sessions'
p736
asbag56
(g77
g58
NtRp737
(dp738
g61
(dp739
g88
g89
ssg70
g728
sg63
(lp740
S':'
asbag56
(g77
g58
NtRp741
(dp742
g61
(dp743
sg70
g728
sg63
(lp744
g56
(g57
g58
NtRp745
(dp746
g61
(dp747
g69
I4
ssg70
g741
sg63
(lp748
S'set([])'
p749
asbasbasbag56
(g72
g58
NtRp750
(dp751
g61
(dp752
sg70
g636
sg63
(lp753
g56
(g77
g58
NtRp754
(dp755
g61
(dp756
g81
g82
ssg70
g750
sg63
(lp757
S'debugging'
p758
asbag56
(g77
g58
NtRp759
(dp760
g61
(dp761
g88
g89
ssg70
g750
sg63
(lp762
S':'
asbag56
(g77
g58
NtRp763
(dp764
g61
(dp765
sg70
g750
sg63
(lp766
g56
(g57
g58
NtRp767
(dp768
g61
(dp769
g69
I4
ssg70
g763
sg63
(lp770
S'False'
p771
asbasbasbag56
(g72
g58
NtRp772
(dp773
g61
(dp774
sg70
g636
sg63
(lp775
g56
(g77
g58
NtRp776
(dp777
g61
(dp778
g81
g82
ssg70
g772
sg63
(lp779
S'document_root'
p780
asbag56
(g77
g58
NtRp781
(dp782
g61
(dp783
g88
g89
ssg70
g772
sg63
(lp784
S':'
asbag56
(g77
g58
NtRp785
(dp786
g61
(dp787
sg70
g772
sg63
(lp788
g56
(g57
g58
NtRp789
(dp790
g61
(dp791
g69
I4
ssg70
g785
sg63
(lp792
S'/etc/apache2/htdocs'
p793
asbasbasbag56
(g72
g58
NtRp794
(dp795
g61
(dp796
sg70
g636
sg63
(lp797
g56
(g77
g58
NtRp798
(dp799
g61
(dp800
g81
g82
ssg70
g794
sg63
(lp801
S'gateway_interface'
p802
asbag56
(g77
g58
NtRp803
(dp804
g61
(dp805
g88
g89
ssg70
g794
sg63
(lp806
S':'
asbag56
(g77
g58
NtRp807
(dp808
g61
(dp809
sg70
g794
sg63
(lp810
g56
(g57
g58
NtRp811
(dp812
g61
(dp813
g69
I4
ssg70
g807
sg63
(lp814
S'CGI/1.1'
p815
asbasbasbag56
(g72
g58
NtRp816
(dp817
g61
(dp818
sg70
g636
sg63
(lp819
g56
(g77
g58
NtRp820
(dp821
g61
(dp822
g81
g82
ssg70
g816
sg63
(lp823
S'gluon_parent'
p824
asbag56
(g77
g58
NtRp825
(dp826
g61
(dp827
g88
g89
ssg70
g816
sg63
(lp828
S':'
asbag56
(g77
g58
NtRp829
(dp830
g61
(dp831
sg70
g816
sg63
(lp832
g56
(g57
g58
NtRp833
(dp834
g61
(dp835
g69
I4
ssg70
g829
sg63
(lp836
g683
asbasbasbag56
(g72
g58
NtRp837
(dp838
g61
(dp839
sg70
g636
sg63
(lp840
g56
(g77
g58
NtRp841
(dp842
g61
(dp843
g81
g82
ssg70
g837
sg63
(lp844
S'http_accept'
p845
asbag56
(g77
g58
NtRp846
(dp847
g61
(dp848
g88
g89
ssg70
g837
sg63
(lp849
S':'
asbag56
(g77
g58
NtRp850
(dp851
g61
(dp852
sg70
g837
sg63
(lp853
g56
(g57
g58
NtRp854
(dp855
g61
(dp856
g69
I4
ssg70
g850
sg63
(lp857
S'*/*'
p858
asbasbasbag56
(g72
g58
NtRp859
(dp860
g61
(dp861
sg70
g636
sg63
(lp862
g56
(g77
g58
NtRp863
(dp864
g61
(dp865
g81
g82
ssg70
g859
sg63
(lp866
S'http_accept_charset'
p867
asbag56
(g77
g58
NtRp868
(dp869
g61
(dp870
g88
g89
ssg70
g859
sg63
(lp871
S':'
asbag56
(g77
g58
NtRp872
(dp873
g61
(dp874
sg70
g859
sg63
(lp875
g56
(g57
g58
NtRp876
(dp877
g61
(dp878
g69
I4
ssg70
g872
sg63
(lp879
S'ISO-8859-1,utf-8;q=0.7,*;q=0.7'
p880
asbasbasbag56
(g72
g58
NtRp881
(dp882
g61
(dp883
sg70
g636
sg63
(lp884
g56
(g77
g58
NtRp885
(dp886
g61
(dp887
g81
g82
ssg70
g881
sg63
(lp888
S'http_accept_encoding'
p889
asbag56
(g77
g58
NtRp890
(dp891
g61
(dp892
g88
g89
ssg70
g881
sg63
(lp893
S':'
asbag56
(g77
g58
NtRp894
(dp895
g61
(dp896
sg70
g881
sg63
(lp897
g56
(g57
g58
NtRp898
(dp899
g61
(dp900
g69
I4
ssg70
g894
sg63
(lp901
S'gzip, deflate'
p902
asbasbasbag56
(g72
g58
NtRp903
(dp904
g61
(dp905
sg70
g636
sg63
(lp906
g56
(g77
g58
NtRp907
(dp908
g61
(dp909
g81
g82
ssg70
g903
sg63
(lp910
S'http_accept_language'
p911
asbag56
(g77
g58
NtRp912
(dp913
g61
(dp914
g88
g89
ssg70
g903
sg63
(lp915
S':'
asbag56
(g77
g58
NtRp916
(dp917
g61
(dp918
sg70
g903
sg63
(lp919
g56
(g57
g58
NtRp920
(dp921
g61
(dp922
g69
I4
ssg70
g916
sg63
(lp923
S'pt-br,pt;q=0.8,en-us;q=0.5,en;q=0.3'
p924
asbasbasbag56
(g72
g58
NtRp925
(dp926
g61
(dp927
sg70
g636
sg63
(lp928
g56
(g77
g58
NtRp929
(dp930
g61
(dp931
g81
g82
ssg70
g925
sg63
(lp932
S'http_cache_control'
p933
asbag56
(g77
g58
NtRp934
(dp935
g61
(dp936
g88
g89
ssg70
g925
sg63
(lp937
S':'
asbag56
(g77
g58
NtRp938
(dp939
g61
(dp940
sg70
g925
sg63
(lp941
g56
(g57
g58
NtRp942
(dp943
g61
(dp944
g69
I4
ssg70
g938
sg63
(lp945
S'no-cache'
p946
asbasbasbag56
(g72
g58
NtRp947
(dp948
g61
(dp949
sg70
g636
sg63
(lp950
g56
(g77
g58
NtRp951
(dp952
g61
(dp953
g81
g82
ssg70
g947
sg63
(lp954
S'http_connection'
p955
asbag56
(g77
g58
NtRp956
(dp957
g61
(dp958
g88
g89
ssg70
g947
sg63
(lp959
S':'
asbag56
(g77
g58
NtRp960
(dp961
g61
(dp962
sg70
g947
sg63
(lp963
g56
(g57
g58
NtRp964
(dp965
g61
(dp966
g69
I4
ssg70
g960
sg63
(lp967
S'keep-alive'
p968
asbasbasbag56
(g72
g58
NtRp969
(dp970
g61
(dp971
sg70
g636
sg63
(lp972
g56
(g77
g58
NtRp973
(dp974
g61
(dp975
g81
g82
ssg70
g969
sg63
(lp976
S'http_cookie'
p977
asbag56
(g77
g58
NtRp978
(dp979
g61
(dp980
g88
g89
ssg70
g969
sg63
(lp981
S':'
asbag56
(g77
g58
NtRp982
(dp983
g61
(dp984
sg70
g969
sg63
(lp985
g56
(g57
g58
NtRp986
(dp987
g61
(dp988
g69
I4
ssg70
g982
sg63
(lp989
S'session_id_admin=127.0.0.1-e5192660-39ef-4b4b-a6d6-48f8215e8275; session_id_scrum=127.0.0.1-8741b6aa-dd8d-45b3-88a3-6f21c23a3c79'
p990
asbasbasbag56
(g72
g58
NtRp991
(dp992
g61
(dp993
sg70
g636
sg63
(lp994
g56
(g77
g58
NtRp995
(dp996
g61
(dp997
g81
g82
ssg70
g991
sg63
(lp998
S'http_host'
p999
asbag56
(g77
g58
NtRp1000
(dp1001
g61
(dp1002
g88
g89
ssg70
g991
sg63
(lp1003
S':'
asbag56
(g77
g58
NtRp1004
(dp1005
g61
(dp1006
sg70
g991
sg63
(lp1007
g56
(g57
g58
NtRp1008
(dp1009
g61
(dp1010
g69
I4
ssg70
g1004
sg63
(lp1011
S'localhost'
p1012
asbasbasbag56
(g72
g58
NtRp1013
(dp1014
g61
(dp1015
sg70
g636
sg63
(lp1016
g56
(g77
g58
NtRp1017
(dp1018
g61
(dp1019
g81
g82
ssg70
g1013
sg63
(lp1020
S'http_pragma'
p1021
asbag56
(g77
g58
NtRp1022
(dp1023
g61
(dp1024
g88
g89
ssg70
g1013
sg63
(lp1025
S':'
asbag56
(g77
g58
NtRp1026
(dp1027
g61
(dp1028
sg70
g1013
sg63
(lp1029
g56
(g57
g58
NtRp1030
(dp1031
g61
(dp1032
g69
I4
ssg70
g1026
sg63
(lp1033
S'no-cache'
p1034
asbasbasbag56
(g72
g58
NtRp1035
(dp1036
g61
(dp1037
sg70
g636
sg63
(lp1038
g56
(g77
g58
NtRp1039
(dp1040
g61
(dp1041
g81
g82
ssg70
g1035
sg63
(lp1042
S'http_referer'
p1043
asbag56
(g77
g58
NtRp1044
(dp1045
g61
(dp1046
g88
g89
ssg70
g1035
sg63
(lp1047
S':'
asbag56
(g77
g58
NtRp1048
(dp1049
g61
(dp1050
sg70
g1035
sg63
(lp1051
g56
(g57
g58
NtRp1052
(dp1053
g61
(dp1054
g69
I4
ssg70
g1048
sg63
(lp1055
S'https://localhost/scrum/sprint/editar/1'
p1056
asbasbasbag56
(g72
g58
NtRp1057
(dp1058
g61
(dp1059
sg70
g636
sg63
(lp1060
g56
(g77
g58
NtRp1061
(dp1062
g61
(dp1063
g81
g82
ssg70
g1057
sg63
(lp1064
S'http_user_agent'
p1065
asbag56
(g77
g58
NtRp1066
(dp1067
g61
(dp1068
g88
g89
ssg70
g1057
sg63
(lp1069
S':'
asbag56
(g77
g58
NtRp1070
(dp1071
g61
(dp1072
sg70
g1057
sg63
(lp1073
g56
(g57
g58
NtRp1074
(dp1075
g61
(dp1076
g69
I4
ssg70
g1070
sg63
(lp1077
S'Mozilla/5.0 (X11; Linux i686; rv:6.0.2) Gecko/20100101 Firefox/6.0.2'
p1078
asbasbasbag56
(g72
g58
NtRp1079
(dp1080
g61
(dp1081
sg70
g636
sg63
(lp1082
g56
(g77
g58
NtRp1083
(dp1084
g61
(dp1085
g81
g82
ssg70
g1079
sg63
(lp1086
S'http_x_requested_with'
p1087
asbag56
(g77
g58
NtRp1088
(dp1089
g61
(dp1090
g88
g89
ssg70
g1079
sg63
(lp1091
S':'
asbag56
(g77
g58
NtRp1092
(dp1093
g61
(dp1094
sg70
g1079
sg63
(lp1095
g56
(g57
g58
NtRp1096
(dp1097
g61
(dp1098
g69
I4
ssg70
g1092
sg63
(lp1099
S'XMLHttpRequest'
p1100
asbasbasbag56
(g72
g58
NtRp1101
(dp1102
g61
(dp1103
sg70
g636
sg63
(lp1104
g56
(g77
g58
NtRp1105
(dp1106
g61
(dp1107
g81
g82
ssg70
g1101
sg63
(lp1108
S'https'
p1109
asbag56
(g77
g58
NtRp1110
(dp1111
g61
(dp1112
g88
g89
ssg70
g1101
sg63
(lp1113
S':'
asbag56
(g77
g58
NtRp1114
(dp1115
g61
(dp1116
sg70
g1101
sg63
(lp1117
g56
(g57
g58
NtRp1118
(dp1119
g61
(dp1120
g69
I4
ssg70
g1114
sg63
(lp1121
S'1'
asbasbasbag56
(g72
g58
NtRp1122
(dp1123
g61
(dp1124
sg70
g636
sg63
(lp1125
g56
(g77
g58
NtRp1126
(dp1127
g61
(dp1128
g81
g82
ssg70
g1122
sg63
(lp1129
S'is_jython'
p1130
asbag56
(g77
g58
NtRp1131
(dp1132
g61
(dp1133
g88
g89
ssg70
g1122
sg63
(lp1134
S':'
asbag56
(g77
g58
NtRp1135
(dp1136
g61
(dp1137
sg70
g1122
sg63
(lp1138
g56
(g57
g58
NtRp1139
(dp1140
g61
(dp1141
g69
I4
ssg70
g1135
sg63
(lp1142
g771
asbasbasbag56
(g72
g58
NtRp1143
(dp1144
g61
(dp1145
sg70
g636
sg63
(lp1146
g56
(g77
g58
NtRp1147
(dp1148
g61
(dp1149
g81
g82
ssg70
g1143
sg63
(lp1150
S'mod_wsgi_application_group'
p1151
asbag56
(g77
g58
NtRp1152
(dp1153
g61
(dp1154
g88
g89
ssg70
g1143
sg63
(lp1155
S':'
asbag56
(g77
g58
NtRp1156
(dp1157
g61
(dp1158
sg70
g1143
sg63
(lp1159
g56
(g57
g58
NtRp1160
(dp1161
g61
(dp1162
g69
I4
ssg70
g1156
sg63
(lp1163
S'localhost.localdomain|'
p1164
asbasbasbag56
(g72
g58
NtRp1165
(dp1166
g61
(dp1167
sg70
g636
sg63
(lp1168
g56
(g77
g58
NtRp1169
(dp1170
g61
(dp1171
g81
g82
ssg70
g1165
sg63
(lp1172
S'mod_wsgi_callable_object'
p1173
asbag56
(g77
g58
NtRp1174
(dp1175
g61
(dp1176
g88
g89
ssg70
g1165
sg63
(lp1177
S':'
asbag56
(g77
g58
NtRp1178
(dp1179
g61
(dp1180
sg70
g1165
sg63
(lp1181
g56
(g57
g58
NtRp1182
(dp1183
g61
(dp1184
g69
I4
ssg70
g1178
sg63
(lp1185
S'application'
p1186
asbasbasbag56
(g72
g58
NtRp1187
(dp1188
g61
(dp1189
sg70
g636
sg63
(lp1190
g56
(g77
g58
NtRp1191
(dp1192
g61
(dp1193
g81
g82
ssg70
g1187
sg63
(lp1194
S'mod_wsgi_handler_script'
p1195
asbag56
(g77
g58
NtRp1196
(dp1197
g61
(dp1198
g88
g89
ssg70
g1187
sg63
(lp1199
S':'
asbag56
(g77
g58
NtRp1200
(dp1201
g61
(dp1202
sg70
g1187
sg63
(lp1203
g56
(g57
g58
NtRp1204
(dp1205
g61
(dp1206
g69
I4
ssg70
g1200
sg63
(lp1207
S''
asbasbasbag56
(g72
g58
NtRp1208
(dp1209
g61
(dp1210
sg70
g636
sg63
(lp1211
g56
(g77
g58
NtRp1212
(dp1213
g61
(dp1214
g81
g82
ssg70
g1208
sg63
(lp1215
S'mod_wsgi_input_chunked'
p1216
asbag56
(g77
g58
NtRp1217
(dp1218
g61
(dp1219
g88
g89
ssg70
g1208
sg63
(lp1220
S':'
asbag56
(g77
g58
NtRp1221
(dp1222
g61
(dp1223
sg70
g1208
sg63
(lp1224
g56
(g57
g58
NtRp1225
(dp1226
g61
(dp1227
g69
I4
ssg70
g1221
sg63
(lp1228
S'0'
asbasbasbag56
(g72
g58
NtRp1229
(dp1230
g61
(dp1231
sg70
g636
sg63
(lp1232
g56
(g77
g58
NtRp1233
(dp1234
g61
(dp1235
g81
g82
ssg70
g1229
sg63
(lp1236
S'mod_wsgi_listener_host'
p1237
asbag56
(g77
g58
NtRp1238
(dp1239
g61
(dp1240
g88
g89
ssg70
g1229
sg63
(lp1241
S':'
asbag56
(g77
g58
NtRp1242
(dp1243
g61
(dp1244
sg70
g1229
sg63
(lp1245
g56
(g57
g58
NtRp1246
(dp1247
g61
(dp1248
g69
I4
ssg70
g1242
sg63
(lp1249
S''
asbasbasbag56
(g72
g58
NtRp1250
(dp1251
g61
(dp1252
sg70
g636
sg63
(lp1253
g56
(g77
g58
NtRp1254
(dp1255
g61
(dp1256
g81
g82
ssg70
g1250
sg63
(lp1257
S'mod_wsgi_listener_port'
p1258
asbag56
(g77
g58
NtRp1259
(dp1260
g61
(dp1261
g88
g89
ssg70
g1250
sg63
(lp1262
S':'
asbag56
(g77
g58
NtRp1263
(dp1264
g61
(dp1265
sg70
g1250
sg63
(lp1266
g56
(g57
g58
NtRp1267
(dp1268
g61
(dp1269
g69
I4
ssg70
g1263
sg63
(lp1270
S'443'
p1271
asbasbasbag56
(g72
g58
NtRp1272
(dp1273
g61
(dp1274
sg70
g636
sg63
(lp1275
g56
(g77
g58
NtRp1276
(dp1277
g61
(dp1278
g81
g82
ssg70
g1272
sg63
(lp1279
S'mod_wsgi_process_group'
p1280
asbag56
(g77
g58
NtRp1281
(dp1282
g61
(dp1283
g88
g89
ssg70
g1272
sg63
(lp1284
S':'
asbag56
(g77
g58
NtRp1285
(dp1286
g61
(dp1287
sg70
g1272
sg63
(lp1288
g56
(g57
g58
NtRp1289
(dp1290
g61
(dp1291
g69
I4
ssg70
g1285
sg63
(lp1292
S'web2py'
p1293
asbasbasbag56
(g72
g58
NtRp1294
(dp1295
g61
(dp1296
sg70
g636
sg63
(lp1297
g56
(g77
g58
NtRp1298
(dp1299
g61
(dp1300
g81
g82
ssg70
g1294
sg63
(lp1301
S'mod_wsgi_request_handler'
p1302
asbag56
(g77
g58
NtRp1303
(dp1304
g61
(dp1305
g88
g89
ssg70
g1294
sg63
(lp1306
S':'
asbag56
(g77
g58
NtRp1307
(dp1308
g61
(dp1309
sg70
g1294
sg63
(lp1310
g56
(g57
g58
NtRp1311
(dp1312
g61
(dp1313
g69
I4
ssg70
g1307
sg63
(lp1314
S'wsgi-script'
p1315
asbasbasbag56
(g72
g58
NtRp1316
(dp1317
g61
(dp1318
sg70
g636
sg63
(lp1319
g56
(g77
g58
NtRp1320
(dp1321
g61
(dp1322
g81
g82
ssg70
g1316
sg63
(lp1323
S'mod_wsgi_script_reloading'
p1324
asbag56
(g77
g58
NtRp1325
(dp1326
g61
(dp1327
g88
g89
ssg70
g1316
sg63
(lp1328
S':'
asbag56
(g77
g58
NtRp1329
(dp1330
g61
(dp1331
sg70
g1316
sg63
(lp1332
g56
(g57
g58
NtRp1333
(dp1334
g61
(dp1335
g69
I4
ssg70
g1329
sg63
(lp1336
S'1'
asbasbasbag56
(g72
g58
NtRp1337
(dp1338
g61
(dp1339
sg70
g636
sg63
(lp1340
g56
(g77
g58
NtRp1341
(dp1342
g61
(dp1343
g81
g82
ssg70
g1337
sg63
(lp1344
S'mod_wsgi_version'
p1345
asbag56
(g77
g58
NtRp1346
(dp1347
g61
(dp1348
g88
g89
ssg70
g1337
sg63
(lp1349
S':'
asbag56
(g77
g58
NtRp1350
(dp1351
g61
(dp1352
sg70
g1337
sg63
(lp1353
g56
(g57
g58
NtRp1354
(dp1355
g61
(dp1356
g69
I4
ssg70
g1350
sg63
(lp1357
g56
(g65
g58
NtRp1358
(dp1359
g61
(dp1360
g69
I3
ssg70
Nsg63
(lp1361
g56
(g72
g58
NtRp1362
(dp1363
g61
(dp1364
sg70
g1358
sg63
(lp1365
g56
(g77
g58
NtRp1366
(dp1367
g61
(dp1368
sg70
g1362
sg63
(lp1369
g56
(g57
g58
NtRp1370
(dp1371
g61
(dp1372
g69
I3
ssg70
g1366
sg63
(lp1373
S'3'
asbasbasbag56
(g72
g58
NtRp1374
(dp1375
g61
(dp1376
sg70
g1358
sg63
(lp1377
g56
(g77
g58
NtRp1378
(dp1379
g61
(dp1380
sg70
g1374
sg63
(lp1381
g56
(g57
g58
NtRp1382
(dp1383
g61
(dp1384
g69
I3
ssg70
g1378
sg63
(lp1385
S'3'
asbasbasbasbasbasbasbag56
(g72
g58
NtRp1386
(dp1387
g61
(dp1388
sg70
g636
sg63
(lp1389
g56
(g77
g58
NtRp1390
(dp1391
g61
(dp1392
g81
g82
ssg70
g1386
sg63
(lp1393
S'path_info'
p1394
asbag56
(g77
g58
NtRp1395
(dp1396
g61
(dp1397
g88
g89
ssg70
g1386
sg63
(lp1398
S':'
asbag56
(g77
g58
NtRp1399
(dp1400
g61
(dp1401
sg70
g1386
sg63
(lp1402
g56
(g57
g58
NtRp1403
(dp1404
g61
(dp1405
g69
I4
ssg70
g1399
sg63
(lp1406
S'/scrum/sprint/detalhes'
p1407
asbasbasbag56
(g72
g58
NtRp1408
(dp1409
g61
(dp1410
sg70
g636
sg63
(lp1411
g56
(g77
g58
NtRp1412
(dp1413
g61
(dp1414
g81
g82
ssg70
g1408
sg63
(lp1415
S'path_translated'
p1416
asbag56
(g77
g58
NtRp1417
(dp1418
g61
(dp1419
g88
g89
ssg70
g1408
sg63
(lp1420
S':'
asbag56
(g77
g58
NtRp1421
(dp1422
g61
(dp1423
sg70
g1408
sg63
(lp1424
g56
(g57
g58
NtRp1425
(dp1426
g61
(dp1427
g69
I4
ssg70
g1421
sg63
(lp1428
S'/home/www-data/web2py/wsgihandler.py/scrum/sprint/detalhes'
p1429
asbasbasbag56
(g72
g58
NtRp1430
(dp1431
g61
(dp1432
sg70
g636
sg63
(lp1433
g56
(g77
g58
NtRp1434
(dp1435
g61
(dp1436
g81
g82
ssg70
g1430
sg63
(lp1437
S'query_string'
p1438
asbag56
(g77
g58
NtRp1439
(dp1440
g61
(dp1441
g88
g89
ssg70
g1430
sg63
(lp1442
S':'
asbag56
(g77
g58
NtRp1443
(dp1444
g61
(dp1445
sg70
g1430
sg63
(lp1446
g56
(g57
g58
NtRp1447
(dp1448
g61
(dp1449
g69
I4
ssg70
g1443
sg63
(lp1450
S''
asbasbasbag56
(g72
g58
NtRp1451
(dp1452
g61
(dp1453
sg70
g636
sg63
(lp1454
g56
(g77
g58
NtRp1455
(dp1456
g61
(dp1457
g81
g82
ssg70
g1451
sg63
(lp1458
S'remote_addr'
p1459
asbag56
(g77
g58
NtRp1460
(dp1461
g61
(dp1462
g88
g89
ssg70
g1451
sg63
(lp1463
S':'
asbag56
(g77
g58
NtRp1464
(dp1465
g61
(dp1466
sg70
g1451
sg63
(lp1467
g56
(g57
g58
NtRp1468
(dp1469
g61
(dp1470
g69
I4
ssg70
g1464
sg63
(lp1471
g189
asbasbasbag56
(g72
g58
NtRp1472
(dp1473
g61
(dp1474
sg70
g636
sg63
(lp1475
g56
(g77
g58
NtRp1476
(dp1477
g61
(dp1478
g81
g82
ssg70
g1472
sg63
(lp1479
S'remote_port'
p1480
asbag56
(g77
g58
NtRp1481
(dp1482
g61
(dp1483
g88
g89
ssg70
g1472
sg63
(lp1484
S':'
asbag56
(g77
g58
NtRp1485
(dp1486
g61
(dp1487
sg70
g1472
sg63
(lp1488
g56
(g57
g58
NtRp1489
(dp1490
g61
(dp1491
g69
I4
ssg70
g1485
sg63
(lp1492
S'34147'
p1493
asbasbasbag56
(g72
g58
NtRp1494
(dp1495
g61
(dp1496
sg70
g636
sg63
(lp1497
g56
(g77
g58
NtRp1498
(dp1499
g61
(dp1500
g81
g82
ssg70
g1494
sg63
(lp1501
S'request_method'
p1502
asbag56
(g77
g58
NtRp1503
(dp1504
g61
(dp1505
g88
g89
ssg70
g1494
sg63
(lp1506
S':'
asbag56
(g77
g58
NtRp1507
(dp1508
g61
(dp1509
sg70
g1494
sg63
(lp1510
g56
(g57
g58
NtRp1511
(dp1512
g61
(dp1513
g69
I4
ssg70
g1507
sg63
(lp1514
S'POST'
p1515
asbasbasbag56
(g72
g58
NtRp1516
(dp1517
g61
(dp1518
sg70
g636
sg63
(lp1519
g56
(g77
g58
NtRp1520
(dp1521
g61
(dp1522
g81
g82
ssg70
g1516
sg63
(lp1523
S'request_uri'
p1524
asbag56
(g77
g58
NtRp1525
(dp1526
g61
(dp1527
g88
g89
ssg70
g1516
sg63
(lp1528
S':'
asbag56
(g77
g58
NtRp1529
(dp1530
g61
(dp1531
sg70
g1516
sg63
(lp1532
g56
(g57
g58
NtRp1533
(dp1534
g61
(dp1535
g69
I4
ssg70
g1529
sg63
(lp1536
S'/scrum/sprint/detalhes'
p1537
asbasbasbag56
(g72
g58
NtRp1538
(dp1539
g61
(dp1540
sg70
g636
sg63
(lp1541
g56
(g77
g58
NtRp1542
(dp1543
g61
(dp1544
g81
g82
ssg70
g1538
sg63
(lp1545
S'script_filename'
p1546
asbag56
(g77
g58
NtRp1547
(dp1548
g61
(dp1549
g88
g89
ssg70
g1538
sg63
(lp1550
S':'
asbag56
(g77
g58
NtRp1551
(dp1552
g61
(dp1553
sg70
g1538
sg63
(lp1554
g56
(g57
g58
NtRp1555
(dp1556
g61
(dp1557
g69
I4
ssg70
g1551
sg63
(lp1558
S'/home/www-data/web2py/wsgihandler.py'
p1559
asbasbasbag56
(g72
g58
NtRp1560
(dp1561
g61
(dp1562
sg70
g636
sg63
(lp1563
g56
(g77
g58
NtRp1564
(dp1565
g61
(dp1566
g81
g82
ssg70
g1560
sg63
(lp1567
S'script_name'
p1568
asbag56
(g77
g58
NtRp1569
(dp1570
g61
(dp1571
g88
g89
ssg70
g1560
sg63
(lp1572
S':'
asbag56
(g77
g58
NtRp1573
(dp1574
g61
(dp1575
sg70
g1560
sg63
(lp1576
g56
(g57
g58
NtRp1577
(dp1578
g61
(dp1579
g69
I4
ssg70
g1573
sg63
(lp1580
S''
asbasbasbag56
(g72
g58
NtRp1581
(dp1582
g61
(dp1583
sg70
g636
sg63
(lp1584
g56
(g77
g58
NtRp1585
(dp1586
g61
(dp1587
g81
g82
ssg70
g1581
sg63
(lp1588
S'server_addr'
p1589
asbag56
(g77
g58
NtRp1590
(dp1591
g61
(dp1592
g88
g89
ssg70
g1581
sg63
(lp1593
S':'
asbag56
(g77
g58
NtRp1594
(dp1595
g61
(dp1596
sg70
g1581
sg63
(lp1597
g56
(g57
g58
NtRp1598
(dp1599
g61
(dp1600
g69
I4
ssg70
g1594
sg63
(lp1601
S'127.0.0.1'
p1602
asbasbasbag56
(g72
g58
NtRp1603
(dp1604
g61
(dp1605
sg70
g636
sg63
(lp1606
g56
(g77
g58
NtRp1607
(dp1608
g61
(dp1609
g81
g82
ssg70
g1603
sg63
(lp1610
S'server_admin'
p1611
asbag56
(g77
g58
NtRp1612
(dp1613
g61
(dp1614
g88
g89
ssg70
g1603
sg63
(lp1615
S':'
asbag56
(g77
g58
NtRp1616
(dp1617
g61
(dp1618
sg70
g1603
sg63
(lp1619
g56
(g57
g58
NtRp1620
(dp1621
g61
(dp1622
g69
I4
ssg70
g1616
sg63
(lp1623
S'[no address given]'
p1624
asbasbasbag56
(g72
g58
NtRp1625
(dp1626
g61
(dp1627
sg70
g636
sg63
(lp1628
g56
(g77
g58
NtRp1629
(dp1630
g61
(dp1631
g81
g82
ssg70
g1625
sg63
(lp1632
S'server_name'
p1633
asbag56
(g77
g58
NtRp1634
(dp1635
g61
(dp1636
g88
g89
ssg70
g1625
sg63
(lp1637
S':'
asbag56
(g77
g58
NtRp1638
(dp1639
g61
(dp1640
sg70
g1625
sg63
(lp1641
g56
(g57
g58
NtRp1642
(dp1643
g61
(dp1644
g69
I4
ssg70
g1638
sg63
(lp1645
S'localhost'
p1646
asbasbasbag56
(g72
g58
NtRp1647
(dp1648
g61
(dp1649
sg70
g636
sg63
(lp1650
g56
(g77
g58
NtRp1651
(dp1652
g61
(dp1653
g81
g82
ssg70
g1647
sg63
(lp1654
S'server_port'
p1655
asbag56
(g77
g58
NtRp1656
(dp1657
g61
(dp1658
g88
g89
ssg70
g1647
sg63
(lp1659
S':'
asbag56
(g77
g58
NtRp1660
(dp1661
g61
(dp1662
sg70
g1647
sg63
(lp1663
g56
(g57
g58
NtRp1664
(dp1665
g61
(dp1666
g69
I4
ssg70
g1660
sg63
(lp1667
S'443'
p1668
asbasbasbag56
(g72
g58
NtRp1669
(dp1670
g61
(dp1671
sg70
g636
sg63
(lp1672
g56
(g77
g58
NtRp1673
(dp1674
g61
(dp1675
g81
g82
ssg70
g1669
sg63
(lp1676
S'server_protocol'
p1677
asbag56
(g77
g58
NtRp1678
(dp1679
g61
(dp1680
g88
g89
ssg70
g1669
sg63
(lp1681
S':'
asbag56
(g77
g58
NtRp1682
(dp1683
g61
(dp1684
sg70
g1669
sg63
(lp1685
g56
(g57
g58
NtRp1686
(dp1687
g61
(dp1688
g69
I4
ssg70
g1682
sg63
(lp1689
S'HTTP/1.1'
p1690
asbasbasbag56
(g72
g58
NtRp1691
(dp1692
g61
(dp1693
sg70
g636
sg63
(lp1694
g56
(g77
g58
NtRp1695
(dp1696
g61
(dp1697
g81
g82
ssg70
g1691
sg63
(lp1698
S'server_signature'
p1699
asbag56
(g77
g58
NtRp1700
(dp1701
g61
(dp1702
g88
g89
ssg70
g1691
sg63
(lp1703
S':'
asbag56
(g77
g58
NtRp1704
(dp1705
g61
(dp1706
sg70
g1691
sg63
(lp1707
g56
(g57
g58
NtRp1708
(dp1709
g61
(dp1710
g69
I4
ssg70
g1704
sg63
(lp1711
S'<address>Apache/2.2.17 (Ubuntu) Server at localhost Port 443</address>\n'
p1712
asbasbasbag56
(g72
g58
NtRp1713
(dp1714
g61
(dp1715
sg70
g636
sg63
(lp1716
g56
(g77
g58
NtRp1717
(dp1718
g61
(dp1719
g81
g82
ssg70
g1713
sg63
(lp1720
S'server_software'
p1721
asbag56
(g77
g58
NtRp1722
(dp1723
g61
(dp1724
g88
g89
ssg70
g1713
sg63
(lp1725
S':'
asbag56
(g77
g58
NtRp1726
(dp1727
g61
(dp1728
sg70
g1713
sg63
(lp1729
g56
(g57
g58
NtRp1730
(dp1731
g61
(dp1732
g69
I4
ssg70
g1726
sg63
(lp1733
S'Apache/2.2.17 (Ubuntu)'
p1734
asbasbasbag56
(g72
g58
NtRp1735
(dp1736
g61
(dp1737
sg70
g636
sg63
(lp1738
g56
(g77
g58
NtRp1739
(dp1740
g61
(dp1741
g81
g82
ssg70
g1735
sg63
(lp1742
S'ssl_tls_sni'
p1743
asbag56
(g77
g58
NtRp1744
(dp1745
g61
(dp1746
g88
g89
ssg70
g1735
sg63
(lp1747
S':'
asbag56
(g77
g58
NtRp1748
(dp1749
g61
(dp1750
sg70
g1735
sg63
(lp1751
g56
(g57
g58
NtRp1752
(dp1753
g61
(dp1754
g69
I4
ssg70
g1748
sg63
(lp1755
S'localhost'
p1756
asbasbasbag56
(g72
g58
NtRp1757
(dp1758
g61
(dp1759
sg70
g636
sg63
(lp1760
g56
(g77
g58
NtRp1761
(dp1762
g61
(dp1763
g81
g82
ssg70
g1757
sg63
(lp1764
S'web2py_path'
p1765
asbag56
(g77
g58
NtRp1766
(dp1767
g61
(dp1768
g88
g89
ssg70
g1757
sg63
(lp1769
S':'
asbag56
(g77
g58
NtRp1770
(dp1771
g61
(dp1772
sg70
g1757
sg63
(lp1773
g56
(g57
g58
NtRp1774
(dp1775
g61
(dp1776
g69
I4
ssg70
g1770
sg63
(lp1777
g683
asbasbasbag56
(g72
g58
NtRp1778
(dp1779
g61
(dp1780
sg70
g636
sg63
(lp1781
g56
(g77
g58
NtRp1782
(dp1783
g61
(dp1784
g81
g82
ssg70
g1778
sg63
(lp1785
S'web2py_version'
p1786
asbag56
(g77
g58
NtRp1787
(dp1788
g61
(dp1789
g88
g89
ssg70
g1778
sg63
(lp1790
S':'
asbag56
(g77
g58
NtRp1791
(dp1792
g61
(dp1793
sg70
g1778
sg63
(lp1794
g56
(g57
g58
NtRp1795
(dp1796
g61
(dp1797
g69
I4
ssg70
g1791
sg63
(lp1798
S'Version 1.98.2 (2011-08-04 00:47:09)\n'
p1799
asbasbasbag56
(g72
g58
NtRp1800
(dp1801
g61
(dp1802
sg70
g636
sg63
(lp1803
g56
(g77
g58
NtRp1804
(dp1805
g61
(dp1806
g81
g82
ssg70
g1800
sg63
(lp1807
S'wsgi_errors'
p1808
asbag56
(g77
g58
NtRp1809
(dp1810
g61
(dp1811
g88
g89
ssg70
g1800
sg63
(lp1812
S':'
asbag56
(g77
g58
NtRp1813
(dp1814
g61
(dp1815
sg70
g1800
sg63
(lp1816
g56
(g57
g58
NtRp1817
(dp1818
g61
(dp1819
g69
I4
ssg70
g1813
sg63
(lp1820
S'<mod_wsgi.Log object at 0xb954a598>'
p1821
asbasbasbag56
(g72
g58
NtRp1822
(dp1823
g61
(dp1824
sg70
g636
sg63
(lp1825
g56
(g77
g58
NtRp1826
(dp1827
g61
(dp1828
g81
g82
ssg70
g1822
sg63
(lp1829
S'wsgi_file_wrapper'
p1830
asbag56
(g77
g58
NtRp1831
(dp1832
g61
(dp1833
g88
g89
ssg70
g1822
sg63
(lp1834
S':'
asbag56
(g77
g58
NtRp1835
(dp1836
g61
(dp1837
sg70
g1822
sg63
(lp1838
g56
(g57
g58
NtRp1839
(dp1840
g61
(dp1841
g69
I4
ssg70
g1835
sg63
(lp1842
S'<built-in method file_wrapper of mod_wsgi.Adapter object at 0xb98dd9f8>'
p1843
asbasbasbag56
(g72
g58
NtRp1844
(dp1845
g61
(dp1846
sg70
g636
sg63
(lp1847
g56
(g77
g58
NtRp1848
(dp1849
g61
(dp1850
g81
g82
ssg70
g1844
sg63
(lp1851
S'wsgi_input'
p1852
asbag56
(g77
g58
NtRp1853
(dp1854
g61
(dp1855
g88
g89
ssg70
g1844
sg63
(lp1856
S':'
asbag56
(g77
g58
NtRp1857
(dp1858
g61
(dp1859
sg70
g1844
sg63
(lp1860
g56
(g57
g58
NtRp1861
(dp1862
g61
(dp1863
g69
I4
ssg70
g1857
sg63
(lp1864
S'<mod_wsgi.Input object at 0xba104ea8>'
p1865
asbasbasbag56
(g72
g58
NtRp1866
(dp1867
g61
(dp1868
sg70
g636
sg63
(lp1869
g56
(g77
g58
NtRp1870
(dp1871
g61
(dp1872
g81
g82
ssg70
g1866
sg63
(lp1873
S'wsgi_multiprocess'
p1874
asbag56
(g77
g58
NtRp1875
(dp1876
g61
(dp1877
g88
g89
ssg70
g1866
sg63
(lp1878
S':'
asbag56
(g77
g58
NtRp1879
(dp1880
g61
(dp1881
sg70
g1866
sg63
(lp1882
g56
(g57
g58
NtRp1883
(dp1884
g61
(dp1885
g69
I4
ssg70
g1879
sg63
(lp1886
g771
asbasbasbag56
(g72
g58
NtRp1887
(dp1888
g61
(dp1889
sg70
g636
sg63
(lp1890
g56
(g77
g58
NtRp1891
(dp1892
g61
(dp1893
g81
g82
ssg70
g1887
sg63
(lp1894
S'wsgi_multithread'
p1895
asbag56
(g77
g58
NtRp1896
(dp1897
g61
(dp1898
g88
g89
ssg70
g1887
sg63
(lp1899
S':'
asbag56
(g77
g58
NtRp1900
(dp1901
g61
(dp1902
sg70
g1887
sg63
(lp1903
g56
(g57
g58
NtRp1904
(dp1905
g61
(dp1906
g69
I4
ssg70
g1900
sg63
(lp1907
g99
asbasbasbag56
(g72
g58
NtRp1908
(dp1909
g61
(dp1910
sg70
g636
sg63
(lp1911
g56
(g77
g58
NtRp1912
(dp1913
g61
(dp1914
g81
g82
ssg70
g1908
sg63
(lp1915
S'wsgi_run_once'
p1916
asbag56
(g77
g58
NtRp1917
(dp1918
g61
(dp1919
g88
g89
ssg70
g1908
sg63
(lp1920
S':'
asbag56
(g77
g58
NtRp1921
(dp1922
g61
(dp1923
sg70
g1908
sg63
(lp1924
g56
(g57
g58
NtRp1925
(dp1926
g61
(dp1927
g69
I4
ssg70
g1921
sg63
(lp1928
g771
asbasbasbag56
(g72
g58
NtRp1929
(dp1930
g61
(dp1931
sg70
g636
sg63
(lp1932
g56
(g77
g58
NtRp1933
(dp1934
g61
(dp1935
g81
g82
ssg70
g1929
sg63
(lp1936
S'wsgi_url_scheme'
p1937
asbag56
(g77
g58
NtRp1938
(dp1939
g61
(dp1940
g88
g89
ssg70
g1929
sg63
(lp1941
S':'
asbag56
(g77
g58
NtRp1942
(dp1943
g61
(dp1944
sg70
g1929
sg63
(lp1945
g56
(g57
g58
NtRp1946
(dp1947
g61
(dp1948
g69
I4
ssg70
g1942
sg63
(lp1949
S'https'
p1950
asbasbasbag56
(g72
g58
NtRp1951
(dp1952
g61
(dp1953
sg70
g636
sg63
(lp1954
g56
(g77
g58
NtRp1955
(dp1956
g61
(dp1957
g81
g82
ssg70
g1951
sg63
(lp1958
S'wsgi_version'
p1959
asbag56
(g77
g58
NtRp1960
(dp1961
g61
(dp1962
g88
g89
ssg70
g1951
sg63
(lp1963
S':'
asbag56
(g77
g58
NtRp1964
(dp1965
g61
(dp1966
sg70
g1951
sg63
(lp1967
g56
(g57
g58
NtRp1968
(dp1969
g61
(dp1970
g69
I4
ssg70
g1964
sg63
(lp1971
g56
(g65
g58
NtRp1972
(dp1973
g61
(dp1974
g69
I3
ssg70
Nsg63
(lp1975
g56
(g72
g58
NtRp1976
(dp1977
g61
(dp1978
sg70
g1972
sg63
(lp1979
g56
(g77
g58
NtRp1980
(dp1981
g61
(dp1982
sg70
g1976
sg63
(lp1983
g56
(g57
g58
NtRp1984
(dp1985
g61
(dp1986
g69
I3
ssg70
g1980
sg63
(lp1987
S'1'
asbasbasbag56
(g72
g58
NtRp1988
(dp1989
g61
(dp1990
sg70
g1972
sg63
(lp1991
g56
(g77
g58
NtRp1992
(dp1993
g61
(dp1994
sg70
g1988
sg63
(lp1995
g56
(g57
g58
NtRp1996
(dp1997
g61
(dp1998
g69
I3
ssg70
g1992
sg63
(lp1999
S'1'
asbasbasbasbasbasbasbasbasbasbasbag56
(g72
g58
NtRp2000
(dp2001
g61
(dp2002
sg70
g66
sg63
(lp2003
g56
(g77
g58
NtRp2004
(dp2005
g61
(dp2006
g81
g82
ssg70
g2000
sg63
(lp2007
S'extension'
p2008
asbag56
(g77
g58
NtRp2009
(dp2010
g61
(dp2011
g88
g89
ssg70
g2000
sg63
(lp2012
S':'
asbag56
(g77
g58
NtRp2013
(dp2014
g61
(dp2015
sg70
g2000
sg63
(lp2016
g56
(g57
g58
NtRp2017
(dp2018
g61
(dp2019
g69
I5
ssg70
g2013
sg63
(lp2020
S'html'
p2021
asbasbasbag56
(g72
g58
NtRp2022
(dp2023
g61
(dp2024
sg70
g66
sg63
(lp2025
g56
(g77
g58
NtRp2026
(dp2027
g61
(dp2028
g81
g82
ssg70
g2022
sg63
(lp2029
S'folder'
p2030
asbag56
(g77
g58
NtRp2031
(dp2032
g61
(dp2033
g88
g89
ssg70
g2022
sg63
(lp2034
S':'
asbag56
(g77
g58
NtRp2035
(dp2036
g61
(dp2037
sg70
g2022
sg63
(lp2038
g56
(g57
g58
NtRp2039
(dp2040
g61
(dp2041
g69
I5
ssg70
g2035
sg63
(lp2042
S'/home/www-data/web2py/applications/scrum/'
p2043
asbasbasbag56
(g72
g58
NtRp2044
(dp2045
g61
(dp2046
sg70
g66
sg63
(lp2047
g56
(g77
g58
NtRp2048
(dp2049
g61
(dp2050
g81
g82
ssg70
g2044
sg63
(lp2051
S'function'
p2052
asbag56
(g77
g58
NtRp2053
(dp2054
g61
(dp2055
g88
g89
ssg70
g2044
sg63
(lp2056
S':'
asbag56
(g77
g58
NtRp2057
(dp2058
g61
(dp2059
sg70
g2044
sg63
(lp2060
g56
(g57
g58
NtRp2061
(dp2062
g61
(dp2063
g69
I5
ssg70
g2057
sg63
(lp2064
S'detalhes'
p2065
asbasbasbag56
(g72
g58
NtRp2066
(dp2067
g61
(dp2068
sg70
g66
sg63
(lp2069
g56
(g77
g58
NtRp2070
(dp2071
g61
(dp2072
g81
g82
ssg70
g2066
sg63
(lp2073
S'get_vars'
p2074
asbag56
(g77
g58
NtRp2075
(dp2076
g61
(dp2077
g88
g89
ssg70
g2066
sg63
(lp2078
S':'
asbag56
(g77
g58
NtRp2079
(dp2080
g61
(dp2081
sg70
g2066
sg63
(lp2082
g56
(g57
g58
NtRp2083
(dp2084
g61
(dp2085
g69
I5
ssg70
g2079
sg63
(lp2086
g56
(g65
g58
NtRp2087
(dp2088
g61
(dp2089
g69
I4
ssg70
Nsg63
(lp2090
sbasbasbasbag56
(g72
g58
NtRp2091
(dp2092
g61
(dp2093
sg70
g66
sg63
(lp2094
g56
(g77
g58
NtRp2095
(dp2096
g61
(dp2097
g81
g82
ssg70
g2091
sg63
(lp2098
S'is_https'
p2099
asbag56
(g77
g58
NtRp2100
(dp2101
g61
(dp2102
g88
g89
ssg70
g2091
sg63
(lp2103
S':'
asbag56
(g77
g58
NtRp2104
(dp2105
g61
(dp2106
sg70
g2091
sg63
(lp2107
g56
(g57
g58
NtRp2108
(dp2109
g61
(dp2110
g69
I5
ssg70
g2104
sg63
(lp2111
g99
asbasbasbag56
(g72
g58
NtRp2112
(dp2113
g61
(dp2114
sg70
g66
sg63
(lp2115
g56
(g77
g58
NtRp2116
(dp2117
g61
(dp2118
g81
g82
ssg70
g2112
sg63
(lp2119
S'is_local'
p2120
asbag56
(g77
g58
NtRp2121
(dp2122
g61
(dp2123
g88
g89
ssg70
g2112
sg63
(lp2124
S':'
asbag56
(g77
g58
NtRp2125
(dp2126
g61
(dp2127
sg70
g2112
sg63
(lp2128
g56
(g57
g58
NtRp2129
(dp2130
g61
(dp2131
g69
I5
ssg70
g2125
sg63
(lp2132
g99
asbasbasbag56
(g72
g58
NtRp2133
(dp2134
g61
(dp2135
sg70
g66
sg63
(lp2136
g56
(g77
g58
NtRp2137
(dp2138
g61
(dp2139
g81
g82
ssg70
g2133
sg63
(lp2140
S'is_restful'
p2141
asbag56
(g77
g58
NtRp2142
(dp2143
g61
(dp2144
g88
g89
ssg70
g2133
sg63
(lp2145
S':'
asbag56
(g77
g58
NtRp2146
(dp2147
g61
(dp2148
sg70
g2133
sg63
(lp2149
g56
(g57
g58
NtRp2150
(dp2151
g61
(dp2152
g69
I5
ssg70
g2146
sg63
(lp2153
g771
asbasbasbag56
(g72
g58
NtRp2154
(dp2155
g61
(dp2156
sg70
g66
sg63
(lp2157
g56
(g77
g58
NtRp2158
(dp2159
g61
(dp2160
g81
g82
ssg70
g2154
sg63
(lp2161
S'now'
p2162
asbag56
(g77
g58
NtRp2163
(dp2164
g61
(dp2165
g88
g89
ssg70
g2154
sg63
(lp2166
S':'
asbag56
(g77
g58
NtRp2167
(dp2168
g61
(dp2169
sg70
g2154
sg63
(lp2170
g56
(g57
g58
NtRp2171
(dp2172
g61
(dp2173
g69
I5
ssg70
g2167
sg63
(lp2174
S'datetime.datetime(2011, 9, 12, 17, 26, 44, 50433)'
p2175
asbasbasbag56
(g72
g58
NtRp2176
(dp2177
g61
(dp2178
sg70
g66
sg63
(lp2179
g56
(g77
g58
NtRp2180
(dp2181
g61
(dp2182
g81
g82
ssg70
g2176
sg63
(lp2183
S'post_vars'
p2184
asbag56
(g77
g58
NtRp2185
(dp2186
g61
(dp2187
g88
g89
ssg70
g2176
sg63
(lp2188
S':'
asbag56
(g77
g58
NtRp2189
(dp2190
g61
(dp2191
sg70
g2176
sg63
(lp2192
g56
(g57
g58
NtRp2193
(dp2194
g61
(dp2195
g69
I5
ssg70
g2189
sg63
(lp2196
g56
(g65
g58
NtRp2197
(dp2198
g61
(dp2199
g69
I4
ssg70
Nsg63
(lp2200
g56
(g72
g58
NtRp2201
(dp2202
g61
(dp2203
sg70
g2197
sg63
(lp2204
g56
(g77
g58
NtRp2205
(dp2206
g61
(dp2207
g81
g82
ssg70
g2201
sg63
(lp2208
S'dt_1'
p2209
asbag56
(g77
g58
NtRp2210
(dp2211
g61
(dp2212
g88
g89
ssg70
g2201
sg63
(lp2213
S':'
asbag56
(g77
g58
NtRp2214
(dp2215
g61
(dp2216
sg70
g2201
sg63
(lp2217
g56
(g57
g58
NtRp2218
(dp2219
g61
(dp2220
g69
I4
ssg70
g2214
sg63
(lp2221
S'sprint.id.1'
p2222
asbasbasbag56
(g72
g58
NtRp2223
(dp2224
g61
(dp2225
sg70
g2197
sg63
(lp2226
g56
(g77
g58
NtRp2227
(dp2228
g61
(dp2229
g81
g82
ssg70
g2223
sg63
(lp2230
S'dtcols_1'
p2231
asbag56
(g77
g58
NtRp2232
(dp2233
g61
(dp2234
g88
g89
ssg70
g2223
sg63
(lp2235
S':'
asbag56
(g77
g58
NtRp2236
(dp2237
g61
(dp2238
sg70
g2223
sg63
(lp2239
g56
(g57
g58
NtRp2240
(dp2241
g61
(dp2242
g69
I4
ssg70
g2236
sg63
(lp2243
S'ticket.id,                                                        ticket.chamado,                                                        ticket.analista,                                                        ticket.cliente'
p2244
asbasbasbasbasbasbasbag56
(g72
g58
NtRp2245
(dp2246
g61
(dp2247
sg70
g66
sg63
(lp2248
g56
(g77
g58
NtRp2249
(dp2250
g61
(dp2251
g81
g82
ssg70
g2245
sg63
(lp2252
S'url'
p2253
asbag56
(g77
g58
NtRp2254
(dp2255
g61
(dp2256
g88
g89
ssg70
g2245
sg63
(lp2257
S':'
asbag56
(g77
g58
NtRp2258
(dp2259
g61
(dp2260
sg70
g2245
sg63
(lp2261
g56
(g57
g58
NtRp2262
(dp2263
g61
(dp2264
g69
I5
ssg70
g2258
sg63
(lp2265
S'/scrum/sprint/detalhes'
p2266
asbasbasbag56
(g72
g58
NtRp2267
(dp2268
g61
(dp2269
sg70
g66
sg63
(lp2270
g56
(g77
g58
NtRp2271
(dp2272
g61
(dp2273
g81
g82
ssg70
g2267
sg63
(lp2274
S'uuid'
p2275
asbag56
(g77
g58
NtRp2276
(dp2277
g61
(dp2278
g88
g89
ssg70
g2267
sg63
(lp2279
S':'
asbag56
(g77
g58
NtRp2280
(dp2281
g61
(dp2282
sg70
g2267
sg63
(lp2283
g56
(g57
g58
NtRp2284
(dp2285
g61
(dp2286
g69
I5
ssg70
g2280
sg63
(lp2287
S'scrum/127.0.0.1.2011-09-12.17-26-44.ff70b4a9-114d-4de6-bbba-c1ce2a92b417'
p2288
asbasbasbag56
(g72
g58
NtRp2289
(dp2290
g61
(dp2291
sg70
g66
sg63
(lp2292
g56
(g77
g58
NtRp2293
(dp2294
g61
(dp2295
g81
g82
ssg70
g2289
sg63
(lp2296
S'vars'
p2297
asbag56
(g77
g58
NtRp2298
(dp2299
g61
(dp2300
g88
g89
ssg70
g2289
sg63
(lp2301
S':'
asbag56
(g77
g58
NtRp2302
(dp2303
g61
(dp2304
sg70
g2289
sg63
(lp2305
g56
(g57
g58
NtRp2306
(dp2307
g61
(dp2308
g69
I5
ssg70
g2302
sg63
(lp2309
g56
(g65
g58
NtRp2310
(dp2311
g61
(dp2312
g69
I4
ssg70
Nsg63
(lp2313
g56
(g72
g58
NtRp2314
(dp2315
g61
(dp2316
sg70
g2310
sg63
(lp2317
g56
(g77
g58
NtRp2318
(dp2319
g61
(dp2320
g81
g82
ssg70
g2314
sg63
(lp2321
g2209
asbag56
(g77
g58
NtRp2322
(dp2323
g61
(dp2324
g88
g89
ssg70
g2314
sg63
(lp2325
S':'
asbag56
(g77
g58
NtRp2326
(dp2327
g61
(dp2328
sg70
g2314
sg63
(lp2329
g56
(g57
g58
NtRp2330
(dp2331
g61
(dp2332
g69
I4
ssg70
g2326
sg63
(lp2333
g2222
asbasbasbag56
(g72
g58
NtRp2334
(dp2335
g61
(dp2336
sg70
g2310
sg63
(lp2337
g56
(g77
g58
NtRp2338
(dp2339
g61
(dp2340
g81
g82
ssg70
g2334
sg63
(lp2341
g2231
asbag56
(g77
g58
NtRp2342
(dp2343
g61
(dp2344
g88
g89
ssg70
g2334
sg63
(lp2345
S':'
asbag56
(g77
g58
NtRp2346
(dp2347
g61
(dp2348
sg70
g2334
sg63
(lp2349
g56
(g57
g58
NtRp2350
(dp2351
g61
(dp2352
g69
I4
ssg70
g2346
sg63
(lp2353
g2244
asbasbasbasbasbasbasbag56
(g72
g58
NtRp2354
(dp2355
g61
(dp2356
sg70
g66
sg63
(lp2357
g56
(g77
g58
NtRp2358
(dp2359
g61
(dp2360
g81
g82
ssg70
g2354
sg63
(lp2361
S'wsgi'
p2362
asbag56
(g77
g58
NtRp2363
(dp2364
g61
(dp2365
g88
g89
ssg70
g2354
sg63
(lp2366
S':'
asbag56
(g77
g58
NtRp2367
(dp2368
g61
(dp2369
sg70
g2354
sg63
(lp2370
g56
(g57
g58
NtRp2371
(dp2372
g61
(dp2373
g69
I5
ssg70
g2367
sg63
(lp2374
g56
(g65
g58
NtRp2375
(dp2376
g61
(dp2377
g69
I4
ssg70
Nsg63
(lp2378
g56
(g72
g58
NtRp2379
(dp2380
g61
(dp2381
sg70
g2375
sg63
(lp2382
g56
(g77
g58
NtRp2383
(dp2384
g61
(dp2385
g81
g82
ssg70
g2379
sg63
(lp2386
S'environ'
p2387
asbag56
(g77
g58
NtRp2388
(dp2389
g61
(dp2390
g88
g89
ssg70
g2379
sg63
(lp2391
S':'
asbag56
(g77
g58
NtRp2392
(dp2393
g61
(dp2394
sg70
g2379
sg63
(lp2395
g56
(g57
g58
NtRp2396
(dp2397
g61
(dp2398
g69
I4
ssg70
g2392
sg63
(lp2399
g56
(g65
g58
NtRp2400
(dp2401
g61
(dp2402
g69
I3
ssg70
Nsg63
(lp2403
g56
(g72
g58
NtRp2404
(dp2405
g61
(dp2406
sg70
g2400
sg63
(lp2407
g56
(g77
g58
NtRp2408
(dp2409
g61
(dp2410
g81
g82
ssg70
g2404
sg63
(lp2411
S'CONTENT_LENGTH'
p2412
asbag56
(g77
g58
NtRp2413
(dp2414
g61
(dp2415
g88
g89
ssg70
g2404
sg63
(lp2416
S':'
asbag56
(g77
g58
NtRp2417
(dp2418
g61
(dp2419
sg70
g2404
sg63
(lp2420
g56
(g57
g58
NtRp2421
(dp2422
g61
(dp2423
g69
I3
ssg70
g2417
sg63
(lp2424
g705
asbasbasbag56
(g72
g58
NtRp2425
(dp2426
g61
(dp2427
sg70
g2400
sg63
(lp2428
g56
(g77
g58
NtRp2429
(dp2430
g61
(dp2431
g81
g82
ssg70
g2425
sg63
(lp2432
S'CONTENT_TYPE'
p2433
asbag56
(g77
g58
NtRp2434
(dp2435
g61
(dp2436
g88
g89
ssg70
g2425
sg63
(lp2437
S':'
asbag56
(g77
g58
NtRp2438
(dp2439
g61
(dp2440
sg70
g2425
sg63
(lp2441
g56
(g57
g58
NtRp2442
(dp2443
g61
(dp2444
g69
I3
ssg70
g2438
sg63
(lp2445
g727
asbasbasbag56
(g72
g58
NtRp2446
(dp2447
g61
(dp2448
sg70
g2400
sg63
(lp2449
g56
(g77
g58
NtRp2450
(dp2451
g61
(dp2452
g81
g82
ssg70
g2446
sg63
(lp2453
S'DOCUMENT_ROOT'
p2454
asbag56
(g77
g58
NtRp2455
(dp2456
g61
(dp2457
g88
g89
ssg70
g2446
sg63
(lp2458
S':'
asbag56
(g77
g58
NtRp2459
(dp2460
g61
(dp2461
sg70
g2446
sg63
(lp2462
g56
(g57
g58
NtRp2463
(dp2464
g61
(dp2465
g69
I3
ssg70
g2459
sg63
(lp2466
g793
asbasbasbag56
(g72
g58
NtRp2467
(dp2468
g61
(dp2469
sg70
g2400
sg63
(lp2470
g56
(g77
g58
NtRp2471
(dp2472
g61
(dp2473
g81
g82
ssg70
g2467
sg63
(lp2474
S'GATEWAY_INTERFACE'
p2475
asbag56
(g77
g58
NtRp2476
(dp2477
g61
(dp2478
g88
g89
ssg70
g2467
sg63
(lp2479
S':'
asbag56
(g77
g58
NtRp2480
(dp2481
g61
(dp2482
sg70
g2467
sg63
(lp2483
g56
(g57
g58
NtRp2484
(dp2485
g61
(dp2486
g69
I3
ssg70
g2480
sg63
(lp2487
g815
asbasbasbag56
(g72
g58
NtRp2488
(dp2489
g61
(dp2490
sg70
g2400
sg63
(lp2491
g56
(g77
g58
NtRp2492
(dp2493
g61
(dp2494
g81
g82
ssg70
g2488
sg63
(lp2495
S'HTTPS'
p2496
asbag56
(g77
g58
NtRp2497
(dp2498
g61
(dp2499
g88
g89
ssg70
g2488
sg63
(lp2500
S':'
asbag56
(g77
g58
NtRp2501
(dp2502
g61
(dp2503
sg70
g2488
sg63
(lp2504
g56
(g57
g58
NtRp2505
(dp2506
g61
(dp2507
g69
I3
ssg70
g2501
sg63
(lp2508
S'1'
asbasbasbag56
(g72
g58
NtRp2509
(dp2510
g61
(dp2511
sg70
g2400
sg63
(lp2512
g56
(g77
g58
NtRp2513
(dp2514
g61
(dp2515
g81
g82
ssg70
g2509
sg63
(lp2516
S'HTTP_ACCEPT'
p2517
asbag56
(g77
g58
NtRp2518
(dp2519
g61
(dp2520
g88
g89
ssg70
g2509
sg63
(lp2521
S':'
asbag56
(g77
g58
NtRp2522
(dp2523
g61
(dp2524
sg70
g2509
sg63
(lp2525
g56
(g57
g58
NtRp2526
(dp2527
g61
(dp2528
g69
I3
ssg70
g2522
sg63
(lp2529
g858
asbasbasbag56
(g72
g58
NtRp2530
(dp2531
g61
(dp2532
sg70
g2400
sg63
(lp2533
g56
(g77
g58
NtRp2534
(dp2535
g61
(dp2536
g81
g82
ssg70
g2530
sg63
(lp2537
S'HTTP_ACCEPT_CHARSET'
p2538
asbag56
(g77
g58
NtRp2539
(dp2540
g61
(dp2541
g88
g89
ssg70
g2530
sg63
(lp2542
S':'
asbag56
(g77
g58
NtRp2543
(dp2544
g61
(dp2545
sg70
g2530
sg63
(lp2546
g56
(g57
g58
NtRp2547
(dp2548
g61
(dp2549
g69
I3
ssg70
g2543
sg63
(lp2550
g880
asbasbasbag56
(g72
g58
NtRp2551
(dp2552
g61
(dp2553
sg70
g2400
sg63
(lp2554
g56
(g77
g58
NtRp2555
(dp2556
g61
(dp2557
g81
g82
ssg70
g2551
sg63
(lp2558
S'HTTP_ACCEPT_ENCODING'
p2559
asbag56
(g77
g58
NtRp2560
(dp2561
g61
(dp2562
g88
g89
ssg70
g2551
sg63
(lp2563
S':'
asbag56
(g77
g58
NtRp2564
(dp2565
g61
(dp2566
sg70
g2551
sg63
(lp2567
g56
(g57
g58
NtRp2568
(dp2569
g61
(dp2570
g69
I3
ssg70
g2564
sg63
(lp2571
g902
asbasbasbag56
(g72
g58
NtRp2572
(dp2573
g61
(dp2574
sg70
g2400
sg63
(lp2575
g56
(g77
g58
NtRp2576
(dp2577
g61
(dp2578
g81
g82
ssg70
g2572
sg63
(lp2579
S'HTTP_ACCEPT_LANGUAGE'
p2580
asbag56
(g77
g58
NtRp2581
(dp2582
g61
(dp2583
g88
g89
ssg70
g2572
sg63
(lp2584
S':'
asbag56
(g77
g58
NtRp2585
(dp2586
g61
(dp2587
sg70
g2572
sg63
(lp2588
g56
(g57
g58
NtRp2589
(dp2590
g61
(dp2591
g69
I3
ssg70
g2585
sg63
(lp2592
g924
asbasbasbag56
(g72
g58
NtRp2593
(dp2594
g61
(dp2595
sg70
g2400
sg63
(lp2596
g56
(g77
g58
NtRp2597
(dp2598
g61
(dp2599
g81
g82
ssg70
g2593
sg63
(lp2600
S'HTTP_CACHE_CONTROL'
p2601
asbag56
(g77
g58
NtRp2602
(dp2603
g61
(dp2604
g88
g89
ssg70
g2593
sg63
(lp2605
S':'
asbag56
(g77
g58
NtRp2606
(dp2607
g61
(dp2608
sg70
g2593
sg63
(lp2609
g56
(g57
g58
NtRp2610
(dp2611
g61
(dp2612
g69
I3
ssg70
g2606
sg63
(lp2613
g946
asbasbasbag56
(g72
g58
NtRp2614
(dp2615
g61
(dp2616
sg70
g2400
sg63
(lp2617
g56
(g77
g58
NtRp2618
(dp2619
g61
(dp2620
g81
g82
ssg70
g2614
sg63
(lp2621
S'HTTP_CONNECTION'
p2622
asbag56
(g77
g58
NtRp2623
(dp2624
g61
(dp2625
g88
g89
ssg70
g2614
sg63
(lp2626
S':'
asbag56
(g77
g58
NtRp2627
(dp2628
g61
(dp2629
sg70
g2614
sg63
(lp2630
g56
(g57
g58
NtRp2631
(dp2632
g61
(dp2633
g69
I3
ssg70
g2627
sg63
(lp2634
g968
asbasbasbag56
(g72
g58
NtRp2635
(dp2636
g61
(dp2637
sg70
g2400
sg63
(lp2638
g56
(g77
g58
NtRp2639
(dp2640
g61
(dp2641
g81
g82
ssg70
g2635
sg63
(lp2642
S'HTTP_COOKIE'
p2643
asbag56
(g77
g58
NtRp2644
(dp2645
g61
(dp2646
g88
g89
ssg70
g2635
sg63
(lp2647
S':'
asbag56
(g77
g58
NtRp2648
(dp2649
g61
(dp2650
sg70
g2635
sg63
(lp2651
g56
(g57
g58
NtRp2652
(dp2653
g61
(dp2654
g69
I3
ssg70
g2648
sg63
(lp2655
g990
asbasbasbag56
(g72
g58
NtRp2656
(dp2657
g61
(dp2658
sg70
g2400
sg63
(lp2659
g56
(g77
g58
NtRp2660
(dp2661
g61
(dp2662
g81
g82
ssg70
g2656
sg63
(lp2663
S'HTTP_HOST'
p2664
asbag56
(g77
g58
NtRp2665
(dp2666
g61
(dp2667
g88
g89
ssg70
g2656
sg63
(lp2668
S':'
asbag56
(g77
g58
NtRp2669
(dp2670
g61
(dp2671
sg70
g2656
sg63
(lp2672
g56
(g57
g58
NtRp2673
(dp2674
g61
(dp2675
g69
I3
ssg70
g2669
sg63
(lp2676
g1012
asbasbasbag56
(g72
g58
NtRp2677
(dp2678
g61
(dp2679
sg70
g2400
sg63
(lp2680
g56
(g77
g58
NtRp2681
(dp2682
g61
(dp2683
g81
g82
ssg70
g2677
sg63
(lp2684
S'HTTP_PRAGMA'
p2685
asbag56
(g77
g58
NtRp2686
(dp2687
g61
(dp2688
g88
g89
ssg70
g2677
sg63
(lp2689
S':'
asbag56
(g77
g58
NtRp2690
(dp2691
g61
(dp2692
sg70
g2677
sg63
(lp2693
g56
(g57
g58
NtRp2694
(dp2695
g61
(dp2696
g69
I3
ssg70
g2690
sg63
(lp2697
g1034
asbasbasbag56
(g72
g58
NtRp2698
(dp2699
g61
(dp2700
sg70
g2400
sg63
(lp2701
g56
(g77
g58
NtRp2702
(dp2703
g61
(dp2704
g81
g82
ssg70
g2698
sg63
(lp2705
S'HTTP_REFERER'
p2706
asbag56
(g77
g58
NtRp2707
(dp2708
g61
(dp2709
g88
g89
ssg70
g2698
sg63
(lp2710
S':'
asbag56
(g77
g58
NtRp2711
(dp2712
g61
(dp2713
sg70
g2698
sg63
(lp2714
g56
(g57
g58
NtRp2715
(dp2716
g61
(dp2717
g69
I3
ssg70
g2711
sg63
(lp2718
g1056
asbasbasbag56
(g72
g58
NtRp2719
(dp2720
g61
(dp2721
sg70
g2400
sg63
(lp2722
g56
(g77
g58
NtRp2723
(dp2724
g61
(dp2725
g81
g82
ssg70
g2719
sg63
(lp2726
S'HTTP_USER_AGENT'
p2727
asbag56
(g77
g58
NtRp2728
(dp2729
g61
(dp2730
g88
g89
ssg70
g2719
sg63
(lp2731
S':'
asbag56
(g77
g58
NtRp2732
(dp2733
g61
(dp2734
sg70
g2719
sg63
(lp2735
g56
(g57
g58
NtRp2736
(dp2737
g61
(dp2738
g69
I3
ssg70
g2732
sg63
(lp2739
g1078
asbasbasbag56
(g72
g58
NtRp2740
(dp2741
g61
(dp2742
sg70
g2400
sg63
(lp2743
g56
(g77
g58
NtRp2744
(dp2745
g61
(dp2746
g81
g82
ssg70
g2740
sg63
(lp2747
S'HTTP_X_REQUESTED_WITH'
p2748
asbag56
(g77
g58
NtRp2749
(dp2750
g61
(dp2751
g88
g89
ssg70
g2740
sg63
(lp2752
S':'
asbag56
(g77
g58
NtRp2753
(dp2754
g61
(dp2755
sg70
g2740
sg63
(lp2756
g56
(g57
g58
NtRp2757
(dp2758
g61
(dp2759
g69
I3
ssg70
g2753
sg63
(lp2760
g1100
asbasbasbag56
(g72
g58
NtRp2761
(dp2762
g61
(dp2763
sg70
g2400
sg63
(lp2764
g56
(g77
g58
NtRp2765
(dp2766
g61
(dp2767
g81
g82
ssg70
g2761
sg63
(lp2768
S'PATH_INFO'
p2769
asbag56
(g77
g58
NtRp2770
(dp2771
g61
(dp2772
g88
g89
ssg70
g2761
sg63
(lp2773
S':'
asbag56
(g77
g58
NtRp2774
(dp2775
g61
(dp2776
sg70
g2761
sg63
(lp2777
g56
(g57
g58
NtRp2778
(dp2779
g61
(dp2780
g69
I3
ssg70
g2774
sg63
(lp2781
g1407
asbasbasbag56
(g72
g58
NtRp2782
(dp2783
g61
(dp2784
sg70
g2400
sg63
(lp2785
g56
(g77
g58
NtRp2786
(dp2787
g61
(dp2788
g81
g82
ssg70
g2782
sg63
(lp2789
S'PATH_TRANSLATED'
p2790
asbag56
(g77
g58
NtRp2791
(dp2792
g61
(dp2793
g88
g89
ssg70
g2782
sg63
(lp2794
S':'
asbag56
(g77
g58
NtRp2795
(dp2796
g61
(dp2797
sg70
g2782
sg63
(lp2798
g56
(g57
g58
NtRp2799
(dp2800
g61
(dp2801
g69
I3
ssg70
g2795
sg63
(lp2802
g1429
asbasbasbag56
(g72
g58
NtRp2803
(dp2804
g61
(dp2805
sg70
g2400
sg63
(lp2806
g56
(g77
g58
NtRp2807
(dp2808
g61
(dp2809
g81
g82
ssg70
g2803
sg63
(lp2810
S'QUERY_STRING'
p2811
asbag56
(g77
g58
NtRp2812
(dp2813
g61
(dp2814
g88
g89
ssg70
g2803
sg63
(lp2815
S':'
asbag56
(g77
g58
NtRp2816
(dp2817
g61
(dp2818
sg70
g2803
sg63
(lp2819
g56
(g57
g58
NtRp2820
(dp2821
g61
(dp2822
g69
I3
ssg70
g2816
sg63
(lp2823
S''
asbasbasbag56
(g72
g58
NtRp2824
(dp2825
g61
(dp2826
sg70
g2400
sg63
(lp2827
g56
(g77
g58
NtRp2828
(dp2829
g61
(dp2830
g81
g82
ssg70
g2824
sg63
(lp2831
S'REMOTE_ADDR'
p2832
asbag56
(g77
g58
NtRp2833
(dp2834
g61
(dp2835
g88
g89
ssg70
g2824
sg63
(lp2836
S':'
asbag56
(g77
g58
NtRp2837
(dp2838
g61
(dp2839
sg70
g2824
sg63
(lp2840
g56
(g57
g58
NtRp2841
(dp2842
g61
(dp2843
g69
I3
ssg70
g2837
sg63
(lp2844
g189
asbasbasbag56
(g72
g58
NtRp2845
(dp2846
g61
(dp2847
sg70
g2400
sg63
(lp2848
g56
(g77
g58
NtRp2849
(dp2850
g61
(dp2851
g81
g82
ssg70
g2845
sg63
(lp2852
S'REMOTE_PORT'
p2853
asbag56
(g77
g58
NtRp2854
(dp2855
g61
(dp2856
g88
g89
ssg70
g2845
sg63
(lp2857
S':'
asbag56
(g77
g58
NtRp2858
(dp2859
g61
(dp2860
sg70
g2845
sg63
(lp2861
g56
(g57
g58
NtRp2862
(dp2863
g61
(dp2864
g69
I3
ssg70
g2858
sg63
(lp2865
g1493
asbasbasbag56
(g72
g58
NtRp2866
(dp2867
g61
(dp2868
sg70
g2400
sg63
(lp2869
g56
(g77
g58
NtRp2870
(dp2871
g61
(dp2872
g81
g82
ssg70
g2866
sg63
(lp2873
S'REQUEST_METHOD'
p2874
asbag56
(g77
g58
NtRp2875
(dp2876
g61
(dp2877
g88
g89
ssg70
g2866
sg63
(lp2878
S':'
asbag56
(g77
g58
NtRp2879
(dp2880
g61
(dp2881
sg70
g2866
sg63
(lp2882
g56
(g57
g58
NtRp2883
(dp2884
g61
(dp2885
g69
I3
ssg70
g2879
sg63
(lp2886
g1515
asbasbasbag56
(g72
g58
NtRp2887
(dp2888
g61
(dp2889
sg70
g2400
sg63
(lp2890
g56
(g77
g58
NtRp2891
(dp2892
g61
(dp2893
g81
g82
ssg70
g2887
sg63
(lp2894
S'REQUEST_URI'
p2895
asbag56
(g77
g58
NtRp2896
(dp2897
g61
(dp2898
g88
g89
ssg70
g2887
sg63
(lp2899
S':'
asbag56
(g77
g58
NtRp2900
(dp2901
g61
(dp2902
sg70
g2887
sg63
(lp2903
g56
(g57
g58
NtRp2904
(dp2905
g61
(dp2906
g69
I3
ssg70
g2900
sg63
(lp2907
g1537
asbasbasbag56
(g72
g58
NtRp2908
(dp2909
g61
(dp2910
sg70
g2400
sg63
(lp2911
g56
(g77
g58
NtRp2912
(dp2913
g61
(dp2914
g81
g82
ssg70
g2908
sg63
(lp2915
S'SCRIPT_FILENAME'
p2916
asbag56
(g77
g58
NtRp2917
(dp2918
g61
(dp2919
g88
g89
ssg70
g2908
sg63
(lp2920
S':'
asbag56
(g77
g58
NtRp2921
(dp2922
g61
(dp2923
sg70
g2908
sg63
(lp2924
g56
(g57
g58
NtRp2925
(dp2926
g61
(dp2927
g69
I3
ssg70
g2921
sg63
(lp2928
g1559
asbasbasbag56
(g72
g58
NtRp2929
(dp2930
g61
(dp2931
sg70
g2400
sg63
(lp2932
g56
(g77
g58
NtRp2933
(dp2934
g61
(dp2935
g81
g82
ssg70
g2929
sg63
(lp2936
S'SCRIPT_NAME'
p2937
asbag56
(g77
g58
NtRp2938
(dp2939
g61
(dp2940
g88
g89
ssg70
g2929
sg63
(lp2941
S':'
asbag56
(g77
g58
NtRp2942
(dp2943
g61
(dp2944
sg70
g2929
sg63
(lp2945
g56
(g57
g58
NtRp2946
(dp2947
g61
(dp2948
g69
I3
ssg70
g2942
sg63
(lp2949
S''
asbasbasbag56
(g72
g58
NtRp2950
(dp2951
g61
(dp2952
sg70
g2400
sg63
(lp2953
g56
(g77
g58
NtRp2954
(dp2955
g61
(dp2956
g81
g82
ssg70
g2950
sg63
(lp2957
S'SERVER_ADDR'
p2958
asbag56
(g77
g58
NtRp2959
(dp2960
g61
(dp2961
g88
g89
ssg70
g2950
sg63
(lp2962
S':'
asbag56
(g77
g58
NtRp2963
(dp2964
g61
(dp2965
sg70
g2950
sg63
(lp2966
g56
(g57
g58
NtRp2967
(dp2968
g61
(dp2969
g69
I3
ssg70
g2963
sg63
(lp2970
g1602
asbasbasbag56
(g72
g58
NtRp2971
(dp2972
g61
(dp2973
sg70
g2400
sg63
(lp2974
g56
(g77
g58
NtRp2975
(dp2976
g61
(dp2977
g81
g82
ssg70
g2971
sg63
(lp2978
S'SERVER_ADMIN'
p2979
asbag56
(g77
g58
NtRp2980
(dp2981
g61
(dp2982
g88
g89
ssg70
g2971
sg63
(lp2983
S':'
asbag56
(g77
g58
NtRp2984
(dp2985
g61
(dp2986
sg70
g2971
sg63
(lp2987
g56
(g57
g58
NtRp2988
(dp2989
g61
(dp2990
g69
I3
ssg70
g2984
sg63
(lp2991
g1624
asbasbasbag56
(g72
g58
NtRp2992
(dp2993
g61
(dp2994
sg70
g2400
sg63
(lp2995
g56
(g77
g58
NtRp2996
(dp2997
g61
(dp2998
g81
g82
ssg70
g2992
sg63
(lp2999
S'SERVER_NAME'
p3000
asbag56
(g77
g58
NtRp3001
(dp3002
g61
(dp3003
g88
g89
ssg70
g2992
sg63
(lp3004
S':'
asbag56
(g77
g58
NtRp3005
(dp3006
g61
(dp3007
sg70
g2992
sg63
(lp3008
g56
(g57
g58
NtRp3009
(dp3010
g61
(dp3011
g69
I3
ssg70
g3005
sg63
(lp3012
g1646
asbasbasbag56
(g72
g58
NtRp3013
(dp3014
g61
(dp3015
sg70
g2400
sg63
(lp3016
g56
(g77
g58
NtRp3017
(dp3018
g61
(dp3019
g81
g82
ssg70
g3013
sg63
(lp3020
S'SERVER_PORT'
p3021
asbag56
(g77
g58
NtRp3022
(dp3023
g61
(dp3024
g88
g89
ssg70
g3013
sg63
(lp3025
S':'
asbag56
(g77
g58
NtRp3026
(dp3027
g61
(dp3028
sg70
g3013
sg63
(lp3029
g56
(g57
g58
NtRp3030
(dp3031
g61
(dp3032
g69
I3
ssg70
g3026
sg63
(lp3033
g1668
asbasbasbag56
(g72
g58
NtRp3034
(dp3035
g61
(dp3036
sg70
g2400
sg63
(lp3037
g56
(g77
g58
NtRp3038
(dp3039
g61
(dp3040
g81
g82
ssg70
g3034
sg63
(lp3041
S'SERVER_PROTOCOL'
p3042
asbag56
(g77
g58
NtRp3043
(dp3044
g61
(dp3045
g88
g89
ssg70
g3034
sg63
(lp3046
S':'
asbag56
(g77
g58
NtRp3047
(dp3048
g61
(dp3049
sg70
g3034
sg63
(lp3050
g56
(g57
g58
NtRp3051
(dp3052
g61
(dp3053
g69
I3
ssg70
g3047
sg63
(lp3054
g1690
asbasbasbag56
(g72
g58
NtRp3055
(dp3056
g61
(dp3057
sg70
g2400
sg63
(lp3058
g56
(g77
g58
NtRp3059
(dp3060
g61
(dp3061
g81
g82
ssg70
g3055
sg63
(lp3062
S'SERVER_SIGNATURE'
p3063
asbag56
(g77
g58
NtRp3064
(dp3065
g61
(dp3066
g88
g89
ssg70
g3055
sg63
(lp3067
S':'
asbag56
(g77
g58
NtRp3068
(dp3069
g61
(dp3070
sg70
g3055
sg63
(lp3071
g56
(g57
g58
NtRp3072
(dp3073
g61
(dp3074
g69
I3
ssg70
g3068
sg63
(lp3075
g1712
asbasbasbag56
(g72
g58
NtRp3076
(dp3077
g61
(dp3078
sg70
g2400
sg63
(lp3079
g56
(g77
g58
NtRp3080
(dp3081
g61
(dp3082
g81
g82
ssg70
g3076
sg63
(lp3083
S'SERVER_SOFTWARE'
p3084
asbag56
(g77
g58
NtRp3085
(dp3086
g61
(dp3087
g88
g89
ssg70
g3076
sg63
(lp3088
S':'
asbag56
(g77
g58
NtRp3089
(dp3090
g61
(dp3091
sg70
g3076
sg63
(lp3092
g56
(g57
g58
NtRp3093
(dp3094
g61
(dp3095
g69
I3
ssg70
g3089
sg63
(lp3096
g1734
asbasbasbag56
(g72
g58
NtRp3097
(dp3098
g61
(dp3099
sg70
g2400
sg63
(lp3100
g56
(g77
g58
NtRp3101
(dp3102
g61
(dp3103
g81
g82
ssg70
g3097
sg63
(lp3104
S'SSL_TLS_SNI'
p3105
asbag56
(g77
g58
NtRp3106
(dp3107
g61
(dp3108
g88
g89
ssg70
g3097
sg63
(lp3109
S':'
asbag56
(g77
g58
NtRp3110
(dp3111
g61
(dp3112
sg70
g3097
sg63
(lp3113
g56
(g57
g58
NtRp3114
(dp3115
g61
(dp3116
g69
I3
ssg70
g3110
sg63
(lp3117
g1756
asbasbasbag56
(g72
g58
NtRp3118
(dp3119
g61
(dp3120
sg70
g2400
sg63
(lp3121
g56
(g77
g58
NtRp3122
(dp3123
g61
(dp3124
g81
g82
ssg70
g3118
sg63
(lp3125
S'mod_wsgi.application_group'
p3126
asbag56
(g77
g58
NtRp3127
(dp3128
g61
(dp3129
g88
g89
ssg70
g3118
sg63
(lp3130
S':'
asbag56
(g77
g58
NtRp3131
(dp3132
g61
(dp3133
sg70
g3118
sg63
(lp3134
g56
(g57
g58
NtRp3135
(dp3136
g61
(dp3137
g69
I3
ssg70
g3131
sg63
(lp3138
g1164
asbasbasbag56
(g72
g58
NtRp3139
(dp3140
g61
(dp3141
sg70
g2400
sg63
(lp3142
g56
(g77
g58
NtRp3143
(dp3144
g61
(dp3145
g81
g82
ssg70
g3139
sg63
(lp3146
S'mod_wsgi.callable_object'
p3147
asbag56
(g77
g58
NtRp3148
(dp3149
g61
(dp3150
g88
g89
ssg70
g3139
sg63
(lp3151
S':'
asbag56
(g77
g58
NtRp3152
(dp3153
g61
(dp3154
sg70
g3139
sg63
(lp3155
g56
(g57
g58
NtRp3156
(dp3157
g61
(dp3158
g69
I3
ssg70
g3152
sg63
(lp3159
g1186
asbasbasbag56
(g72
g58
NtRp3160
(dp3161
g61
(dp3162
sg70
g2400
sg63
(lp3163
g56
(g77
g58
NtRp3164
(dp3165
g61
(dp3166
g81
g82
ssg70
g3160
sg63
(lp3167
S'mod_wsgi.handler_script'
p3168
asbag56
(g77
g58
NtRp3169
(dp3170
g61
(dp3171
g88
g89
ssg70
g3160
sg63
(lp3172
S':'
asbag56
(g77
g58
NtRp3173
(dp3174
g61
(dp3175
sg70
g3160
sg63
(lp3176
g56
(g57
g58
NtRp3177
(dp3178
g61
(dp3179
g69
I3
ssg70
g3173
sg63
(lp3180
S''
asbasbasbag56
(g72
g58
NtRp3181
(dp3182
g61
(dp3183
sg70
g2400
sg63
(lp3184
g56
(g77
g58
NtRp3185
(dp3186
g61
(dp3187
g81
g82
ssg70
g3181
sg63
(lp3188
S'mod_wsgi.input_chunked'
p3189
asbag56
(g77
g58
NtRp3190
(dp3191
g61
(dp3192
g88
g89
ssg70
g3181
sg63
(lp3193
S':'
asbag56
(g77
g58
NtRp3194
(dp3195
g61
(dp3196
sg70
g3181
sg63
(lp3197
g56
(g57
g58
NtRp3198
(dp3199
g61
(dp3200
g69
I3
ssg70
g3194
sg63
(lp3201
S'0'
asbasbasbag56
(g72
g58
NtRp3202
(dp3203
g61
(dp3204
sg70
g2400
sg63
(lp3205
g56
(g77
g58
NtRp3206
(dp3207
g61
(dp3208
g81
g82
ssg70
g3202
sg63
(lp3209
S'mod_wsgi.listener_host'
p3210
asbag56
(g77
g58
NtRp3211
(dp3212
g61
(dp3213
g88
g89
ssg70
g3202
sg63
(lp3214
S':'
asbag56
(g77
g58
NtRp3215
(dp3216
g61
(dp3217
sg70
g3202
sg63
(lp3218
g56
(g57
g58
NtRp3219
(dp3220
g61
(dp3221
g69
I3
ssg70
g3215
sg63
(lp3222
S''
asbasbasbag56
(g72
g58
NtRp3223
(dp3224
g61
(dp3225
sg70
g2400
sg63
(lp3226
g56
(g77
g58
NtRp3227
(dp3228
g61
(dp3229
g81
g82
ssg70
g3223
sg63
(lp3230
S'mod_wsgi.listener_port'
p3231
asbag56
(g77
g58
NtRp3232
(dp3233
g61
(dp3234
g88
g89
ssg70
g3223
sg63
(lp3235
S':'
asbag56
(g77
g58
NtRp3236
(dp3237
g61
(dp3238
sg70
g3223
sg63
(lp3239
g56
(g57
g58
NtRp3240
(dp3241
g61
(dp3242
g69
I3
ssg70
g3236
sg63
(lp3243
g1271
asbasbasbag56
(g72
g58
NtRp3244
(dp3245
g61
(dp3246
sg70
g2400
sg63
(lp3247
g56
(g77
g58
NtRp3248
(dp3249
g61
(dp3250
g81
g82
ssg70
g3244
sg63
(lp3251
S'mod_wsgi.process_group'
p3252
asbag56
(g77
g58
NtRp3253
(dp3254
g61
(dp3255
g88
g89
ssg70
g3244
sg63
(lp3256
S':'
asbag56
(g77
g58
NtRp3257
(dp3258
g61
(dp3259
sg70
g3244
sg63
(lp3260
g56
(g57
g58
NtRp3261
(dp3262
g61
(dp3263
g69
I3
ssg70
g3257
sg63
(lp3264
g1293
asbasbasbag56
(g72
g58
NtRp3265
(dp3266
g61
(dp3267
sg70
g2400
sg63
(lp3268
g56
(g77
g58
NtRp3269
(dp3270
g61
(dp3271
g81
g82
ssg70
g3265
sg63
(lp3272
S'mod_wsgi.request_handler'
p3273
asbag56
(g77
g58
NtRp3274
(dp3275
g61
(dp3276
g88
g89
ssg70
g3265
sg63
(lp3277
S':'
asbag56
(g77
g58
NtRp3278
(dp3279
g61
(dp3280
sg70
g3265
sg63
(lp3281
g56
(g57
g58
NtRp3282
(dp3283
g61
(dp3284
g69
I3
ssg70
g3278
sg63
(lp3285
g1315
asbasbasbag56
(g72
g58
NtRp3286
(dp3287
g61
(dp3288
sg70
g2400
sg63
(lp3289
g56
(g77
g58
NtRp3290
(dp3291
g61
(dp3292
g81
g82
ssg70
g3286
sg63
(lp3293
S'mod_wsgi.script_reloading'
p3294
asbag56
(g77
g58
NtRp3295
(dp3296
g61
(dp3297
g88
g89
ssg70
g3286
sg63
(lp3298
S':'
asbag56
(g77
g58
NtRp3299
(dp3300
g61
(dp3301
sg70
g3286
sg63
(lp3302
g56
(g57
g58
NtRp3303
(dp3304
g61
(dp3305
g69
I3
ssg70
g3299
sg63
(lp3306
S'1'
asbasbasbag56
(g72
g58
NtRp3307
(dp3308
g61
(dp3309
sg70
g2400
sg63
(lp3310
g56
(g77
g58
NtRp3311
(dp3312
g61
(dp3313
g81
g82
ssg70
g3307
sg63
(lp3314
S'mod_wsgi.version'
p3315
asbag56
(g77
g58
NtRp3316
(dp3317
g61
(dp3318
g88
g89
ssg70
g3307
sg63
(lp3319
S':'
asbag56
(g77
g58
NtRp3320
(dp3321
g61
(dp3322
sg70
g3307
sg63
(lp3323
g56
(g57
g58
NtRp3324
(dp3325
g61
(dp3326
g69
I3
ssg70
g3320
sg63
(lp3327
g56
(g65
g58
NtRp3328
(dp3329
g61
(dp3330
g69
I2
ssg70
Nsg63
(lp3331
g56
(g72
g58
NtRp3332
(dp3333
g61
(dp3334
sg70
g3328
sg63
(lp3335
g56
(g77
g58
NtRp3336
(dp3337
g61
(dp3338
sg70
g3332
sg63
(lp3339
g56
(g57
g58
NtRp3340
(dp3341
g61
(dp3342
g69
I2
ssg70
g3336
sg63
(lp3343
S'3'
asbasbasbag56
(g72
g58
NtRp3344
(dp3345
g61
(dp3346
sg70
g3328
sg63
(lp3347
g56
(g77
g58
NtRp3348
(dp3349
g61
(dp3350
sg70
g3344
sg63
(lp3351
g56
(g57
g58
NtRp3352
(dp3353
g61
(dp3354
g69
I2
ssg70
g3348
sg63
(lp3355
S'3'
asbasbasbasbasbasbasbag56
(g72
g58
NtRp3356
(dp3357
g61
(dp3358
sg70
g2400
sg63
(lp3359
g56
(g77
g58
NtRp3360
(dp3361
g61
(dp3362
g81
g82
ssg70
g3356
sg63
(lp3363
S'wsgi.errors'
p3364
asbag56
(g77
g58
NtRp3365
(dp3366
g61
(dp3367
g88
g89
ssg70
g3356
sg63
(lp3368
S':'
asbag56
(g77
g58
NtRp3369
(dp3370
g61
(dp3371
sg70
g3356
sg63
(lp3372
g56
(g57
g58
NtRp3373
(dp3374
g61
(dp3375
g69
I3
ssg70
g3369
sg63
(lp3376
S'<mod_wsgi.Log object at 0xb954a598>'
p3377
asbasbasbag56
(g72
g58
NtRp3378
(dp3379
g61
(dp3380
sg70
g2400
sg63
(lp3381
g56
(g77
g58
NtRp3382
(dp3383
g61
(dp3384
g81
g82
ssg70
g3378
sg63
(lp3385
S'wsgi.file_wrapper'
p3386
asbag56
(g77
g58
NtRp3387
(dp3388
g61
(dp3389
g88
g89
ssg70
g3378
sg63
(lp3390
S':'
asbag56
(g77
g58
NtRp3391
(dp3392
g61
(dp3393
sg70
g3378
sg63
(lp3394
g56
(g57
g58
NtRp3395
(dp3396
g61
(dp3397
g69
I3
ssg70
g3391
sg63
(lp3398
S'<built-in method file_wrapper of mod_wsgi.Adapter object at 0xb98dd9f8>'
p3399
asbasbasbag56
(g72
g58
NtRp3400
(dp3401
g61
(dp3402
sg70
g2400
sg63
(lp3403
g56
(g77
g58
NtRp3404
(dp3405
g61
(dp3406
g81
g82
ssg70
g3400
sg63
(lp3407
S'wsgi.input'
p3408
asbag56
(g77
g58
NtRp3409
(dp3410
g61
(dp3411
g88
g89
ssg70
g3400
sg63
(lp3412
S':'
asbag56
(g77
g58
NtRp3413
(dp3414
g61
(dp3415
sg70
g3400
sg63
(lp3416
g56
(g57
g58
NtRp3417
(dp3418
g61
(dp3419
g69
I3
ssg70
g3413
sg63
(lp3420
S"<open file '<fdopen>', mode 'w+b' at 0xb98c9e38>"
p3421
asbasbasbag56
(g72
g58
NtRp3422
(dp3423
g61
(dp3424
sg70
g2400
sg63
(lp3425
g56
(g77
g58
NtRp3426
(dp3427
g61
(dp3428
g81
g82
ssg70
g3422
sg63
(lp3429
S'wsgi.multiprocess'
p3430
asbag56
(g77
g58
NtRp3431
(dp3432
g61
(dp3433
g88
g89
ssg70
g3422
sg63
(lp3434
S':'
asbag56
(g77
g58
NtRp3435
(dp3436
g61
(dp3437
sg70
g3422
sg63
(lp3438
g56
(g57
g58
NtRp3439
(dp3440
g61
(dp3441
g69
I3
ssg70
g3435
sg63
(lp3442
g771
asbasbasbag56
(g72
g58
NtRp3443
(dp3444
g61
(dp3445
sg70
g2400
sg63
(lp3446
g56
(g77
g58
NtRp3447
(dp3448
g61
(dp3449
g81
g82
ssg70
g3443
sg63
(lp3450
S'wsgi.multithread'
p3451
asbag56
(g77
g58
NtRp3452
(dp3453
g61
(dp3454
g88
g89
ssg70
g3443
sg63
(lp3455
S':'
asbag56
(g77
g58
NtRp3456
(dp3457
g61
(dp3458
sg70
g3443
sg63
(lp3459
g56
(g57
g58
NtRp3460
(dp3461
g61
(dp3462
g69
I3
ssg70
g3456
sg63
(lp3463
g99
asbasbasbag56
(g72
g58
NtRp3464
(dp3465
g61
(dp3466
sg70
g2400
sg63
(lp3467
g56
(g77
g58
NtRp3468
(dp3469
g61
(dp3470
g81
g82
ssg70
g3464
sg63
(lp3471
S'wsgi.run_once'
p3472
asbag56
(g77
g58
NtRp3473
(dp3474
g61
(dp3475
g88
g89
ssg70
g3464
sg63
(lp3476
S':'
asbag56
(g77
g58
NtRp3477
(dp3478
g61
(dp3479
sg70
g3464
sg63
(lp3480
g56
(g57
g58
NtRp3481
(dp3482
g61
(dp3483
g69
I3
ssg70
g3477
sg63
(lp3484
g771
asbasbasbag56
(g72
g58
NtRp3485
(dp3486
g61
(dp3487
sg70
g2400
sg63
(lp3488
g56
(g77
g58
NtRp3489
(dp3490
g61
(dp3491
g81
g82
ssg70
g3485
sg63
(lp3492
S'wsgi.url_scheme'
p3493
asbag56
(g77
g58
NtRp3494
(dp3495
g61
(dp3496
g88
g89
ssg70
g3485
sg63
(lp3497
S':'
asbag56
(g77
g58
NtRp3498
(dp3499
g61
(dp3500
sg70
g3485
sg63
(lp3501
g56
(g57
g58
NtRp3502
(dp3503
g61
(dp3504
g69
I3
ssg70
g3498
sg63
(lp3505
g1950
asbasbasbag56
(g72
g58
NtRp3506
(dp3507
g61
(dp3508
sg70
g2400
sg63
(lp3509
g56
(g77
g58
NtRp3510
(dp3511
g61
(dp3512
g81
g82
ssg70
g3506
sg63
(lp3513
S'wsgi.version'
p3514
asbag56
(g77
g58
NtRp3515
(dp3516
g61
(dp3517
g88
g89
ssg70
g3506
sg63
(lp3518
S':'
asbag56
(g77
g58
NtRp3519
(dp3520
g61
(dp3521
sg70
g3506
sg63
(lp3522
g56
(g57
g58
NtRp3523
(dp3524
g61
(dp3525
g69
I3
ssg70
g3519
sg63
(lp3526
S'1'
asbasbasbasbasbasbasbasbasbasbasbasbasbsS'frames'
p3527
(lp3528
(dp3529
S'file'
p3530
S'/home/www-data/web2py/gluon/restricted.py'
p3531
sS'dump'
p3532
(dp3533
S'environment'
p3534
S"{'A': <class 'gluon.html.A'>, 'Auth': <class 'gluon.tools.Auth'>, 'B': <class 'gluon.html.B'>, 'BEAUTIFY': <class 'gluon.html.BEAUTIFY'>, 'BODY': <class 'gluon.html.BODY'>, 'BR': <class 'gluon.html.BR'>, 'BRAZILIAN_DATE': <gluon.validators.IS_DATE object>, 'BUTTON': <class 'gluon.html.BUTTON'>, 'CAT': <class 'gluon.html.CAT'>, 'CENTER': <class 'gluon.html.CENTER'>, ...}"
p3535
sS'ccode'
p3536
S'<code object <module> at 0xb953ed58, file "/home...pplications/scrum/controllers/sprint.py", line 3>'
p3537
ssS'lnum'
p3538
I192
sS'lines'
p3539
(dp3540
I192
S'        exec ccode in environment'
p3541
sI193
S'    except HTTP:'
p3542
sI194
S'        raise'
p3543
sI195
S'    except Exception, error:'
p3544
sI196
S'        # XXX Show exception in Wing IDE if running in debugger'
p3545
sI187
S'    try:'
p3546
sI188
S'        if type(code) == types.CodeType:'
p3547
sI189
S'            ccode = code'
p3548
sI190
S'        else:'
p3549
sI191
S'            ccode = compile2(code,layer)'
p3550
ssS'call'
p3551
S'(code="# coding: utf8\\n\\n@auth.requires_login()\\ndef index...els\')\\n\\nresponse._vars=response._caller(detalhes)\\n", environment={\'A\': <class \'gluon.html.A\'>, \'Auth\': <class \'gluon.tools.Auth\'>, \'B\': <class \'gluon.html.B\'>, \'BEAUTIFY\': <class \'gluon.html.BEAUTIFY\'>, \'BODY\': <class \'gluon.html.BODY\'>, \'BR\': <class \'gluon.html.BR\'>, \'BRAZILIAN_DATE\': <gluon.validators.IS_DATE object>, \'BUTTON\': <class \'gluon.html.BUTTON\'>, \'CAT\': <class \'gluon.html.CAT\'>, \'CENTER\': <class \'gluon.html.CENTER\'>, ...}, layer=\'/home/www-data/web2py/applications/scrum/controllers/sprint.py\')'
p3552
sS'func'
p3553
S'restricted'
p3554
sa(dp3555
g3530
S'/home/www-data/web2py/applications/scrum/controllers/sprint.py'
p3556
sg3532
(dp3557
sg3538
I55
sg3539
(dp3558
I44
S'            cols = request.vars[k]'
p3559
sI45
S''
sI46
S'    #vars to work'
p3560
sI47
S"    tablename = key.split('.')[0]"
p3561
sI48
S"    fieldname = key.split('.')[1]"
p3562
sI49
S"    value = key.split('.')[2]"
p3563
sI50
S''
sI51
S'    tickets = db(db.ticket.sprint == value).select(db.ticket.chamado, db.ticket.analista, db.ticket.cliente.nome)'
p3564
sI52
S'    #return SQLTABLE(tickets)'
p3565
sI53
S"    return SQLTABLE(tickets,headers='labels')"
p3566
ssg3551
S'()'
p3567
sg3553
S'<module>'
p3568
sa(dp3569
g3530
S'/home/www-data/web2py/gluon/globals.py'
p3570
sg3532
(dp3571
S'self'
p3572
S'undefined'
p3573
sS'f'
S'<function detalhes>'
p3574
ssg3538
I145
sg3539
(dp3575
I140
S'        self.meta = Storage()      # used by web2py_ajax.html'
p3576
sI141
S'        self.menu = []             # used by the default view layout'
p3577
sI142
S'        self.files = []            # used by web2py_ajax.html'
p3578
sI143
S'        self.generic_patterns = [] # patterns to allow generic views'
p3579
sI144
S'        self._vars = None'
p3580
sI145
S'        self._caller = lambda f: f()'
p3581
sI146
S'        self._view_environment = None'
p3582
sI147
S'        self._custom_commit = None'
p3583
sI148
S'        self._custom_rollback = None'
p3584
sI149
S''
ssg3551
S'(f=<function detalhes>)'
p3585
sg3553
S'<lambda>'
p3586
sa(dp3587
g3530
S'/home/www-data/web2py/gluon/tools.py'
p3588
sg3532
(dp3589
S'action'
p3590
S'<function detalhes>'
p3591
sS'a'
S'()'
p3592
sS'b'
g44
ssg3538
I2462
sg3539
(dp3593
I2464
S'            f.__name__ = action.__name__'
p3594
sI2465
S'            f.__dict__.update(action.__dict__)'
p3595
sI2466
S'            return f'
p3596
sI2457
S'                    current.session.flash = current.response.flash'
p3597
sI2458
S'                    return call_or_redirect('
p3598
sI2459
S'                        self.settings.on_failed_authentication,'
p3599
sI2460
S"                        self.settings.login_url + '?_next='+urllib.quote(next)"
p3600
sI2461
S'                        )'
p3601
sI2462
S'                return action(*a, **b)'
p3602
sI2463
S'            f.__doc__ = action.__doc__'
p3603
ssg3551
S'(*a=(), **b={})'
p3604
sg3553
S'f'
sa(dp3605
g3530
S'/home/www-data/web2py/applications/scrum/controllers/sprint.py'
p3606
sg3532
(dp3607
S'tickets'
p3608
g3573
sS'db.ticket.cliente'
p3609
S'<gluon.dal.Field object>'
p3610
sS'db.ticket.sprint'
p3611
S'<gluon.dal.Field object>'
p3612
sS'db.ticket.chamado'
p3613
S'<gluon.dal.Field object>'
p3614
sS').select'
p3615
g3573
sS'value'
p3616
S"'1'"
p3617
sS'db.ticket'
p3618
S"<Table {'_db': <DAL {'auth_event': <Table {'orig...liente': <gluon.dal.Field object at 0xb94ad5cc>}>"
p3619
sS'db.ticket.analista'
p3620
S'<gluon.dal.Field object>'
p3621
sS'global db'
p3622
S"<DAL {'auth_event': <Table {'origin': <gluon.dal... 'id': <gluon.dal.Field object at 0xb95c994c>}>}>"
p3623
sS'db.ticket.cliente.nome'
p3624
g3573
ssg3538
I51
sg3539
(dp3625
I44
S'            cols = request.vars[k]'
p3626
sI45
S''
sI46
S'    #vars to work'
p3627
sI47
S"    tablename = key.split('.')[0]"
p3628
sI48
S"    fieldname = key.split('.')[1]"
p3629
sI49
S"    value = key.split('.')[2]"
p3630
sI50
S''
sI51
S'    tickets = db(db.ticket.sprint == value).select(db.ticket.chamado, db.ticket.analista, db.ticket.cliente.nome)'
p3631
sI52
S'    #return SQLTABLE(tickets)'
p3632
sI53
S"    return SQLTABLE(tickets,headers='labels')"
p3633
ssg3551
S'()'
p3634
sg3553
S'detalhes'
p3635
sasS'pyver'
p3636
S'Python 2.7.1+: /usr/bin/python'
p3637
sS'session'
p3638
g56
(g57
g58
NtRp3639
(dp3640
g61
(dp3641
sg63
(lp3642
g56
(g65
g58
NtRp3643
(dp3644
g61
(dp3645
g69
I5
ssg70
Nsg63
(lp3646
g56
(g72
g58
NtRp3647
(dp3648
g61
(dp3649
sg70
g3643
sg63
(lp3650
g56
(g77
g58
NtRp3651
(dp3652
g61
(dp3653
g81
g82
ssg70
g3647
sg63
(lp3654
S'auth'
p3655
asbag56
(g77
g58
NtRp3656
(dp3657
g61
(dp3658
g88
g89
ssg70
g3647
sg63
(lp3659
S':'
asbag56
(g77
g58
NtRp3660
(dp3661
g61
(dp3662
sg70
g3647
sg63
(lp3663
g56
(g57
g58
NtRp3664
(dp3665
g61
(dp3666
g69
I5
ssg70
g3660
sg63
(lp3667
g56
(g65
g58
NtRp3668
(dp3669
g61
(dp3670
g69
I4
ssg70
Nsg63
(lp3671
g56
(g72
g58
NtRp3672
(dp3673
g61
(dp3674
sg70
g3668
sg63
(lp3675
g56
(g77
g58
NtRp3676
(dp3677
g61
(dp3678
g81
g82
ssg70
g3672
sg63
(lp3679
S'expiration'
p3680
asbag56
(g77
g58
NtRp3681
(dp3682
g61
(dp3683
g88
g89
ssg70
g3672
sg63
(lp3684
S':'
asbag56
(g77
g58
NtRp3685
(dp3686
g61
(dp3687
sg70
g3672
sg63
(lp3688
g56
(g57
g58
NtRp3689
(dp3690
g61
(dp3691
g69
I4
ssg70
g3685
sg63
(lp3692
S'2592000'
p3693
asbasbasbag56
(g72
g58
NtRp3694
(dp3695
g61
(dp3696
sg70
g3668
sg63
(lp3697
g56
(g77
g58
NtRp3698
(dp3699
g61
(dp3700
g81
g82
ssg70
g3694
sg63
(lp3701
S'hmac_key'
p3702
asbag56
(g77
g58
NtRp3703
(dp3704
g61
(dp3705
g88
g89
ssg70
g3694
sg63
(lp3706
S':'
asbag56
(g77
g58
NtRp3707
(dp3708
g61
(dp3709
sg70
g3694
sg63
(lp3710
g56
(g57
g58
NtRp3711
(dp3712
g61
(dp3713
g69
I4
ssg70
g3707
sg63
(lp3714
S'0eb5913b-5067-4036-a2e3-0b783a415d41'
p3715
asbasbasbag56
(g72
g58
NtRp3716
(dp3717
g61
(dp3718
sg70
g3668
sg63
(lp3719
g56
(g77
g58
NtRp3720
(dp3721
g61
(dp3722
g81
g82
ssg70
g3716
sg63
(lp3723
S'last_visit'
p3724
asbag56
(g77
g58
NtRp3725
(dp3726
g61
(dp3727
g88
g89
ssg70
g3716
sg63
(lp3728
S':'
asbag56
(g77
g58
NtRp3729
(dp3730
g61
(dp3731
sg70
g3716
sg63
(lp3732
g56
(g57
g58
NtRp3733
(dp3734
g61
(dp3735
g69
I4
ssg70
g3729
sg63
(lp3736
S'datetime.datetime(2011, 9, 12, 16, 10, 17, 480100)'
p3737
asbasbasbag56
(g72
g58
NtRp3738
(dp3739
g61
(dp3740
sg70
g3668
sg63
(lp3741
g56
(g77
g58
NtRp3742
(dp3743
g61
(dp3744
g81
g82
ssg70
g3738
sg63
(lp3745
S'remember'
p3746
asbag56
(g77
g58
NtRp3747
(dp3748
g61
(dp3749
g88
g89
ssg70
g3738
sg63
(lp3750
S':'
asbag56
(g77
g58
NtRp3751
(dp3752
g61
(dp3753
sg70
g3738
sg63
(lp3754
g56
(g57
g58
NtRp3755
(dp3756
g61
(dp3757
g69
I4
ssg70
g3751
sg63
(lp3758
g771
asbasbasbag56
(g72
g58
NtRp3759
(dp3760
g61
(dp3761
sg70
g3668
sg63
(lp3762
g56
(g77
g58
NtRp3763
(dp3764
g61
(dp3765
g81
g82
ssg70
g3759
sg63
(lp3766
S'user'
p3767
asbag56
(g77
g58
NtRp3768
(dp3769
g61
(dp3770
g88
g89
ssg70
g3759
sg63
(lp3771
S':'
asbag56
(g77
g58
NtRp3772
(dp3773
g61
(dp3774
sg70
g3759
sg63
(lp3775
g56
(g57
g58
NtRp3776
(dp3777
g61
(dp3778
g69
I4
ssg70
g3772
sg63
(lp3779
g56
(g65
g58
NtRp3780
(dp3781
g61
(dp3782
g69
I3
ssg70
Nsg63
(lp3783
g56
(g72
g58
NtRp3784
(dp3785
g61
(dp3786
sg70
g3780
sg63
(lp3787
g56
(g77
g58
NtRp3788
(dp3789
g61
(dp3790
g81
g82
ssg70
g3784
sg63
(lp3791
S'email'
p3792
asbag56
(g77
g58
NtRp3793
(dp3794
g61
(dp3795
g88
g89
ssg70
g3784
sg63
(lp3796
S':'
asbag56
(g77
g58
NtRp3797
(dp3798
g61
(dp3799
sg70
g3784
sg63
(lp3800
g56
(g57
g58
NtRp3801
(dp3802
g61
(dp3803
g69
I3
ssg70
g3797
sg63
(lp3804
S'yamandu.costa@gmail.com'
p3805
asbasbasbag56
(g72
g58
NtRp3806
(dp3807
g61
(dp3808
sg70
g3780
sg63
(lp3809
g56
(g77
g58
NtRp3810
(dp3811
g61
(dp3812
g81
g82
ssg70
g3806
sg63
(lp3813
S'first_name'
p3814
asbag56
(g77
g58
NtRp3815
(dp3816
g61
(dp3817
g88
g89
ssg70
g3806
sg63
(lp3818
S':'
asbag56
(g77
g58
NtRp3819
(dp3820
g61
(dp3821
sg70
g3806
sg63
(lp3822
g56
(g57
g58
NtRp3823
(dp3824
g61
(dp3825
g69
I3
ssg70
g3819
sg63
(lp3826
S'Carlos'
p3827
asbasbasbag56
(g72
g58
NtRp3828
(dp3829
g61
(dp3830
sg70
g3780
sg63
(lp3831
g56
(g77
g58
NtRp3832
(dp3833
g61
(dp3834
g81
g82
ssg70
g3828
sg63
(lp3835
S'id'
p3836
asbag56
(g77
g58
NtRp3837
(dp3838
g61
(dp3839
g88
g89
ssg70
g3828
sg63
(lp3840
S':'
asbag56
(g77
g58
NtRp3841
(dp3842
g61
(dp3843
sg70
g3828
sg63
(lp3844
g56
(g57
g58
NtRp3845
(dp3846
g61
(dp3847
g69
I3
ssg70
g3841
sg63
(lp3848
S'2'
asbasbasbag56
(g72
g58
NtRp3849
(dp3850
g61
(dp3851
sg70
g3780
sg63
(lp3852
g56
(g77
g58
NtRp3853
(dp3854
g61
(dp3855
g81
g82
ssg70
g3849
sg63
(lp3856
S'last_name'
p3857
asbag56
(g77
g58
NtRp3858
(dp3859
g61
(dp3860
g88
g89
ssg70
g3849
sg63
(lp3861
S':'
asbag56
(g77
g58
NtRp3862
(dp3863
g61
(dp3864
sg70
g3849
sg63
(lp3865
g56
(g57
g58
NtRp3866
(dp3867
g61
(dp3868
g69
I3
ssg70
g3862
sg63
(lp3869
S'costa'
p3870
asbasbasbag56
(g72
g58
NtRp3871
(dp3872
g61
(dp3873
sg70
g3780
sg63
(lp3874
g56
(g77
g58
NtRp3875
(dp3876
g61
(dp3877
g81
g82
ssg70
g3871
sg63
(lp3878
S'password'
p3879
asbag56
(g77
g58
NtRp3880
(dp3881
g61
(dp3882
g88
g89
ssg70
g3871
sg63
(lp3883
S':'
asbag56
(g77
g58
NtRp3884
(dp3885
g61
(dp3886
sg70
g3871
sg63
(lp3887
g56
(g57
g58
NtRp3888
(dp3889
g61
(dp3890
g69
I3
ssg70
g3884
sg63
(lp3891
S'00a7a128f71552b063e36943370dd0944d5adb4000c6382d33eb3e1a93dc679cb99beb47e3003d318803f96ef839a18a379eae2e2bb917ca3c52c4e45231b331'
p3892
asbasbasbag56
(g72
g58
NtRp3893
(dp3894
g61
(dp3895
sg70
g3780
sg63
(lp3896
g56
(g77
g58
NtRp3897
(dp3898
g61
(dp3899
g81
g82
ssg70
g3893
sg63
(lp3900
S'registration_key'
p3901
asbag56
(g77
g58
NtRp3902
(dp3903
g61
(dp3904
g88
g89
ssg70
g3893
sg63
(lp3905
S':'
asbag56
(g77
g58
NtRp3906
(dp3907
g61
(dp3908
sg70
g3893
sg63
(lp3909
g56
(g57
g58
NtRp3910
(dp3911
g61
(dp3912
g69
I3
ssg70
g3906
sg63
(lp3913
S''
asbasbasbag56
(g72
g58
NtRp3914
(dp3915
g61
(dp3916
sg70
g3780
sg63
(lp3917
g56
(g77
g58
NtRp3918
(dp3919
g61
(dp3920
g81
g82
ssg70
g3914
sg63
(lp3921
S'reset_password_key'
p3922
asbag56
(g77
g58
NtRp3923
(dp3924
g61
(dp3925
g88
g89
ssg70
g3914
sg63
(lp3926
S':'
asbag56
(g77
g58
NtRp3927
(dp3928
g61
(dp3929
sg70
g3914
sg63
(lp3930
g56
(g57
g58
NtRp3931
(dp3932
g61
(dp3933
g69
I3
ssg70
g3927
sg63
(lp3934
S''
asbasbasbasbasbasbasbasbasbasbasbasbasbsS'etype'
p3935
S"<type 'exceptions.AttributeError'>"
p3936
sS'date'
p3937
S'Mon Sep 12 17:26:44 2011'
p3938
sS'response'
p3939
g56
(g57
g58
NtRp3940
(dp3941
g61
(dp3942
sg63
(lp3943
g56
(g65
g58
NtRp3944
(dp3945
g61
(dp3946
g69
I5
ssg70
Nsg63
(lp3947
g56
(g72
g58
NtRp3948
(dp3949
g61
(dp3950
sg70
g3944
sg63
(lp3951
g56
(g77
g58
NtRp3952
(dp3953
g61
(dp3954
g81
g82
ssg70
g3948
sg63
(lp3955
g154
asbag56
(g77
g58
NtRp3956
(dp3957
g61
(dp3958
g88
g89
ssg70
g3948
sg63
(lp3959
S':'
asbag56
(g77
g58
NtRp3960
(dp3961
g61
(dp3962
sg70
g3948
sg63
(lp3963
g56
(g57
g58
NtRp3964
(dp3965
g61
(dp3966
g69
I5
ssg70
g3960
sg63
(lp3967
S'<cStringIO.StringO object at 0xb96a5340>'
p3968
asbasbasbag56
(g72
g58
NtRp3969
(dp3970
g61
(dp3971
sg70
g3944
sg63
(lp3972
g56
(g77
g58
NtRp3973
(dp3974
g61
(dp3975
g81
g82
ssg70
g3969
sg63
(lp3976
g220
asbag56
(g77
g58
NtRp3977
(dp3978
g61
(dp3979
g88
g89
ssg70
g3969
sg63
(lp3980
S':'
asbag56
(g77
g58
NtRp3981
(dp3982
g61
(dp3983
sg70
g3969
sg63
(lp3984
g56
(g57
g58
NtRp3985
(dp3986
g61
(dp3987
g69
I5
ssg70
g3981
sg63
(lp3988
g56
(g65
g58
NtRp3989
(dp3990
g61
(dp3991
g69
I4
ssg70
Nsg63
(lp3992
g56
(g72
g58
NtRp3993
(dp3994
g61
(dp3995
sg70
g3989
sg63
(lp3996
g56
(g77
g58
NtRp3997
(dp3998
g61
(dp3999
g81
g82
ssg70
g3993
sg63
(lp4000
S'session_id_scrum'
p4001
asbag56
(g77
g58
NtRp4002
(dp4003
g61
(dp4004
g88
g89
ssg70
g3993
sg63
(lp4005
S':'
asbag56
(g77
g58
NtRp4006
(dp4007
g61
(dp4008
sg70
g3993
sg63
(lp4009
g56
(g57
g58
NtRp4010
(dp4011
g61
(dp4012
g69
I4
ssg70
g4006
sg63
(lp4013
g56
(g65
g58
NtRp4014
(dp4015
g61
(dp4016
g69
I3
ssg70
Nsg63
(lp4017
g56
(g72
g58
NtRp4018
(dp4019
g61
(dp4020
sg70
g4014
sg63
(lp4021
g56
(g77
g58
NtRp4022
(dp4023
g61
(dp4024
g81
g82
ssg70
g4018
sg63
(lp4025
g270
asbag56
(g77
g58
NtRp4026
(dp4027
g61
(dp4028
g88
g89
ssg70
g4018
sg63
(lp4029
S':'
asbag56
(g77
g58
NtRp4030
(dp4031
g61
(dp4032
sg70
g4018
sg63
(lp4033
g56
(g57
g58
NtRp4034
(dp4035
g61
(dp4036
g69
I3
ssg70
g4030
sg63
(lp4037
S''
asbasbasbag56
(g72
g58
NtRp4038
(dp4039
g61
(dp4040
sg70
g4014
sg63
(lp4041
g56
(g77
g58
NtRp4042
(dp4043
g61
(dp4044
g81
g82
ssg70
g4038
sg63
(lp4045
g291
asbag56
(g77
g58
NtRp4046
(dp4047
g61
(dp4048
g88
g89
ssg70
g4038
sg63
(lp4049
S':'
asbag56
(g77
g58
NtRp4050
(dp4051
g61
(dp4052
sg70
g4038
sg63
(lp4053
g56
(g57
g58
NtRp4054
(dp4055
g61
(dp4056
g69
I3
ssg70
g4050
sg63
(lp4057
S''
asbasbasbag56
(g72
g58
NtRp4058
(dp4059
g61
(dp4060
sg70
g4014
sg63
(lp4061
g56
(g77
g58
NtRp4062
(dp4063
g61
(dp4064
g81
g82
ssg70
g4058
sg63
(lp4065
g312
asbag56
(g77
g58
NtRp4066
(dp4067
g61
(dp4068
g88
g89
ssg70
g4058
sg63
(lp4069
S':'
asbag56
(g77
g58
NtRp4070
(dp4071
g61
(dp4072
sg70
g4058
sg63
(lp4073
g56
(g57
g58
NtRp4074
(dp4075
g61
(dp4076
g69
I3
ssg70
g4070
sg63
(lp4077
S''
asbasbasbag56
(g72
g58
NtRp4078
(dp4079
g61
(dp4080
sg70
g4014
sg63
(lp4081
g56
(g77
g58
NtRp4082
(dp4083
g61
(dp4084
g81
g82
ssg70
g4078
sg63
(lp4085
g333
asbag56
(g77
g58
NtRp4086
(dp4087
g61
(dp4088
g88
g89
ssg70
g4078
sg63
(lp4089
S':'
asbag56
(g77
g58
NtRp4090
(dp4091
g61
(dp4092
sg70
g4078
sg63
(lp4093
g56
(g57
g58
NtRp4094
(dp4095
g61
(dp4096
g69
I3
ssg70
g4090
sg63
(lp4097
S''
asbasbasbag56
(g72
g58
NtRp4098
(dp4099
g61
(dp4100
sg70
g4014
sg63
(lp4101
g56
(g77
g58
NtRp4102
(dp4103
g61
(dp4104
g81
g82
ssg70
g4098
sg63
(lp4105
g354
asbag56
(g77
g58
NtRp4106
(dp4107
g61
(dp4108
g88
g89
ssg70
g4098
sg63
(lp4109
S':'
asbag56
(g77
g58
NtRp4110
(dp4111
g61
(dp4112
sg70
g4098
sg63
(lp4113
g56
(g57
g58
NtRp4114
(dp4115
g61
(dp4116
g69
I3
ssg70
g4110
sg63
(lp4117
S''
asbasbasbag56
(g72
g58
NtRp4118
(dp4119
g61
(dp4120
sg70
g4014
sg63
(lp4121
g56
(g77
g58
NtRp4122
(dp4123
g61
(dp4124
g81
g82
ssg70
g4118
sg63
(lp4125
g375
asbag56
(g77
g58
NtRp4126
(dp4127
g61
(dp4128
g88
g89
ssg70
g4118
sg63
(lp4129
S':'
asbag56
(g77
g58
NtRp4130
(dp4131
g61
(dp4132
sg70
g4118
sg63
(lp4133
g56
(g57
g58
NtRp4134
(dp4135
g61
(dp4136
g69
I3
ssg70
g4130
sg63
(lp4137
S'/'
asbasbasbag56
(g72
g58
NtRp4138
(dp4139
g61
(dp4140
sg70
g4014
sg63
(lp4141
g56
(g77
g58
NtRp4142
(dp4143
g61
(dp4144
g81
g82
ssg70
g4138
sg63
(lp4145
g396
asbag56
(g77
g58
NtRp4146
(dp4147
g61
(dp4148
g88
g89
ssg70
g4138
sg63
(lp4149
S':'
asbag56
(g77
g58
NtRp4150
(dp4151
g61
(dp4152
sg70
g4138
sg63
(lp4153
g56
(g57
g58
NtRp4154
(dp4155
g61
(dp4156
g69
I3
ssg70
g4150
sg63
(lp4157
S''
asbasbasbag56
(g72
g58
NtRp4158
(dp4159
g61
(dp4160
sg70
g4014
sg63
(lp4161
g56
(g77
g58
NtRp4162
(dp4163
g61
(dp4164
g81
g82
ssg70
g4158
sg63
(lp4165
g417
asbag56
(g77
g58
NtRp4166
(dp4167
g61
(dp4168
g88
g89
ssg70
g4158
sg63
(lp4169
S':'
asbag56
(g77
g58
NtRp4170
(dp4171
g61
(dp4172
sg70
g4158
sg63
(lp4173
g56
(g57
g58
NtRp4174
(dp4175
g61
(dp4176
g69
I3
ssg70
g4170
sg63
(lp4177
S''
asbasbasbasbasbasbasbasbasbasbasbag56
(g72
g58
NtRp4178
(dp4179
g61
(dp4180
sg70
g3944
sg63
(lp4181
g56
(g77
g58
NtRp4182
(dp4183
g61
(dp4184
g81
g82
ssg70
g4178
sg63
(lp4185
S'files'
p4186
asbag56
(g77
g58
NtRp4187
(dp4188
g61
(dp4189
g88
g89
ssg70
g4178
sg63
(lp4190
S':'
asbag56
(g77
g58
NtRp4191
(dp4192
g61
(dp4193
sg70
g4178
sg63
(lp4194
g56
(g57
g58
NtRp4195
(dp4196
g61
(dp4197
g69
I5
ssg70
g4191
sg63
(lp4198
g56
(g65
g58
NtRp4199
(dp4200
g61
(dp4201
g69
I4
ssg70
Nsg63
(lp4202
sbasbasbasbag56
(g72
g58
NtRp4203
(dp4204
g61
(dp4205
sg70
g3944
sg63
(lp4206
g56
(g77
g58
NtRp4207
(dp4208
g61
(dp4209
g81
g82
ssg70
g4203
sg63
(lp4210
S'flash'
p4211
asbag56
(g77
g58
NtRp4212
(dp4213
g61
(dp4214
g88
g89
ssg70
g4203
sg63
(lp4215
S':'
asbag56
(g77
g58
NtRp4216
(dp4217
g61
(dp4218
sg70
g4203
sg63
(lp4219
g56
(g57
g58
NtRp4220
(dp4221
g61
(dp4222
g69
I5
ssg70
g4216
sg63
(lp4223
S''
asbasbasbag56
(g72
g58
NtRp4224
(dp4225
g61
(dp4226
sg70
g3944
sg63
(lp4227
g56
(g77
g58
NtRp4228
(dp4229
g61
(dp4230
g81
g82
ssg70
g4224
sg63
(lp4231
S'generic_patterns'
p4232
asbag56
(g77
g58
NtRp4233
(dp4234
g61
(dp4235
g88
g89
ssg70
g4224
sg63
(lp4236
S':'
asbag56
(g77
g58
NtRp4237
(dp4238
g61
(dp4239
sg70
g4224
sg63
(lp4240
g56
(g57
g58
NtRp4241
(dp4242
g61
(dp4243
g69
I5
ssg70
g4237
sg63
(lp4244
g56
(g65
g58
NtRp4245
(dp4246
g61
(dp4247
g69
I4
ssg70
Nsg63
(lp4248
sbasbasbasbag56
(g72
g58
NtRp4249
(dp4250
g61
(dp4251
sg70
g3944
sg63
(lp4252
g56
(g77
g58
NtRp4253
(dp4254
g61
(dp4255
g81
g82
ssg70
g4249
sg63
(lp4256
S'headers'
p4257
asbag56
(g77
g58
NtRp4258
(dp4259
g61
(dp4260
g88
g89
ssg70
g4249
sg63
(lp4261
S':'
asbag56
(g77
g58
NtRp4262
(dp4263
g61
(dp4264
sg70
g4249
sg63
(lp4265
g56
(g57
g58
NtRp4266
(dp4267
g61
(dp4268
g69
I5
ssg70
g4262
sg63
(lp4269
g56
(g65
g58
NtRp4270
(dp4271
g61
(dp4272
g69
I4
ssg70
Nsg63
(lp4273
g56
(g72
g58
NtRp4274
(dp4275
g61
(dp4276
sg70
g4270
sg63
(lp4277
g56
(g77
g58
NtRp4278
(dp4279
g61
(dp4280
g81
g82
ssg70
g4274
sg63
(lp4281
S'Cache-Control'
p4282
asbag56
(g77
g58
NtRp4283
(dp4284
g61
(dp4285
g88
g89
ssg70
g4274
sg63
(lp4286
S':'
asbag56
(g77
g58
NtRp4287
(dp4288
g61
(dp4289
sg70
g4274
sg63
(lp4290
g56
(g57
g58
NtRp4291
(dp4292
g61
(dp4293
g69
I4
ssg70
g4287
sg63
(lp4294
S'no-store, no-cache, must-revalidate, post-check=0, pre-check=0'
p4295
asbasbasbag56
(g72
g58
NtRp4296
(dp4297
g61
(dp4298
sg70
g4270
sg63
(lp4299
g56
(g77
g58
NtRp4300
(dp4301
g61
(dp4302
g81
g82
ssg70
g4296
sg63
(lp4303
S'Content-Type'
p4304
asbag56
(g77
g58
NtRp4305
(dp4306
g61
(dp4307
g88
g89
ssg70
g4296
sg63
(lp4308
S':'
asbag56
(g77
g58
NtRp4309
(dp4310
g61
(dp4311
sg70
g4296
sg63
(lp4312
g56
(g57
g58
NtRp4313
(dp4314
g61
(dp4315
g69
I4
ssg70
g4309
sg63
(lp4316
S'text/html; charset=utf-8'
p4317
asbasbasbag56
(g72
g58
NtRp4318
(dp4319
g61
(dp4320
sg70
g4270
sg63
(lp4321
g56
(g77
g58
NtRp4322
(dp4323
g61
(dp4324
g81
g82
ssg70
g4318
sg63
(lp4325
S'Expires'
p4326
asbag56
(g77
g58
NtRp4327
(dp4328
g61
(dp4329
g88
g89
ssg70
g4318
sg63
(lp4330
S':'
asbag56
(g77
g58
NtRp4331
(dp4332
g61
(dp4333
sg70
g4318
sg63
(lp4334
g56
(g57
g58
NtRp4335
(dp4336
g61
(dp4337
g69
I4
ssg70
g4331
sg63
(lp4338
S'Mon, 12 Sep 2011 20:26:44 GMT'
p4339
asbasbasbag56
(g72
g58
NtRp4340
(dp4341
g61
(dp4342
sg70
g4270
sg63
(lp4343
g56
(g77
g58
NtRp4344
(dp4345
g61
(dp4346
g81
g82
ssg70
g4340
sg63
(lp4347
S'Pragma'
p4348
asbag56
(g77
g58
NtRp4349
(dp4350
g61
(dp4351
g88
g89
ssg70
g4340
sg63
(lp4352
S':'
asbag56
(g77
g58
NtRp4353
(dp4354
g61
(dp4355
sg70
g4340
sg63
(lp4356
g56
(g57
g58
NtRp4357
(dp4358
g61
(dp4359
g69
I4
ssg70
g4353
sg63
(lp4360
S'no-cache'
p4361
asbasbasbag56
(g72
g58
NtRp4362
(dp4363
g61
(dp4364
sg70
g4270
sg63
(lp4365
g56
(g77
g58
NtRp4366
(dp4367
g61
(dp4368
g81
g82
ssg70
g4362
sg63
(lp4369
S'X-Powered-By'
p4370
asbag56
(g77
g58
NtRp4371
(dp4372
g61
(dp4373
g88
g89
ssg70
g4362
sg63
(lp4374
S':'
asbag56
(g77
g58
NtRp4375
(dp4376
g61
(dp4377
sg70
g4362
sg63
(lp4378
g56
(g57
g58
NtRp4379
(dp4380
g61
(dp4381
g69
I4
ssg70
g4375
sg63
(lp4382
S'web2py'
p4383
asbasbasbasbasbasbasbag56
(g72
g58
NtRp4384
(dp4385
g61
(dp4386
sg70
g3944
sg63
(lp4387
g56
(g77
g58
NtRp4388
(dp4389
g61
(dp4390
g81
g82
ssg70
g4384
sg63
(lp4391
S'menu'
p4392
asbag56
(g77
g58
NtRp4393
(dp4394
g61
(dp4395
g88
g89
ssg70
g4384
sg63
(lp4396
S':'
asbag56
(g77
g58
NtRp4397
(dp4398
g61
(dp4399
sg70
g4384
sg63
(lp4400
g56
(g57
g58
NtRp4401
(dp4402
g61
(dp4403
g69
I5
ssg70
g4397
sg63
(lp4404
g56
(g65
g58
NtRp4405
(dp4406
g61
(dp4407
g69
I4
ssg70
Nsg63
(lp4408
g56
(g72
g58
NtRp4409
(dp4410
g61
(dp4411
sg70
g4405
sg63
(lp4412
g56
(g77
g58
NtRp4413
(dp4414
g61
(dp4415
sg70
g4409
sg63
(lp4416
g56
(g57
g58
NtRp4417
(dp4418
g61
(dp4419
g69
I4
ssg70
g4413
sg63
(lp4420
g56
(g65
g58
NtRp4421
(dp4422
g61
(dp4423
g69
I3
ssg70
Nsg63
(lp4424
g56
(g72
g58
NtRp4425
(dp4426
g61
(dp4427
sg70
g4421
sg63
(lp4428
g56
(g77
g58
NtRp4429
(dp4430
g61
(dp4431
sg70
g4425
sg63
(lp4432
g56
(g57
g58
NtRp4433
(dp4434
g61
(dp4435
g69
I3
ssg70
g4429
sg63
(lp4436
cgluon.languages
lazyT_unpickle
p4437
(S't\x04\x00\x00\x00Home'
tRp4438
asbasbasbag56
(g72
g58
NtRp4439
(dp4440
g61
(dp4441
sg70
g4421
sg63
(lp4442
g56
(g77
g58
NtRp4443
(dp4444
g61
(dp4445
sg70
g4439
sg63
(lp4446
g56
(g57
g58
NtRp4447
(dp4448
g61
(dp4449
g69
I3
ssg70
g4443
sg63
(lp4450
g771
asbasbasbag56
(g72
g58
NtRp4451
(dp4452
g61
(dp4453
sg70
g4421
sg63
(lp4454
g56
(g77
g58
NtRp4455
(dp4456
g61
(dp4457
sg70
g4451
sg63
(lp4458
g56
(g57
g58
NtRp4459
(dp4460
g61
(dp4461
g69
I3
ssg70
g4455
sg63
(lp4462
S'/scrum/default/index'
p4463
asbasbasbag56
(g72
g58
NtRp4464
(dp4465
g61
(dp4466
sg70
g4421
sg63
(lp4467
g56
(g77
g58
NtRp4468
(dp4469
g61
(dp4470
sg70
g4464
sg63
(lp4471
g56
(g57
g58
NtRp4472
(dp4473
g61
(dp4474
g69
I3
ssg70
g4468
sg63
(lp4475
g56
(g65
g58
NtRp4476
(dp4477
g61
(dp4478
g69
I2
ssg70
Nsg63
(lp4479
sbasbasbasbasbasbasbasbag56
(g72
g58
NtRp4480
(dp4481
g61
(dp4482
sg70
g4405
sg63
(lp4483
g56
(g77
g58
NtRp4484
(dp4485
g61
(dp4486
sg70
g4480
sg63
(lp4487
g56
(g57
g58
NtRp4488
(dp4489
g61
(dp4490
g69
I4
ssg70
g4484
sg63
(lp4491
g56
(g65
g58
NtRp4492
(dp4493
g61
(dp4494
g69
I3
ssg70
Nsg63
(lp4495
g56
(g72
g58
NtRp4496
(dp4497
g61
(dp4498
sg70
g4492
sg63
(lp4499
g56
(g77
g58
NtRp4500
(dp4501
g61
(dp4502
sg70
g4496
sg63
(lp4503
g56
(g57
g58
NtRp4504
(dp4505
g61
(dp4506
g69
I3
ssg70
g4500
sg63
(lp4507
g4437
(S't\x03\x00\x00\x00BIV'
tRp4508
asbasbasbag56
(g72
g58
NtRp4509
(dp4510
g61
(dp4511
sg70
g4492
sg63
(lp4512
g56
(g77
g58
NtRp4513
(dp4514
g61
(dp4515
sg70
g4509
sg63
(lp4516
g56
(g57
g58
NtRp4517
(dp4518
g61
(dp4519
g69
I3
ssg70
g4513
sg63
(lp4520
g771
asbasbasbag56
(g72
g58
NtRp4521
(dp4522
g61
(dp4523
sg70
g4492
sg63
(lp4524
g56
(g77
g58
NtRp4525
(dp4526
g61
(dp4527
sg70
g4521
sg63
(lp4528
g56
(g57
g58
NtRp4529
(dp4530
g61
(dp4531
g69
I3
ssg70
g4525
sg63
(lp4532
S''
asbasbasbag56
(g72
g58
NtRp4533
(dp4534
g61
(dp4535
sg70
g4492
sg63
(lp4536
g56
(g77
g58
NtRp4537
(dp4538
g61
(dp4539
sg70
g4533
sg63
(lp4540
g56
(g57
g58
NtRp4541
(dp4542
g61
(dp4543
g69
I3
ssg70
g4537
sg63
(lp4544
g56
(g65
g58
NtRp4545
(dp4546
g61
(dp4547
g69
I2
ssg70
Nsg63
(lp4548
g56
(g72
g58
NtRp4549
(dp4550
g61
(dp4551
sg70
g4545
sg63
(lp4552
g56
(g77
g58
NtRp4553
(dp4554
g61
(dp4555
sg70
g4549
sg63
(lp4556
g56
(g57
g58
NtRp4557
(dp4558
g61
(dp4559
g69
I2
ssg70
g4553
sg63
(lp4560
g56
(g65
g58
NtRp4561
(dp4562
g61
(dp4563
g69
I1
ssg70
Nsg63
(lp4564
g56
(g72
g58
NtRp4565
(dp4566
g61
(dp4567
sg70
g4561
sg63
(lp4568
g56
(g77
g58
NtRp4569
(dp4570
g61
(dp4571
sg70
g4565
sg63
(lp4572
g56
(g57
g58
NtRp4573
(dp4574
g61
(dp4575
g69
I1
ssg70
g4569
sg63
(lp4576
g4437
(S't\x04\x00\x00\x00Novo'
tRp4577
asbasbasbag56
(g72
g58
NtRp4578
(dp4579
g61
(dp4580
sg70
g4561
sg63
(lp4581
g56
(g77
g58
NtRp4582
(dp4583
g61
(dp4584
sg70
g4578
sg63
(lp4585
g56
(g57
g58
NtRp4586
(dp4587
g61
(dp4588
g69
I1
ssg70
g4582
sg63
(lp4589
I00
asbasbasbag56
(g72
g58
NtRp4590
(dp4591
g61
(dp4592
sg70
g4561
sg63
(lp4593
g56
(g77
g58
NtRp4594
(dp4595
g61
(dp4596
sg70
g4590
sg63
(lp4597
g56
(g57
g58
NtRp4598
(dp4599
g61
(dp4600
g69
I1
ssg70
g4594
sg63
(lp4601
S'/scrum/default/novo_biv'
p4602
asbasbasbag56
(g72
g58
NtRp4603
(dp4604
g61
(dp4605
sg70
g4561
sg63
(lp4606
g56
(g77
g58
NtRp4607
(dp4608
g61
(dp4609
sg70
g4603
sg63
(lp4610
g56
(g57
g58
NtRp4611
(dp4612
g61
(dp4613
g69
I1
ssg70
g4607
sg63
(lp4614
(lp4615
asbasbasbasbasbasbasbag56
(g72
g58
NtRp4616
(dp4617
g61
(dp4618
sg70
g4545
sg63
(lp4619
g56
(g77
g58
NtRp4620
(dp4621
g61
(dp4622
sg70
g4616
sg63
(lp4623
g56
(g57
g58
NtRp4624
(dp4625
g61
(dp4626
g69
I2
ssg70
g4620
sg63
(lp4627
g56
(g65
g58
NtRp4628
(dp4629
g61
(dp4630
g69
I1
ssg70
Nsg63
(lp4631
g56
(g72
g58
NtRp4632
(dp4633
g61
(dp4634
sg70
g4628
sg63
(lp4635
g56
(g77
g58
NtRp4636
(dp4637
g61
(dp4638
sg70
g4632
sg63
(lp4639
g56
(g57
g58
NtRp4640
(dp4641
g61
(dp4642
g69
I1
ssg70
g4636
sg63
(lp4643
g4437
(S't\n\x00\x00\x00Selecionar'
tRp4644
asbasbasbag56
(g72
g58
NtRp4645
(dp4646
g61
(dp4647
sg70
g4628
sg63
(lp4648
g56
(g77
g58
NtRp4649
(dp4650
g61
(dp4651
sg70
g4645
sg63
(lp4652
g56
(g57
g58
NtRp4653
(dp4654
g61
(dp4655
g69
I1
ssg70
g4649
sg63
(lp4656
I00
asbasbasbag56
(g72
g58
NtRp4657
(dp4658
g61
(dp4659
sg70
g4628
sg63
(lp4660
g56
(g77
g58
NtRp4661
(dp4662
g61
(dp4663
sg70
g4657
sg63
(lp4664
g56
(g57
g58
NtRp4665
(dp4666
g61
(dp4667
g69
I1
ssg70
g4661
sg63
(lp4668
S'/scrum/default/selecionar_biv'
p4669
asbasbasbag56
(g72
g58
NtRp4670
(dp4671
g61
(dp4672
sg70
g4628
sg63
(lp4673
g56
(g77
g58
NtRp4674
(dp4675
g61
(dp4676
sg70
g4670
sg63
(lp4677
g56
(g57
g58
NtRp4678
(dp4679
g61
(dp4680
g69
I1
ssg70
g4674
sg63
(lp4681
(lp4682
asbasbasbasbasbasbasbasbasbasbasbasbasbasbasbag56
(g72
g58
NtRp4683
(dp4684
g61
(dp4685
sg70
g4405
sg63
(lp4686
g56
(g77
g58
NtRp4687
(dp4688
g61
(dp4689
sg70
g4683
sg63
(lp4690
g56
(g57
g58
NtRp4691
(dp4692
g61
(dp4693
g69
I4
ssg70
g4687
sg63
(lp4694
g56
(g65
g58
NtRp4695
(dp4696
g61
(dp4697
g69
I3
ssg70
Nsg63
(lp4698
g56
(g72
g58
NtRp4699
(dp4700
g61
(dp4701
sg70
g4695
sg63
(lp4702
g56
(g77
g58
NtRp4703
(dp4704
g61
(dp4705
sg70
g4699
sg63
(lp4706
g56
(g57
g58
NtRp4707
(dp4708
g61
(dp4709
g69
I3
ssg70
g4703
sg63
(lp4710
g4437
(S't\x07\x00\x00\x00Tickets'
tRp4711
asbasbasbag56
(g72
g58
NtRp4712
(dp4713
g61
(dp4714
sg70
g4695
sg63
(lp4715
g56
(g77
g58
NtRp4716
(dp4717
g61
(dp4718
sg70
g4712
sg63
(lp4719
g56
(g57
g58
NtRp4720
(dp4721
g61
(dp4722
g69
I3
ssg70
g4716
sg63
(lp4723
g771
asbasbasbag56
(g72
g58
NtRp4724
(dp4725
g61
(dp4726
sg70
g4695
sg63
(lp4727
g56
(g77
g58
NtRp4728
(dp4729
g61
(dp4730
sg70
g4724
sg63
(lp4731
g56
(g57
g58
NtRp4732
(dp4733
g61
(dp4734
g69
I3
ssg70
g4728
sg63
(lp4735
S'/scrum/ticket/index'
p4736
asbasbasbag56
(g72
g58
NtRp4737
(dp4738
g61
(dp4739
sg70
g4695
sg63
(lp4740
g56
(g77
g58
NtRp4741
(dp4742
g61
(dp4743
sg70
g4737
sg63
(lp4744
g56
(g57
g58
NtRp4745
(dp4746
g61
(dp4747
g69
I3
ssg70
g4741
sg63
(lp4748
g56
(g65
g58
NtRp4749
(dp4750
g61
(dp4751
g69
I2
ssg70
Nsg63
(lp4752
g56
(g72
g58
NtRp4753
(dp4754
g61
(dp4755
sg70
g4749
sg63
(lp4756
g56
(g77
g58
NtRp4757
(dp4758
g61
(dp4759
sg70
g4753
sg63
(lp4760
g56
(g57
g58
NtRp4761
(dp4762
g61
(dp4763
g69
I2
ssg70
g4757
sg63
(lp4764
g56
(g65
g58
NtRp4765
(dp4766
g61
(dp4767
g69
I1
ssg70
Nsg63
(lp4768
g56
(g72
g58
NtRp4769
(dp4770
g61
(dp4771
sg70
g4765
sg63
(lp4772
g56
(g77
g58
NtRp4773
(dp4774
g61
(dp4775
sg70
g4769
sg63
(lp4776
g56
(g57
g58
NtRp4777
(dp4778
g61
(dp4779
g69
I1
ssg70
g4773
sg63
(lp4780
g4437
(S't\x04\x00\x00\x00Novo'
tRp4781
asbasbasbag56
(g72
g58
NtRp4782
(dp4783
g61
(dp4784
sg70
g4765
sg63
(lp4785
g56
(g77
g58
NtRp4786
(dp4787
g61
(dp4788
sg70
g4782
sg63
(lp4789
g56
(g57
g58
NtRp4790
(dp4791
g61
(dp4792
g69
I1
ssg70
g4786
sg63
(lp4793
I00
asbasbasbag56
(g72
g58
NtRp4794
(dp4795
g61
(dp4796
sg70
g4765
sg63
(lp4797
g56
(g77
g58
NtRp4798
(dp4799
g61
(dp4800
sg70
g4794
sg63
(lp4801
g56
(g57
g58
NtRp4802
(dp4803
g61
(dp4804
g69
I1
ssg70
g4798
sg63
(lp4805
S'/scrum/ticket/novo'
p4806
asbasbasbag56
(g72
g58
NtRp4807
(dp4808
g61
(dp4809
sg70
g4765
sg63
(lp4810
g56
(g77
g58
NtRp4811
(dp4812
g61
(dp4813
sg70
g4807
sg63
(lp4814
g56
(g57
g58
NtRp4815
(dp4816
g61
(dp4817
g69
I1
ssg70
g4811
sg63
(lp4818
(lp4819
asbasbasbasbasbasbasbag56
(g72
g58
NtRp4820
(dp4821
g61
(dp4822
sg70
g4749
sg63
(lp4823
g56
(g77
g58
NtRp4824
(dp4825
g61
(dp4826
sg70
g4820
sg63
(lp4827
g56
(g57
g58
NtRp4828
(dp4829
g61
(dp4830
g69
I2
ssg70
g4824
sg63
(lp4831
g56
(g65
g58
NtRp4832
(dp4833
g61
(dp4834
g69
I1
ssg70
Nsg63
(lp4835
g56
(g72
g58
NtRp4836
(dp4837
g61
(dp4838
sg70
g4832
sg63
(lp4839
g56
(g77
g58
NtRp4840
(dp4841
g61
(dp4842
sg70
g4836
sg63
(lp4843
g56
(g57
g58
NtRp4844
(dp4845
g61
(dp4846
g69
I1
ssg70
g4840
sg63
(lp4847
g4437
(S't\n\x00\x00\x00Selecionar'
tRp4848
asbasbasbag56
(g72
g58
NtRp4849
(dp4850
g61
(dp4851
sg70
g4832
sg63
(lp4852
g56
(g77
g58
NtRp4853
(dp4854
g61
(dp4855
sg70
g4849
sg63
(lp4856
g56
(g57
g58
NtRp4857
(dp4858
g61
(dp4859
g69
I1
ssg70
g4853
sg63
(lp4860
I00
asbasbasbag56
(g72
g58
NtRp4861
(dp4862
g61
(dp4863
sg70
g4832
sg63
(lp4864
g56
(g77
g58
NtRp4865
(dp4866
g61
(dp4867
sg70
g4861
sg63
(lp4868
g56
(g57
g58
NtRp4869
(dp4870
g61
(dp4871
g69
I1
ssg70
g4865
sg63
(lp4872
S'/scrum/ticket/index'
p4873
asbasbasbag56
(g72
g58
NtRp4874
(dp4875
g61
(dp4876
sg70
g4832
sg63
(lp4877
g56
(g77
g58
NtRp4878
(dp4879
g61
(dp4880
sg70
g4874
sg63
(lp4881
g56
(g57
g58
NtRp4882
(dp4883
g61
(dp4884
g69
I1
ssg70
g4878
sg63
(lp4885
(lp4886
asbasbasbasbasbasbasbasbasbasbasbasbasbasbasbag56
(g72
g58
NtRp4887
(dp4888
g61
(dp4889
sg70
g4405
sg63
(lp4890
g56
(g77
g58
NtRp4891
(dp4892
g61
(dp4893
sg70
g4887
sg63
(lp4894
g56
(g57
g58
NtRp4895
(dp4896
g61
(dp4897
g69
I4
ssg70
g4891
sg63
(lp4898
g56
(g65
g58
NtRp4899
(dp4900
g61
(dp4901
g69
I3
ssg70
Nsg63
(lp4902
g56
(g72
g58
NtRp4903
(dp4904
g61
(dp4905
sg70
g4899
sg63
(lp4906
g56
(g77
g58
NtRp4907
(dp4908
g61
(dp4909
sg70
g4903
sg63
(lp4910
g56
(g57
g58
NtRp4911
(dp4912
g61
(dp4913
g69
I3
ssg70
g4907
sg63
(lp4914
g4437
(S't\x06\x00\x00\x00Sprint'
tRp4915
asbasbasbag56
(g72
g58
NtRp4916
(dp4917
g61
(dp4918
sg70
g4899
sg63
(lp4919
g56
(g77
g58
NtRp4920
(dp4921
g61
(dp4922
sg70
g4916
sg63
(lp4923
g56
(g57
g58
NtRp4924
(dp4925
g61
(dp4926
g69
I3
ssg70
g4920
sg63
(lp4927
g771
asbasbasbag56
(g72
g58
NtRp4928
(dp4929
g61
(dp4930
sg70
g4899
sg63
(lp4931
g56
(g77
g58
NtRp4932
(dp4933
g61
(dp4934
sg70
g4928
sg63
(lp4935
g56
(g57
g58
NtRp4936
(dp4937
g61
(dp4938
g69
I3
ssg70
g4932
sg63
(lp4939
S''
asbasbasbag56
(g72
g58
NtRp4940
(dp4941
g61
(dp4942
sg70
g4899
sg63
(lp4943
g56
(g77
g58
NtRp4944
(dp4945
g61
(dp4946
sg70
g4940
sg63
(lp4947
g56
(g57
g58
NtRp4948
(dp4949
g61
(dp4950
g69
I3
ssg70
g4944
sg63
(lp4951
g56
(g65
g58
NtRp4952
(dp4953
g61
(dp4954
g69
I2
ssg70
Nsg63
(lp4955
g56
(g72
g58
NtRp4956
(dp4957
g61
(dp4958
sg70
g4952
sg63
(lp4959
g56
(g77
g58
NtRp4960
(dp4961
g61
(dp4962
sg70
g4956
sg63
(lp4963
g56
(g57
g58
NtRp4964
(dp4965
g61
(dp4966
g69
I2
ssg70
g4960
sg63
(lp4967
g56
(g65
g58
NtRp4968
(dp4969
g61
(dp4970
g69
I1
ssg70
Nsg63
(lp4971
g56
(g72
g58
NtRp4972
(dp4973
g61
(dp4974
sg70
g4968
sg63
(lp4975
g56
(g77
g58
NtRp4976
(dp4977
g61
(dp4978
sg70
g4972
sg63
(lp4979
g56
(g57
g58
NtRp4980
(dp4981
g61
(dp4982
g69
I1
ssg70
g4976
sg63
(lp4983
g4437
(S't\x04\x00\x00\x00Novo'
tRp4984
asbasbasbag56
(g72
g58
NtRp4985
(dp4986
g61
(dp4987
sg70
g4968
sg63
(lp4988
g56
(g77
g58
NtRp4989
(dp4990
g61
(dp4991
sg70
g4985
sg63
(lp4992
g56
(g57
g58
NtRp4993
(dp4994
g61
(dp4995
g69
I1
ssg70
g4989
sg63
(lp4996
I00
asbasbasbag56
(g72
g58
NtRp4997
(dp4998
g61
(dp4999
sg70
g4968
sg63
(lp5000
g56
(g77
g58
NtRp5001
(dp5002
g61
(dp5003
sg70
g4997
sg63
(lp5004
g56
(g57
g58
NtRp5005
(dp5006
g61
(dp5007
g69
I1
ssg70
g5001
sg63
(lp5008
S'/scrum/sprint/novo'
p5009
asbasbasbag56
(g72
g58
NtRp5010
(dp5011
g61
(dp5012
sg70
g4968
sg63
(lp5013
g56
(g77
g58
NtRp5014
(dp5015
g61
(dp5016
sg70
g5010
sg63
(lp5017
g56
(g57
g58
NtRp5018
(dp5019
g61
(dp5020
g69
I1
ssg70
g5014
sg63
(lp5021
(lp5022
asbasbasbasbasbasbasbag56
(g72
g58
NtRp5023
(dp5024
g61
(dp5025
sg70
g4952
sg63
(lp5026
g56
(g77
g58
NtRp5027
(dp5028
g61
(dp5029
sg70
g5023
sg63
(lp5030
g56
(g57
g58
NtRp5031
(dp5032
g61
(dp5033
g69
I2
ssg70
g5027
sg63
(lp5034
g56
(g65
g58
NtRp5035
(dp5036
g61
(dp5037
g69
I1
ssg70
Nsg63
(lp5038
g56
(g72
g58
NtRp5039
(dp5040
g61
(dp5041
sg70
g5035
sg63
(lp5042
g56
(g77
g58
NtRp5043
(dp5044
g61
(dp5045
sg70
g5039
sg63
(lp5046
g56
(g57
g58
NtRp5047
(dp5048
g61
(dp5049
g69
I1
ssg70
g5043
sg63
(lp5050
g4437
(S't\n\x00\x00\x00Selecionar'
tRp5051
asbasbasbag56
(g72
g58
NtRp5052
(dp5053
g61
(dp5054
sg70
g5035
sg63
(lp5055
g56
(g77
g58
NtRp5056
(dp5057
g61
(dp5058
sg70
g5052
sg63
(lp5059
g56
(g57
g58
NtRp5060
(dp5061
g61
(dp5062
g69
I1
ssg70
g5056
sg63
(lp5063
I00
asbasbasbag56
(g72
g58
NtRp5064
(dp5065
g61
(dp5066
sg70
g5035
sg63
(lp5067
g56
(g77
g58
NtRp5068
(dp5069
g61
(dp5070
sg70
g5064
sg63
(lp5071
g56
(g57
g58
NtRp5072
(dp5073
g61
(dp5074
g69
I1
ssg70
g5068
sg63
(lp5075
S'/scrum/sprint/index'
p5076
asbasbasbag56
(g72
g58
NtRp5077
(dp5078
g61
(dp5079
sg70
g5035
sg63
(lp5080
g56
(g77
g58
NtRp5081
(dp5082
g61
(dp5083
sg70
g5077
sg63
(lp5084
g56
(g57
g58
NtRp5085
(dp5086
g61
(dp5087
g69
I1
ssg70
g5081
sg63
(lp5088
(lp5089
asbasbasbasbasbasbasbasbasbasbasbasbasbasbasbag56
(g72
g58
NtRp5090
(dp5091
g61
(dp5092
sg70
g4405
sg63
(lp5093
g56
(g77
g58
NtRp5094
(dp5095
g61
(dp5096
sg70
g5090
sg63
(lp5097
g56
(g57
g58
NtRp5098
(dp5099
g61
(dp5100
g69
I4
ssg70
g5094
sg63
(lp5101
g56
(g65
g58
NtRp5102
(dp5103
g61
(dp5104
g69
I3
ssg70
Nsg63
(lp5105
g56
(g72
g58
NtRp5106
(dp5107
g61
(dp5108
sg70
g5102
sg63
(lp5109
g56
(g77
g58
NtRp5110
(dp5111
g61
(dp5112
sg70
g5106
sg63
(lp5113
g56
(g57
g58
NtRp5114
(dp5115
g61
(dp5116
g69
I3
ssg70
g5110
sg63
(lp5117
g4437
(S't\x06\x00\x00\x00Config'
tRp5118
asbasbasbag56
(g72
g58
NtRp5119
(dp5120
g61
(dp5121
sg70
g5102
sg63
(lp5122
g56
(g77
g58
NtRp5123
(dp5124
g61
(dp5125
sg70
g5119
sg63
(lp5126
g56
(g57
g58
NtRp5127
(dp5128
g61
(dp5129
g69
I3
ssg70
g5123
sg63
(lp5130
g771
asbasbasbag56
(g72
g58
NtRp5131
(dp5132
g61
(dp5133
sg70
g5102
sg63
(lp5134
g56
(g77
g58
NtRp5135
(dp5136
g61
(dp5137
sg70
g5131
sg63
(lp5138
g56
(g57
g58
NtRp5139
(dp5140
g61
(dp5141
g69
I3
ssg70
g5135
sg63
(lp5142
S''
asbasbasbag56
(g72
g58
NtRp5143
(dp5144
g61
(dp5145
sg70
g5102
sg63
(lp5146
g56
(g77
g58
NtRp5147
(dp5148
g61
(dp5149
sg70
g5143
sg63
(lp5150
g56
(g57
g58
NtRp5151
(dp5152
g61
(dp5153
g69
I3
ssg70
g5147
sg63
(lp5154
g56
(g65
g58
NtRp5155
(dp5156
g61
(dp5157
g69
I2
ssg70
Nsg63
(lp5158
g56
(g72
g58
NtRp5159
(dp5160
g61
(dp5161
sg70
g5155
sg63
(lp5162
g56
(g77
g58
NtRp5163
(dp5164
g61
(dp5165
sg70
g5159
sg63
(lp5166
g56
(g57
g58
NtRp5167
(dp5168
g61
(dp5169
g69
I2
ssg70
g5163
sg63
(lp5170
g56
(g65
g58
NtRp5171
(dp5172
g61
(dp5173
g69
I1
ssg70
Nsg63
(lp5174
g56
(g72
g58
NtRp5175
(dp5176
g61
(dp5177
sg70
g5171
sg63
(lp5178
g56
(g77
g58
NtRp5179
(dp5180
g61
(dp5181
sg70
g5175
sg63
(lp5182
g56
(g57
g58
NtRp5183
(dp5184
g61
(dp5185
g69
I1
ssg70
g5179
sg63
(lp5186
g4437
(S't\x05\x00\x00\x00Geral'
tRp5187
asbasbasbag56
(g72
g58
NtRp5188
(dp5189
g61
(dp5190
sg70
g5171
sg63
(lp5191
g56
(g77
g58
NtRp5192
(dp5193
g61
(dp5194
sg70
g5188
sg63
(lp5195
g56
(g57
g58
NtRp5196
(dp5197
g61
(dp5198
g69
I1
ssg70
g5192
sg63
(lp5199
I00
asbasbasbag56
(g72
g58
NtRp5200
(dp5201
g61
(dp5202
sg70
g5171
sg63
(lp5203
g56
(g77
g58
NtRp5204
(dp5205
g61
(dp5206
sg70
g5200
sg63
(lp5207
g56
(g57
g58
NtRp5208
(dp5209
g61
(dp5210
g69
I1
ssg70
g5204
sg63
(lp5211
S'/scrum/config/index'
p5212
asbasbasbag56
(g72
g58
NtRp5213
(dp5214
g61
(dp5215
sg70
g5171
sg63
(lp5216
g56
(g77
g58
NtRp5217
(dp5218
g61
(dp5219
sg70
g5213
sg63
(lp5220
g56
(g57
g58
NtRp5221
(dp5222
g61
(dp5223
g69
I1
ssg70
g5217
sg63
(lp5224
(lp5225
asbasbasbasbasbasbasbag56
(g72
g58
NtRp5226
(dp5227
g61
(dp5228
sg70
g5155
sg63
(lp5229
g56
(g77
g58
NtRp5230
(dp5231
g61
(dp5232
sg70
g5226
sg63
(lp5233
g56
(g57
g58
NtRp5234
(dp5235
g61
(dp5236
g69
I2
ssg70
g5230
sg63
(lp5237
g56
(g65
g58
NtRp5238
(dp5239
g61
(dp5240
g69
I1
ssg70
Nsg63
(lp5241
g56
(g72
g58
NtRp5242
(dp5243
g61
(dp5244
sg70
g5238
sg63
(lp5245
g56
(g77
g58
NtRp5246
(dp5247
g61
(dp5248
sg70
g5242
sg63
(lp5249
g56
(g57
g58
NtRp5250
(dp5251
g61
(dp5252
g69
I1
ssg70
g5246
sg63
(lp5253
g4437
(S's\x12\x00\x00\x00Estados de Tickets'
tRp5254
asbasbasbag56
(g72
g58
NtRp5255
(dp5256
g61
(dp5257
sg70
g5238
sg63
(lp5258
g56
(g77
g58
NtRp5259
(dp5260
g61
(dp5261
sg70
g5255
sg63
(lp5262
g56
(g57
g58
NtRp5263
(dp5264
g61
(dp5265
g69
I1
ssg70
g5259
sg63
(lp5266
I00
asbasbasbag56
(g72
g58
NtRp5267
(dp5268
g61
(dp5269
sg70
g5238
sg63
(lp5270
g56
(g77
g58
NtRp5271
(dp5272
g61
(dp5273
sg70
g5267
sg63
(lp5274
g56
(g57
g58
NtRp5275
(dp5276
g61
(dp5277
g69
I1
ssg70
g5271
sg63
(lp5278
S'/scrum/config/estado_ticket'
p5279
asbasbasbag56
(g72
g58
NtRp5280
(dp5281
g61
(dp5282
sg70
g5238
sg63
(lp5283
g56
(g77
g58
NtRp5284
(dp5285
g61
(dp5286
sg70
g5280
sg63
(lp5287
g56
(g57
g58
NtRp5288
(dp5289
g61
(dp5290
g69
I1
ssg70
g5284
sg63
(lp5291
(lp5292
asbasbasbasbasbasbasbag56
(g72
g58
NtRp5293
(dp5294
g61
(dp5295
sg70
g5155
sg63
(lp5296
g56
(g77
g58
NtRp5297
(dp5298
g61
(dp5299
sg70
g5293
sg63
(lp5300
g56
(g57
g58
NtRp5301
(dp5302
g61
(dp5303
g69
I2
ssg70
g5297
sg63
(lp5304
g56
(g65
g58
NtRp5305
(dp5306
g61
(dp5307
g69
I1
ssg70
Nsg63
(lp5308
g56
(g72
g58
NtRp5309
(dp5310
g61
(dp5311
sg70
g5305
sg63
(lp5312
g56
(g77
g58
NtRp5313
(dp5314
g61
(dp5315
sg70
g5309
sg63
(lp5316
g56
(g57
g58
NtRp5317
(dp5318
g61
(dp5319
g69
I1
ssg70
g5313
sg63
(lp5320
g4437
(S's\x0f\x00\x00\x00Tipos de Ticket'
tRp5321
asbasbasbag56
(g72
g58
NtRp5322
(dp5323
g61
(dp5324
sg70
g5305
sg63
(lp5325
g56
(g77
g58
NtRp5326
(dp5327
g61
(dp5328
sg70
g5322
sg63
(lp5329
g56
(g57
g58
NtRp5330
(dp5331
g61
(dp5332
g69
I1
ssg70
g5326
sg63
(lp5333
I00
asbasbasbag56
(g72
g58
NtRp5334
(dp5335
g61
(dp5336
sg70
g5305
sg63
(lp5337
g56
(g77
g58
NtRp5338
(dp5339
g61
(dp5340
sg70
g5334
sg63
(lp5341
g56
(g57
g58
NtRp5342
(dp5343
g61
(dp5344
g69
I1
ssg70
g5338
sg63
(lp5345
S'/scrum/config/tipo_ticket'
p5346
asbasbasbag56
(g72
g58
NtRp5347
(dp5348
g61
(dp5349
sg70
g5305
sg63
(lp5350
g56
(g77
g58
NtRp5351
(dp5352
g61
(dp5353
sg70
g5347
sg63
(lp5354
g56
(g57
g58
NtRp5355
(dp5356
g61
(dp5357
g69
I1
ssg70
g5351
sg63
(lp5358
(lp5359
asbasbasbasbasbasbasbag56
(g72
g58
NtRp5360
(dp5361
g61
(dp5362
sg70
g5155
sg63
(lp5363
g56
(g77
g58
NtRp5364
(dp5365
g61
(dp5366
sg70
g5360
sg63
(lp5367
g56
(g57
g58
NtRp5368
(dp5369
g61
(dp5370
g69
I2
ssg70
g5364
sg63
(lp5371
g56
(g65
g58
NtRp5372
(dp5373
g61
(dp5374
g69
I1
ssg70
Nsg63
(lp5375
g56
(g72
g58
NtRp5376
(dp5377
g61
(dp5378
sg70
g5372
sg63
(lp5379
g56
(g77
g58
NtRp5380
(dp5381
g61
(dp5382
sg70
g5376
sg63
(lp5383
g56
(g57
g58
NtRp5384
(dp5385
g61
(dp5386
g69
I1
ssg70
g5380
sg63
(lp5387
g4437
(S't\x08\x00\x00\x00Clientes'
tRp5388
asbasbasbag56
(g72
g58
NtRp5389
(dp5390
g61
(dp5391
sg70
g5372
sg63
(lp5392
g56
(g77
g58
NtRp5393
(dp5394
g61
(dp5395
sg70
g5389
sg63
(lp5396
g56
(g57
g58
NtRp5397
(dp5398
g61
(dp5399
g69
I1
ssg70
g5393
sg63
(lp5400
I00
asbasbasbag56
(g72
g58
NtRp5401
(dp5402
g61
(dp5403
sg70
g5372
sg63
(lp5404
g56
(g77
g58
NtRp5405
(dp5406
g61
(dp5407
sg70
g5401
sg63
(lp5408
g56
(g57
g58
NtRp5409
(dp5410
g61
(dp5411
g69
I1
ssg70
g5405
sg63
(lp5412
S'/scrum/config/clientes'
p5413
asbasbasbag56
(g72
g58
NtRp5414
(dp5415
g61
(dp5416
sg70
g5372
sg63
(lp5417
g56
(g77
g58
NtRp5418
(dp5419
g61
(dp5420
sg70
g5414
sg63
(lp5421
g56
(g57
g58
NtRp5422
(dp5423
g61
(dp5424
g69
I1
ssg70
g5418
sg63
(lp5425
(lp5426
asbasbasbasbasbasbasbag56
(g72
g58
NtRp5427
(dp5428
g61
(dp5429
sg70
g5155
sg63
(lp5430
g56
(g77
g58
NtRp5431
(dp5432
g61
(dp5433
sg70
g5427
sg63
(lp5434
g56
(g57
g58
NtRp5435
(dp5436
g61
(dp5437
g69
I2
ssg70
g5431
sg63
(lp5438
g56
(g65
g58
NtRp5439
(dp5440
g61
(dp5441
g69
I1
ssg70
Nsg63
(lp5442
g56
(g72
g58
NtRp5443
(dp5444
g61
(dp5445
sg70
g5439
sg63
(lp5446
g56
(g77
g58
NtRp5447
(dp5448
g61
(dp5449
sg70
g5443
sg63
(lp5450
g56
(g57
g58
NtRp5451
(dp5452
g61
(dp5453
g69
I1
ssg70
g5447
sg63
(lp5454
g4437
(S't\x08\x00\x00\x00Sistemas'
tRp5455
asbasbasbag56
(g72
g58
NtRp5456
(dp5457
g61
(dp5458
sg70
g5439
sg63
(lp5459
g56
(g77
g58
NtRp5460
(dp5461
g61
(dp5462
sg70
g5456
sg63
(lp5463
g56
(g57
g58
NtRp5464
(dp5465
g61
(dp5466
g69
I1
ssg70
g5460
sg63
(lp5467
I00
asbasbasbag56
(g72
g58
NtRp5468
(dp5469
g61
(dp5470
sg70
g5439
sg63
(lp5471
g56
(g77
g58
NtRp5472
(dp5473
g61
(dp5474
sg70
g5468
sg63
(lp5475
g56
(g57
g58
NtRp5476
(dp5477
g61
(dp5478
g69
I1
ssg70
g5472
sg63
(lp5479
S'/scrum/config/sistemas'
p5480
asbasbasbag56
(g72
g58
NtRp5481
(dp5482
g61
(dp5483
sg70
g5439
sg63
(lp5484
g56
(g77
g58
NtRp5485
(dp5486
g61
(dp5487
sg70
g5481
sg63
(lp5488
g56
(g57
g58
NtRp5489
(dp5490
g61
(dp5491
g69
I1
ssg70
g5485
sg63
(lp5492
(lp5493
asbasbasbasbasbasbasbasbasbasbasbasbasbasbasbasbasbasbasbag56
(g72
g58
NtRp5494
(dp5495
g61
(dp5496
sg70
g3944
sg63
(lp5497
g56
(g77
g58
NtRp5498
(dp5499
g61
(dp5500
g81
g82
ssg70
g5494
sg63
(lp5501
S'meta'
p5502
asbag56
(g77
g58
NtRp5503
(dp5504
g61
(dp5505
g88
g89
ssg70
g5494
sg63
(lp5506
S':'
asbag56
(g77
g58
NtRp5507
(dp5508
g61
(dp5509
sg70
g5494
sg63
(lp5510
g56
(g57
g58
NtRp5511
(dp5512
g61
(dp5513
g69
I5
ssg70
g5507
sg63
(lp5514
g56
(g65
g58
NtRp5515
(dp5516
g61
(dp5517
g69
I4
ssg70
Nsg63
(lp5518
g56
(g72
g58
NtRp5519
(dp5520
g61
(dp5521
sg70
g5515
sg63
(lp5522
g56
(g77
g58
NtRp5523
(dp5524
g61
(dp5525
g81
g82
ssg70
g5519
sg63
(lp5526
S'author'
p5527
asbag56
(g77
g58
NtRp5528
(dp5529
g61
(dp5530
g88
g89
ssg70
g5519
sg63
(lp5531
S':'
asbag56
(g77
g58
NtRp5532
(dp5533
g61
(dp5534
sg70
g5519
sg63
(lp5535
g56
(g57
g58
NtRp5536
(dp5537
g61
(dp5538
g69
I4
ssg70
g5532
sg63
(lp5539
S'Carlos J. Costa'
p5540
asbasbasbag56
(g72
g58
NtRp5541
(dp5542
g61
(dp5543
sg70
g5515
sg63
(lp5544
g56
(g77
g58
NtRp5545
(dp5546
g61
(dp5547
g81
g82
ssg70
g5541
sg63
(lp5548
S'copyright'
p5549
asbag56
(g77
g58
NtRp5550
(dp5551
g61
(dp5552
g88
g89
ssg70
g5541
sg63
(lp5553
S':'
asbag56
(g77
g58
NtRp5554
(dp5555
g61
(dp5556
sg70
g5541
sg63
(lp5557
g56
(g57
g58
NtRp5558
(dp5559
g61
(dp5560
g69
I4
ssg70
g5554
sg63
(lp5561
S'Copyright 2007-2010'
p5562
asbasbasbag56
(g72
g58
NtRp5563
(dp5564
g61
(dp5565
sg70
g5515
sg63
(lp5566
g56
(g77
g58
NtRp5567
(dp5568
g61
(dp5569
g81
g82
ssg70
g5563
sg63
(lp5570
S'description'
p5571
asbag56
(g77
g58
NtRp5572
(dp5573
g61
(dp5574
g88
g89
ssg70
g5563
sg63
(lp5575
S':'
asbag56
(g77
g58
NtRp5576
(dp5577
g61
(dp5578
sg70
g5563
sg63
(lp5579
g56
(g57
g58
NtRp5580
(dp5581
g61
(dp5582
g69
I4
ssg70
g5576
sg63
(lp5583
S'Development track'
p5584
asbasbasbag56
(g72
g58
NtRp5585
(dp5586
g61
(dp5587
sg70
g5515
sg63
(lp5588
g56
(g77
g58
NtRp5589
(dp5590
g61
(dp5591
g81
g82
ssg70
g5585
sg63
(lp5592
S'generator'
p5593
asbag56
(g77
g58
NtRp5594
(dp5595
g61
(dp5596
g88
g89
ssg70
g5585
sg63
(lp5597
S':'
asbag56
(g77
g58
NtRp5598
(dp5599
g61
(dp5600
sg70
g5585
sg63
(lp5601
g56
(g57
g58
NtRp5602
(dp5603
g61
(dp5604
g69
I4
ssg70
g5598
sg63
(lp5605
S'Web2py Enterprise Framework'
p5606
asbasbasbag56
(g72
g58
NtRp5607
(dp5608
g61
(dp5609
sg70
g5515
sg63
(lp5610
g56
(g77
g58
NtRp5611
(dp5612
g61
(dp5613
g81
g82
ssg70
g5607
sg63
(lp5614
S'keywords'
p5615
asbag56
(g77
g58
NtRp5616
(dp5617
g61
(dp5618
g88
g89
ssg70
g5607
sg63
(lp5619
S':'
asbag56
(g77
g58
NtRp5620
(dp5621
g61
(dp5622
sg70
g5607
sg63
(lp5623
g56
(g57
g58
NtRp5624
(dp5625
g61
(dp5626
g69
I4
ssg70
g5620
sg63
(lp5627
S'test, issue'
p5628
asbasbasbasbasbasbasbag56
(g72
g58
NtRp5629
(dp5630
g61
(dp5631
sg70
g3944
sg63
(lp5632
g56
(g77
g58
NtRp5633
(dp5634
g61
(dp5635
g81
g82
ssg70
g5629
sg63
(lp5636
S'postprocessing'
p5637
asbag56
(g77
g58
NtRp5638
(dp5639
g61
(dp5640
g88
g89
ssg70
g5629
sg63
(lp5641
S':'
asbag56
(g77
g58
NtRp5642
(dp5643
g61
(dp5644
sg70
g5629
sg63
(lp5645
g56
(g57
g58
NtRp5646
(dp5647
g61
(dp5648
g69
I5
ssg70
g5642
sg63
(lp5649
g56
(g65
g58
NtRp5650
(dp5651
g61
(dp5652
g69
I4
ssg70
Nsg63
(lp5653
sbasbasbasbag56
(g72
g58
NtRp5654
(dp5655
g61
(dp5656
sg70
g3944
sg63
(lp5657
g56
(g77
g58
NtRp5658
(dp5659
g61
(dp5660
g81
g82
ssg70
g5654
sg63
(lp5661
S'session_file'
p5662
asbag56
(g77
g58
NtRp5663
(dp5664
g61
(dp5665
g88
g89
ssg70
g5654
sg63
(lp5666
S':'
asbag56
(g77
g58
NtRp5667
(dp5668
g61
(dp5669
sg70
g5654
sg63
(lp5670
g56
(g57
g58
NtRp5671
(dp5672
g61
(dp5673
g69
I5
ssg70
g5667
sg63
(lp5674
S"<open file '/home/www-data/web2py/applications/scrum/sessions/127.0.0.1-8741b6aa-dd8d-45b3-88a3-6f21c23a3c79', mode 'rb+' at 0xb98c9e90>"
p5675
asbasbasbag56
(g72
g58
NtRp5676
(dp5677
g61
(dp5678
sg70
g3944
sg63
(lp5679
g56
(g77
g58
NtRp5680
(dp5681
g61
(dp5682
g81
g82
ssg70
g5676
sg63
(lp5683
S'session_filename'
p5684
asbag56
(g77
g58
NtRp5685
(dp5686
g61
(dp5687
g88
g89
ssg70
g5676
sg63
(lp5688
S':'
asbag56
(g77
g58
NtRp5689
(dp5690
g61
(dp5691
sg70
g5676
sg63
(lp5692
g56
(g57
g58
NtRp5693
(dp5694
g61
(dp5695
g69
I5
ssg70
g5689
sg63
(lp5696
S'/home/www-data/web2py/applications/scrum/sessions/127.0.0.1-8741b6aa-dd8d-45b3-88a3-6f21c23a3c79'
p5697
asbasbasbag56
(g72
g58
NtRp5698
(dp5699
g61
(dp5700
sg70
g3944
sg63
(lp5701
g56
(g77
g58
NtRp5702
(dp5703
g61
(dp5704
g81
g82
ssg70
g5698
sg63
(lp5705
S'session_id'
p5706
asbag56
(g77
g58
NtRp5707
(dp5708
g61
(dp5709
g88
g89
ssg70
g5698
sg63
(lp5710
S':'
asbag56
(g77
g58
NtRp5711
(dp5712
g61
(dp5713
sg70
g5698
sg63
(lp5714
g56
(g57
g58
NtRp5715
(dp5716
g61
(dp5717
g69
I5
ssg70
g5711
sg63
(lp5718
S'127.0.0.1-8741b6aa-dd8d-45b3-88a3-6f21c23a3c79'
p5719
asbasbasbag56
(g72
g58
NtRp5720
(dp5721
g61
(dp5722
sg70
g3944
sg63
(lp5723
g56
(g77
g58
NtRp5724
(dp5725
g61
(dp5726
g81
g82
ssg70
g5720
sg63
(lp5727
S'session_id_name'
p5728
asbag56
(g77
g58
NtRp5729
(dp5730
g61
(dp5731
g88
g89
ssg70
g5720
sg63
(lp5732
S':'
asbag56
(g77
g58
NtRp5733
(dp5734
g61
(dp5735
sg70
g5720
sg63
(lp5736
g56
(g57
g58
NtRp5737
(dp5738
g61
(dp5739
g69
I5
ssg70
g5733
sg63
(lp5740
g4001
asbasbasbag56
(g72
g58
NtRp5741
(dp5742
g61
(dp5743
sg70
g3944
sg63
(lp5744
g56
(g77
g58
NtRp5745
(dp5746
g61
(dp5747
g81
g82
ssg70
g5741
sg63
(lp5748
S'session_locked'
p5749
asbag56
(g77
g58
NtRp5750
(dp5751
g61
(dp5752
g88
g89
ssg70
g5741
sg63
(lp5753
S':'
asbag56
(g77
g58
NtRp5754
(dp5755
g61
(dp5756
sg70
g5741
sg63
(lp5757
g56
(g57
g58
NtRp5758
(dp5759
g61
(dp5760
g69
I5
ssg70
g5754
sg63
(lp5761
g99
asbasbasbag56
(g72
g58
NtRp5762
(dp5763
g61
(dp5764
sg70
g3944
sg63
(lp5765
g56
(g77
g58
NtRp5766
(dp5767
g61
(dp5768
g81
g82
ssg70
g5762
sg63
(lp5769
S'session_new'
p5770
asbag56
(g77
g58
NtRp5771
(dp5772
g61
(dp5773
g88
g89
ssg70
g5762
sg63
(lp5774
S':'
asbag56
(g77
g58
NtRp5775
(dp5776
g61
(dp5777
sg70
g5762
sg63
(lp5778
g56
(g57
g58
NtRp5779
(dp5780
g61
(dp5781
g69
I5
ssg70
g5775
sg63
(lp5782
g771
asbasbasbag56
(g72
g58
NtRp5783
(dp5784
g61
(dp5785
sg70
g3944
sg63
(lp5786
g56
(g77
g58
NtRp5787
(dp5788
g61
(dp5789
g81
g82
ssg70
g5783
sg63
(lp5790
S'status'
p5791
asbag56
(g77
g58
NtRp5792
(dp5793
g61
(dp5794
g88
g89
ssg70
g5783
sg63
(lp5795
S':'
asbag56
(g77
g58
NtRp5796
(dp5797
g61
(dp5798
sg70
g5783
sg63
(lp5799
g56
(g57
g58
NtRp5800
(dp5801
g61
(dp5802
g69
I5
ssg70
g5796
sg63
(lp5803
S'200'
p5804
asbasbasbag56
(g72
g58
NtRp5805
(dp5806
g61
(dp5807
sg70
g3944
sg63
(lp5808
g56
(g77
g58
NtRp5809
(dp5810
g61
(dp5811
g81
g82
ssg70
g5805
sg63
(lp5812
S'subtitle'
p5813
asbag56
(g77
g58
NtRp5814
(dp5815
g61
(dp5816
g88
g89
ssg70
g5805
sg63
(lp5817
S':'
asbag56
(g77
g58
NtRp5818
(dp5819
g61
(dp5820
sg70
g5805
sg63
(lp5821
g56
(g57
g58
NtRp5822
(dp5823
g61
(dp5824
g69
I5
ssg70
g5818
sg63
(lp5825
g4437
(S's\x0f\x00\x00\x00Personalize-me!'
tRp5826
asbasbasbag56
(g72
g58
NtRp5827
(dp5828
g61
(dp5829
sg70
g3944
sg63
(lp5830
g56
(g77
g58
NtRp5831
(dp5832
g61
(dp5833
g81
g82
ssg70
g5827
sg63
(lp5834
S'title'
p5835
asbag56
(g77
g58
NtRp5836
(dp5837
g61
(dp5838
g88
g89
ssg70
g5827
sg63
(lp5839
S':'
asbag56
(g77
g58
NtRp5840
(dp5841
g61
(dp5842
sg70
g5827
sg63
(lp5843
g56
(g57
g58
NtRp5844
(dp5845
g61
(dp5846
g69
I5
ssg70
g5840
sg63
(lp5847
g121
asbasbasbag56
(g72
g58
NtRp5848
(dp5849
g61
(dp5850
sg70
g3944
sg63
(lp5851
g56
(g77
g58
NtRp5852
(dp5853
g61
(dp5854
g81
g82
ssg70
g5848
sg63
(lp5855
g2275
asbag56
(g77
g58
NtRp5856
(dp5857
g61
(dp5858
g88
g89
ssg70
g5848
sg63
(lp5859
S':'
asbag56
(g77
g58
NtRp5860
(dp5861
g61
(dp5862
sg70
g5848
sg63
(lp5863
g56
(g57
g58
NtRp5864
(dp5865
g61
(dp5866
g69
I5
ssg70
g5860
sg63
(lp5867
g2288
asbasbasbag56
(g72
g58
NtRp5868
(dp5869
g61
(dp5870
sg70
g3944
sg63
(lp5871
g56
(g77
g58
NtRp5872
(dp5873
g61
(dp5874
g81
g82
ssg70
g5868
sg63
(lp5875
S'view'
p5876
asbag56
(g77
g58
NtRp5877
(dp5878
g61
(dp5879
g88
g89
ssg70
g5868
sg63
(lp5880
S':'
asbag56
(g77
g58
NtRp5881
(dp5882
g61
(dp5883
sg70
g5868
sg63
(lp5884
g56
(g57
g58
NtRp5885
(dp5886
g61
(dp5887
g69
I5
ssg70
g5881
sg63
(lp5888
S'sprint/detalhes.html'
p5889
asbasbasbasbasbsS'locals'
p5890
(dp5891
S'k'
S"'dtcols_1'"
p5892
sS'tablename'
p5893
S"'sprint'"
p5894
sS'cols'
p5895
S"'ticket.id,                                      ...                                   ticket.cliente'"
p5896
sS'value'
p5897
S"'1'"
p5898
sS'fieldname'
p5899
S"'id'"
p5900
sS'key'
p5901
S"'sprint.id.1'"
p5902
sssS'traceback'
p5903
S'Traceback (most recent call last):\n  File "/home/www-data/web2py/gluon/restricted.py", line 192, in restricted\n    exec ccode in environment\n  File "/home/www-data/web2py/applications/scrum/controllers/sprint.py", line 55, in <module>\n  File "/home/www-data/web2py/gluon/globals.py", line 145, in <lambda>\n    self._caller = lambda f: f()\n  File "/home/www-data/web2py/gluon/tools.py", line 2462, in f\n    return action(*a, **b)\n  File "/home/www-data/web2py/applications/scrum/controllers/sprint.py", line 51, in detalhes\n    tickets = db(db.ticket.sprint == value).select(db.ticket.chamado, db.ticket.analista, db.ticket.cliente.nome)\nAttributeError: \'Field\' object has no attribute \'nome\'\n'
p5904
s.