(dp1
S'output'
p2
S''
sS'layer'
p3
S'/home/www-data/web2py/applications/scrum/models/db1.py'
p4
sS'code'
p5
S"#coding: utf8\nBRAZILIAN_DATE = IS_DATE(format=T('%Y-%m-%d'), error_message=T('deve ser dd/mm/yyyy!'))\n\ndb.define_table('config',\n                Field('grupo_desenvolvedor',db.auth_group),\n                Field('grupo_consultor',db.auth_group),\n                Field('grupo_administrador',db.auth_group))                           \n\n#redirect(URL(r=request,c='config',f='index'))\n#config = db(db.config).select().first()\n#db.config.insert()\nconfig = db(db.config).select()[0]\n\ndb.define_table('biv',\n                Field('numero','integer'),\n                Field('data','date',requires= BRAZILIAN_DATE),\n                Field('versao'))\ndb.biv.id.represent = lambda id: A('Editar BIV %i' % db.biv[id].numero,_href=URL(r=request,f='edita_biv',args=[id]))                                                       \n\ndb.define_table('menu',\n                Field('caminho'))\n               \ndb.define_table('menu_dom',\n                Field('codigo'),\n                Field('descricao'),\n                Field('nome'),\n                Field('modulo'))\n           \ndb.define_table('modulo',\n                Field('codigo','integer'),\n                Field('nome'))\n               \ndb.define_table('sprint',\n                Field('numero'),\n                Field('inicio','date',requires=BRAZILIAN_DATE),\n                Field('fim','date',requires=BRAZILIAN_DATE))\ndb.sprint.id.represent = lambda id: A('Editar %i' % id, _href=URL(r=request,c='sprint',f='editar',args=[id]))\n\ndb.define_table('ticket',\n                Field('chamado'),\n                Field('consultor',db.auth_user),\n                Field('analista',db.auth_user),\n                Field('estado'),\n                Field('patch','boolean'),\n                Field('local_teste'))\ndb.ticket.analista.requires = IS_IN_DB(db((db.auth_user.id == db.auth_membership.user_id) & (db.auth_membership.group_id==config.grupo_desenvolvedor)),\n                                       db.auth_user.id,'%(first_name)s'\n                                       zero='Sem desenvolvedores')                                        \n               \ndb.define_table('caso_teste',\n                Field('ticket',db.ticket),\n                Field('acao','text'),\n                Field('resultado','text'),\n                Field('anexo','upload'), \n                Field('ordem','integer'))\n\ndb.define_table('item_biv',\n                Field('biv',db.biv),\n                Field('ticket',db.ticket), \n                Field('menu','text',widget=SQLFORM.widgets.autocomplete(request,db.menu.caminho,limitby=(0,10), min_length=2)),\n                Field('modulo',widget=SQLFORM.widgets.autocomplete(request,db.modulo.nome,limitby=(0,10), min_length=2)),\n                Field('texto','text'))\n\ndb.define_table('teste',\n                Field('ticket',db.ticket),\n                Field('caso',db.caso_teste),\n                Field('data','date'), \n                Field('resultado','text'),\n                Field('conclusao'))      \n              \nconfig = db(db.config).select().first()\n\ndb.item_biv.id.represent = lambda id: SPAN(A('Editar',_href=URL(r=request,c='default',f='edita_biv',args=[db.item_biv[id].biv,id])))                \n               \ndef insere_menu(form):       \n    if len(form.vars.menu) > 0:\n       db.menu.insert(caminho=form.vars.menu) \n\ndef insere_modulo(form):\n    if len(form.vars.modulo) > 0:\n       db.modulo.insert(nome=form.vars.modulo)        \n      \ncrud.settings.create_onaccept.item_biv.append(lambda form: insere_menu(form))\ncrud.settings.create_onaccept.item_biv.append(lambda form: insere_modulo(form))\n"
p6
sS'snapshot'
p7
(dp8
S'exception'
p9
(dp10
S'__getslice__'
p11
S"<method-wrapper '__getslice__' of exceptions.SyntaxError object>"
p12
sS'text'
p13
S'"                                       zero=\'Sem...edores\')                                        \\n"'
p14
sS'__str__'
p15
S"<method-wrapper '__str__' of exceptions.SyntaxError object>"
p16
sS'__reduce__'
p17
S'<built-in method __reduce__ of exceptions.SyntaxError object>'
p18
sS'__dict__'
p19
S'{}'
p20
sS'__sizeof__'
p21
S'<built-in method __sizeof__ of exceptions.SyntaxError object>'
p22
sS'__init__'
p23
S"<method-wrapper '__init__' of exceptions.SyntaxError object>"
p24
sS'__setattr__'
p25
S"<method-wrapper '__setattr__' of exceptions.SyntaxError object>"
p26
sS'__reduce_ex__'
p27
S'<built-in method __reduce_ex__ of exceptions.SyntaxError object>'
p28
sS'__new__'
p29
S'<built-in method __new__ of type object>'
p30
sS'__format__'
p31
S'<built-in method __format__ of exceptions.SyntaxError object>'
p32
sS'__class__'
p33
S"<type 'exceptions.SyntaxError'>"
p34
sS'filename'
p35
S"'/home/www-data/web2py/applications/scrum/models/db1.py'"
p36
sS'lineno'
p37
S'48'
p38
sS'msg'
p39
S"'invalid syntax'"
p40
sS'__doc__'
p41
S"'Invalid syntax.'"
p42
sS'__getitem__'
p43
S"<method-wrapper '__getitem__' of exceptions.SyntaxError object>"
p44
sS'__setstate__'
p45
S'<built-in method __setstate__ of exceptions.SyntaxError object>'
p46
sS'__getattribute__'
p47
S"<method-wrapper '__getattribute__' of exceptions.SyntaxError object>"
p48
sS'print_file_and_line'
p49
S'None'
p50
sS'args'
p51
S'(\'invalid syntax\', (\'/home/www-data/web2py/applications/scrum/models/db1.py\', 48, 43, "                                       zero=\'Sem...edores\')                                        \\n"))'
p52
sS'__subclasshook__'
p53
S'<built-in method __subclasshook__ of type object>'
p54
sS'offset'
p55
S'43'
p56
sS'__unicode__'
p57
S'<built-in method __unicode__ of exceptions.SyntaxError object>'
p58
sS'__delattr__'
p59
S"<method-wrapper '__delattr__' of exceptions.SyntaxError object>"
p60
sS'__repr__'
p61
S"<method-wrapper '__repr__' of exceptions.SyntaxError object>"
p62
sS'__hash__'
p63
S"<method-wrapper '__hash__' of exceptions.SyntaxError object>"
p64
ssS'evalue'
p65
S'invalid syntax (db1.py, line 48)'
p66
sS'request'
p67
ccopy_reg
_reconstructor
p68
(cgluon.html
BEAUTIFY
p69
c__builtin__
object
p70
NtRp71
(dp72
S'attributes'
p73
(dp74
sS'components'
p75
(lp76
g68
(cgluon.html
TABLE
p77
g70
NtRp78
(dp79
g73
(dp80
S'level'
p81
I5
ssS'parent'
p82
Nsg75
(lp83
g68
(cgluon.html
TR
p84
g70
NtRp85
(dp86
g73
(dp87
sg82
g78
sg75
(lp88
g68
(cgluon.html
TD
p89
g70
NtRp90
(dp91
g73
(dp92
S'_style'
p93
S'font-weight:bold;'
p94
ssg82
g85
sg75
(lp95
S'ajax'
p96
asbag68
(g89
g70
NtRp97
(dp98
g73
(dp99
S'_valign'
p100
S'top'
p101
ssg82
g85
sg75
(lp102
S':'
asbag68
(g89
g70
NtRp103
(dp104
g73
(dp105
sg82
g85
sg75
(lp106
g68
(g69
g70
NtRp107
(dp108
g73
(dp109
g81
I5
ssg82
g103
sg75
(lp110
S'False'
p111
asbasbasbag68
(g84
g70
NtRp112
(dp113
g73
(dp114
sg82
g78
sg75
(lp115
g68
(g89
g70
NtRp116
(dp117
g73
(dp118
g93
g94
ssg82
g112
sg75
(lp119
S'application'
p120
asbag68
(g89
g70
NtRp121
(dp122
g73
(dp123
g100
g101
ssg82
g112
sg75
(lp124
S':'
asbag68
(g89
g70
NtRp125
(dp126
g73
(dp127
sg82
g112
sg75
(lp128
g68
(g69
g70
NtRp129
(dp130
g73
(dp131
g81
I5
ssg82
g125
sg75
(lp132
S'scrum'
p133
asbasbasbag68
(g84
g70
NtRp134
(dp135
g73
(dp136
sg82
g78
sg75
(lp137
g68
(g89
g70
NtRp138
(dp139
g73
(dp140
g93
g94
ssg82
g134
sg75
(lp141
g51
asbag68
(g89
g70
NtRp142
(dp143
g73
(dp144
g100
g101
ssg82
g134
sg75
(lp145
S':'
asbag68
(g89
g70
NtRp146
(dp147
g73
(dp148
sg82
g134
sg75
(lp149
g68
(g69
g70
NtRp150
(dp151
g73
(dp152
g81
I5
ssg82
g146
sg75
(lp153
g68
(g77
g70
NtRp154
(dp155
g73
(dp156
g81
I4
ssg82
Nsg75
(lp157
sbasbasbasbag68
(g84
g70
NtRp158
(dp159
g73
(dp160
sg82
g78
sg75
(lp161
g68
(g89
g70
NtRp162
(dp163
g73
(dp164
g93
g94
ssg82
g158
sg75
(lp165
S'body'
p166
asbag68
(g89
g70
NtRp167
(dp168
g73
(dp169
g100
g101
ssg82
g158
sg75
(lp170
S':'
asbag68
(g89
g70
NtRp171
(dp172
g73
(dp173
sg82
g158
sg75
(lp174
g68
(g69
g70
NtRp175
(dp176
g73
(dp177
g81
I5
ssg82
g171
sg75
(lp178
S'<cStringIO.StringO object at 0xb97f20a0>'
p179
asbasbasbag68
(g84
g70
NtRp180
(dp181
g73
(dp182
sg82
g78
sg75
(lp183
g68
(g89
g70
NtRp184
(dp185
g73
(dp186
g93
g94
ssg82
g180
sg75
(lp187
S'client'
p188
asbag68
(g89
g70
NtRp189
(dp190
g73
(dp191
g100
g101
ssg82
g180
sg75
(lp192
S':'
asbag68
(g89
g70
NtRp193
(dp194
g73
(dp195
sg82
g180
sg75
(lp196
g68
(g69
g70
NtRp197
(dp198
g73
(dp199
g81
I5
ssg82
g193
sg75
(lp200
S'127.0.0.1'
p201
asbasbasbag68
(g84
g70
NtRp202
(dp203
g73
(dp204
sg82
g78
sg75
(lp205
g68
(g89
g70
NtRp206
(dp207
g73
(dp208
g93
g94
ssg82
g202
sg75
(lp209
S'controller'
p210
asbag68
(g89
g70
NtRp211
(dp212
g73
(dp213
g100
g101
ssg82
g202
sg75
(lp214
S':'
asbag68
(g89
g70
NtRp215
(dp216
g73
(dp217
sg82
g202
sg75
(lp218
g68
(g69
g70
NtRp219
(dp220
g73
(dp221
g81
I5
ssg82
g215
sg75
(lp222
S'ticket'
p223
asbasbasbag68
(g84
g70
NtRp224
(dp225
g73
(dp226
sg82
g78
sg75
(lp227
g68
(g89
g70
NtRp228
(dp229
g73
(dp230
g93
g94
ssg82
g224
sg75
(lp231
S'cookies'
p232
asbag68
(g89
g70
NtRp233
(dp234
g73
(dp235
g100
g101
ssg82
g224
sg75
(lp236
S':'
asbag68
(g89
g70
NtRp237
(dp238
g73
(dp239
sg82
g224
sg75
(lp240
g68
(g69
g70
NtRp241
(dp242
g73
(dp243
g81
I5
ssg82
g237
sg75
(lp244
g68
(g77
g70
NtRp245
(dp246
g73
(dp247
g81
I4
ssg82
Nsg75
(lp248
g68
(g84
g70
NtRp249
(dp250
g73
(dp251
sg82
g245
sg75
(lp252
g68
(g89
g70
NtRp253
(dp254
g73
(dp255
g93
g94
ssg82
g249
sg75
(lp256
S'session_id_admin'
p257
asbag68
(g89
g70
NtRp258
(dp259
g73
(dp260
g100
g101
ssg82
g249
sg75
(lp261
S':'
asbag68
(g89
g70
NtRp262
(dp263
g73
(dp264
sg82
g249
sg75
(lp265
g68
(g69
g70
NtRp266
(dp267
g73
(dp268
g81
I4
ssg82
g262
sg75
(lp269
g68
(g77
g70
NtRp270
(dp271
g73
(dp272
g81
I3
ssg82
Nsg75
(lp273
g68
(g84
g70
NtRp274
(dp275
g73
(dp276
sg82
g270
sg75
(lp277
g68
(g89
g70
NtRp278
(dp279
g73
(dp280
g93
g94
ssg82
g274
sg75
(lp281
S'comment'
p282
asbag68
(g89
g70
NtRp283
(dp284
g73
(dp285
g100
g101
ssg82
g274
sg75
(lp286
S':'
asbag68
(g89
g70
NtRp287
(dp288
g73
(dp289
sg82
g274
sg75
(lp290
g68
(g69
g70
NtRp291
(dp292
g73
(dp293
g81
I3
ssg82
g287
sg75
(lp294
S''
asbasbasbag68
(g84
g70
NtRp295
(dp296
g73
(dp297
sg82
g270
sg75
(lp298
g68
(g89
g70
NtRp299
(dp300
g73
(dp301
g93
g94
ssg82
g295
sg75
(lp302
S'domain'
p303
asbag68
(g89
g70
NtRp304
(dp305
g73
(dp306
g100
g101
ssg82
g295
sg75
(lp307
S':'
asbag68
(g89
g70
NtRp308
(dp309
g73
(dp310
sg82
g295
sg75
(lp311
g68
(g69
g70
NtRp312
(dp313
g73
(dp314
g81
I3
ssg82
g308
sg75
(lp315
S''
asbasbasbag68
(g84
g70
NtRp316
(dp317
g73
(dp318
sg82
g270
sg75
(lp319
g68
(g89
g70
NtRp320
(dp321
g73
(dp322
g93
g94
ssg82
g316
sg75
(lp323
S'expires'
p324
asbag68
(g89
g70
NtRp325
(dp326
g73
(dp327
g100
g101
ssg82
g316
sg75
(lp328
S':'
asbag68
(g89
g70
NtRp329
(dp330
g73
(dp331
sg82
g316
sg75
(lp332
g68
(g69
g70
NtRp333
(dp334
g73
(dp335
g81
I3
ssg82
g329
sg75
(lp336
S''
asbasbasbag68
(g84
g70
NtRp337
(dp338
g73
(dp339
sg82
g270
sg75
(lp340
g68
(g89
g70
NtRp341
(dp342
g73
(dp343
g93
g94
ssg82
g337
sg75
(lp344
S'httponly'
p345
asbag68
(g89
g70
NtRp346
(dp347
g73
(dp348
g100
g101
ssg82
g337
sg75
(lp349
S':'
asbag68
(g89
g70
NtRp350
(dp351
g73
(dp352
sg82
g337
sg75
(lp353
g68
(g69
g70
NtRp354
(dp355
g73
(dp356
g81
I3
ssg82
g350
sg75
(lp357
S''
asbasbasbag68
(g84
g70
NtRp358
(dp359
g73
(dp360
sg82
g270
sg75
(lp361
g68
(g89
g70
NtRp362
(dp363
g73
(dp364
g93
g94
ssg82
g358
sg75
(lp365
S'max-age'
p366
asbag68
(g89
g70
NtRp367
(dp368
g73
(dp369
g100
g101
ssg82
g358
sg75
(lp370
S':'
asbag68
(g89
g70
NtRp371
(dp372
g73
(dp373
sg82
g358
sg75
(lp374
g68
(g69
g70
NtRp375
(dp376
g73
(dp377
g81
I3
ssg82
g371
sg75
(lp378
S''
asbasbasbag68
(g84
g70
NtRp379
(dp380
g73
(dp381
sg82
g270
sg75
(lp382
g68
(g89
g70
NtRp383
(dp384
g73
(dp385
g93
g94
ssg82
g379
sg75
(lp386
S'path'
p387
asbag68
(g89
g70
NtRp388
(dp389
g73
(dp390
g100
g101
ssg82
g379
sg75
(lp391
S':'
asbag68
(g89
g70
NtRp392
(dp393
g73
(dp394
sg82
g379
sg75
(lp395
g68
(g69
g70
NtRp396
(dp397
g73
(dp398
g81
I3
ssg82
g392
sg75
(lp399
S''
asbasbasbag68
(g84
g70
NtRp400
(dp401
g73
(dp402
sg82
g270
sg75
(lp403
g68
(g89
g70
NtRp404
(dp405
g73
(dp406
g93
g94
ssg82
g400
sg75
(lp407
S'secure'
p408
asbag68
(g89
g70
NtRp409
(dp410
g73
(dp411
g100
g101
ssg82
g400
sg75
(lp412
S':'
asbag68
(g89
g70
NtRp413
(dp414
g73
(dp415
sg82
g400
sg75
(lp416
g68
(g69
g70
NtRp417
(dp418
g73
(dp419
g81
I3
ssg82
g413
sg75
(lp420
S''
asbasbasbag68
(g84
g70
NtRp421
(dp422
g73
(dp423
sg82
g270
sg75
(lp424
g68
(g89
g70
NtRp425
(dp426
g73
(dp427
g93
g94
ssg82
g421
sg75
(lp428
S'version'
p429
asbag68
(g89
g70
NtRp430
(dp431
g73
(dp432
g100
g101
ssg82
g421
sg75
(lp433
S':'
asbag68
(g89
g70
NtRp434
(dp435
g73
(dp436
sg82
g421
sg75
(lp437
g68
(g69
g70
NtRp438
(dp439
g73
(dp440
g81
I3
ssg82
g434
sg75
(lp441
S''
asbasbasbasbasbasbasbag68
(g84
g70
NtRp442
(dp443
g73
(dp444
sg82
g245
sg75
(lp445
g68
(g89
g70
NtRp446
(dp447
g73
(dp448
g93
g94
ssg82
g442
sg75
(lp449
S'session_id_scrum'
p450
asbag68
(g89
g70
NtRp451
(dp452
g73
(dp453
g100
g101
ssg82
g442
sg75
(lp454
S':'
asbag68
(g89
g70
NtRp455
(dp456
g73
(dp457
sg82
g442
sg75
(lp458
g68
(g69
g70
NtRp459
(dp460
g73
(dp461
g81
I4
ssg82
g455
sg75
(lp462
g68
(g77
g70
NtRp463
(dp464
g73
(dp465
g81
I3
ssg82
Nsg75
(lp466
g68
(g84
g70
NtRp467
(dp468
g73
(dp469
sg82
g463
sg75
(lp470
g68
(g89
g70
NtRp471
(dp472
g73
(dp473
g93
g94
ssg82
g467
sg75
(lp474
g282
asbag68
(g89
g70
NtRp475
(dp476
g73
(dp477
g100
g101
ssg82
g467
sg75
(lp478
S':'
asbag68
(g89
g70
NtRp479
(dp480
g73
(dp481
sg82
g467
sg75
(lp482
g68
(g69
g70
NtRp483
(dp484
g73
(dp485
g81
I3
ssg82
g479
sg75
(lp486
S''
asbasbasbag68
(g84
g70
NtRp487
(dp488
g73
(dp489
sg82
g463
sg75
(lp490
g68
(g89
g70
NtRp491
(dp492
g73
(dp493
g93
g94
ssg82
g487
sg75
(lp494
g303
asbag68
(g89
g70
NtRp495
(dp496
g73
(dp497
g100
g101
ssg82
g487
sg75
(lp498
S':'
asbag68
(g89
g70
NtRp499
(dp500
g73
(dp501
sg82
g487
sg75
(lp502
g68
(g69
g70
NtRp503
(dp504
g73
(dp505
g81
I3
ssg82
g499
sg75
(lp506
S''
asbasbasbag68
(g84
g70
NtRp507
(dp508
g73
(dp509
sg82
g463
sg75
(lp510
g68
(g89
g70
NtRp511
(dp512
g73
(dp513
g93
g94
ssg82
g507
sg75
(lp514
g324
asbag68
(g89
g70
NtRp515
(dp516
g73
(dp517
g100
g101
ssg82
g507
sg75
(lp518
S':'
asbag68
(g89
g70
NtRp519
(dp520
g73
(dp521
sg82
g507
sg75
(lp522
g68
(g69
g70
NtRp523
(dp524
g73
(dp525
g81
I3
ssg82
g519
sg75
(lp526
S''
asbasbasbag68
(g84
g70
NtRp527
(dp528
g73
(dp529
sg82
g463
sg75
(lp530
g68
(g89
g70
NtRp531
(dp532
g73
(dp533
g93
g94
ssg82
g527
sg75
(lp534
g345
asbag68
(g89
g70
NtRp535
(dp536
g73
(dp537
g100
g101
ssg82
g527
sg75
(lp538
S':'
asbag68
(g89
g70
NtRp539
(dp540
g73
(dp541
sg82
g527
sg75
(lp542
g68
(g69
g70
NtRp543
(dp544
g73
(dp545
g81
I3
ssg82
g539
sg75
(lp546
S''
asbasbasbag68
(g84
g70
NtRp547
(dp548
g73
(dp549
sg82
g463
sg75
(lp550
g68
(g89
g70
NtRp551
(dp552
g73
(dp553
g93
g94
ssg82
g547
sg75
(lp554
g366
asbag68
(g89
g70
NtRp555
(dp556
g73
(dp557
g100
g101
ssg82
g547
sg75
(lp558
S':'
asbag68
(g89
g70
NtRp559
(dp560
g73
(dp561
sg82
g547
sg75
(lp562
g68
(g69
g70
NtRp563
(dp564
g73
(dp565
g81
I3
ssg82
g559
sg75
(lp566
S''
asbasbasbag68
(g84
g70
NtRp567
(dp568
g73
(dp569
sg82
g463
sg75
(lp570
g68
(g89
g70
NtRp571
(dp572
g73
(dp573
g93
g94
ssg82
g567
sg75
(lp574
g387
asbag68
(g89
g70
NtRp575
(dp576
g73
(dp577
g100
g101
ssg82
g567
sg75
(lp578
S':'
asbag68
(g89
g70
NtRp579
(dp580
g73
(dp581
sg82
g567
sg75
(lp582
g68
(g69
g70
NtRp583
(dp584
g73
(dp585
g81
I3
ssg82
g579
sg75
(lp586
S''
asbasbasbag68
(g84
g70
NtRp587
(dp588
g73
(dp589
sg82
g463
sg75
(lp590
g68
(g89
g70
NtRp591
(dp592
g73
(dp593
g93
g94
ssg82
g587
sg75
(lp594
g408
asbag68
(g89
g70
NtRp595
(dp596
g73
(dp597
g100
g101
ssg82
g587
sg75
(lp598
S':'
asbag68
(g89
g70
NtRp599
(dp600
g73
(dp601
sg82
g587
sg75
(lp602
g68
(g69
g70
NtRp603
(dp604
g73
(dp605
g81
I3
ssg82
g599
sg75
(lp606
S''
asbasbasbag68
(g84
g70
NtRp607
(dp608
g73
(dp609
sg82
g463
sg75
(lp610
g68
(g89
g70
NtRp611
(dp612
g73
(dp613
g93
g94
ssg82
g607
sg75
(lp614
g429
asbag68
(g89
g70
NtRp615
(dp616
g73
(dp617
g100
g101
ssg82
g607
sg75
(lp618
S':'
asbag68
(g89
g70
NtRp619
(dp620
g73
(dp621
sg82
g607
sg75
(lp622
g68
(g69
g70
NtRp623
(dp624
g73
(dp625
g81
I3
ssg82
g619
sg75
(lp626
S''
asbasbasbasbasbasbasbag68
(g84
g70
NtRp627
(dp628
g73
(dp629
sg82
g245
sg75
(lp630
g68
(g89
g70
NtRp631
(dp632
g73
(dp633
g93
g94
ssg82
g627
sg75
(lp634
S'session_id_welcome'
p635
asbag68
(g89
g70
NtRp636
(dp637
g73
(dp638
g100
g101
ssg82
g627
sg75
(lp639
S':'
asbag68
(g89
g70
NtRp640
(dp641
g73
(dp642
sg82
g627
sg75
(lp643
g68
(g69
g70
NtRp644
(dp645
g73
(dp646
g81
I4
ssg82
g640
sg75
(lp647
g68
(g77
g70
NtRp648
(dp649
g73
(dp650
g81
I3
ssg82
Nsg75
(lp651
g68
(g84
g70
NtRp652
(dp653
g73
(dp654
sg82
g648
sg75
(lp655
g68
(g89
g70
NtRp656
(dp657
g73
(dp658
g93
g94
ssg82
g652
sg75
(lp659
g282
asbag68
(g89
g70
NtRp660
(dp661
g73
(dp662
g100
g101
ssg82
g652
sg75
(lp663
S':'
asbag68
(g89
g70
NtRp664
(dp665
g73
(dp666
sg82
g652
sg75
(lp667
g68
(g69
g70
NtRp668
(dp669
g73
(dp670
g81
I3
ssg82
g664
sg75
(lp671
S''
asbasbasbag68
(g84
g70
NtRp672
(dp673
g73
(dp674
sg82
g648
sg75
(lp675
g68
(g89
g70
NtRp676
(dp677
g73
(dp678
g93
g94
ssg82
g672
sg75
(lp679
g303
asbag68
(g89
g70
NtRp680
(dp681
g73
(dp682
g100
g101
ssg82
g672
sg75
(lp683
S':'
asbag68
(g89
g70
NtRp684
(dp685
g73
(dp686
sg82
g672
sg75
(lp687
g68
(g69
g70
NtRp688
(dp689
g73
(dp690
g81
I3
ssg82
g684
sg75
(lp691
S''
asbasbasbag68
(g84
g70
NtRp692
(dp693
g73
(dp694
sg82
g648
sg75
(lp695
g68
(g89
g70
NtRp696
(dp697
g73
(dp698
g93
g94
ssg82
g692
sg75
(lp699
g324
asbag68
(g89
g70
NtRp700
(dp701
g73
(dp702
g100
g101
ssg82
g692
sg75
(lp703
S':'
asbag68
(g89
g70
NtRp704
(dp705
g73
(dp706
sg82
g692
sg75
(lp707
g68
(g69
g70
NtRp708
(dp709
g73
(dp710
g81
I3
ssg82
g704
sg75
(lp711
S''
asbasbasbag68
(g84
g70
NtRp712
(dp713
g73
(dp714
sg82
g648
sg75
(lp715
g68
(g89
g70
NtRp716
(dp717
g73
(dp718
g93
g94
ssg82
g712
sg75
(lp719
g345
asbag68
(g89
g70
NtRp720
(dp721
g73
(dp722
g100
g101
ssg82
g712
sg75
(lp723
S':'
asbag68
(g89
g70
NtRp724
(dp725
g73
(dp726
sg82
g712
sg75
(lp727
g68
(g69
g70
NtRp728
(dp729
g73
(dp730
g81
I3
ssg82
g724
sg75
(lp731
S''
asbasbasbag68
(g84
g70
NtRp732
(dp733
g73
(dp734
sg82
g648
sg75
(lp735
g68
(g89
g70
NtRp736
(dp737
g73
(dp738
g93
g94
ssg82
g732
sg75
(lp739
g366
asbag68
(g89
g70
NtRp740
(dp741
g73
(dp742
g100
g101
ssg82
g732
sg75
(lp743
S':'
asbag68
(g89
g70
NtRp744
(dp745
g73
(dp746
sg82
g732
sg75
(lp747
g68
(g69
g70
NtRp748
(dp749
g73
(dp750
g81
I3
ssg82
g744
sg75
(lp751
S''
asbasbasbag68
(g84
g70
NtRp752
(dp753
g73
(dp754
sg82
g648
sg75
(lp755
g68
(g89
g70
NtRp756
(dp757
g73
(dp758
g93
g94
ssg82
g752
sg75
(lp759
g387
asbag68
(g89
g70
NtRp760
(dp761
g73
(dp762
g100
g101
ssg82
g752
sg75
(lp763
S':'
asbag68
(g89
g70
NtRp764
(dp765
g73
(dp766
sg82
g752
sg75
(lp767
g68
(g69
g70
NtRp768
(dp769
g73
(dp770
g81
I3
ssg82
g764
sg75
(lp771
S''
asbasbasbag68
(g84
g70
NtRp772
(dp773
g73
(dp774
sg82
g648
sg75
(lp775
g68
(g89
g70
NtRp776
(dp777
g73
(dp778
g93
g94
ssg82
g772
sg75
(lp779
g408
asbag68
(g89
g70
NtRp780
(dp781
g73
(dp782
g100
g101
ssg82
g772
sg75
(lp783
S':'
asbag68
(g89
g70
NtRp784
(dp785
g73
(dp786
sg82
g772
sg75
(lp787
g68
(g69
g70
NtRp788
(dp789
g73
(dp790
g81
I3
ssg82
g784
sg75
(lp791
S''
asbasbasbag68
(g84
g70
NtRp792
(dp793
g73
(dp794
sg82
g648
sg75
(lp795
g68
(g89
g70
NtRp796
(dp797
g73
(dp798
g93
g94
ssg82
g792
sg75
(lp799
g429
asbag68
(g89
g70
NtRp800
(dp801
g73
(dp802
g100
g101
ssg82
g792
sg75
(lp803
S':'
asbag68
(g89
g70
NtRp804
(dp805
g73
(dp806
sg82
g792
sg75
(lp807
g68
(g69
g70
NtRp808
(dp809
g73
(dp810
g81
I3
ssg82
g804
sg75
(lp811
S''
asbasbasbasbasbasbasbasbasbasbasbag68
(g84
g70
NtRp812
(dp813
g73
(dp814
sg82
g78
sg75
(lp815
g68
(g89
g70
NtRp816
(dp817
g73
(dp818
g93
g94
ssg82
g812
sg75
(lp819
S'env'
p820
asbag68
(g89
g70
NtRp821
(dp822
g73
(dp823
g100
g101
ssg82
g812
sg75
(lp824
S':'
asbag68
(g89
g70
NtRp825
(dp826
g73
(dp827
sg82
g812
sg75
(lp828
g68
(g69
g70
NtRp829
(dp830
g73
(dp831
g81
I5
ssg82
g825
sg75
(lp832
g68
(g77
g70
NtRp833
(dp834
g73
(dp835
g81
I4
ssg82
Nsg75
(lp836
g68
(g84
g70
NtRp837
(dp838
g73
(dp839
sg82
g833
sg75
(lp840
g68
(g89
g70
NtRp841
(dp842
g73
(dp843
g93
g94
ssg82
g837
sg75
(lp844
S'app_folders'
p845
asbag68
(g89
g70
NtRp846
(dp847
g73
(dp848
g100
g101
ssg82
g837
sg75
(lp849
S':'
asbag68
(g89
g70
NtRp850
(dp851
g73
(dp852
sg82
g837
sg75
(lp853
g68
(g69
g70
NtRp854
(dp855
g73
(dp856
g81
I4
ssg82
g850
sg75
(lp857
S"set(['/home/www-data/web2py/applications/scrum/', '/home/www-data/web2py/applications/welcome/', '/home/www-data/web2py/applications/admin/'])"
p858
asbasbasbag68
(g84
g70
NtRp859
(dp860
g73
(dp861
sg82
g833
sg75
(lp862
g68
(g89
g70
NtRp863
(dp864
g73
(dp865
g93
g94
ssg82
g859
sg75
(lp866
S'applications_parent'
p867
asbag68
(g89
g70
NtRp868
(dp869
g73
(dp870
g100
g101
ssg82
g859
sg75
(lp871
S':'
asbag68
(g89
g70
NtRp872
(dp873
g73
(dp874
sg82
g859
sg75
(lp875
g68
(g69
g70
NtRp876
(dp877
g73
(dp878
g81
I4
ssg82
g872
sg75
(lp879
S'/home/www-data/web2py'
p880
asbasbasbag68
(g84
g70
NtRp881
(dp882
g73
(dp883
sg82
g833
sg75
(lp884
g68
(g89
g70
NtRp885
(dp886
g73
(dp887
g93
g94
ssg82
g881
sg75
(lp888
S'db_sessions'
p889
asbag68
(g89
g70
NtRp890
(dp891
g73
(dp892
g100
g101
ssg82
g881
sg75
(lp893
S':'
asbag68
(g89
g70
NtRp894
(dp895
g73
(dp896
sg82
g881
sg75
(lp897
g68
(g69
g70
NtRp898
(dp899
g73
(dp900
g81
I4
ssg82
g894
sg75
(lp901
S'set([])'
p902
asbasbasbag68
(g84
g70
NtRp903
(dp904
g73
(dp905
sg82
g833
sg75
(lp906
g68
(g89
g70
NtRp907
(dp908
g73
(dp909
g93
g94
ssg82
g903
sg75
(lp910
S'debugging'
p911
asbag68
(g89
g70
NtRp912
(dp913
g73
(dp914
g100
g101
ssg82
g903
sg75
(lp915
S':'
asbag68
(g89
g70
NtRp916
(dp917
g73
(dp918
sg82
g903
sg75
(lp919
g68
(g69
g70
NtRp920
(dp921
g73
(dp922
g81
I4
ssg82
g916
sg75
(lp923
g111
asbasbasbag68
(g84
g70
NtRp924
(dp925
g73
(dp926
sg82
g833
sg75
(lp927
g68
(g89
g70
NtRp928
(dp929
g73
(dp930
g93
g94
ssg82
g924
sg75
(lp931
S'document_root'
p932
asbag68
(g89
g70
NtRp933
(dp934
g73
(dp935
g100
g101
ssg82
g924
sg75
(lp936
S':'
asbag68
(g89
g70
NtRp937
(dp938
g73
(dp939
sg82
g924
sg75
(lp940
g68
(g69
g70
NtRp941
(dp942
g73
(dp943
g81
I4
ssg82
g937
sg75
(lp944
S'/etc/apache2/htdocs'
p945
asbasbasbag68
(g84
g70
NtRp946
(dp947
g73
(dp948
sg82
g833
sg75
(lp949
g68
(g89
g70
NtRp950
(dp951
g73
(dp952
g93
g94
ssg82
g946
sg75
(lp953
S'gateway_interface'
p954
asbag68
(g89
g70
NtRp955
(dp956
g73
(dp957
g100
g101
ssg82
g946
sg75
(lp958
S':'
asbag68
(g89
g70
NtRp959
(dp960
g73
(dp961
sg82
g946
sg75
(lp962
g68
(g69
g70
NtRp963
(dp964
g73
(dp965
g81
I4
ssg82
g959
sg75
(lp966
S'CGI/1.1'
p967
asbasbasbag68
(g84
g70
NtRp968
(dp969
g73
(dp970
sg82
g833
sg75
(lp971
g68
(g89
g70
NtRp972
(dp973
g73
(dp974
g93
g94
ssg82
g968
sg75
(lp975
S'gluon_parent'
p976
asbag68
(g89
g70
NtRp977
(dp978
g73
(dp979
g100
g101
ssg82
g968
sg75
(lp980
S':'
asbag68
(g89
g70
NtRp981
(dp982
g73
(dp983
sg82
g968
sg75
(lp984
g68
(g69
g70
NtRp985
(dp986
g73
(dp987
g81
I4
ssg82
g981
sg75
(lp988
g880
asbasbasbag68
(g84
g70
NtRp989
(dp990
g73
(dp991
sg82
g833
sg75
(lp992
g68
(g89
g70
NtRp993
(dp994
g73
(dp995
g93
g94
ssg82
g989
sg75
(lp996
S'http_accept'
p997
asbag68
(g89
g70
NtRp998
(dp999
g73
(dp1000
g100
g101
ssg82
g989
sg75
(lp1001
S':'
asbag68
(g89
g70
NtRp1002
(dp1003
g73
(dp1004
sg82
g989
sg75
(lp1005
g68
(g69
g70
NtRp1006
(dp1007
g73
(dp1008
g81
I4
ssg82
g1002
sg75
(lp1009
S'text/html, application/xml;q=0.9, application/xhtml+xml, image/png, image/webp, image/jpeg, image/gif, image/x-xbitmap, */*;q=0.1'
p1010
asbasbasbag68
(g84
g70
NtRp1011
(dp1012
g73
(dp1013
sg82
g833
sg75
(lp1014
g68
(g89
g70
NtRp1015
(dp1016
g73
(dp1017
g93
g94
ssg82
g1011
sg75
(lp1018
S'http_accept_encoding'
p1019
asbag68
(g89
g70
NtRp1020
(dp1021
g73
(dp1022
g100
g101
ssg82
g1011
sg75
(lp1023
S':'
asbag68
(g89
g70
NtRp1024
(dp1025
g73
(dp1026
sg82
g1011
sg75
(lp1027
g68
(g69
g70
NtRp1028
(dp1029
g73
(dp1030
g81
I4
ssg82
g1024
sg75
(lp1031
S'gzip, deflate'
p1032
asbasbasbag68
(g84
g70
NtRp1033
(dp1034
g73
(dp1035
sg82
g833
sg75
(lp1036
g68
(g89
g70
NtRp1037
(dp1038
g73
(dp1039
g93
g94
ssg82
g1033
sg75
(lp1040
S'http_accept_language'
p1041
asbag68
(g89
g70
NtRp1042
(dp1043
g73
(dp1044
g100
g101
ssg82
g1033
sg75
(lp1045
S':'
asbag68
(g89
g70
NtRp1046
(dp1047
g73
(dp1048
sg82
g1033
sg75
(lp1049
g68
(g69
g70
NtRp1050
(dp1051
g73
(dp1052
g81
I4
ssg82
g1046
sg75
(lp1053
S'pt-BR,pt;q=0.9,en;q=0.8'
p1054
asbasbasbag68
(g84
g70
NtRp1055
(dp1056
g73
(dp1057
sg82
g833
sg75
(lp1058
g68
(g89
g70
NtRp1059
(dp1060
g73
(dp1061
g93
g94
ssg82
g1055
sg75
(lp1062
S'http_connection'
p1063
asbag68
(g89
g70
NtRp1064
(dp1065
g73
(dp1066
g100
g101
ssg82
g1055
sg75
(lp1067
S':'
asbag68
(g89
g70
NtRp1068
(dp1069
g73
(dp1070
sg82
g1055
sg75
(lp1071
g68
(g69
g70
NtRp1072
(dp1073
g73
(dp1074
g81
I4
ssg82
g1068
sg75
(lp1075
S'Keep-Alive'
p1076
asbasbasbag68
(g84
g70
NtRp1077
(dp1078
g73
(dp1079
sg82
g833
sg75
(lp1080
g68
(g89
g70
NtRp1081
(dp1082
g73
(dp1083
g93
g94
ssg82
g1077
sg75
(lp1084
S'http_cookie'
p1085
asbag68
(g89
g70
NtRp1086
(dp1087
g73
(dp1088
g100
g101
ssg82
g1077
sg75
(lp1089
S':'
asbag68
(g89
g70
NtRp1090
(dp1091
g73
(dp1092
sg82
g1077
sg75
(lp1093
g68
(g69
g70
NtRp1094
(dp1095
g73
(dp1096
g81
I4
ssg82
g1090
sg75
(lp1097
S'session_id_welcome=127.0.0.1-59bb9f3c-ccbe-49d8-bb33-39cb1149a47f; session_id_scrum=127.0.0.1-f47d3ac4-8d8c-46d5-8321-f944561d518f; session_id_admin=127.0.0.1-ce034cfe-dc55-49ae-8249-b059df779a22'
p1098
asbasbasbag68
(g84
g70
NtRp1099
(dp1100
g73
(dp1101
sg82
g833
sg75
(lp1102
g68
(g89
g70
NtRp1103
(dp1104
g73
(dp1105
g93
g94
ssg82
g1099
sg75
(lp1106
S'http_host'
p1107
asbag68
(g89
g70
NtRp1108
(dp1109
g73
(dp1110
g100
g101
ssg82
g1099
sg75
(lp1111
S':'
asbag68
(g89
g70
NtRp1112
(dp1113
g73
(dp1114
sg82
g1099
sg75
(lp1115
g68
(g69
g70
NtRp1116
(dp1117
g73
(dp1118
g81
I4
ssg82
g1112
sg75
(lp1119
S'localhost'
p1120
asbasbasbag68
(g84
g70
NtRp1121
(dp1122
g73
(dp1123
sg82
g833
sg75
(lp1124
g68
(g89
g70
NtRp1125
(dp1126
g73
(dp1127
g93
g94
ssg82
g1121
sg75
(lp1128
S'http_user_agent'
p1129
asbag68
(g89
g70
NtRp1130
(dp1131
g73
(dp1132
g100
g101
ssg82
g1121
sg75
(lp1133
S':'
asbag68
(g89
g70
NtRp1134
(dp1135
g73
(dp1136
sg82
g1121
sg75
(lp1137
g68
(g69
g70
NtRp1138
(dp1139
g73
(dp1140
g81
I4
ssg82
g1134
sg75
(lp1141
S'Opera/9.80 (X11; Linux i686; U; pt-BR) Presto/2.9.168 Version/11.51'
p1142
asbasbasbag68
(g84
g70
NtRp1143
(dp1144
g73
(dp1145
sg82
g833
sg75
(lp1146
g68
(g89
g70
NtRp1147
(dp1148
g73
(dp1149
g93
g94
ssg82
g1143
sg75
(lp1150
S'https'
p1151
asbag68
(g89
g70
NtRp1152
(dp1153
g73
(dp1154
g100
g101
ssg82
g1143
sg75
(lp1155
S':'
asbag68
(g89
g70
NtRp1156
(dp1157
g73
(dp1158
sg82
g1143
sg75
(lp1159
g68
(g69
g70
NtRp1160
(dp1161
g73
(dp1162
g81
I4
ssg82
g1156
sg75
(lp1163
S'1'
asbasbasbag68
(g84
g70
NtRp1164
(dp1165
g73
(dp1166
sg82
g833
sg75
(lp1167
g68
(g89
g70
NtRp1168
(dp1169
g73
(dp1170
g93
g94
ssg82
g1164
sg75
(lp1171
S'is_jython'
p1172
asbag68
(g89
g70
NtRp1173
(dp1174
g73
(dp1175
g100
g101
ssg82
g1164
sg75
(lp1176
S':'
asbag68
(g89
g70
NtRp1177
(dp1178
g73
(dp1179
sg82
g1164
sg75
(lp1180
g68
(g69
g70
NtRp1181
(dp1182
g73
(dp1183
g81
I4
ssg82
g1177
sg75
(lp1184
g111
asbasbasbag68
(g84
g70
NtRp1185
(dp1186
g73
(dp1187
sg82
g833
sg75
(lp1188
g68
(g89
g70
NtRp1189
(dp1190
g73
(dp1191
g93
g94
ssg82
g1185
sg75
(lp1192
S'mod_wsgi_application_group'
p1193
asbag68
(g89
g70
NtRp1194
(dp1195
g73
(dp1196
g100
g101
ssg82
g1185
sg75
(lp1197
S':'
asbag68
(g89
g70
NtRp1198
(dp1199
g73
(dp1200
sg82
g1185
sg75
(lp1201
g68
(g69
g70
NtRp1202
(dp1203
g73
(dp1204
g81
I4
ssg82
g1198
sg75
(lp1205
S'localhost.localdomain|'
p1206
asbasbasbag68
(g84
g70
NtRp1207
(dp1208
g73
(dp1209
sg82
g833
sg75
(lp1210
g68
(g89
g70
NtRp1211
(dp1212
g73
(dp1213
g93
g94
ssg82
g1207
sg75
(lp1214
S'mod_wsgi_callable_object'
p1215
asbag68
(g89
g70
NtRp1216
(dp1217
g73
(dp1218
g100
g101
ssg82
g1207
sg75
(lp1219
S':'
asbag68
(g89
g70
NtRp1220
(dp1221
g73
(dp1222
sg82
g1207
sg75
(lp1223
g68
(g69
g70
NtRp1224
(dp1225
g73
(dp1226
g81
I4
ssg82
g1220
sg75
(lp1227
S'application'
p1228
asbasbasbag68
(g84
g70
NtRp1229
(dp1230
g73
(dp1231
sg82
g833
sg75
(lp1232
g68
(g89
g70
NtRp1233
(dp1234
g73
(dp1235
g93
g94
ssg82
g1229
sg75
(lp1236
S'mod_wsgi_handler_script'
p1237
asbag68
(g89
g70
NtRp1238
(dp1239
g73
(dp1240
g100
g101
ssg82
g1229
sg75
(lp1241
S':'
asbag68
(g89
g70
NtRp1242
(dp1243
g73
(dp1244
sg82
g1229
sg75
(lp1245
g68
(g69
g70
NtRp1246
(dp1247
g73
(dp1248
g81
I4
ssg82
g1242
sg75
(lp1249
S''
asbasbasbag68
(g84
g70
NtRp1250
(dp1251
g73
(dp1252
sg82
g833
sg75
(lp1253
g68
(g89
g70
NtRp1254
(dp1255
g73
(dp1256
g93
g94
ssg82
g1250
sg75
(lp1257
S'mod_wsgi_input_chunked'
p1258
asbag68
(g89
g70
NtRp1259
(dp1260
g73
(dp1261
g100
g101
ssg82
g1250
sg75
(lp1262
S':'
asbag68
(g89
g70
NtRp1263
(dp1264
g73
(dp1265
sg82
g1250
sg75
(lp1266
g68
(g69
g70
NtRp1267
(dp1268
g73
(dp1269
g81
I4
ssg82
g1263
sg75
(lp1270
S'0'
asbasbasbag68
(g84
g70
NtRp1271
(dp1272
g73
(dp1273
sg82
g833
sg75
(lp1274
g68
(g89
g70
NtRp1275
(dp1276
g73
(dp1277
g93
g94
ssg82
g1271
sg75
(lp1278
S'mod_wsgi_listener_host'
p1279
asbag68
(g89
g70
NtRp1280
(dp1281
g73
(dp1282
g100
g101
ssg82
g1271
sg75
(lp1283
S':'
asbag68
(g89
g70
NtRp1284
(dp1285
g73
(dp1286
sg82
g1271
sg75
(lp1287
g68
(g69
g70
NtRp1288
(dp1289
g73
(dp1290
g81
I4
ssg82
g1284
sg75
(lp1291
S''
asbasbasbag68
(g84
g70
NtRp1292
(dp1293
g73
(dp1294
sg82
g833
sg75
(lp1295
g68
(g89
g70
NtRp1296
(dp1297
g73
(dp1298
g93
g94
ssg82
g1292
sg75
(lp1299
S'mod_wsgi_listener_port'
p1300
asbag68
(g89
g70
NtRp1301
(dp1302
g73
(dp1303
g100
g101
ssg82
g1292
sg75
(lp1304
S':'
asbag68
(g89
g70
NtRp1305
(dp1306
g73
(dp1307
sg82
g1292
sg75
(lp1308
g68
(g69
g70
NtRp1309
(dp1310
g73
(dp1311
g81
I4
ssg82
g1305
sg75
(lp1312
S'443'
p1313
asbasbasbag68
(g84
g70
NtRp1314
(dp1315
g73
(dp1316
sg82
g833
sg75
(lp1317
g68
(g89
g70
NtRp1318
(dp1319
g73
(dp1320
g93
g94
ssg82
g1314
sg75
(lp1321
S'mod_wsgi_process_group'
p1322
asbag68
(g89
g70
NtRp1323
(dp1324
g73
(dp1325
g100
g101
ssg82
g1314
sg75
(lp1326
S':'
asbag68
(g89
g70
NtRp1327
(dp1328
g73
(dp1329
sg82
g1314
sg75
(lp1330
g68
(g69
g70
NtRp1331
(dp1332
g73
(dp1333
g81
I4
ssg82
g1327
sg75
(lp1334
S'web2py'
p1335
asbasbasbag68
(g84
g70
NtRp1336
(dp1337
g73
(dp1338
sg82
g833
sg75
(lp1339
g68
(g89
g70
NtRp1340
(dp1341
g73
(dp1342
g93
g94
ssg82
g1336
sg75
(lp1343
S'mod_wsgi_request_handler'
p1344
asbag68
(g89
g70
NtRp1345
(dp1346
g73
(dp1347
g100
g101
ssg82
g1336
sg75
(lp1348
S':'
asbag68
(g89
g70
NtRp1349
(dp1350
g73
(dp1351
sg82
g1336
sg75
(lp1352
g68
(g69
g70
NtRp1353
(dp1354
g73
(dp1355
g81
I4
ssg82
g1349
sg75
(lp1356
S'wsgi-script'
p1357
asbasbasbag68
(g84
g70
NtRp1358
(dp1359
g73
(dp1360
sg82
g833
sg75
(lp1361
g68
(g89
g70
NtRp1362
(dp1363
g73
(dp1364
g93
g94
ssg82
g1358
sg75
(lp1365
S'mod_wsgi_script_reloading'
p1366
asbag68
(g89
g70
NtRp1367
(dp1368
g73
(dp1369
g100
g101
ssg82
g1358
sg75
(lp1370
S':'
asbag68
(g89
g70
NtRp1371
(dp1372
g73
(dp1373
sg82
g1358
sg75
(lp1374
g68
(g69
g70
NtRp1375
(dp1376
g73
(dp1377
g81
I4
ssg82
g1371
sg75
(lp1378
S'1'
asbasbasbag68
(g84
g70
NtRp1379
(dp1380
g73
(dp1381
sg82
g833
sg75
(lp1382
g68
(g89
g70
NtRp1383
(dp1384
g73
(dp1385
g93
g94
ssg82
g1379
sg75
(lp1386
S'mod_wsgi_version'
p1387
asbag68
(g89
g70
NtRp1388
(dp1389
g73
(dp1390
g100
g101
ssg82
g1379
sg75
(lp1391
S':'
asbag68
(g89
g70
NtRp1392
(dp1393
g73
(dp1394
sg82
g1379
sg75
(lp1395
g68
(g69
g70
NtRp1396
(dp1397
g73
(dp1398
g81
I4
ssg82
g1392
sg75
(lp1399
g68
(g77
g70
NtRp1400
(dp1401
g73
(dp1402
g81
I3
ssg82
Nsg75
(lp1403
g68
(g84
g70
NtRp1404
(dp1405
g73
(dp1406
sg82
g1400
sg75
(lp1407
g68
(g89
g70
NtRp1408
(dp1409
g73
(dp1410
sg82
g1404
sg75
(lp1411
g68
(g69
g70
NtRp1412
(dp1413
g73
(dp1414
g81
I3
ssg82
g1408
sg75
(lp1415
S'3'
asbasbasbag68
(g84
g70
NtRp1416
(dp1417
g73
(dp1418
sg82
g1400
sg75
(lp1419
g68
(g89
g70
NtRp1420
(dp1421
g73
(dp1422
sg82
g1416
sg75
(lp1423
g68
(g69
g70
NtRp1424
(dp1425
g73
(dp1426
g81
I3
ssg82
g1420
sg75
(lp1427
S'3'
asbasbasbasbasbasbasbag68
(g84
g70
NtRp1428
(dp1429
g73
(dp1430
sg82
g833
sg75
(lp1431
g68
(g89
g70
NtRp1432
(dp1433
g73
(dp1434
g93
g94
ssg82
g1428
sg75
(lp1435
S'path_info'
p1436
asbag68
(g89
g70
NtRp1437
(dp1438
g73
(dp1439
g100
g101
ssg82
g1428
sg75
(lp1440
S':'
asbag68
(g89
g70
NtRp1441
(dp1442
g73
(dp1443
sg82
g1428
sg75
(lp1444
g68
(g69
g70
NtRp1445
(dp1446
g73
(dp1447
g81
I4
ssg82
g1441
sg75
(lp1448
S'/scrum/ticket/novo'
p1449
asbasbasbag68
(g84
g70
NtRp1450
(dp1451
g73
(dp1452
sg82
g833
sg75
(lp1453
g68
(g89
g70
NtRp1454
(dp1455
g73
(dp1456
g93
g94
ssg82
g1450
sg75
(lp1457
S'path_translated'
p1458
asbag68
(g89
g70
NtRp1459
(dp1460
g73
(dp1461
g100
g101
ssg82
g1450
sg75
(lp1462
S':'
asbag68
(g89
g70
NtRp1463
(dp1464
g73
(dp1465
sg82
g1450
sg75
(lp1466
g68
(g69
g70
NtRp1467
(dp1468
g73
(dp1469
g81
I4
ssg82
g1463
sg75
(lp1470
S'/home/www-data/web2py/wsgihandler.py/scrum/ticket/novo'
p1471
asbasbasbag68
(g84
g70
NtRp1472
(dp1473
g73
(dp1474
sg82
g833
sg75
(lp1475
g68
(g89
g70
NtRp1476
(dp1477
g73
(dp1478
g93
g94
ssg82
g1472
sg75
(lp1479
S'query_string'
p1480
asbag68
(g89
g70
NtRp1481
(dp1482
g73
(dp1483
g100
g101
ssg82
g1472
sg75
(lp1484
S':'
asbag68
(g89
g70
NtRp1485
(dp1486
g73
(dp1487
sg82
g1472
sg75
(lp1488
g68
(g69
g70
NtRp1489
(dp1490
g73
(dp1491
g81
I4
ssg82
g1485
sg75
(lp1492
S''
asbasbasbag68
(g84
g70
NtRp1493
(dp1494
g73
(dp1495
sg82
g833
sg75
(lp1496
g68
(g89
g70
NtRp1497
(dp1498
g73
(dp1499
g93
g94
ssg82
g1493
sg75
(lp1500
S'remote_addr'
p1501
asbag68
(g89
g70
NtRp1502
(dp1503
g73
(dp1504
g100
g101
ssg82
g1493
sg75
(lp1505
S':'
asbag68
(g89
g70
NtRp1506
(dp1507
g73
(dp1508
sg82
g1493
sg75
(lp1509
g68
(g69
g70
NtRp1510
(dp1511
g73
(dp1512
g81
I4
ssg82
g1506
sg75
(lp1513
g201
asbasbasbag68
(g84
g70
NtRp1514
(dp1515
g73
(dp1516
sg82
g833
sg75
(lp1517
g68
(g89
g70
NtRp1518
(dp1519
g73
(dp1520
g93
g94
ssg82
g1514
sg75
(lp1521
S'remote_port'
p1522
asbag68
(g89
g70
NtRp1523
(dp1524
g73
(dp1525
g100
g101
ssg82
g1514
sg75
(lp1526
S':'
asbag68
(g89
g70
NtRp1527
(dp1528
g73
(dp1529
sg82
g1514
sg75
(lp1530
g68
(g69
g70
NtRp1531
(dp1532
g73
(dp1533
g81
I4
ssg82
g1527
sg75
(lp1534
S'55790'
p1535
asbasbasbag68
(g84
g70
NtRp1536
(dp1537
g73
(dp1538
sg82
g833
sg75
(lp1539
g68
(g89
g70
NtRp1540
(dp1541
g73
(dp1542
g93
g94
ssg82
g1536
sg75
(lp1543
S'request_method'
p1544
asbag68
(g89
g70
NtRp1545
(dp1546
g73
(dp1547
g100
g101
ssg82
g1536
sg75
(lp1548
S':'
asbag68
(g89
g70
NtRp1549
(dp1550
g73
(dp1551
sg82
g1536
sg75
(lp1552
g68
(g69
g70
NtRp1553
(dp1554
g73
(dp1555
g81
I4
ssg82
g1549
sg75
(lp1556
S'GET'
p1557
asbasbasbag68
(g84
g70
NtRp1558
(dp1559
g73
(dp1560
sg82
g833
sg75
(lp1561
g68
(g89
g70
NtRp1562
(dp1563
g73
(dp1564
g93
g94
ssg82
g1558
sg75
(lp1565
S'request_uri'
p1566
asbag68
(g89
g70
NtRp1567
(dp1568
g73
(dp1569
g100
g101
ssg82
g1558
sg75
(lp1570
S':'
asbag68
(g89
g70
NtRp1571
(dp1572
g73
(dp1573
sg82
g1558
sg75
(lp1574
g68
(g69
g70
NtRp1575
(dp1576
g73
(dp1577
g81
I4
ssg82
g1571
sg75
(lp1578
S'/scrum/ticket/novo'
p1579
asbasbasbag68
(g84
g70
NtRp1580
(dp1581
g73
(dp1582
sg82
g833
sg75
(lp1583
g68
(g89
g70
NtRp1584
(dp1585
g73
(dp1586
g93
g94
ssg82
g1580
sg75
(lp1587
S'script_filename'
p1588
asbag68
(g89
g70
NtRp1589
(dp1590
g73
(dp1591
g100
g101
ssg82
g1580
sg75
(lp1592
S':'
asbag68
(g89
g70
NtRp1593
(dp1594
g73
(dp1595
sg82
g1580
sg75
(lp1596
g68
(g69
g70
NtRp1597
(dp1598
g73
(dp1599
g81
I4
ssg82
g1593
sg75
(lp1600
S'/home/www-data/web2py/wsgihandler.py'
p1601
asbasbasbag68
(g84
g70
NtRp1602
(dp1603
g73
(dp1604
sg82
g833
sg75
(lp1605
g68
(g89
g70
NtRp1606
(dp1607
g73
(dp1608
g93
g94
ssg82
g1602
sg75
(lp1609
S'script_name'
p1610
asbag68
(g89
g70
NtRp1611
(dp1612
g73
(dp1613
g100
g101
ssg82
g1602
sg75
(lp1614
S':'
asbag68
(g89
g70
NtRp1615
(dp1616
g73
(dp1617
sg82
g1602
sg75
(lp1618
g68
(g69
g70
NtRp1619
(dp1620
g73
(dp1621
g81
I4
ssg82
g1615
sg75
(lp1622
S''
asbasbasbag68
(g84
g70
NtRp1623
(dp1624
g73
(dp1625
sg82
g833
sg75
(lp1626
g68
(g89
g70
NtRp1627
(dp1628
g73
(dp1629
g93
g94
ssg82
g1623
sg75
(lp1630
S'server_addr'
p1631
asbag68
(g89
g70
NtRp1632
(dp1633
g73
(dp1634
g100
g101
ssg82
g1623
sg75
(lp1635
S':'
asbag68
(g89
g70
NtRp1636
(dp1637
g73
(dp1638
sg82
g1623
sg75
(lp1639
g68
(g69
g70
NtRp1640
(dp1641
g73
(dp1642
g81
I4
ssg82
g1636
sg75
(lp1643
S'127.0.0.1'
p1644
asbasbasbag68
(g84
g70
NtRp1645
(dp1646
g73
(dp1647
sg82
g833
sg75
(lp1648
g68
(g89
g70
NtRp1649
(dp1650
g73
(dp1651
g93
g94
ssg82
g1645
sg75
(lp1652
S'server_admin'
p1653
asbag68
(g89
g70
NtRp1654
(dp1655
g73
(dp1656
g100
g101
ssg82
g1645
sg75
(lp1657
S':'
asbag68
(g89
g70
NtRp1658
(dp1659
g73
(dp1660
sg82
g1645
sg75
(lp1661
g68
(g69
g70
NtRp1662
(dp1663
g73
(dp1664
g81
I4
ssg82
g1658
sg75
(lp1665
S'[no address given]'
p1666
asbasbasbag68
(g84
g70
NtRp1667
(dp1668
g73
(dp1669
sg82
g833
sg75
(lp1670
g68
(g89
g70
NtRp1671
(dp1672
g73
(dp1673
g93
g94
ssg82
g1667
sg75
(lp1674
S'server_name'
p1675
asbag68
(g89
g70
NtRp1676
(dp1677
g73
(dp1678
g100
g101
ssg82
g1667
sg75
(lp1679
S':'
asbag68
(g89
g70
NtRp1680
(dp1681
g73
(dp1682
sg82
g1667
sg75
(lp1683
g68
(g69
g70
NtRp1684
(dp1685
g73
(dp1686
g81
I4
ssg82
g1680
sg75
(lp1687
S'localhost'
p1688
asbasbasbag68
(g84
g70
NtRp1689
(dp1690
g73
(dp1691
sg82
g833
sg75
(lp1692
g68
(g89
g70
NtRp1693
(dp1694
g73
(dp1695
g93
g94
ssg82
g1689
sg75
(lp1696
S'server_port'
p1697
asbag68
(g89
g70
NtRp1698
(dp1699
g73
(dp1700
g100
g101
ssg82
g1689
sg75
(lp1701
S':'
asbag68
(g89
g70
NtRp1702
(dp1703
g73
(dp1704
sg82
g1689
sg75
(lp1705
g68
(g69
g70
NtRp1706
(dp1707
g73
(dp1708
g81
I4
ssg82
g1702
sg75
(lp1709
S'443'
p1710
asbasbasbag68
(g84
g70
NtRp1711
(dp1712
g73
(dp1713
sg82
g833
sg75
(lp1714
g68
(g89
g70
NtRp1715
(dp1716
g73
(dp1717
g93
g94
ssg82
g1711
sg75
(lp1718
S'server_protocol'
p1719
asbag68
(g89
g70
NtRp1720
(dp1721
g73
(dp1722
g100
g101
ssg82
g1711
sg75
(lp1723
S':'
asbag68
(g89
g70
NtRp1724
(dp1725
g73
(dp1726
sg82
g1711
sg75
(lp1727
g68
(g69
g70
NtRp1728
(dp1729
g73
(dp1730
g81
I4
ssg82
g1724
sg75
(lp1731
S'HTTP/1.1'
p1732
asbasbasbag68
(g84
g70
NtRp1733
(dp1734
g73
(dp1735
sg82
g833
sg75
(lp1736
g68
(g89
g70
NtRp1737
(dp1738
g73
(dp1739
g93
g94
ssg82
g1733
sg75
(lp1740
S'server_signature'
p1741
asbag68
(g89
g70
NtRp1742
(dp1743
g73
(dp1744
g100
g101
ssg82
g1733
sg75
(lp1745
S':'
asbag68
(g89
g70
NtRp1746
(dp1747
g73
(dp1748
sg82
g1733
sg75
(lp1749
g68
(g69
g70
NtRp1750
(dp1751
g73
(dp1752
g81
I4
ssg82
g1746
sg75
(lp1753
S'<address>Apache/2.2.17 (Ubuntu) Server at localhost Port 443</address>\n'
p1754
asbasbasbag68
(g84
g70
NtRp1755
(dp1756
g73
(dp1757
sg82
g833
sg75
(lp1758
g68
(g89
g70
NtRp1759
(dp1760
g73
(dp1761
g93
g94
ssg82
g1755
sg75
(lp1762
S'server_software'
p1763
asbag68
(g89
g70
NtRp1764
(dp1765
g73
(dp1766
g100
g101
ssg82
g1755
sg75
(lp1767
S':'
asbag68
(g89
g70
NtRp1768
(dp1769
g73
(dp1770
sg82
g1755
sg75
(lp1771
g68
(g69
g70
NtRp1772
(dp1773
g73
(dp1774
g81
I4
ssg82
g1768
sg75
(lp1775
S'Apache/2.2.17 (Ubuntu)'
p1776
asbasbasbag68
(g84
g70
NtRp1777
(dp1778
g73
(dp1779
sg82
g833
sg75
(lp1780
g68
(g89
g70
NtRp1781
(dp1782
g73
(dp1783
g93
g94
ssg82
g1777
sg75
(lp1784
S'ssl_tls_sni'
p1785
asbag68
(g89
g70
NtRp1786
(dp1787
g73
(dp1788
g100
g101
ssg82
g1777
sg75
(lp1789
S':'
asbag68
(g89
g70
NtRp1790
(dp1791
g73
(dp1792
sg82
g1777
sg75
(lp1793
g68
(g69
g70
NtRp1794
(dp1795
g73
(dp1796
g81
I4
ssg82
g1790
sg75
(lp1797
S'localhost'
p1798
asbasbasbag68
(g84
g70
NtRp1799
(dp1800
g73
(dp1801
sg82
g833
sg75
(lp1802
g68
(g89
g70
NtRp1803
(dp1804
g73
(dp1805
g93
g94
ssg82
g1799
sg75
(lp1806
S'web2py_path'
p1807
asbag68
(g89
g70
NtRp1808
(dp1809
g73
(dp1810
g100
g101
ssg82
g1799
sg75
(lp1811
S':'
asbag68
(g89
g70
NtRp1812
(dp1813
g73
(dp1814
sg82
g1799
sg75
(lp1815
g68
(g69
g70
NtRp1816
(dp1817
g73
(dp1818
g81
I4
ssg82
g1812
sg75
(lp1819
g880
asbasbasbag68
(g84
g70
NtRp1820
(dp1821
g73
(dp1822
sg82
g833
sg75
(lp1823
g68
(g89
g70
NtRp1824
(dp1825
g73
(dp1826
g93
g94
ssg82
g1820
sg75
(lp1827
S'web2py_version'
p1828
asbag68
(g89
g70
NtRp1829
(dp1830
g73
(dp1831
g100
g101
ssg82
g1820
sg75
(lp1832
S':'
asbag68
(g89
g70
NtRp1833
(dp1834
g73
(dp1835
sg82
g1820
sg75
(lp1836
g68
(g69
g70
NtRp1837
(dp1838
g73
(dp1839
g81
I4
ssg82
g1833
sg75
(lp1840
S'Version 1.98.2 (2011-08-04 00:47:09)\n'
p1841
asbasbasbag68
(g84
g70
NtRp1842
(dp1843
g73
(dp1844
sg82
g833
sg75
(lp1845
g68
(g89
g70
NtRp1846
(dp1847
g73
(dp1848
g93
g94
ssg82
g1842
sg75
(lp1849
S'wsgi_errors'
p1850
asbag68
(g89
g70
NtRp1851
(dp1852
g73
(dp1853
g100
g101
ssg82
g1842
sg75
(lp1854
S':'
asbag68
(g89
g70
NtRp1855
(dp1856
g73
(dp1857
sg82
g1842
sg75
(lp1858
g68
(g69
g70
NtRp1859
(dp1860
g73
(dp1861
g81
I4
ssg82
g1855
sg75
(lp1862
S'<mod_wsgi.Log object at 0xb9933f48>'
p1863
asbasbasbag68
(g84
g70
NtRp1864
(dp1865
g73
(dp1866
sg82
g833
sg75
(lp1867
g68
(g89
g70
NtRp1868
(dp1869
g73
(dp1870
g93
g94
ssg82
g1864
sg75
(lp1871
S'wsgi_file_wrapper'
p1872
asbag68
(g89
g70
NtRp1873
(dp1874
g73
(dp1875
g100
g101
ssg82
g1864
sg75
(lp1876
S':'
asbag68
(g89
g70
NtRp1877
(dp1878
g73
(dp1879
sg82
g1864
sg75
(lp1880
g68
(g69
g70
NtRp1881
(dp1882
g73
(dp1883
g81
I4
ssg82
g1877
sg75
(lp1884
S'<built-in method file_wrapper of mod_wsgi.Adapter object at 0xb9a1d2f0>'
p1885
asbasbasbag68
(g84
g70
NtRp1886
(dp1887
g73
(dp1888
sg82
g833
sg75
(lp1889
g68
(g89
g70
NtRp1890
(dp1891
g73
(dp1892
g93
g94
ssg82
g1886
sg75
(lp1893
S'wsgi_input'
p1894
asbag68
(g89
g70
NtRp1895
(dp1896
g73
(dp1897
g100
g101
ssg82
g1886
sg75
(lp1898
S':'
asbag68
(g89
g70
NtRp1899
(dp1900
g73
(dp1901
sg82
g1886
sg75
(lp1902
g68
(g69
g70
NtRp1903
(dp1904
g73
(dp1905
g81
I4
ssg82
g1899
sg75
(lp1906
S'<mod_wsgi.Input object at 0xb95aba48>'
p1907
asbasbasbag68
(g84
g70
NtRp1908
(dp1909
g73
(dp1910
sg82
g833
sg75
(lp1911
g68
(g89
g70
NtRp1912
(dp1913
g73
(dp1914
g93
g94
ssg82
g1908
sg75
(lp1915
S'wsgi_multiprocess'
p1916
asbag68
(g89
g70
NtRp1917
(dp1918
g73
(dp1919
g100
g101
ssg82
g1908
sg75
(lp1920
S':'
asbag68
(g89
g70
NtRp1921
(dp1922
g73
(dp1923
sg82
g1908
sg75
(lp1924
g68
(g69
g70
NtRp1925
(dp1926
g73
(dp1927
g81
I4
ssg82
g1921
sg75
(lp1928
g111
asbasbasbag68
(g84
g70
NtRp1929
(dp1930
g73
(dp1931
sg82
g833
sg75
(lp1932
g68
(g89
g70
NtRp1933
(dp1934
g73
(dp1935
g93
g94
ssg82
g1929
sg75
(lp1936
S'wsgi_multithread'
p1937
asbag68
(g89
g70
NtRp1938
(dp1939
g73
(dp1940
g100
g101
ssg82
g1929
sg75
(lp1941
S':'
asbag68
(g89
g70
NtRp1942
(dp1943
g73
(dp1944
sg82
g1929
sg75
(lp1945
g68
(g69
g70
NtRp1946
(dp1947
g73
(dp1948
g81
I4
ssg82
g1942
sg75
(lp1949
S'True'
p1950
asbasbasbag68
(g84
g70
NtRp1951
(dp1952
g73
(dp1953
sg82
g833
sg75
(lp1954
g68
(g89
g70
NtRp1955
(dp1956
g73
(dp1957
g93
g94
ssg82
g1951
sg75
(lp1958
S'wsgi_run_once'
p1959
asbag68
(g89
g70
NtRp1960
(dp1961
g73
(dp1962
g100
g101
ssg82
g1951
sg75
(lp1963
S':'
asbag68
(g89
g70
NtRp1964
(dp1965
g73
(dp1966
sg82
g1951
sg75
(lp1967
g68
(g69
g70
NtRp1968
(dp1969
g73
(dp1970
g81
I4
ssg82
g1964
sg75
(lp1971
g111
asbasbasbag68
(g84
g70
NtRp1972
(dp1973
g73
(dp1974
sg82
g833
sg75
(lp1975
g68
(g89
g70
NtRp1976
(dp1977
g73
(dp1978
g93
g94
ssg82
g1972
sg75
(lp1979
S'wsgi_url_scheme'
p1980
asbag68
(g89
g70
NtRp1981
(dp1982
g73
(dp1983
g100
g101
ssg82
g1972
sg75
(lp1984
S':'
asbag68
(g89
g70
NtRp1985
(dp1986
g73
(dp1987
sg82
g1972
sg75
(lp1988
g68
(g69
g70
NtRp1989
(dp1990
g73
(dp1991
g81
I4
ssg82
g1985
sg75
(lp1992
S'https'
p1993
asbasbasbag68
(g84
g70
NtRp1994
(dp1995
g73
(dp1996
sg82
g833
sg75
(lp1997
g68
(g89
g70
NtRp1998
(dp1999
g73
(dp2000
g93
g94
ssg82
g1994
sg75
(lp2001
S'wsgi_version'
p2002
asbag68
(g89
g70
NtRp2003
(dp2004
g73
(dp2005
g100
g101
ssg82
g1994
sg75
(lp2006
S':'
asbag68
(g89
g70
NtRp2007
(dp2008
g73
(dp2009
sg82
g1994
sg75
(lp2010
g68
(g69
g70
NtRp2011
(dp2012
g73
(dp2013
g81
I4
ssg82
g2007
sg75
(lp2014
g68
(g77
g70
NtRp2015
(dp2016
g73
(dp2017
g81
I3
ssg82
Nsg75
(lp2018
g68
(g84
g70
NtRp2019
(dp2020
g73
(dp2021
sg82
g2015
sg75
(lp2022
g68
(g89
g70
NtRp2023
(dp2024
g73
(dp2025
sg82
g2019
sg75
(lp2026
g68
(g69
g70
NtRp2027
(dp2028
g73
(dp2029
g81
I3
ssg82
g2023
sg75
(lp2030
S'1'
asbasbasbag68
(g84
g70
NtRp2031
(dp2032
g73
(dp2033
sg82
g2015
sg75
(lp2034
g68
(g89
g70
NtRp2035
(dp2036
g73
(dp2037
sg82
g2031
sg75
(lp2038
g68
(g69
g70
NtRp2039
(dp2040
g73
(dp2041
g81
I3
ssg82
g2035
sg75
(lp2042
S'1'
asbasbasbasbasbasbasbasbasbasbasbag68
(g84
g70
NtRp2043
(dp2044
g73
(dp2045
sg82
g78
sg75
(lp2046
g68
(g89
g70
NtRp2047
(dp2048
g73
(dp2049
g93
g94
ssg82
g2043
sg75
(lp2050
S'extension'
p2051
asbag68
(g89
g70
NtRp2052
(dp2053
g73
(dp2054
g100
g101
ssg82
g2043
sg75
(lp2055
S':'
asbag68
(g89
g70
NtRp2056
(dp2057
g73
(dp2058
sg82
g2043
sg75
(lp2059
g68
(g69
g70
NtRp2060
(dp2061
g73
(dp2062
g81
I5
ssg82
g2056
sg75
(lp2063
S'html'
p2064
asbasbasbag68
(g84
g70
NtRp2065
(dp2066
g73
(dp2067
sg82
g78
sg75
(lp2068
g68
(g89
g70
NtRp2069
(dp2070
g73
(dp2071
g93
g94
ssg82
g2065
sg75
(lp2072
S'folder'
p2073
asbag68
(g89
g70
NtRp2074
(dp2075
g73
(dp2076
g100
g101
ssg82
g2065
sg75
(lp2077
S':'
asbag68
(g89
g70
NtRp2078
(dp2079
g73
(dp2080
sg82
g2065
sg75
(lp2081
g68
(g69
g70
NtRp2082
(dp2083
g73
(dp2084
g81
I5
ssg82
g2078
sg75
(lp2085
S'/home/www-data/web2py/applications/scrum/'
p2086
asbasbasbag68
(g84
g70
NtRp2087
(dp2088
g73
(dp2089
sg82
g78
sg75
(lp2090
g68
(g89
g70
NtRp2091
(dp2092
g73
(dp2093
g93
g94
ssg82
g2087
sg75
(lp2094
S'function'
p2095
asbag68
(g89
g70
NtRp2096
(dp2097
g73
(dp2098
g100
g101
ssg82
g2087
sg75
(lp2099
S':'
asbag68
(g89
g70
NtRp2100
(dp2101
g73
(dp2102
sg82
g2087
sg75
(lp2103
g68
(g69
g70
NtRp2104
(dp2105
g73
(dp2106
g81
I5
ssg82
g2100
sg75
(lp2107
S'novo'
p2108
asbasbasbag68
(g84
g70
NtRp2109
(dp2110
g73
(dp2111
sg82
g78
sg75
(lp2112
g68
(g89
g70
NtRp2113
(dp2114
g73
(dp2115
g93
g94
ssg82
g2109
sg75
(lp2116
S'get_vars'
p2117
asbag68
(g89
g70
NtRp2118
(dp2119
g73
(dp2120
g100
g101
ssg82
g2109
sg75
(lp2121
S':'
asbag68
(g89
g70
NtRp2122
(dp2123
g73
(dp2124
sg82
g2109
sg75
(lp2125
g68
(g69
g70
NtRp2126
(dp2127
g73
(dp2128
g81
I5
ssg82
g2122
sg75
(lp2129
g68
(g77
g70
NtRp2130
(dp2131
g73
(dp2132
g81
I4
ssg82
Nsg75
(lp2133
sbasbasbasbag68
(g84
g70
NtRp2134
(dp2135
g73
(dp2136
sg82
g78
sg75
(lp2137
g68
(g89
g70
NtRp2138
(dp2139
g73
(dp2140
g93
g94
ssg82
g2134
sg75
(lp2141
S'is_https'
p2142
asbag68
(g89
g70
NtRp2143
(dp2144
g73
(dp2145
g100
g101
ssg82
g2134
sg75
(lp2146
S':'
asbag68
(g89
g70
NtRp2147
(dp2148
g73
(dp2149
sg82
g2134
sg75
(lp2150
g68
(g69
g70
NtRp2151
(dp2152
g73
(dp2153
g81
I5
ssg82
g2147
sg75
(lp2154
g1950
asbasbasbag68
(g84
g70
NtRp2155
(dp2156
g73
(dp2157
sg82
g78
sg75
(lp2158
g68
(g89
g70
NtRp2159
(dp2160
g73
(dp2161
g93
g94
ssg82
g2155
sg75
(lp2162
S'is_local'
p2163
asbag68
(g89
g70
NtRp2164
(dp2165
g73
(dp2166
g100
g101
ssg82
g2155
sg75
(lp2167
S':'
asbag68
(g89
g70
NtRp2168
(dp2169
g73
(dp2170
sg82
g2155
sg75
(lp2171
g68
(g69
g70
NtRp2172
(dp2173
g73
(dp2174
g81
I5
ssg82
g2168
sg75
(lp2175
g1950
asbasbasbag68
(g84
g70
NtRp2176
(dp2177
g73
(dp2178
sg82
g78
sg75
(lp2179
g68
(g89
g70
NtRp2180
(dp2181
g73
(dp2182
g93
g94
ssg82
g2176
sg75
(lp2183
S'is_restful'
p2184
asbag68
(g89
g70
NtRp2185
(dp2186
g73
(dp2187
g100
g101
ssg82
g2176
sg75
(lp2188
S':'
asbag68
(g89
g70
NtRp2189
(dp2190
g73
(dp2191
sg82
g2176
sg75
(lp2192
g68
(g69
g70
NtRp2193
(dp2194
g73
(dp2195
g81
I5
ssg82
g2189
sg75
(lp2196
g111
asbasbasbag68
(g84
g70
NtRp2197
(dp2198
g73
(dp2199
sg82
g78
sg75
(lp2200
g68
(g89
g70
NtRp2201
(dp2202
g73
(dp2203
g93
g94
ssg82
g2197
sg75
(lp2204
S'now'
p2205
asbag68
(g89
g70
NtRp2206
(dp2207
g73
(dp2208
g100
g101
ssg82
g2197
sg75
(lp2209
S':'
asbag68
(g89
g70
NtRp2210
(dp2211
g73
(dp2212
sg82
g2197
sg75
(lp2213
g68
(g69
g70
NtRp2214
(dp2215
g73
(dp2216
g81
I5
ssg82
g2210
sg75
(lp2217
S'datetime.datetime(2011, 9, 8, 16, 55, 18, 597021)'
p2218
asbasbasbag68
(g84
g70
NtRp2219
(dp2220
g73
(dp2221
sg82
g78
sg75
(lp2222
g68
(g89
g70
NtRp2223
(dp2224
g73
(dp2225
g93
g94
ssg82
g2219
sg75
(lp2226
S'post_vars'
p2227
asbag68
(g89
g70
NtRp2228
(dp2229
g73
(dp2230
g100
g101
ssg82
g2219
sg75
(lp2231
S':'
asbag68
(g89
g70
NtRp2232
(dp2233
g73
(dp2234
sg82
g2219
sg75
(lp2235
g68
(g69
g70
NtRp2236
(dp2237
g73
(dp2238
g81
I5
ssg82
g2232
sg75
(lp2239
g68
(g77
g70
NtRp2240
(dp2241
g73
(dp2242
g81
I4
ssg82
Nsg75
(lp2243
sbasbasbasbag68
(g84
g70
NtRp2244
(dp2245
g73
(dp2246
sg82
g78
sg75
(lp2247
g68
(g89
g70
NtRp2248
(dp2249
g73
(dp2250
g93
g94
ssg82
g2244
sg75
(lp2251
S'url'
p2252
asbag68
(g89
g70
NtRp2253
(dp2254
g73
(dp2255
g100
g101
ssg82
g2244
sg75
(lp2256
S':'
asbag68
(g89
g70
NtRp2257
(dp2258
g73
(dp2259
sg82
g2244
sg75
(lp2260
g68
(g69
g70
NtRp2261
(dp2262
g73
(dp2263
g81
I5
ssg82
g2257
sg75
(lp2264
S'/scrum/ticket/novo'
p2265
asbasbasbag68
(g84
g70
NtRp2266
(dp2267
g73
(dp2268
sg82
g78
sg75
(lp2269
g68
(g89
g70
NtRp2270
(dp2271
g73
(dp2272
g93
g94
ssg82
g2266
sg75
(lp2273
S'uuid'
p2274
asbag68
(g89
g70
NtRp2275
(dp2276
g73
(dp2277
g100
g101
ssg82
g2266
sg75
(lp2278
S':'
asbag68
(g89
g70
NtRp2279
(dp2280
g73
(dp2281
sg82
g2266
sg75
(lp2282
g68
(g69
g70
NtRp2283
(dp2284
g73
(dp2285
g81
I5
ssg82
g2279
sg75
(lp2286
S'scrum/127.0.0.1.2011-09-08.16-55-18.47e6ed9c-3331-443c-a662-2283b01b2512'
p2287
asbasbasbag68
(g84
g70
NtRp2288
(dp2289
g73
(dp2290
sg82
g78
sg75
(lp2291
g68
(g89
g70
NtRp2292
(dp2293
g73
(dp2294
g93
g94
ssg82
g2288
sg75
(lp2295
S'vars'
p2296
asbag68
(g89
g70
NtRp2297
(dp2298
g73
(dp2299
g100
g101
ssg82
g2288
sg75
(lp2300
S':'
asbag68
(g89
g70
NtRp2301
(dp2302
g73
(dp2303
sg82
g2288
sg75
(lp2304
g68
(g69
g70
NtRp2305
(dp2306
g73
(dp2307
g81
I5
ssg82
g2301
sg75
(lp2308
g68
(g77
g70
NtRp2309
(dp2310
g73
(dp2311
g81
I4
ssg82
Nsg75
(lp2312
sbasbasbasbag68
(g84
g70
NtRp2313
(dp2314
g73
(dp2315
sg82
g78
sg75
(lp2316
g68
(g89
g70
NtRp2317
(dp2318
g73
(dp2319
g93
g94
ssg82
g2313
sg75
(lp2320
S'wsgi'
p2321
asbag68
(g89
g70
NtRp2322
(dp2323
g73
(dp2324
g100
g101
ssg82
g2313
sg75
(lp2325
S':'
asbag68
(g89
g70
NtRp2326
(dp2327
g73
(dp2328
sg82
g2313
sg75
(lp2329
g68
(g69
g70
NtRp2330
(dp2331
g73
(dp2332
g81
I5
ssg82
g2326
sg75
(lp2333
g68
(g77
g70
NtRp2334
(dp2335
g73
(dp2336
g81
I4
ssg82
Nsg75
(lp2337
g68
(g84
g70
NtRp2338
(dp2339
g73
(dp2340
sg82
g2334
sg75
(lp2341
g68
(g89
g70
NtRp2342
(dp2343
g73
(dp2344
g93
g94
ssg82
g2338
sg75
(lp2345
S'environ'
p2346
asbag68
(g89
g70
NtRp2347
(dp2348
g73
(dp2349
g100
g101
ssg82
g2338
sg75
(lp2350
S':'
asbag68
(g89
g70
NtRp2351
(dp2352
g73
(dp2353
sg82
g2338
sg75
(lp2354
g68
(g69
g70
NtRp2355
(dp2356
g73
(dp2357
g81
I4
ssg82
g2351
sg75
(lp2358
g68
(g77
g70
NtRp2359
(dp2360
g73
(dp2361
g81
I3
ssg82
Nsg75
(lp2362
g68
(g84
g70
NtRp2363
(dp2364
g73
(dp2365
sg82
g2359
sg75
(lp2366
g68
(g89
g70
NtRp2367
(dp2368
g73
(dp2369
g93
g94
ssg82
g2363
sg75
(lp2370
S'DOCUMENT_ROOT'
p2371
asbag68
(g89
g70
NtRp2372
(dp2373
g73
(dp2374
g100
g101
ssg82
g2363
sg75
(lp2375
S':'
asbag68
(g89
g70
NtRp2376
(dp2377
g73
(dp2378
sg82
g2363
sg75
(lp2379
g68
(g69
g70
NtRp2380
(dp2381
g73
(dp2382
g81
I3
ssg82
g2376
sg75
(lp2383
g945
asbasbasbag68
(g84
g70
NtRp2384
(dp2385
g73
(dp2386
sg82
g2359
sg75
(lp2387
g68
(g89
g70
NtRp2388
(dp2389
g73
(dp2390
g93
g94
ssg82
g2384
sg75
(lp2391
S'GATEWAY_INTERFACE'
p2392
asbag68
(g89
g70
NtRp2393
(dp2394
g73
(dp2395
g100
g101
ssg82
g2384
sg75
(lp2396
S':'
asbag68
(g89
g70
NtRp2397
(dp2398
g73
(dp2399
sg82
g2384
sg75
(lp2400
g68
(g69
g70
NtRp2401
(dp2402
g73
(dp2403
g81
I3
ssg82
g2397
sg75
(lp2404
g967
asbasbasbag68
(g84
g70
NtRp2405
(dp2406
g73
(dp2407
sg82
g2359
sg75
(lp2408
g68
(g89
g70
NtRp2409
(dp2410
g73
(dp2411
g93
g94
ssg82
g2405
sg75
(lp2412
S'HTTPS'
p2413
asbag68
(g89
g70
NtRp2414
(dp2415
g73
(dp2416
g100
g101
ssg82
g2405
sg75
(lp2417
S':'
asbag68
(g89
g70
NtRp2418
(dp2419
g73
(dp2420
sg82
g2405
sg75
(lp2421
g68
(g69
g70
NtRp2422
(dp2423
g73
(dp2424
g81
I3
ssg82
g2418
sg75
(lp2425
S'1'
asbasbasbag68
(g84
g70
NtRp2426
(dp2427
g73
(dp2428
sg82
g2359
sg75
(lp2429
g68
(g89
g70
NtRp2430
(dp2431
g73
(dp2432
g93
g94
ssg82
g2426
sg75
(lp2433
S'HTTP_ACCEPT'
p2434
asbag68
(g89
g70
NtRp2435
(dp2436
g73
(dp2437
g100
g101
ssg82
g2426
sg75
(lp2438
S':'
asbag68
(g89
g70
NtRp2439
(dp2440
g73
(dp2441
sg82
g2426
sg75
(lp2442
g68
(g69
g70
NtRp2443
(dp2444
g73
(dp2445
g81
I3
ssg82
g2439
sg75
(lp2446
g1010
asbasbasbag68
(g84
g70
NtRp2447
(dp2448
g73
(dp2449
sg82
g2359
sg75
(lp2450
g68
(g89
g70
NtRp2451
(dp2452
g73
(dp2453
g93
g94
ssg82
g2447
sg75
(lp2454
S'HTTP_ACCEPT_ENCODING'
p2455
asbag68
(g89
g70
NtRp2456
(dp2457
g73
(dp2458
g100
g101
ssg82
g2447
sg75
(lp2459
S':'
asbag68
(g89
g70
NtRp2460
(dp2461
g73
(dp2462
sg82
g2447
sg75
(lp2463
g68
(g69
g70
NtRp2464
(dp2465
g73
(dp2466
g81
I3
ssg82
g2460
sg75
(lp2467
g1032
asbasbasbag68
(g84
g70
NtRp2468
(dp2469
g73
(dp2470
sg82
g2359
sg75
(lp2471
g68
(g89
g70
NtRp2472
(dp2473
g73
(dp2474
g93
g94
ssg82
g2468
sg75
(lp2475
S'HTTP_ACCEPT_LANGUAGE'
p2476
asbag68
(g89
g70
NtRp2477
(dp2478
g73
(dp2479
g100
g101
ssg82
g2468
sg75
(lp2480
S':'
asbag68
(g89
g70
NtRp2481
(dp2482
g73
(dp2483
sg82
g2468
sg75
(lp2484
g68
(g69
g70
NtRp2485
(dp2486
g73
(dp2487
g81
I3
ssg82
g2481
sg75
(lp2488
g1054
asbasbasbag68
(g84
g70
NtRp2489
(dp2490
g73
(dp2491
sg82
g2359
sg75
(lp2492
g68
(g89
g70
NtRp2493
(dp2494
g73
(dp2495
g93
g94
ssg82
g2489
sg75
(lp2496
S'HTTP_CONNECTION'
p2497
asbag68
(g89
g70
NtRp2498
(dp2499
g73
(dp2500
g100
g101
ssg82
g2489
sg75
(lp2501
S':'
asbag68
(g89
g70
NtRp2502
(dp2503
g73
(dp2504
sg82
g2489
sg75
(lp2505
g68
(g69
g70
NtRp2506
(dp2507
g73
(dp2508
g81
I3
ssg82
g2502
sg75
(lp2509
g1076
asbasbasbag68
(g84
g70
NtRp2510
(dp2511
g73
(dp2512
sg82
g2359
sg75
(lp2513
g68
(g89
g70
NtRp2514
(dp2515
g73
(dp2516
g93
g94
ssg82
g2510
sg75
(lp2517
S'HTTP_COOKIE'
p2518
asbag68
(g89
g70
NtRp2519
(dp2520
g73
(dp2521
g100
g101
ssg82
g2510
sg75
(lp2522
S':'
asbag68
(g89
g70
NtRp2523
(dp2524
g73
(dp2525
sg82
g2510
sg75
(lp2526
g68
(g69
g70
NtRp2527
(dp2528
g73
(dp2529
g81
I3
ssg82
g2523
sg75
(lp2530
g1098
asbasbasbag68
(g84
g70
NtRp2531
(dp2532
g73
(dp2533
sg82
g2359
sg75
(lp2534
g68
(g89
g70
NtRp2535
(dp2536
g73
(dp2537
g93
g94
ssg82
g2531
sg75
(lp2538
S'HTTP_HOST'
p2539
asbag68
(g89
g70
NtRp2540
(dp2541
g73
(dp2542
g100
g101
ssg82
g2531
sg75
(lp2543
S':'
asbag68
(g89
g70
NtRp2544
(dp2545
g73
(dp2546
sg82
g2531
sg75
(lp2547
g68
(g69
g70
NtRp2548
(dp2549
g73
(dp2550
g81
I3
ssg82
g2544
sg75
(lp2551
g1120
asbasbasbag68
(g84
g70
NtRp2552
(dp2553
g73
(dp2554
sg82
g2359
sg75
(lp2555
g68
(g89
g70
NtRp2556
(dp2557
g73
(dp2558
g93
g94
ssg82
g2552
sg75
(lp2559
S'HTTP_USER_AGENT'
p2560
asbag68
(g89
g70
NtRp2561
(dp2562
g73
(dp2563
g100
g101
ssg82
g2552
sg75
(lp2564
S':'
asbag68
(g89
g70
NtRp2565
(dp2566
g73
(dp2567
sg82
g2552
sg75
(lp2568
g68
(g69
g70
NtRp2569
(dp2570
g73
(dp2571
g81
I3
ssg82
g2565
sg75
(lp2572
g1142
asbasbasbag68
(g84
g70
NtRp2573
(dp2574
g73
(dp2575
sg82
g2359
sg75
(lp2576
g68
(g89
g70
NtRp2577
(dp2578
g73
(dp2579
g93
g94
ssg82
g2573
sg75
(lp2580
S'PATH_INFO'
p2581
asbag68
(g89
g70
NtRp2582
(dp2583
g73
(dp2584
g100
g101
ssg82
g2573
sg75
(lp2585
S':'
asbag68
(g89
g70
NtRp2586
(dp2587
g73
(dp2588
sg82
g2573
sg75
(lp2589
g68
(g69
g70
NtRp2590
(dp2591
g73
(dp2592
g81
I3
ssg82
g2586
sg75
(lp2593
g1449
asbasbasbag68
(g84
g70
NtRp2594
(dp2595
g73
(dp2596
sg82
g2359
sg75
(lp2597
g68
(g89
g70
NtRp2598
(dp2599
g73
(dp2600
g93
g94
ssg82
g2594
sg75
(lp2601
S'PATH_TRANSLATED'
p2602
asbag68
(g89
g70
NtRp2603
(dp2604
g73
(dp2605
g100
g101
ssg82
g2594
sg75
(lp2606
S':'
asbag68
(g89
g70
NtRp2607
(dp2608
g73
(dp2609
sg82
g2594
sg75
(lp2610
g68
(g69
g70
NtRp2611
(dp2612
g73
(dp2613
g81
I3
ssg82
g2607
sg75
(lp2614
g1471
asbasbasbag68
(g84
g70
NtRp2615
(dp2616
g73
(dp2617
sg82
g2359
sg75
(lp2618
g68
(g89
g70
NtRp2619
(dp2620
g73
(dp2621
g93
g94
ssg82
g2615
sg75
(lp2622
S'QUERY_STRING'
p2623
asbag68
(g89
g70
NtRp2624
(dp2625
g73
(dp2626
g100
g101
ssg82
g2615
sg75
(lp2627
S':'
asbag68
(g89
g70
NtRp2628
(dp2629
g73
(dp2630
sg82
g2615
sg75
(lp2631
g68
(g69
g70
NtRp2632
(dp2633
g73
(dp2634
g81
I3
ssg82
g2628
sg75
(lp2635
S''
asbasbasbag68
(g84
g70
NtRp2636
(dp2637
g73
(dp2638
sg82
g2359
sg75
(lp2639
g68
(g89
g70
NtRp2640
(dp2641
g73
(dp2642
g93
g94
ssg82
g2636
sg75
(lp2643
S'REMOTE_ADDR'
p2644
asbag68
(g89
g70
NtRp2645
(dp2646
g73
(dp2647
g100
g101
ssg82
g2636
sg75
(lp2648
S':'
asbag68
(g89
g70
NtRp2649
(dp2650
g73
(dp2651
sg82
g2636
sg75
(lp2652
g68
(g69
g70
NtRp2653
(dp2654
g73
(dp2655
g81
I3
ssg82
g2649
sg75
(lp2656
g201
asbasbasbag68
(g84
g70
NtRp2657
(dp2658
g73
(dp2659
sg82
g2359
sg75
(lp2660
g68
(g89
g70
NtRp2661
(dp2662
g73
(dp2663
g93
g94
ssg82
g2657
sg75
(lp2664
S'REMOTE_PORT'
p2665
asbag68
(g89
g70
NtRp2666
(dp2667
g73
(dp2668
g100
g101
ssg82
g2657
sg75
(lp2669
S':'
asbag68
(g89
g70
NtRp2670
(dp2671
g73
(dp2672
sg82
g2657
sg75
(lp2673
g68
(g69
g70
NtRp2674
(dp2675
g73
(dp2676
g81
I3
ssg82
g2670
sg75
(lp2677
g1535
asbasbasbag68
(g84
g70
NtRp2678
(dp2679
g73
(dp2680
sg82
g2359
sg75
(lp2681
g68
(g89
g70
NtRp2682
(dp2683
g73
(dp2684
g93
g94
ssg82
g2678
sg75
(lp2685
S'REQUEST_METHOD'
p2686
asbag68
(g89
g70
NtRp2687
(dp2688
g73
(dp2689
g100
g101
ssg82
g2678
sg75
(lp2690
S':'
asbag68
(g89
g70
NtRp2691
(dp2692
g73
(dp2693
sg82
g2678
sg75
(lp2694
g68
(g69
g70
NtRp2695
(dp2696
g73
(dp2697
g81
I3
ssg82
g2691
sg75
(lp2698
g1557
asbasbasbag68
(g84
g70
NtRp2699
(dp2700
g73
(dp2701
sg82
g2359
sg75
(lp2702
g68
(g89
g70
NtRp2703
(dp2704
g73
(dp2705
g93
g94
ssg82
g2699
sg75
(lp2706
S'REQUEST_URI'
p2707
asbag68
(g89
g70
NtRp2708
(dp2709
g73
(dp2710
g100
g101
ssg82
g2699
sg75
(lp2711
S':'
asbag68
(g89
g70
NtRp2712
(dp2713
g73
(dp2714
sg82
g2699
sg75
(lp2715
g68
(g69
g70
NtRp2716
(dp2717
g73
(dp2718
g81
I3
ssg82
g2712
sg75
(lp2719
g1579
asbasbasbag68
(g84
g70
NtRp2720
(dp2721
g73
(dp2722
sg82
g2359
sg75
(lp2723
g68
(g89
g70
NtRp2724
(dp2725
g73
(dp2726
g93
g94
ssg82
g2720
sg75
(lp2727
S'SCRIPT_FILENAME'
p2728
asbag68
(g89
g70
NtRp2729
(dp2730
g73
(dp2731
g100
g101
ssg82
g2720
sg75
(lp2732
S':'
asbag68
(g89
g70
NtRp2733
(dp2734
g73
(dp2735
sg82
g2720
sg75
(lp2736
g68
(g69
g70
NtRp2737
(dp2738
g73
(dp2739
g81
I3
ssg82
g2733
sg75
(lp2740
g1601
asbasbasbag68
(g84
g70
NtRp2741
(dp2742
g73
(dp2743
sg82
g2359
sg75
(lp2744
g68
(g89
g70
NtRp2745
(dp2746
g73
(dp2747
g93
g94
ssg82
g2741
sg75
(lp2748
S'SCRIPT_NAME'
p2749
asbag68
(g89
g70
NtRp2750
(dp2751
g73
(dp2752
g100
g101
ssg82
g2741
sg75
(lp2753
S':'
asbag68
(g89
g70
NtRp2754
(dp2755
g73
(dp2756
sg82
g2741
sg75
(lp2757
g68
(g69
g70
NtRp2758
(dp2759
g73
(dp2760
g81
I3
ssg82
g2754
sg75
(lp2761
S''
asbasbasbag68
(g84
g70
NtRp2762
(dp2763
g73
(dp2764
sg82
g2359
sg75
(lp2765
g68
(g89
g70
NtRp2766
(dp2767
g73
(dp2768
g93
g94
ssg82
g2762
sg75
(lp2769
S'SERVER_ADDR'
p2770
asbag68
(g89
g70
NtRp2771
(dp2772
g73
(dp2773
g100
g101
ssg82
g2762
sg75
(lp2774
S':'
asbag68
(g89
g70
NtRp2775
(dp2776
g73
(dp2777
sg82
g2762
sg75
(lp2778
g68
(g69
g70
NtRp2779
(dp2780
g73
(dp2781
g81
I3
ssg82
g2775
sg75
(lp2782
g1644
asbasbasbag68
(g84
g70
NtRp2783
(dp2784
g73
(dp2785
sg82
g2359
sg75
(lp2786
g68
(g89
g70
NtRp2787
(dp2788
g73
(dp2789
g93
g94
ssg82
g2783
sg75
(lp2790
S'SERVER_ADMIN'
p2791
asbag68
(g89
g70
NtRp2792
(dp2793
g73
(dp2794
g100
g101
ssg82
g2783
sg75
(lp2795
S':'
asbag68
(g89
g70
NtRp2796
(dp2797
g73
(dp2798
sg82
g2783
sg75
(lp2799
g68
(g69
g70
NtRp2800
(dp2801
g73
(dp2802
g81
I3
ssg82
g2796
sg75
(lp2803
g1666
asbasbasbag68
(g84
g70
NtRp2804
(dp2805
g73
(dp2806
sg82
g2359
sg75
(lp2807
g68
(g89
g70
NtRp2808
(dp2809
g73
(dp2810
g93
g94
ssg82
g2804
sg75
(lp2811
S'SERVER_NAME'
p2812
asbag68
(g89
g70
NtRp2813
(dp2814
g73
(dp2815
g100
g101
ssg82
g2804
sg75
(lp2816
S':'
asbag68
(g89
g70
NtRp2817
(dp2818
g73
(dp2819
sg82
g2804
sg75
(lp2820
g68
(g69
g70
NtRp2821
(dp2822
g73
(dp2823
g81
I3
ssg82
g2817
sg75
(lp2824
g1688
asbasbasbag68
(g84
g70
NtRp2825
(dp2826
g73
(dp2827
sg82
g2359
sg75
(lp2828
g68
(g89
g70
NtRp2829
(dp2830
g73
(dp2831
g93
g94
ssg82
g2825
sg75
(lp2832
S'SERVER_PORT'
p2833
asbag68
(g89
g70
NtRp2834
(dp2835
g73
(dp2836
g100
g101
ssg82
g2825
sg75
(lp2837
S':'
asbag68
(g89
g70
NtRp2838
(dp2839
g73
(dp2840
sg82
g2825
sg75
(lp2841
g68
(g69
g70
NtRp2842
(dp2843
g73
(dp2844
g81
I3
ssg82
g2838
sg75
(lp2845
g1710
asbasbasbag68
(g84
g70
NtRp2846
(dp2847
g73
(dp2848
sg82
g2359
sg75
(lp2849
g68
(g89
g70
NtRp2850
(dp2851
g73
(dp2852
g93
g94
ssg82
g2846
sg75
(lp2853
S'SERVER_PROTOCOL'
p2854
asbag68
(g89
g70
NtRp2855
(dp2856
g73
(dp2857
g100
g101
ssg82
g2846
sg75
(lp2858
S':'
asbag68
(g89
g70
NtRp2859
(dp2860
g73
(dp2861
sg82
g2846
sg75
(lp2862
g68
(g69
g70
NtRp2863
(dp2864
g73
(dp2865
g81
I3
ssg82
g2859
sg75
(lp2866
g1732
asbasbasbag68
(g84
g70
NtRp2867
(dp2868
g73
(dp2869
sg82
g2359
sg75
(lp2870
g68
(g89
g70
NtRp2871
(dp2872
g73
(dp2873
g93
g94
ssg82
g2867
sg75
(lp2874
S'SERVER_SIGNATURE'
p2875
asbag68
(g89
g70
NtRp2876
(dp2877
g73
(dp2878
g100
g101
ssg82
g2867
sg75
(lp2879
S':'
asbag68
(g89
g70
NtRp2880
(dp2881
g73
(dp2882
sg82
g2867
sg75
(lp2883
g68
(g69
g70
NtRp2884
(dp2885
g73
(dp2886
g81
I3
ssg82
g2880
sg75
(lp2887
g1754
asbasbasbag68
(g84
g70
NtRp2888
(dp2889
g73
(dp2890
sg82
g2359
sg75
(lp2891
g68
(g89
g70
NtRp2892
(dp2893
g73
(dp2894
g93
g94
ssg82
g2888
sg75
(lp2895
S'SERVER_SOFTWARE'
p2896
asbag68
(g89
g70
NtRp2897
(dp2898
g73
(dp2899
g100
g101
ssg82
g2888
sg75
(lp2900
S':'
asbag68
(g89
g70
NtRp2901
(dp2902
g73
(dp2903
sg82
g2888
sg75
(lp2904
g68
(g69
g70
NtRp2905
(dp2906
g73
(dp2907
g81
I3
ssg82
g2901
sg75
(lp2908
g1776
asbasbasbag68
(g84
g70
NtRp2909
(dp2910
g73
(dp2911
sg82
g2359
sg75
(lp2912
g68
(g89
g70
NtRp2913
(dp2914
g73
(dp2915
g93
g94
ssg82
g2909
sg75
(lp2916
S'SSL_TLS_SNI'
p2917
asbag68
(g89
g70
NtRp2918
(dp2919
g73
(dp2920
g100
g101
ssg82
g2909
sg75
(lp2921
S':'
asbag68
(g89
g70
NtRp2922
(dp2923
g73
(dp2924
sg82
g2909
sg75
(lp2925
g68
(g69
g70
NtRp2926
(dp2927
g73
(dp2928
g81
I3
ssg82
g2922
sg75
(lp2929
g1798
asbasbasbag68
(g84
g70
NtRp2930
(dp2931
g73
(dp2932
sg82
g2359
sg75
(lp2933
g68
(g89
g70
NtRp2934
(dp2935
g73
(dp2936
g93
g94
ssg82
g2930
sg75
(lp2937
S'mod_wsgi.application_group'
p2938
asbag68
(g89
g70
NtRp2939
(dp2940
g73
(dp2941
g100
g101
ssg82
g2930
sg75
(lp2942
S':'
asbag68
(g89
g70
NtRp2943
(dp2944
g73
(dp2945
sg82
g2930
sg75
(lp2946
g68
(g69
g70
NtRp2947
(dp2948
g73
(dp2949
g81
I3
ssg82
g2943
sg75
(lp2950
g1206
asbasbasbag68
(g84
g70
NtRp2951
(dp2952
g73
(dp2953
sg82
g2359
sg75
(lp2954
g68
(g89
g70
NtRp2955
(dp2956
g73
(dp2957
g93
g94
ssg82
g2951
sg75
(lp2958
S'mod_wsgi.callable_object'
p2959
asbag68
(g89
g70
NtRp2960
(dp2961
g73
(dp2962
g100
g101
ssg82
g2951
sg75
(lp2963
S':'
asbag68
(g89
g70
NtRp2964
(dp2965
g73
(dp2966
sg82
g2951
sg75
(lp2967
g68
(g69
g70
NtRp2968
(dp2969
g73
(dp2970
g81
I3
ssg82
g2964
sg75
(lp2971
g1228
asbasbasbag68
(g84
g70
NtRp2972
(dp2973
g73
(dp2974
sg82
g2359
sg75
(lp2975
g68
(g89
g70
NtRp2976
(dp2977
g73
(dp2978
g93
g94
ssg82
g2972
sg75
(lp2979
S'mod_wsgi.handler_script'
p2980
asbag68
(g89
g70
NtRp2981
(dp2982
g73
(dp2983
g100
g101
ssg82
g2972
sg75
(lp2984
S':'
asbag68
(g89
g70
NtRp2985
(dp2986
g73
(dp2987
sg82
g2972
sg75
(lp2988
g68
(g69
g70
NtRp2989
(dp2990
g73
(dp2991
g81
I3
ssg82
g2985
sg75
(lp2992
S''
asbasbasbag68
(g84
g70
NtRp2993
(dp2994
g73
(dp2995
sg82
g2359
sg75
(lp2996
g68
(g89
g70
NtRp2997
(dp2998
g73
(dp2999
g93
g94
ssg82
g2993
sg75
(lp3000
S'mod_wsgi.input_chunked'
p3001
asbag68
(g89
g70
NtRp3002
(dp3003
g73
(dp3004
g100
g101
ssg82
g2993
sg75
(lp3005
S':'
asbag68
(g89
g70
NtRp3006
(dp3007
g73
(dp3008
sg82
g2993
sg75
(lp3009
g68
(g69
g70
NtRp3010
(dp3011
g73
(dp3012
g81
I3
ssg82
g3006
sg75
(lp3013
S'0'
asbasbasbag68
(g84
g70
NtRp3014
(dp3015
g73
(dp3016
sg82
g2359
sg75
(lp3017
g68
(g89
g70
NtRp3018
(dp3019
g73
(dp3020
g93
g94
ssg82
g3014
sg75
(lp3021
S'mod_wsgi.listener_host'
p3022
asbag68
(g89
g70
NtRp3023
(dp3024
g73
(dp3025
g100
g101
ssg82
g3014
sg75
(lp3026
S':'
asbag68
(g89
g70
NtRp3027
(dp3028
g73
(dp3029
sg82
g3014
sg75
(lp3030
g68
(g69
g70
NtRp3031
(dp3032
g73
(dp3033
g81
I3
ssg82
g3027
sg75
(lp3034
S''
asbasbasbag68
(g84
g70
NtRp3035
(dp3036
g73
(dp3037
sg82
g2359
sg75
(lp3038
g68
(g89
g70
NtRp3039
(dp3040
g73
(dp3041
g93
g94
ssg82
g3035
sg75
(lp3042
S'mod_wsgi.listener_port'
p3043
asbag68
(g89
g70
NtRp3044
(dp3045
g73
(dp3046
g100
g101
ssg82
g3035
sg75
(lp3047
S':'
asbag68
(g89
g70
NtRp3048
(dp3049
g73
(dp3050
sg82
g3035
sg75
(lp3051
g68
(g69
g70
NtRp3052
(dp3053
g73
(dp3054
g81
I3
ssg82
g3048
sg75
(lp3055
g1313
asbasbasbag68
(g84
g70
NtRp3056
(dp3057
g73
(dp3058
sg82
g2359
sg75
(lp3059
g68
(g89
g70
NtRp3060
(dp3061
g73
(dp3062
g93
g94
ssg82
g3056
sg75
(lp3063
S'mod_wsgi.process_group'
p3064
asbag68
(g89
g70
NtRp3065
(dp3066
g73
(dp3067
g100
g101
ssg82
g3056
sg75
(lp3068
S':'
asbag68
(g89
g70
NtRp3069
(dp3070
g73
(dp3071
sg82
g3056
sg75
(lp3072
g68
(g69
g70
NtRp3073
(dp3074
g73
(dp3075
g81
I3
ssg82
g3069
sg75
(lp3076
g1335
asbasbasbag68
(g84
g70
NtRp3077
(dp3078
g73
(dp3079
sg82
g2359
sg75
(lp3080
g68
(g89
g70
NtRp3081
(dp3082
g73
(dp3083
g93
g94
ssg82
g3077
sg75
(lp3084
S'mod_wsgi.request_handler'
p3085
asbag68
(g89
g70
NtRp3086
(dp3087
g73
(dp3088
g100
g101
ssg82
g3077
sg75
(lp3089
S':'
asbag68
(g89
g70
NtRp3090
(dp3091
g73
(dp3092
sg82
g3077
sg75
(lp3093
g68
(g69
g70
NtRp3094
(dp3095
g73
(dp3096
g81
I3
ssg82
g3090
sg75
(lp3097
g1357
asbasbasbag68
(g84
g70
NtRp3098
(dp3099
g73
(dp3100
sg82
g2359
sg75
(lp3101
g68
(g89
g70
NtRp3102
(dp3103
g73
(dp3104
g93
g94
ssg82
g3098
sg75
(lp3105
S'mod_wsgi.script_reloading'
p3106
asbag68
(g89
g70
NtRp3107
(dp3108
g73
(dp3109
g100
g101
ssg82
g3098
sg75
(lp3110
S':'
asbag68
(g89
g70
NtRp3111
(dp3112
g73
(dp3113
sg82
g3098
sg75
(lp3114
g68
(g69
g70
NtRp3115
(dp3116
g73
(dp3117
g81
I3
ssg82
g3111
sg75
(lp3118
S'1'
asbasbasbag68
(g84
g70
NtRp3119
(dp3120
g73
(dp3121
sg82
g2359
sg75
(lp3122
g68
(g89
g70
NtRp3123
(dp3124
g73
(dp3125
g93
g94
ssg82
g3119
sg75
(lp3126
S'mod_wsgi.version'
p3127
asbag68
(g89
g70
NtRp3128
(dp3129
g73
(dp3130
g100
g101
ssg82
g3119
sg75
(lp3131
S':'
asbag68
(g89
g70
NtRp3132
(dp3133
g73
(dp3134
sg82
g3119
sg75
(lp3135
g68
(g69
g70
NtRp3136
(dp3137
g73
(dp3138
g81
I3
ssg82
g3132
sg75
(lp3139
g68
(g77
g70
NtRp3140
(dp3141
g73
(dp3142
g81
I2
ssg82
Nsg75
(lp3143
g68
(g84
g70
NtRp3144
(dp3145
g73
(dp3146
sg82
g3140
sg75
(lp3147
g68
(g89
g70
NtRp3148
(dp3149
g73
(dp3150
sg82
g3144
sg75
(lp3151
g68
(g69
g70
NtRp3152
(dp3153
g73
(dp3154
g81
I2
ssg82
g3148
sg75
(lp3155
S'3'
asbasbasbag68
(g84
g70
NtRp3156
(dp3157
g73
(dp3158
sg82
g3140
sg75
(lp3159
g68
(g89
g70
NtRp3160
(dp3161
g73
(dp3162
sg82
g3156
sg75
(lp3163
g68
(g69
g70
NtRp3164
(dp3165
g73
(dp3166
g81
I2
ssg82
g3160
sg75
(lp3167
S'3'
asbasbasbasbasbasbasbag68
(g84
g70
NtRp3168
(dp3169
g73
(dp3170
sg82
g2359
sg75
(lp3171
g68
(g89
g70
NtRp3172
(dp3173
g73
(dp3174
g93
g94
ssg82
g3168
sg75
(lp3175
S'wsgi.errors'
p3176
asbag68
(g89
g70
NtRp3177
(dp3178
g73
(dp3179
g100
g101
ssg82
g3168
sg75
(lp3180
S':'
asbag68
(g89
g70
NtRp3181
(dp3182
g73
(dp3183
sg82
g3168
sg75
(lp3184
g68
(g69
g70
NtRp3185
(dp3186
g73
(dp3187
g81
I3
ssg82
g3181
sg75
(lp3188
S'<mod_wsgi.Log object at 0xb9933f48>'
p3189
asbasbasbag68
(g84
g70
NtRp3190
(dp3191
g73
(dp3192
sg82
g2359
sg75
(lp3193
g68
(g89
g70
NtRp3194
(dp3195
g73
(dp3196
g93
g94
ssg82
g3190
sg75
(lp3197
S'wsgi.file_wrapper'
p3198
asbag68
(g89
g70
NtRp3199
(dp3200
g73
(dp3201
g100
g101
ssg82
g3190
sg75
(lp3202
S':'
asbag68
(g89
g70
NtRp3203
(dp3204
g73
(dp3205
sg82
g3190
sg75
(lp3206
g68
(g69
g70
NtRp3207
(dp3208
g73
(dp3209
g81
I3
ssg82
g3203
sg75
(lp3210
S'<built-in method file_wrapper of mod_wsgi.Adapter object at 0xb9a1d2f0>'
p3211
asbasbasbag68
(g84
g70
NtRp3212
(dp3213
g73
(dp3214
sg82
g2359
sg75
(lp3215
g68
(g89
g70
NtRp3216
(dp3217
g73
(dp3218
g93
g94
ssg82
g3212
sg75
(lp3219
S'wsgi.input'
p3220
asbag68
(g89
g70
NtRp3221
(dp3222
g73
(dp3223
g100
g101
ssg82
g3212
sg75
(lp3224
S':'
asbag68
(g89
g70
NtRp3225
(dp3226
g73
(dp3227
sg82
g3212
sg75
(lp3228
g68
(g69
g70
NtRp3229
(dp3230
g73
(dp3231
g81
I3
ssg82
g3225
sg75
(lp3232
S'<cStringIO.StringO object at 0xb97f20a0>'
p3233
asbasbasbag68
(g84
g70
NtRp3234
(dp3235
g73
(dp3236
sg82
g2359
sg75
(lp3237
g68
(g89
g70
NtRp3238
(dp3239
g73
(dp3240
g93
g94
ssg82
g3234
sg75
(lp3241
S'wsgi.multiprocess'
p3242
asbag68
(g89
g70
NtRp3243
(dp3244
g73
(dp3245
g100
g101
ssg82
g3234
sg75
(lp3246
S':'
asbag68
(g89
g70
NtRp3247
(dp3248
g73
(dp3249
sg82
g3234
sg75
(lp3250
g68
(g69
g70
NtRp3251
(dp3252
g73
(dp3253
g81
I3
ssg82
g3247
sg75
(lp3254
g111
asbasbasbag68
(g84
g70
NtRp3255
(dp3256
g73
(dp3257
sg82
g2359
sg75
(lp3258
g68
(g89
g70
NtRp3259
(dp3260
g73
(dp3261
g93
g94
ssg82
g3255
sg75
(lp3262
S'wsgi.multithread'
p3263
asbag68
(g89
g70
NtRp3264
(dp3265
g73
(dp3266
g100
g101
ssg82
g3255
sg75
(lp3267
S':'
asbag68
(g89
g70
NtRp3268
(dp3269
g73
(dp3270
sg82
g3255
sg75
(lp3271
g68
(g69
g70
NtRp3272
(dp3273
g73
(dp3274
g81
I3
ssg82
g3268
sg75
(lp3275
g1950
asbasbasbag68
(g84
g70
NtRp3276
(dp3277
g73
(dp3278
sg82
g2359
sg75
(lp3279
g68
(g89
g70
NtRp3280
(dp3281
g73
(dp3282
g93
g94
ssg82
g3276
sg75
(lp3283
S'wsgi.run_once'
p3284
asbag68
(g89
g70
NtRp3285
(dp3286
g73
(dp3287
g100
g101
ssg82
g3276
sg75
(lp3288
S':'
asbag68
(g89
g70
NtRp3289
(dp3290
g73
(dp3291
sg82
g3276
sg75
(lp3292
g68
(g69
g70
NtRp3293
(dp3294
g73
(dp3295
g81
I3
ssg82
g3289
sg75
(lp3296
g111
asbasbasbag68
(g84
g70
NtRp3297
(dp3298
g73
(dp3299
sg82
g2359
sg75
(lp3300
g68
(g89
g70
NtRp3301
(dp3302
g73
(dp3303
g93
g94
ssg82
g3297
sg75
(lp3304
S'wsgi.url_scheme'
p3305
asbag68
(g89
g70
NtRp3306
(dp3307
g73
(dp3308
g100
g101
ssg82
g3297
sg75
(lp3309
S':'
asbag68
(g89
g70
NtRp3310
(dp3311
g73
(dp3312
sg82
g3297
sg75
(lp3313
g68
(g69
g70
NtRp3314
(dp3315
g73
(dp3316
g81
I3
ssg82
g3310
sg75
(lp3317
g1993
asbasbasbag68
(g84
g70
NtRp3318
(dp3319
g73
(dp3320
sg82
g2359
sg75
(lp3321
g68
(g89
g70
NtRp3322
(dp3323
g73
(dp3324
g93
g94
ssg82
g3318
sg75
(lp3325
S'wsgi.version'
p3326
asbag68
(g89
g70
NtRp3327
(dp3328
g73
(dp3329
g100
g101
ssg82
g3318
sg75
(lp3330
S':'
asbag68
(g89
g70
NtRp3331
(dp3332
g73
(dp3333
sg82
g3318
sg75
(lp3334
g68
(g69
g70
NtRp3335
(dp3336
g73
(dp3337
g81
I3
ssg82
g3331
sg75
(lp3338
S'1'
asbasbasbasbasbasbasbasbasbasbasbasbasbsS'frames'
p3339
(lp3340
(dp3341
S'file'
p3342
S'/home/www-data/web2py/gluon/restricted.py'
p3343
sS'dump'
p3344
(dp3345
S'code'
p3346
S"'#coding: utf8\\nBRAZILIAN_DATE = IS_DATE(format=T(...tem_biv.append(lambda form: insere_modulo(form))\\n'"
p3347
sS'layer'
p3348
S"'/home/www-data/web2py/applications/scrum/models/db1.py'"
p3349
sS'global compile2'
p3350
S'<function compile2>'
p3351
sS'ccode'
p3352
S'undefined'
p3353
ssS'lnum'
p3354
I191
sS'lines'
p3355
(dp3356
I192
S'        exec ccode in environment'
p3357
sI193
S'    except HTTP:'
p3358
sI194
S'        raise'
p3359
sI195
S'    except Exception, error:'
p3360
sI186
S"    environment['__file__'] = layer"
p3361
sI187
S'    try:'
p3362
sI188
S'        if type(code) == types.CodeType:'
p3363
sI189
S'            ccode = code'
p3364
sI190
S'        else:'
p3365
sI191
S'            ccode = compile2(code,layer)'
p3366
ssS'call'
p3367
S"(code='#coding: utf8\\nBRAZILIAN_DATE = IS_DATE(format=T(...tem_biv.append(lambda form: insere_modulo(form))\\n', environment={'A': <class 'gluon.html.A'>, 'Auth': <class 'gluon.tools.Auth'>, 'B': <class 'gluon.html.B'>, 'BEAUTIFY': <class 'gluon.html.BEAUTIFY'>, 'BODY': <class 'gluon.html.BODY'>, 'BR': <class 'gluon.html.BR'>, 'BUTTON': <class 'gluon.html.BUTTON'>, 'CAT': <class 'gluon.html.CAT'>, 'CENTER': <class 'gluon.html.CENTER'>, 'CLEANUP': <class 'gluon.validators.CLEANUP'>, ...}, layer='/home/www-data/web2py/applications/scrum/models/db1.py')"
p3368
sS'func'
p3369
S'restricted'
p3370
sa(dp3371
g3342
S'/home/www-data/web2py/gluon/restricted.py'
p3372
sg3344
(dp3373
S'builtincompile'
p3374
S'<built-in function compile>'
p3375
sS'code'
p3376
S"'#coding: utf8\\nBRAZILIAN_DATE = IS_DATE(format=T(...tem_biv.append(lambda form: insere_modulo(form))\\n'"
p3377
sS'code.rstrip'
p3378
S'<built-in method rstrip of str object>'
p3379
sS').replace'
p3380
g3353
sS'layer'
p3381
S"'/home/www-data/web2py/applications/scrum/models/db1.py'"
p3382
ssg3354
I178
sg3355
(dp3383
I173
S''
sI174
S'def compile2(code,layer):'
p3384
sI175
S'    """'
p3385
sI176
S"    The +'\\n' is necessary else compile fails when code ends in a comment."
p3386
sI177
S'    """'
p3387
sI178
S"    return compile(code.rstrip().replace('\\r\\n','\\n')+'\\n', layer, 'exec')"
p3388
sI179
S''
sI180
S"def restricted(code, environment={}, layer='Unknown'):"
p3389
sI181
S'    """'
p3390
sI182
S'    runs code in environment and returns the output. if an exception occurs'
p3391
ssg3367
S"(code='#coding: utf8\\nBRAZILIAN_DATE = IS_DATE(format=T(...tem_biv.append(lambda form: insere_modulo(form))\\n', layer='/home/www-data/web2py/applications/scrum/models/db1.py')"
p3392
sg3369
S'compile2'
p3393
sasS'pyver'
p3394
S'Python 2.7.1+: /usr/bin/python'
p3395
sS'session'
p3396
g68
(g69
g70
NtRp3397
(dp3398
g73
(dp3399
sg75
(lp3400
g68
(g77
g70
NtRp3401
(dp3402
g73
(dp3403
g81
I5
ssg82
Nsg75
(lp3404
g68
(g84
g70
NtRp3405
(dp3406
g73
(dp3407
sg82
g3401
sg75
(lp3408
g68
(g89
g70
NtRp3409
(dp3410
g73
(dp3411
g93
g94
ssg82
g3405
sg75
(lp3412
S'auth'
p3413
asbag68
(g89
g70
NtRp3414
(dp3415
g73
(dp3416
g100
g101
ssg82
g3405
sg75
(lp3417
S':'
asbag68
(g89
g70
NtRp3418
(dp3419
g73
(dp3420
sg82
g3405
sg75
(lp3421
g68
(g69
g70
NtRp3422
(dp3423
g73
(dp3424
g81
I5
ssg82
g3418
sg75
(lp3425
g68
(g77
g70
NtRp3426
(dp3427
g73
(dp3428
g81
I4
ssg82
Nsg75
(lp3429
g68
(g84
g70
NtRp3430
(dp3431
g73
(dp3432
sg82
g3426
sg75
(lp3433
g68
(g89
g70
NtRp3434
(dp3435
g73
(dp3436
g93
g94
ssg82
g3430
sg75
(lp3437
S'expiration'
p3438
asbag68
(g89
g70
NtRp3439
(dp3440
g73
(dp3441
g100
g101
ssg82
g3430
sg75
(lp3442
S':'
asbag68
(g89
g70
NtRp3443
(dp3444
g73
(dp3445
sg82
g3430
sg75
(lp3446
g68
(g69
g70
NtRp3447
(dp3448
g73
(dp3449
g81
I4
ssg82
g3443
sg75
(lp3450
S'3600'
p3451
asbasbasbag68
(g84
g70
NtRp3452
(dp3453
g73
(dp3454
sg82
g3426
sg75
(lp3455
g68
(g89
g70
NtRp3456
(dp3457
g73
(dp3458
g93
g94
ssg82
g3452
sg75
(lp3459
S'hmac_key'
p3460
asbag68
(g89
g70
NtRp3461
(dp3462
g73
(dp3463
g100
g101
ssg82
g3452
sg75
(lp3464
S':'
asbag68
(g89
g70
NtRp3465
(dp3466
g73
(dp3467
sg82
g3452
sg75
(lp3468
g68
(g69
g70
NtRp3469
(dp3470
g73
(dp3471
g81
I4
ssg82
g3465
sg75
(lp3472
S'c18b391f-62d1-4a51-8b2b-1e809e4c900d'
p3473
asbasbasbag68
(g84
g70
NtRp3474
(dp3475
g73
(dp3476
sg82
g3426
sg75
(lp3477
g68
(g89
g70
NtRp3478
(dp3479
g73
(dp3480
g93
g94
ssg82
g3474
sg75
(lp3481
S'last_visit'
p3482
asbag68
(g89
g70
NtRp3483
(dp3484
g73
(dp3485
g100
g101
ssg82
g3474
sg75
(lp3486
S':'
asbag68
(g89
g70
NtRp3487
(dp3488
g73
(dp3489
sg82
g3474
sg75
(lp3490
g68
(g69
g70
NtRp3491
(dp3492
g73
(dp3493
g81
I4
ssg82
g3487
sg75
(lp3494
S'datetime.datetime(2011, 9, 8, 16, 54, 44, 116644)'
p3495
asbasbasbag68
(g84
g70
NtRp3496
(dp3497
g73
(dp3498
sg82
g3426
sg75
(lp3499
g68
(g89
g70
NtRp3500
(dp3501
g73
(dp3502
g93
g94
ssg82
g3496
sg75
(lp3503
S'user'
p3504
asbag68
(g89
g70
NtRp3505
(dp3506
g73
(dp3507
g100
g101
ssg82
g3496
sg75
(lp3508
S':'
asbag68
(g89
g70
NtRp3509
(dp3510
g73
(dp3511
sg82
g3496
sg75
(lp3512
g68
(g69
g70
NtRp3513
(dp3514
g73
(dp3515
g81
I4
ssg82
g3509
sg75
(lp3516
g68
(g77
g70
NtRp3517
(dp3518
g73
(dp3519
g81
I3
ssg82
Nsg75
(lp3520
g68
(g84
g70
NtRp3521
(dp3522
g73
(dp3523
sg82
g3517
sg75
(lp3524
g68
(g89
g70
NtRp3525
(dp3526
g73
(dp3527
g93
g94
ssg82
g3521
sg75
(lp3528
S'email'
p3529
asbag68
(g89
g70
NtRp3530
(dp3531
g73
(dp3532
g100
g101
ssg82
g3521
sg75
(lp3533
S':'
asbag68
(g89
g70
NtRp3534
(dp3535
g73
(dp3536
sg82
g3521
sg75
(lp3537
g68
(g69
g70
NtRp3538
(dp3539
g73
(dp3540
g81
I3
ssg82
g3534
sg75
(lp3541
S'carlos.mg@vilesoft.com.br'
p3542
asbasbasbag68
(g84
g70
NtRp3543
(dp3544
g73
(dp3545
sg82
g3517
sg75
(lp3546
g68
(g89
g70
NtRp3547
(dp3548
g73
(dp3549
g93
g94
ssg82
g3543
sg75
(lp3550
S'first_name'
p3551
asbag68
(g89
g70
NtRp3552
(dp3553
g73
(dp3554
g100
g101
ssg82
g3543
sg75
(lp3555
S':'
asbag68
(g89
g70
NtRp3556
(dp3557
g73
(dp3558
sg82
g3543
sg75
(lp3559
g68
(g69
g70
NtRp3560
(dp3561
g73
(dp3562
g81
I3
ssg82
g3556
sg75
(lp3563
S'Carlos Jos\xc3\xa9'
p3564
asbasbasbag68
(g84
g70
NtRp3565
(dp3566
g73
(dp3567
sg82
g3517
sg75
(lp3568
g68
(g89
g70
NtRp3569
(dp3570
g73
(dp3571
g93
g94
ssg82
g3565
sg75
(lp3572
S'id'
p3573
asbag68
(g89
g70
NtRp3574
(dp3575
g73
(dp3576
g100
g101
ssg82
g3565
sg75
(lp3577
S':'
asbag68
(g89
g70
NtRp3578
(dp3579
g73
(dp3580
sg82
g3565
sg75
(lp3581
g68
(g69
g70
NtRp3582
(dp3583
g73
(dp3584
g81
I3
ssg82
g3578
sg75
(lp3585
S'1'
asbasbasbag68
(g84
g70
NtRp3586
(dp3587
g73
(dp3588
sg82
g3517
sg75
(lp3589
g68
(g89
g70
NtRp3590
(dp3591
g73
(dp3592
g93
g94
ssg82
g3586
sg75
(lp3593
S'last_name'
p3594
asbag68
(g89
g70
NtRp3595
(dp3596
g73
(dp3597
g100
g101
ssg82
g3586
sg75
(lp3598
S':'
asbag68
(g89
g70
NtRp3599
(dp3600
g73
(dp3601
sg82
g3586
sg75
(lp3602
g68
(g69
g70
NtRp3603
(dp3604
g73
(dp3605
g81
I3
ssg82
g3599
sg75
(lp3606
S'da Costa'
p3607
asbasbasbag68
(g84
g70
NtRp3608
(dp3609
g73
(dp3610
sg82
g3517
sg75
(lp3611
g68
(g89
g70
NtRp3612
(dp3613
g73
(dp3614
g93
g94
ssg82
g3608
sg75
(lp3615
S'password'
p3616
asbag68
(g89
g70
NtRp3617
(dp3618
g73
(dp3619
g100
g101
ssg82
g3608
sg75
(lp3620
S':'
asbag68
(g89
g70
NtRp3621
(dp3622
g73
(dp3623
sg82
g3608
sg75
(lp3624
g68
(g69
g70
NtRp3625
(dp3626
g73
(dp3627
g81
I3
ssg82
g3621
sg75
(lp3628
S'00a7a128f71552b063e36943370dd0944d5adb4000c6382d33eb3e1a93dc679cb99beb47e3003d318803f96ef839a18a379eae2e2bb917ca3c52c4e45231b331'
p3629
asbasbasbag68
(g84
g70
NtRp3630
(dp3631
g73
(dp3632
sg82
g3517
sg75
(lp3633
g68
(g89
g70
NtRp3634
(dp3635
g73
(dp3636
g93
g94
ssg82
g3630
sg75
(lp3637
S'registration_key'
p3638
asbag68
(g89
g70
NtRp3639
(dp3640
g73
(dp3641
g100
g101
ssg82
g3630
sg75
(lp3642
S':'
asbag68
(g89
g70
NtRp3643
(dp3644
g73
(dp3645
sg82
g3630
sg75
(lp3646
g68
(g69
g70
NtRp3647
(dp3648
g73
(dp3649
g81
I3
ssg82
g3643
sg75
(lp3650
S''
asbasbasbag68
(g84
g70
NtRp3651
(dp3652
g73
(dp3653
sg82
g3517
sg75
(lp3654
g68
(g89
g70
NtRp3655
(dp3656
g73
(dp3657
g93
g94
ssg82
g3651
sg75
(lp3658
S'reset_password_key'
p3659
asbag68
(g89
g70
NtRp3660
(dp3661
g73
(dp3662
g100
g101
ssg82
g3651
sg75
(lp3663
S':'
asbag68
(g89
g70
NtRp3664
(dp3665
g73
(dp3666
sg82
g3651
sg75
(lp3667
g68
(g69
g70
NtRp3668
(dp3669
g73
(dp3670
g81
I3
ssg82
g3664
sg75
(lp3671
S''
asbasbasbasbasbasbasbasbasbasbasbag68
(g84
g70
NtRp3672
(dp3673
g73
(dp3674
sg82
g3401
sg75
(lp3675
g68
(g89
g70
NtRp3676
(dp3677
g73
(dp3678
g93
g94
ssg82
g3672
sg75
(lp3679
S'last_query'
p3680
asbag68
(g89
g70
NtRp3681
(dp3682
g73
(dp3683
g100
g101
ssg82
g3672
sg75
(lp3684
S':'
asbag68
(g89
g70
NtRp3685
(dp3686
g73
(dp3687
sg82
g3672
sg75
(lp3688
g68
(g69
g70
NtRp3689
(dp3690
g73
(dp3691
g81
I5
ssg82
g3685
sg75
(lp3692
S'db.auth_user.id>0'
p3693
asbasbasbasbasbsS'etype'
p3694
S"<type 'exceptions.SyntaxError'>"
p3695
sS'date'
p3696
S'Thu Sep  8 16:55:18 2011'
p3697
sS'response'
p3698
g68
(g69
g70
NtRp3699
(dp3700
g73
(dp3701
sg75
(lp3702
g68
(g77
g70
NtRp3703
(dp3704
g73
(dp3705
g81
I5
ssg82
Nsg75
(lp3706
g68
(g84
g70
NtRp3707
(dp3708
g73
(dp3709
sg82
g3703
sg75
(lp3710
g68
(g89
g70
NtRp3711
(dp3712
g73
(dp3713
g93
g94
ssg82
g3707
sg75
(lp3714
g166
asbag68
(g89
g70
NtRp3715
(dp3716
g73
(dp3717
g100
g101
ssg82
g3707
sg75
(lp3718
S':'
asbag68
(g89
g70
NtRp3719
(dp3720
g73
(dp3721
sg82
g3707
sg75
(lp3722
g68
(g69
g70
NtRp3723
(dp3724
g73
(dp3725
g81
I5
ssg82
g3719
sg75
(lp3726
S'<cStringIO.StringO object at 0xba51bd80>'
p3727
asbasbasbag68
(g84
g70
NtRp3728
(dp3729
g73
(dp3730
sg82
g3703
sg75
(lp3731
g68
(g89
g70
NtRp3732
(dp3733
g73
(dp3734
g93
g94
ssg82
g3728
sg75
(lp3735
g232
asbag68
(g89
g70
NtRp3736
(dp3737
g73
(dp3738
g100
g101
ssg82
g3728
sg75
(lp3739
S':'
asbag68
(g89
g70
NtRp3740
(dp3741
g73
(dp3742
sg82
g3728
sg75
(lp3743
g68
(g69
g70
NtRp3744
(dp3745
g73
(dp3746
g81
I5
ssg82
g3740
sg75
(lp3747
g68
(g77
g70
NtRp3748
(dp3749
g73
(dp3750
g81
I4
ssg82
Nsg75
(lp3751
g68
(g84
g70
NtRp3752
(dp3753
g73
(dp3754
sg82
g3748
sg75
(lp3755
g68
(g89
g70
NtRp3756
(dp3757
g73
(dp3758
g93
g94
ssg82
g3752
sg75
(lp3759
S'session_id_scrum'
p3760
asbag68
(g89
g70
NtRp3761
(dp3762
g73
(dp3763
g100
g101
ssg82
g3752
sg75
(lp3764
S':'
asbag68
(g89
g70
NtRp3765
(dp3766
g73
(dp3767
sg82
g3752
sg75
(lp3768
g68
(g69
g70
NtRp3769
(dp3770
g73
(dp3771
g81
I4
ssg82
g3765
sg75
(lp3772
g68
(g77
g70
NtRp3773
(dp3774
g73
(dp3775
g81
I3
ssg82
Nsg75
(lp3776
g68
(g84
g70
NtRp3777
(dp3778
g73
(dp3779
sg82
g3773
sg75
(lp3780
g68
(g89
g70
NtRp3781
(dp3782
g73
(dp3783
g93
g94
ssg82
g3777
sg75
(lp3784
g282
asbag68
(g89
g70
NtRp3785
(dp3786
g73
(dp3787
g100
g101
ssg82
g3777
sg75
(lp3788
S':'
asbag68
(g89
g70
NtRp3789
(dp3790
g73
(dp3791
sg82
g3777
sg75
(lp3792
g68
(g69
g70
NtRp3793
(dp3794
g73
(dp3795
g81
I3
ssg82
g3789
sg75
(lp3796
S''
asbasbasbag68
(g84
g70
NtRp3797
(dp3798
g73
(dp3799
sg82
g3773
sg75
(lp3800
g68
(g89
g70
NtRp3801
(dp3802
g73
(dp3803
g93
g94
ssg82
g3797
sg75
(lp3804
g303
asbag68
(g89
g70
NtRp3805
(dp3806
g73
(dp3807
g100
g101
ssg82
g3797
sg75
(lp3808
S':'
asbag68
(g89
g70
NtRp3809
(dp3810
g73
(dp3811
sg82
g3797
sg75
(lp3812
g68
(g69
g70
NtRp3813
(dp3814
g73
(dp3815
g81
I3
ssg82
g3809
sg75
(lp3816
S''
asbasbasbag68
(g84
g70
NtRp3817
(dp3818
g73
(dp3819
sg82
g3773
sg75
(lp3820
g68
(g89
g70
NtRp3821
(dp3822
g73
(dp3823
g93
g94
ssg82
g3817
sg75
(lp3824
g324
asbag68
(g89
g70
NtRp3825
(dp3826
g73
(dp3827
g100
g101
ssg82
g3817
sg75
(lp3828
S':'
asbag68
(g89
g70
NtRp3829
(dp3830
g73
(dp3831
sg82
g3817
sg75
(lp3832
g68
(g69
g70
NtRp3833
(dp3834
g73
(dp3835
g81
I3
ssg82
g3829
sg75
(lp3836
S''
asbasbasbag68
(g84
g70
NtRp3837
(dp3838
g73
(dp3839
sg82
g3773
sg75
(lp3840
g68
(g89
g70
NtRp3841
(dp3842
g73
(dp3843
g93
g94
ssg82
g3837
sg75
(lp3844
g345
asbag68
(g89
g70
NtRp3845
(dp3846
g73
(dp3847
g100
g101
ssg82
g3837
sg75
(lp3848
S':'
asbag68
(g89
g70
NtRp3849
(dp3850
g73
(dp3851
sg82
g3837
sg75
(lp3852
g68
(g69
g70
NtRp3853
(dp3854
g73
(dp3855
g81
I3
ssg82
g3849
sg75
(lp3856
S''
asbasbasbag68
(g84
g70
NtRp3857
(dp3858
g73
(dp3859
sg82
g3773
sg75
(lp3860
g68
(g89
g70
NtRp3861
(dp3862
g73
(dp3863
g93
g94
ssg82
g3857
sg75
(lp3864
g366
asbag68
(g89
g70
NtRp3865
(dp3866
g73
(dp3867
g100
g101
ssg82
g3857
sg75
(lp3868
S':'
asbag68
(g89
g70
NtRp3869
(dp3870
g73
(dp3871
sg82
g3857
sg75
(lp3872
g68
(g69
g70
NtRp3873
(dp3874
g73
(dp3875
g81
I3
ssg82
g3869
sg75
(lp3876
S''
asbasbasbag68
(g84
g70
NtRp3877
(dp3878
g73
(dp3879
sg82
g3773
sg75
(lp3880
g68
(g89
g70
NtRp3881
(dp3882
g73
(dp3883
g93
g94
ssg82
g3877
sg75
(lp3884
g387
asbag68
(g89
g70
NtRp3885
(dp3886
g73
(dp3887
g100
g101
ssg82
g3877
sg75
(lp3888
S':'
asbag68
(g89
g70
NtRp3889
(dp3890
g73
(dp3891
sg82
g3877
sg75
(lp3892
g68
(g69
g70
NtRp3893
(dp3894
g73
(dp3895
g81
I3
ssg82
g3889
sg75
(lp3896
S'/'
asbasbasbag68
(g84
g70
NtRp3897
(dp3898
g73
(dp3899
sg82
g3773
sg75
(lp3900
g68
(g89
g70
NtRp3901
(dp3902
g73
(dp3903
g93
g94
ssg82
g3897
sg75
(lp3904
g408
asbag68
(g89
g70
NtRp3905
(dp3906
g73
(dp3907
g100
g101
ssg82
g3897
sg75
(lp3908
S':'
asbag68
(g89
g70
NtRp3909
(dp3910
g73
(dp3911
sg82
g3897
sg75
(lp3912
g68
(g69
g70
NtRp3913
(dp3914
g73
(dp3915
g81
I3
ssg82
g3909
sg75
(lp3916
S''
asbasbasbag68
(g84
g70
NtRp3917
(dp3918
g73
(dp3919
sg82
g3773
sg75
(lp3920
g68
(g89
g70
NtRp3921
(dp3922
g73
(dp3923
g93
g94
ssg82
g3917
sg75
(lp3924
g429
asbag68
(g89
g70
NtRp3925
(dp3926
g73
(dp3927
g100
g101
ssg82
g3917
sg75
(lp3928
S':'
asbag68
(g89
g70
NtRp3929
(dp3930
g73
(dp3931
sg82
g3917
sg75
(lp3932
g68
(g69
g70
NtRp3933
(dp3934
g73
(dp3935
g81
I3
ssg82
g3929
sg75
(lp3936
S''
asbasbasbasbasbasbasbasbasbasbasbag68
(g84
g70
NtRp3937
(dp3938
g73
(dp3939
sg82
g3703
sg75
(lp3940
g68
(g89
g70
NtRp3941
(dp3942
g73
(dp3943
g93
g94
ssg82
g3937
sg75
(lp3944
S'files'
p3945
asbag68
(g89
g70
NtRp3946
(dp3947
g73
(dp3948
g100
g101
ssg82
g3937
sg75
(lp3949
S':'
asbag68
(g89
g70
NtRp3950
(dp3951
g73
(dp3952
sg82
g3937
sg75
(lp3953
g68
(g69
g70
NtRp3954
(dp3955
g73
(dp3956
g81
I5
ssg82
g3950
sg75
(lp3957
g68
(g77
g70
NtRp3958
(dp3959
g73
(dp3960
g81
I4
ssg82
Nsg75
(lp3961
sbasbasbasbag68
(g84
g70
NtRp3962
(dp3963
g73
(dp3964
sg82
g3703
sg75
(lp3965
g68
(g89
g70
NtRp3966
(dp3967
g73
(dp3968
g93
g94
ssg82
g3962
sg75
(lp3969
S'flash'
p3970
asbag68
(g89
g70
NtRp3971
(dp3972
g73
(dp3973
g100
g101
ssg82
g3962
sg75
(lp3974
S':'
asbag68
(g89
g70
NtRp3975
(dp3976
g73
(dp3977
sg82
g3962
sg75
(lp3978
g68
(g69
g70
NtRp3979
(dp3980
g73
(dp3981
g81
I5
ssg82
g3975
sg75
(lp3982
S''
asbasbasbag68
(g84
g70
NtRp3983
(dp3984
g73
(dp3985
sg82
g3703
sg75
(lp3986
g68
(g89
g70
NtRp3987
(dp3988
g73
(dp3989
g93
g94
ssg82
g3983
sg75
(lp3990
S'generic_patterns'
p3991
asbag68
(g89
g70
NtRp3992
(dp3993
g73
(dp3994
g100
g101
ssg82
g3983
sg75
(lp3995
S':'
asbag68
(g89
g70
NtRp3996
(dp3997
g73
(dp3998
sg82
g3983
sg75
(lp3999
g68
(g69
g70
NtRp4000
(dp4001
g73
(dp4002
g81
I5
ssg82
g3996
sg75
(lp4003
g68
(g77
g70
NtRp4004
(dp4005
g73
(dp4006
g81
I4
ssg82
Nsg75
(lp4007
sbasbasbasbag68
(g84
g70
NtRp4008
(dp4009
g73
(dp4010
sg82
g3703
sg75
(lp4011
g68
(g89
g70
NtRp4012
(dp4013
g73
(dp4014
g93
g94
ssg82
g4008
sg75
(lp4015
S'headers'
p4016
asbag68
(g89
g70
NtRp4017
(dp4018
g73
(dp4019
g100
g101
ssg82
g4008
sg75
(lp4020
S':'
asbag68
(g89
g70
NtRp4021
(dp4022
g73
(dp4023
sg82
g4008
sg75
(lp4024
g68
(g69
g70
NtRp4025
(dp4026
g73
(dp4027
g81
I5
ssg82
g4021
sg75
(lp4028
g68
(g77
g70
NtRp4029
(dp4030
g73
(dp4031
g81
I4
ssg82
Nsg75
(lp4032
g68
(g84
g70
NtRp4033
(dp4034
g73
(dp4035
sg82
g4029
sg75
(lp4036
g68
(g89
g70
NtRp4037
(dp4038
g73
(dp4039
g93
g94
ssg82
g4033
sg75
(lp4040
S'Cache-Control'
p4041
asbag68
(g89
g70
NtRp4042
(dp4043
g73
(dp4044
g100
g101
ssg82
g4033
sg75
(lp4045
S':'
asbag68
(g89
g70
NtRp4046
(dp4047
g73
(dp4048
sg82
g4033
sg75
(lp4049
g68
(g69
g70
NtRp4050
(dp4051
g73
(dp4052
g81
I4
ssg82
g4046
sg75
(lp4053
S'no-store, no-cache, must-revalidate, post-check=0, pre-check=0'
p4054
asbasbasbag68
(g84
g70
NtRp4055
(dp4056
g73
(dp4057
sg82
g4029
sg75
(lp4058
g68
(g89
g70
NtRp4059
(dp4060
g73
(dp4061
g93
g94
ssg82
g4055
sg75
(lp4062
S'Content-Type'
p4063
asbag68
(g89
g70
NtRp4064
(dp4065
g73
(dp4066
g100
g101
ssg82
g4055
sg75
(lp4067
S':'
asbag68
(g89
g70
NtRp4068
(dp4069
g73
(dp4070
sg82
g4055
sg75
(lp4071
g68
(g69
g70
NtRp4072
(dp4073
g73
(dp4074
g81
I4
ssg82
g4068
sg75
(lp4075
S'text/html; charset=utf-8'
p4076
asbasbasbag68
(g84
g70
NtRp4077
(dp4078
g73
(dp4079
sg82
g4029
sg75
(lp4080
g68
(g89
g70
NtRp4081
(dp4082
g73
(dp4083
g93
g94
ssg82
g4077
sg75
(lp4084
S'Expires'
p4085
asbag68
(g89
g70
NtRp4086
(dp4087
g73
(dp4088
g100
g101
ssg82
g4077
sg75
(lp4089
S':'
asbag68
(g89
g70
NtRp4090
(dp4091
g73
(dp4092
sg82
g4077
sg75
(lp4093
g68
(g69
g70
NtRp4094
(dp4095
g73
(dp4096
g81
I4
ssg82
g4090
sg75
(lp4097
S'Thu, 08 Sep 2011 19:55:18 GMT'
p4098
asbasbasbag68
(g84
g70
NtRp4099
(dp4100
g73
(dp4101
sg82
g4029
sg75
(lp4102
g68
(g89
g70
NtRp4103
(dp4104
g73
(dp4105
g93
g94
ssg82
g4099
sg75
(lp4106
S'Pragma'
p4107
asbag68
(g89
g70
NtRp4108
(dp4109
g73
(dp4110
g100
g101
ssg82
g4099
sg75
(lp4111
S':'
asbag68
(g89
g70
NtRp4112
(dp4113
g73
(dp4114
sg82
g4099
sg75
(lp4115
g68
(g69
g70
NtRp4116
(dp4117
g73
(dp4118
g81
I4
ssg82
g4112
sg75
(lp4119
S'no-cache'
p4120
asbasbasbag68
(g84
g70
NtRp4121
(dp4122
g73
(dp4123
sg82
g4029
sg75
(lp4124
g68
(g89
g70
NtRp4125
(dp4126
g73
(dp4127
g93
g94
ssg82
g4121
sg75
(lp4128
S'X-Powered-By'
p4129
asbag68
(g89
g70
NtRp4130
(dp4131
g73
(dp4132
g100
g101
ssg82
g4121
sg75
(lp4133
S':'
asbag68
(g89
g70
NtRp4134
(dp4135
g73
(dp4136
sg82
g4121
sg75
(lp4137
g68
(g69
g70
NtRp4138
(dp4139
g73
(dp4140
g81
I4
ssg82
g4134
sg75
(lp4141
S'web2py'
p4142
asbasbasbasbasbasbasbag68
(g84
g70
NtRp4143
(dp4144
g73
(dp4145
sg82
g3703
sg75
(lp4146
g68
(g89
g70
NtRp4147
(dp4148
g73
(dp4149
g93
g94
ssg82
g4143
sg75
(lp4150
S'menu'
p4151
asbag68
(g89
g70
NtRp4152
(dp4153
g73
(dp4154
g100
g101
ssg82
g4143
sg75
(lp4155
S':'
asbag68
(g89
g70
NtRp4156
(dp4157
g73
(dp4158
sg82
g4143
sg75
(lp4159
g68
(g69
g70
NtRp4160
(dp4161
g73
(dp4162
g81
I5
ssg82
g4156
sg75
(lp4163
g68
(g77
g70
NtRp4164
(dp4165
g73
(dp4166
g81
I4
ssg82
Nsg75
(lp4167
sbasbasbasbag68
(g84
g70
NtRp4168
(dp4169
g73
(dp4170
sg82
g3703
sg75
(lp4171
g68
(g89
g70
NtRp4172
(dp4173
g73
(dp4174
g93
g94
ssg82
g4168
sg75
(lp4175
S'meta'
p4176
asbag68
(g89
g70
NtRp4177
(dp4178
g73
(dp4179
g100
g101
ssg82
g4168
sg75
(lp4180
S':'
asbag68
(g89
g70
NtRp4181
(dp4182
g73
(dp4183
sg82
g4168
sg75
(lp4184
g68
(g69
g70
NtRp4185
(dp4186
g73
(dp4187
g81
I5
ssg82
g4181
sg75
(lp4188
g68
(g77
g70
NtRp4189
(dp4190
g73
(dp4191
g81
I4
ssg82
Nsg75
(lp4192
sbasbasbasbag68
(g84
g70
NtRp4193
(dp4194
g73
(dp4195
sg82
g3703
sg75
(lp4196
g68
(g89
g70
NtRp4197
(dp4198
g73
(dp4199
g93
g94
ssg82
g4193
sg75
(lp4200
S'postprocessing'
p4201
asbag68
(g89
g70
NtRp4202
(dp4203
g73
(dp4204
g100
g101
ssg82
g4193
sg75
(lp4205
S':'
asbag68
(g89
g70
NtRp4206
(dp4207
g73
(dp4208
sg82
g4193
sg75
(lp4209
g68
(g69
g70
NtRp4210
(dp4211
g73
(dp4212
g81
I5
ssg82
g4206
sg75
(lp4213
g68
(g77
g70
NtRp4214
(dp4215
g73
(dp4216
g81
I4
ssg82
Nsg75
(lp4217
sbasbasbasbag68
(g84
g70
NtRp4218
(dp4219
g73
(dp4220
sg82
g3703
sg75
(lp4221
g68
(g89
g70
NtRp4222
(dp4223
g73
(dp4224
g93
g94
ssg82
g4218
sg75
(lp4225
S'session_file'
p4226
asbag68
(g89
g70
NtRp4227
(dp4228
g73
(dp4229
g100
g101
ssg82
g4218
sg75
(lp4230
S':'
asbag68
(g89
g70
NtRp4231
(dp4232
g73
(dp4233
sg82
g4218
sg75
(lp4234
g68
(g69
g70
NtRp4235
(dp4236
g73
(dp4237
g81
I5
ssg82
g4231
sg75
(lp4238
S"<open file '/home/www-data/web2py/applications/scrum/sessions/127.0.0.1-f47d3ac4-8d8c-46d5-8321-f944561d518f', mode 'rb+' at 0xb949ebd0>"
p4239
asbasbasbag68
(g84
g70
NtRp4240
(dp4241
g73
(dp4242
sg82
g3703
sg75
(lp4243
g68
(g89
g70
NtRp4244
(dp4245
g73
(dp4246
g93
g94
ssg82
g4240
sg75
(lp4247
S'session_filename'
p4248
asbag68
(g89
g70
NtRp4249
(dp4250
g73
(dp4251
g100
g101
ssg82
g4240
sg75
(lp4252
S':'
asbag68
(g89
g70
NtRp4253
(dp4254
g73
(dp4255
sg82
g4240
sg75
(lp4256
g68
(g69
g70
NtRp4257
(dp4258
g73
(dp4259
g81
I5
ssg82
g4253
sg75
(lp4260
S'/home/www-data/web2py/applications/scrum/sessions/127.0.0.1-f47d3ac4-8d8c-46d5-8321-f944561d518f'
p4261
asbasbasbag68
(g84
g70
NtRp4262
(dp4263
g73
(dp4264
sg82
g3703
sg75
(lp4265
g68
(g89
g70
NtRp4266
(dp4267
g73
(dp4268
g93
g94
ssg82
g4262
sg75
(lp4269
S'session_id'
p4270
asbag68
(g89
g70
NtRp4271
(dp4272
g73
(dp4273
g100
g101
ssg82
g4262
sg75
(lp4274
S':'
asbag68
(g89
g70
NtRp4275
(dp4276
g73
(dp4277
sg82
g4262
sg75
(lp4278
g68
(g69
g70
NtRp4279
(dp4280
g73
(dp4281
g81
I5
ssg82
g4275
sg75
(lp4282
S'127.0.0.1-f47d3ac4-8d8c-46d5-8321-f944561d518f'
p4283
asbasbasbag68
(g84
g70
NtRp4284
(dp4285
g73
(dp4286
sg82
g3703
sg75
(lp4287
g68
(g89
g70
NtRp4288
(dp4289
g73
(dp4290
g93
g94
ssg82
g4284
sg75
(lp4291
S'session_id_name'
p4292
asbag68
(g89
g70
NtRp4293
(dp4294
g73
(dp4295
g100
g101
ssg82
g4284
sg75
(lp4296
S':'
asbag68
(g89
g70
NtRp4297
(dp4298
g73
(dp4299
sg82
g4284
sg75
(lp4300
g68
(g69
g70
NtRp4301
(dp4302
g73
(dp4303
g81
I5
ssg82
g4297
sg75
(lp4304
g3760
asbasbasbag68
(g84
g70
NtRp4305
(dp4306
g73
(dp4307
sg82
g3703
sg75
(lp4308
g68
(g89
g70
NtRp4309
(dp4310
g73
(dp4311
g93
g94
ssg82
g4305
sg75
(lp4312
S'session_locked'
p4313
asbag68
(g89
g70
NtRp4314
(dp4315
g73
(dp4316
g100
g101
ssg82
g4305
sg75
(lp4317
S':'
asbag68
(g89
g70
NtRp4318
(dp4319
g73
(dp4320
sg82
g4305
sg75
(lp4321
g68
(g69
g70
NtRp4322
(dp4323
g73
(dp4324
g81
I5
ssg82
g4318
sg75
(lp4325
g1950
asbasbasbag68
(g84
g70
NtRp4326
(dp4327
g73
(dp4328
sg82
g3703
sg75
(lp4329
g68
(g89
g70
NtRp4330
(dp4331
g73
(dp4332
g93
g94
ssg82
g4326
sg75
(lp4333
S'session_new'
p4334
asbag68
(g89
g70
NtRp4335
(dp4336
g73
(dp4337
g100
g101
ssg82
g4326
sg75
(lp4338
S':'
asbag68
(g89
g70
NtRp4339
(dp4340
g73
(dp4341
sg82
g4326
sg75
(lp4342
g68
(g69
g70
NtRp4343
(dp4344
g73
(dp4345
g81
I5
ssg82
g4339
sg75
(lp4346
g111
asbasbasbag68
(g84
g70
NtRp4347
(dp4348
g73
(dp4349
sg82
g3703
sg75
(lp4350
g68
(g89
g70
NtRp4351
(dp4352
g73
(dp4353
g93
g94
ssg82
g4347
sg75
(lp4354
S'status'
p4355
asbag68
(g89
g70
NtRp4356
(dp4357
g73
(dp4358
g100
g101
ssg82
g4347
sg75
(lp4359
S':'
asbag68
(g89
g70
NtRp4360
(dp4361
g73
(dp4362
sg82
g4347
sg75
(lp4363
g68
(g69
g70
NtRp4364
(dp4365
g73
(dp4366
g81
I5
ssg82
g4360
sg75
(lp4367
S'200'
p4368
asbasbasbag68
(g84
g70
NtRp4369
(dp4370
g73
(dp4371
sg82
g3703
sg75
(lp4372
g68
(g89
g70
NtRp4373
(dp4374
g73
(dp4375
g93
g94
ssg82
g4369
sg75
(lp4376
g2274
asbag68
(g89
g70
NtRp4377
(dp4378
g73
(dp4379
g100
g101
ssg82
g4369
sg75
(lp4380
S':'
asbag68
(g89
g70
NtRp4381
(dp4382
g73
(dp4383
sg82
g4369
sg75
(lp4384
g68
(g69
g70
NtRp4385
(dp4386
g73
(dp4387
g81
I5
ssg82
g4381
sg75
(lp4388
g2287
asbasbasbag68
(g84
g70
NtRp4389
(dp4390
g73
(dp4391
sg82
g3703
sg75
(lp4392
g68
(g89
g70
NtRp4393
(dp4394
g73
(dp4395
g93
g94
ssg82
g4389
sg75
(lp4396
S'view'
p4397
asbag68
(g89
g70
NtRp4398
(dp4399
g73
(dp4400
g100
g101
ssg82
g4389
sg75
(lp4401
S':'
asbag68
(g89
g70
NtRp4402
(dp4403
g73
(dp4404
sg82
g4389
sg75
(lp4405
g68
(g69
g70
NtRp4406
(dp4407
g73
(dp4408
g81
I5
ssg82
g4402
sg75
(lp4409
S'ticket/novo.html'
p4410
asbasbasbasbasbsS'locals'
p4411
(dp4412
g3
S"'/home/www-data/web2py/applications/scrum/models/db1.py'"
p4413
sg5
S"'#coding: utf8\\nBRAZILIAN_DATE = IS_DATE(format=T(...tem_biv.append(lambda form: insere_modulo(form))\\n'"
p4414
sssS'traceback'
p4415
S'Traceback (most recent call last):\n  File "/home/www-data/web2py/gluon/restricted.py", line 191, in restricted\n    ccode = compile2(code,layer)\n  File "/home/www-data/web2py/gluon/restricted.py", line 178, in compile2\n    return compile(code.rstrip().replace(\'\\r\\n\',\'\\n\')+\'\\n\', layer, \'exec\')\n  File "/home/www-data/web2py/applications/scrum/models/db1.py", line 48\n    zero=\'Sem desenvolvedores\')\n       ^\nSyntaxError: invalid syntax\n'
p4416
s.