(dp1
S'output'
p2
S''
sS'layer'
p3
S'/home/www-data/web2py/applications/scrum/controllers/ticket.py'
p4
sS'code'
p5
S'# coding: utf8# tente algo como\n@auth.requires_login()\ndef index():    \n    tickets = db((db.ticket.consultor == auth.user) | \n                 (db.ticket.analista == auth.user)).select()\n    return dict(tickets=tickets)\n\nresponse._vars=response._caller(index)\n'
p6
sS'snapshot'
p7
(dp8
S'exception'
p9
(dp10
S'__hash__'
p11
S"<method-wrapper '__hash__' of exceptions.TypeError object>"
p12
sS'__setattr__'
p13
S"<method-wrapper '__setattr__' of exceptions.TypeError object>"
p14
sS'__reduce_ex__'
p15
S'<built-in method __reduce_ex__ of exceptions.TypeError object>'
p16
sS'__getslice__'
p17
S"<method-wrapper '__getslice__' of exceptions.TypeError object>"
p18
sS'__getitem__'
p19
S"<method-wrapper '__getitem__' of exceptions.TypeError object>"
p20
sS'__setstate__'
p21
S'<built-in method __setstate__ of exceptions.TypeError object>'
p22
sS'__reduce__'
p23
S'<built-in method __reduce__ of exceptions.TypeError object>'
p24
sS'__str__'
p25
S"<method-wrapper '__str__' of exceptions.TypeError object>"
p26
sS'__format__'
p27
S'<built-in method __format__ of exceptions.TypeError object>'
p28
sS'__getattribute__'
p29
S"<method-wrapper '__getattribute__' of exceptions.TypeError object>"
p30
sS'__class__'
p31
S"<type 'exceptions.TypeError'>"
p32
sS'__unicode__'
p33
S'<built-in method __unicode__ of exceptions.TypeError object>'
p34
sS'__delattr__'
p35
S"<method-wrapper '__delattr__' of exceptions.TypeError object>"
p36
sS'__subclasshook__'
p37
S'<built-in method __subclasshook__ of type object>'
p38
sS'__repr__'
p39
S"<method-wrapper '__repr__' of exceptions.TypeError object>"
p40
sS'args'
p41
S'("\'NoneType\' object is not callable",)'
p42
sS'__dict__'
p43
S'{}'
p44
sS'__sizeof__'
p45
S'<built-in method __sizeof__ of exceptions.TypeError object>'
p46
sS'__doc__'
p47
S"'Inappropriate argument type.'"
p48
sS'__init__'
p49
S"<method-wrapper '__init__' of exceptions.TypeError object>"
p50
sS'__new__'
p51
S'<built-in method __new__ of type object>'
p52
ssS'evalue'
p53
S"'NoneType' object is not callable"
p54
sS'request'
p55
ccopy_reg
_reconstructor
p56
(cgluon.html
BEAUTIFY
p57
c__builtin__
object
p58
NtRp59
(dp60
S'attributes'
p61
(dp62
sS'components'
p63
(lp64
g56
(cgluon.html
TABLE
p65
g58
NtRp66
(dp67
g61
(dp68
S'level'
p69
I5
ssS'parent'
p70
Nsg63
(lp71
g56
(cgluon.html
TR
p72
g58
NtRp73
(dp74
g61
(dp75
sg70
g66
sg63
(lp76
g56
(cgluon.html
TD
p77
g58
NtRp78
(dp79
g61
(dp80
S'_style'
p81
S'font-weight:bold;'
p82
ssg70
g73
sg63
(lp83
S'ajax'
p84
asbag56
(g77
g58
NtRp85
(dp86
g61
(dp87
S'_valign'
p88
S'top'
p89
ssg70
g73
sg63
(lp90
S':'
asbag56
(g77
g58
NtRp91
(dp92
g61
(dp93
sg70
g73
sg63
(lp94
g56
(g57
g58
NtRp95
(dp96
g61
(dp97
g69
I5
ssg70
g91
sg63
(lp98
S'False'
p99
asbasbasbag56
(g72
g58
NtRp100
(dp101
g61
(dp102
sg70
g66
sg63
(lp103
g56
(g77
g58
NtRp104
(dp105
g61
(dp106
g81
g82
ssg70
g100
sg63
(lp107
S'application'
p108
asbag56
(g77
g58
NtRp109
(dp110
g61
(dp111
g88
g89
ssg70
g100
sg63
(lp112
S':'
asbag56
(g77
g58
NtRp113
(dp114
g61
(dp115
sg70
g100
sg63
(lp116
g56
(g57
g58
NtRp117
(dp118
g61
(dp119
g69
I5
ssg70
g113
sg63
(lp120
S'scrum'
p121
asbasbasbag56
(g72
g58
NtRp122
(dp123
g61
(dp124
sg70
g66
sg63
(lp125
g56
(g77
g58
NtRp126
(dp127
g61
(dp128
g81
g82
ssg70
g122
sg63
(lp129
g41
asbag56
(g77
g58
NtRp130
(dp131
g61
(dp132
g88
g89
ssg70
g122
sg63
(lp133
S':'
asbag56
(g77
g58
NtRp134
(dp135
g61
(dp136
sg70
g122
sg63
(lp137
g56
(g57
g58
NtRp138
(dp139
g61
(dp140
g69
I5
ssg70
g134
sg63
(lp141
g56
(g65
g58
NtRp142
(dp143
g61
(dp144
g69
I4
ssg70
Nsg63
(lp145
sbasbasbasbag56
(g72
g58
NtRp146
(dp147
g61
(dp148
sg70
g66
sg63
(lp149
g56
(g77
g58
NtRp150
(dp151
g61
(dp152
g81
g82
ssg70
g146
sg63
(lp153
S'body'
p154
asbag56
(g77
g58
NtRp155
(dp156
g61
(dp157
g88
g89
ssg70
g146
sg63
(lp158
S':'
asbag56
(g77
g58
NtRp159
(dp160
g61
(dp161
sg70
g146
sg63
(lp162
g56
(g57
g58
NtRp163
(dp164
g61
(dp165
g69
I5
ssg70
g159
sg63
(lp166
S'<cStringIO.StringO object at 0xb9a08a00>'
p167
asbasbasbag56
(g72
g58
NtRp168
(dp169
g61
(dp170
sg70
g66
sg63
(lp171
g56
(g77
g58
NtRp172
(dp173
g61
(dp174
g81
g82
ssg70
g168
sg63
(lp175
S'client'
p176
asbag56
(g77
g58
NtRp177
(dp178
g61
(dp179
g88
g89
ssg70
g168
sg63
(lp180
S':'
asbag56
(g77
g58
NtRp181
(dp182
g61
(dp183
sg70
g168
sg63
(lp184
g56
(g57
g58
NtRp185
(dp186
g61
(dp187
g69
I5
ssg70
g181
sg63
(lp188
S'127.0.0.1'
p189
asbasbasbag56
(g72
g58
NtRp190
(dp191
g61
(dp192
sg70
g66
sg63
(lp193
g56
(g77
g58
NtRp194
(dp195
g61
(dp196
g81
g82
ssg70
g190
sg63
(lp197
S'controller'
p198
asbag56
(g77
g58
NtRp199
(dp200
g61
(dp201
g88
g89
ssg70
g190
sg63
(lp202
S':'
asbag56
(g77
g58
NtRp203
(dp204
g61
(dp205
sg70
g190
sg63
(lp206
g56
(g57
g58
NtRp207
(dp208
g61
(dp209
g69
I5
ssg70
g203
sg63
(lp210
S'ticket'
p211
asbasbasbag56
(g72
g58
NtRp212
(dp213
g61
(dp214
sg70
g66
sg63
(lp215
g56
(g77
g58
NtRp216
(dp217
g61
(dp218
g81
g82
ssg70
g212
sg63
(lp219
S'cookies'
p220
asbag56
(g77
g58
NtRp221
(dp222
g61
(dp223
g88
g89
ssg70
g212
sg63
(lp224
S':'
asbag56
(g77
g58
NtRp225
(dp226
g61
(dp227
sg70
g212
sg63
(lp228
g56
(g57
g58
NtRp229
(dp230
g61
(dp231
g69
I5
ssg70
g225
sg63
(lp232
g56
(g65
g58
NtRp233
(dp234
g61
(dp235
g69
I4
ssg70
Nsg63
(lp236
g56
(g72
g58
NtRp237
(dp238
g61
(dp239
sg70
g233
sg63
(lp240
g56
(g77
g58
NtRp241
(dp242
g61
(dp243
g81
g82
ssg70
g237
sg63
(lp244
S'session_id_admin'
p245
asbag56
(g77
g58
NtRp246
(dp247
g61
(dp248
g88
g89
ssg70
g237
sg63
(lp249
S':'
asbag56
(g77
g58
NtRp250
(dp251
g61
(dp252
sg70
g237
sg63
(lp253
g56
(g57
g58
NtRp254
(dp255
g61
(dp256
g69
I4
ssg70
g250
sg63
(lp257
g56
(g65
g58
NtRp258
(dp259
g61
(dp260
g69
I3
ssg70
Nsg63
(lp261
g56
(g72
g58
NtRp262
(dp263
g61
(dp264
sg70
g258
sg63
(lp265
g56
(g77
g58
NtRp266
(dp267
g61
(dp268
g81
g82
ssg70
g262
sg63
(lp269
S'comment'
p270
asbag56
(g77
g58
NtRp271
(dp272
g61
(dp273
g88
g89
ssg70
g262
sg63
(lp274
S':'
asbag56
(g77
g58
NtRp275
(dp276
g61
(dp277
sg70
g262
sg63
(lp278
g56
(g57
g58
NtRp279
(dp280
g61
(dp281
g69
I3
ssg70
g275
sg63
(lp282
S''
asbasbasbag56
(g72
g58
NtRp283
(dp284
g61
(dp285
sg70
g258
sg63
(lp286
g56
(g77
g58
NtRp287
(dp288
g61
(dp289
g81
g82
ssg70
g283
sg63
(lp290
S'domain'
p291
asbag56
(g77
g58
NtRp292
(dp293
g61
(dp294
g88
g89
ssg70
g283
sg63
(lp295
S':'
asbag56
(g77
g58
NtRp296
(dp297
g61
(dp298
sg70
g283
sg63
(lp299
g56
(g57
g58
NtRp300
(dp301
g61
(dp302
g69
I3
ssg70
g296
sg63
(lp303
S''
asbasbasbag56
(g72
g58
NtRp304
(dp305
g61
(dp306
sg70
g258
sg63
(lp307
g56
(g77
g58
NtRp308
(dp309
g61
(dp310
g81
g82
ssg70
g304
sg63
(lp311
S'expires'
p312
asbag56
(g77
g58
NtRp313
(dp314
g61
(dp315
g88
g89
ssg70
g304
sg63
(lp316
S':'
asbag56
(g77
g58
NtRp317
(dp318
g61
(dp319
sg70
g304
sg63
(lp320
g56
(g57
g58
NtRp321
(dp322
g61
(dp323
g69
I3
ssg70
g317
sg63
(lp324
S''
asbasbasbag56
(g72
g58
NtRp325
(dp326
g61
(dp327
sg70
g258
sg63
(lp328
g56
(g77
g58
NtRp329
(dp330
g61
(dp331
g81
g82
ssg70
g325
sg63
(lp332
S'httponly'
p333
asbag56
(g77
g58
NtRp334
(dp335
g61
(dp336
g88
g89
ssg70
g325
sg63
(lp337
S':'
asbag56
(g77
g58
NtRp338
(dp339
g61
(dp340
sg70
g325
sg63
(lp341
g56
(g57
g58
NtRp342
(dp343
g61
(dp344
g69
I3
ssg70
g338
sg63
(lp345
S''
asbasbasbag56
(g72
g58
NtRp346
(dp347
g61
(dp348
sg70
g258
sg63
(lp349
g56
(g77
g58
NtRp350
(dp351
g61
(dp352
g81
g82
ssg70
g346
sg63
(lp353
S'max-age'
p354
asbag56
(g77
g58
NtRp355
(dp356
g61
(dp357
g88
g89
ssg70
g346
sg63
(lp358
S':'
asbag56
(g77
g58
NtRp359
(dp360
g61
(dp361
sg70
g346
sg63
(lp362
g56
(g57
g58
NtRp363
(dp364
g61
(dp365
g69
I3
ssg70
g359
sg63
(lp366
S''
asbasbasbag56
(g72
g58
NtRp367
(dp368
g61
(dp369
sg70
g258
sg63
(lp370
g56
(g77
g58
NtRp371
(dp372
g61
(dp373
g81
g82
ssg70
g367
sg63
(lp374
S'path'
p375
asbag56
(g77
g58
NtRp376
(dp377
g61
(dp378
g88
g89
ssg70
g367
sg63
(lp379
S':'
asbag56
(g77
g58
NtRp380
(dp381
g61
(dp382
sg70
g367
sg63
(lp383
g56
(g57
g58
NtRp384
(dp385
g61
(dp386
g69
I3
ssg70
g380
sg63
(lp387
S''
asbasbasbag56
(g72
g58
NtRp388
(dp389
g61
(dp390
sg70
g258
sg63
(lp391
g56
(g77
g58
NtRp392
(dp393
g61
(dp394
g81
g82
ssg70
g388
sg63
(lp395
S'secure'
p396
asbag56
(g77
g58
NtRp397
(dp398
g61
(dp399
g88
g89
ssg70
g388
sg63
(lp400
S':'
asbag56
(g77
g58
NtRp401
(dp402
g61
(dp403
sg70
g388
sg63
(lp404
g56
(g57
g58
NtRp405
(dp406
g61
(dp407
g69
I3
ssg70
g401
sg63
(lp408
S''
asbasbasbag56
(g72
g58
NtRp409
(dp410
g61
(dp411
sg70
g258
sg63
(lp412
g56
(g77
g58
NtRp413
(dp414
g61
(dp415
g81
g82
ssg70
g409
sg63
(lp416
S'version'
p417
asbag56
(g77
g58
NtRp418
(dp419
g61
(dp420
g88
g89
ssg70
g409
sg63
(lp421
S':'
asbag56
(g77
g58
NtRp422
(dp423
g61
(dp424
sg70
g409
sg63
(lp425
g56
(g57
g58
NtRp426
(dp427
g61
(dp428
g69
I3
ssg70
g422
sg63
(lp429
S''
asbasbasbasbasbasbasbag56
(g72
g58
NtRp430
(dp431
g61
(dp432
sg70
g233
sg63
(lp433
g56
(g77
g58
NtRp434
(dp435
g61
(dp436
g81
g82
ssg70
g430
sg63
(lp437
S'session_id_scrum'
p438
asbag56
(g77
g58
NtRp439
(dp440
g61
(dp441
g88
g89
ssg70
g430
sg63
(lp442
S':'
asbag56
(g77
g58
NtRp443
(dp444
g61
(dp445
sg70
g430
sg63
(lp446
g56
(g57
g58
NtRp447
(dp448
g61
(dp449
g69
I4
ssg70
g443
sg63
(lp450
g56
(g65
g58
NtRp451
(dp452
g61
(dp453
g69
I3
ssg70
Nsg63
(lp454
g56
(g72
g58
NtRp455
(dp456
g61
(dp457
sg70
g451
sg63
(lp458
g56
(g77
g58
NtRp459
(dp460
g61
(dp461
g81
g82
ssg70
g455
sg63
(lp462
g270
asbag56
(g77
g58
NtRp463
(dp464
g61
(dp465
g88
g89
ssg70
g455
sg63
(lp466
S':'
asbag56
(g77
g58
NtRp467
(dp468
g61
(dp469
sg70
g455
sg63
(lp470
g56
(g57
g58
NtRp471
(dp472
g61
(dp473
g69
I3
ssg70
g467
sg63
(lp474
S''
asbasbasbag56
(g72
g58
NtRp475
(dp476
g61
(dp477
sg70
g451
sg63
(lp478
g56
(g77
g58
NtRp479
(dp480
g61
(dp481
g81
g82
ssg70
g475
sg63
(lp482
g291
asbag56
(g77
g58
NtRp483
(dp484
g61
(dp485
g88
g89
ssg70
g475
sg63
(lp486
S':'
asbag56
(g77
g58
NtRp487
(dp488
g61
(dp489
sg70
g475
sg63
(lp490
g56
(g57
g58
NtRp491
(dp492
g61
(dp493
g69
I3
ssg70
g487
sg63
(lp494
S''
asbasbasbag56
(g72
g58
NtRp495
(dp496
g61
(dp497
sg70
g451
sg63
(lp498
g56
(g77
g58
NtRp499
(dp500
g61
(dp501
g81
g82
ssg70
g495
sg63
(lp502
g312
asbag56
(g77
g58
NtRp503
(dp504
g61
(dp505
g88
g89
ssg70
g495
sg63
(lp506
S':'
asbag56
(g77
g58
NtRp507
(dp508
g61
(dp509
sg70
g495
sg63
(lp510
g56
(g57
g58
NtRp511
(dp512
g61
(dp513
g69
I3
ssg70
g507
sg63
(lp514
S''
asbasbasbag56
(g72
g58
NtRp515
(dp516
g61
(dp517
sg70
g451
sg63
(lp518
g56
(g77
g58
NtRp519
(dp520
g61
(dp521
g81
g82
ssg70
g515
sg63
(lp522
g333
asbag56
(g77
g58
NtRp523
(dp524
g61
(dp525
g88
g89
ssg70
g515
sg63
(lp526
S':'
asbag56
(g77
g58
NtRp527
(dp528
g61
(dp529
sg70
g515
sg63
(lp530
g56
(g57
g58
NtRp531
(dp532
g61
(dp533
g69
I3
ssg70
g527
sg63
(lp534
S''
asbasbasbag56
(g72
g58
NtRp535
(dp536
g61
(dp537
sg70
g451
sg63
(lp538
g56
(g77
g58
NtRp539
(dp540
g61
(dp541
g81
g82
ssg70
g535
sg63
(lp542
g354
asbag56
(g77
g58
NtRp543
(dp544
g61
(dp545
g88
g89
ssg70
g535
sg63
(lp546
S':'
asbag56
(g77
g58
NtRp547
(dp548
g61
(dp549
sg70
g535
sg63
(lp550
g56
(g57
g58
NtRp551
(dp552
g61
(dp553
g69
I3
ssg70
g547
sg63
(lp554
S''
asbasbasbag56
(g72
g58
NtRp555
(dp556
g61
(dp557
sg70
g451
sg63
(lp558
g56
(g77
g58
NtRp559
(dp560
g61
(dp561
g81
g82
ssg70
g555
sg63
(lp562
g375
asbag56
(g77
g58
NtRp563
(dp564
g61
(dp565
g88
g89
ssg70
g555
sg63
(lp566
S':'
asbag56
(g77
g58
NtRp567
(dp568
g61
(dp569
sg70
g555
sg63
(lp570
g56
(g57
g58
NtRp571
(dp572
g61
(dp573
g69
I3
ssg70
g567
sg63
(lp574
S''
asbasbasbag56
(g72
g58
NtRp575
(dp576
g61
(dp577
sg70
g451
sg63
(lp578
g56
(g77
g58
NtRp579
(dp580
g61
(dp581
g81
g82
ssg70
g575
sg63
(lp582
g396
asbag56
(g77
g58
NtRp583
(dp584
g61
(dp585
g88
g89
ssg70
g575
sg63
(lp586
S':'
asbag56
(g77
g58
NtRp587
(dp588
g61
(dp589
sg70
g575
sg63
(lp590
g56
(g57
g58
NtRp591
(dp592
g61
(dp593
g69
I3
ssg70
g587
sg63
(lp594
S''
asbasbasbag56
(g72
g58
NtRp595
(dp596
g61
(dp597
sg70
g451
sg63
(lp598
g56
(g77
g58
NtRp599
(dp600
g61
(dp601
g81
g82
ssg70
g595
sg63
(lp602
g417
asbag56
(g77
g58
NtRp603
(dp604
g61
(dp605
g88
g89
ssg70
g595
sg63
(lp606
S':'
asbag56
(g77
g58
NtRp607
(dp608
g61
(dp609
sg70
g595
sg63
(lp610
g56
(g57
g58
NtRp611
(dp612
g61
(dp613
g69
I3
ssg70
g607
sg63
(lp614
S''
asbasbasbasbasbasbasbasbasbasbasbag56
(g72
g58
NtRp615
(dp616
g61
(dp617
sg70
g66
sg63
(lp618
g56
(g77
g58
NtRp619
(dp620
g61
(dp621
g81
g82
ssg70
g615
sg63
(lp622
S'env'
p623
asbag56
(g77
g58
NtRp624
(dp625
g61
(dp626
g88
g89
ssg70
g615
sg63
(lp627
S':'
asbag56
(g77
g58
NtRp628
(dp629
g61
(dp630
sg70
g615
sg63
(lp631
g56
(g57
g58
NtRp632
(dp633
g61
(dp634
g69
I5
ssg70
g628
sg63
(lp635
g56
(g65
g58
NtRp636
(dp637
g61
(dp638
g69
I4
ssg70
Nsg63
(lp639
g56
(g72
g58
NtRp640
(dp641
g61
(dp642
sg70
g636
sg63
(lp643
g56
(g77
g58
NtRp644
(dp645
g61
(dp646
g81
g82
ssg70
g640
sg63
(lp647
S'app_folders'
p648
asbag56
(g77
g58
NtRp649
(dp650
g61
(dp651
g88
g89
ssg70
g640
sg63
(lp652
S':'
asbag56
(g77
g58
NtRp653
(dp654
g61
(dp655
sg70
g640
sg63
(lp656
g56
(g57
g58
NtRp657
(dp658
g61
(dp659
g69
I4
ssg70
g653
sg63
(lp660
S"set(['/home/www-data/web2py/applications/scrum/', '/home/www-data/web2py/applications/admin/'])"
p661
asbasbasbag56
(g72
g58
NtRp662
(dp663
g61
(dp664
sg70
g636
sg63
(lp665
g56
(g77
g58
NtRp666
(dp667
g61
(dp668
g81
g82
ssg70
g662
sg63
(lp669
S'applications_parent'
p670
asbag56
(g77
g58
NtRp671
(dp672
g61
(dp673
g88
g89
ssg70
g662
sg63
(lp674
S':'
asbag56
(g77
g58
NtRp675
(dp676
g61
(dp677
sg70
g662
sg63
(lp678
g56
(g57
g58
NtRp679
(dp680
g61
(dp681
g69
I4
ssg70
g675
sg63
(lp682
S'/home/www-data/web2py'
p683
asbasbasbag56
(g72
g58
NtRp684
(dp685
g61
(dp686
sg70
g636
sg63
(lp687
g56
(g77
g58
NtRp688
(dp689
g61
(dp690
g81
g82
ssg70
g684
sg63
(lp691
S'db_sessions'
p692
asbag56
(g77
g58
NtRp693
(dp694
g61
(dp695
g88
g89
ssg70
g684
sg63
(lp696
S':'
asbag56
(g77
g58
NtRp697
(dp698
g61
(dp699
sg70
g684
sg63
(lp700
g56
(g57
g58
NtRp701
(dp702
g61
(dp703
g69
I4
ssg70
g697
sg63
(lp704
S'set([])'
p705
asbasbasbag56
(g72
g58
NtRp706
(dp707
g61
(dp708
sg70
g636
sg63
(lp709
g56
(g77
g58
NtRp710
(dp711
g61
(dp712
g81
g82
ssg70
g706
sg63
(lp713
S'debugging'
p714
asbag56
(g77
g58
NtRp715
(dp716
g61
(dp717
g88
g89
ssg70
g706
sg63
(lp718
S':'
asbag56
(g77
g58
NtRp719
(dp720
g61
(dp721
sg70
g706
sg63
(lp722
g56
(g57
g58
NtRp723
(dp724
g61
(dp725
g69
I4
ssg70
g719
sg63
(lp726
g99
asbasbasbag56
(g72
g58
NtRp727
(dp728
g61
(dp729
sg70
g636
sg63
(lp730
g56
(g77
g58
NtRp731
(dp732
g61
(dp733
g81
g82
ssg70
g727
sg63
(lp734
S'document_root'
p735
asbag56
(g77
g58
NtRp736
(dp737
g61
(dp738
g88
g89
ssg70
g727
sg63
(lp739
S':'
asbag56
(g77
g58
NtRp740
(dp741
g61
(dp742
sg70
g727
sg63
(lp743
g56
(g57
g58
NtRp744
(dp745
g61
(dp746
g69
I4
ssg70
g740
sg63
(lp747
S'/etc/apache2/htdocs'
p748
asbasbasbag56
(g72
g58
NtRp749
(dp750
g61
(dp751
sg70
g636
sg63
(lp752
g56
(g77
g58
NtRp753
(dp754
g61
(dp755
g81
g82
ssg70
g749
sg63
(lp756
S'gateway_interface'
p757
asbag56
(g77
g58
NtRp758
(dp759
g61
(dp760
g88
g89
ssg70
g749
sg63
(lp761
S':'
asbag56
(g77
g58
NtRp762
(dp763
g61
(dp764
sg70
g749
sg63
(lp765
g56
(g57
g58
NtRp766
(dp767
g61
(dp768
g69
I4
ssg70
g762
sg63
(lp769
S'CGI/1.1'
p770
asbasbasbag56
(g72
g58
NtRp771
(dp772
g61
(dp773
sg70
g636
sg63
(lp774
g56
(g77
g58
NtRp775
(dp776
g61
(dp777
g81
g82
ssg70
g771
sg63
(lp778
S'gluon_parent'
p779
asbag56
(g77
g58
NtRp780
(dp781
g61
(dp782
g88
g89
ssg70
g771
sg63
(lp783
S':'
asbag56
(g77
g58
NtRp784
(dp785
g61
(dp786
sg70
g771
sg63
(lp787
g56
(g57
g58
NtRp788
(dp789
g61
(dp790
g69
I4
ssg70
g784
sg63
(lp791
g683
asbasbasbag56
(g72
g58
NtRp792
(dp793
g61
(dp794
sg70
g636
sg63
(lp795
g56
(g77
g58
NtRp796
(dp797
g61
(dp798
g81
g82
ssg70
g792
sg63
(lp799
S'http_accept'
p800
asbag56
(g77
g58
NtRp801
(dp802
g61
(dp803
g88
g89
ssg70
g792
sg63
(lp804
S':'
asbag56
(g77
g58
NtRp805
(dp806
g61
(dp807
sg70
g792
sg63
(lp808
g56
(g57
g58
NtRp809
(dp810
g61
(dp811
g69
I4
ssg70
g805
sg63
(lp812
S'text/html, application/xml;q=0.9, application/xhtml+xml, image/png, image/webp, image/jpeg, image/gif, image/x-xbitmap, */*;q=0.1'
p813
asbasbasbag56
(g72
g58
NtRp814
(dp815
g61
(dp816
sg70
g636
sg63
(lp817
g56
(g77
g58
NtRp818
(dp819
g61
(dp820
g81
g82
ssg70
g814
sg63
(lp821
S'http_accept_encoding'
p822
asbag56
(g77
g58
NtRp823
(dp824
g61
(dp825
g88
g89
ssg70
g814
sg63
(lp826
S':'
asbag56
(g77
g58
NtRp827
(dp828
g61
(dp829
sg70
g814
sg63
(lp830
g56
(g57
g58
NtRp831
(dp832
g61
(dp833
g69
I4
ssg70
g827
sg63
(lp834
S'gzip, deflate'
p835
asbasbasbag56
(g72
g58
NtRp836
(dp837
g61
(dp838
sg70
g636
sg63
(lp839
g56
(g77
g58
NtRp840
(dp841
g61
(dp842
g81
g82
ssg70
g836
sg63
(lp843
S'http_accept_language'
p844
asbag56
(g77
g58
NtRp845
(dp846
g61
(dp847
g88
g89
ssg70
g836
sg63
(lp848
S':'
asbag56
(g77
g58
NtRp849
(dp850
g61
(dp851
sg70
g836
sg63
(lp852
g56
(g57
g58
NtRp853
(dp854
g61
(dp855
g69
I4
ssg70
g849
sg63
(lp856
S'pt-BR,pt;q=0.9,en;q=0.8'
p857
asbasbasbag56
(g72
g58
NtRp858
(dp859
g61
(dp860
sg70
g636
sg63
(lp861
g56
(g77
g58
NtRp862
(dp863
g61
(dp864
g81
g82
ssg70
g858
sg63
(lp865
S'http_cache_control'
p866
asbag56
(g77
g58
NtRp867
(dp868
g61
(dp869
g88
g89
ssg70
g858
sg63
(lp870
S':'
asbag56
(g77
g58
NtRp871
(dp872
g61
(dp873
sg70
g858
sg63
(lp874
g56
(g57
g58
NtRp875
(dp876
g61
(dp877
g69
I4
ssg70
g871
sg63
(lp878
S'no-cache'
p879
asbasbasbag56
(g72
g58
NtRp880
(dp881
g61
(dp882
sg70
g636
sg63
(lp883
g56
(g77
g58
NtRp884
(dp885
g61
(dp886
g81
g82
ssg70
g880
sg63
(lp887
S'http_connection'
p888
asbag56
(g77
g58
NtRp889
(dp890
g61
(dp891
g88
g89
ssg70
g880
sg63
(lp892
S':'
asbag56
(g77
g58
NtRp893
(dp894
g61
(dp895
sg70
g880
sg63
(lp896
g56
(g57
g58
NtRp897
(dp898
g61
(dp899
g69
I4
ssg70
g893
sg63
(lp900
S'Keep-Alive'
p901
asbasbasbag56
(g72
g58
NtRp902
(dp903
g61
(dp904
sg70
g636
sg63
(lp905
g56
(g77
g58
NtRp906
(dp907
g61
(dp908
g81
g82
ssg70
g902
sg63
(lp909
S'http_cookie'
p910
asbag56
(g77
g58
NtRp911
(dp912
g61
(dp913
g88
g89
ssg70
g902
sg63
(lp914
S':'
asbag56
(g77
g58
NtRp915
(dp916
g61
(dp917
sg70
g902
sg63
(lp918
g56
(g57
g58
NtRp919
(dp920
g61
(dp921
g69
I4
ssg70
g915
sg63
(lp922
S'session_id_scrum=127.0.0.1-f47d3ac4-8d8c-46d5-8321-f944561d518f; session_id_admin=127.0.0.1-ce034cfe-dc55-49ae-8249-b059df779a22'
p923
asbasbasbag56
(g72
g58
NtRp924
(dp925
g61
(dp926
sg70
g636
sg63
(lp927
g56
(g77
g58
NtRp928
(dp929
g61
(dp930
g81
g82
ssg70
g924
sg63
(lp931
S'http_host'
p932
asbag56
(g77
g58
NtRp933
(dp934
g61
(dp935
g88
g89
ssg70
g924
sg63
(lp936
S':'
asbag56
(g77
g58
NtRp937
(dp938
g61
(dp939
sg70
g924
sg63
(lp940
g56
(g57
g58
NtRp941
(dp942
g61
(dp943
g69
I4
ssg70
g937
sg63
(lp944
S'localhost'
p945
asbasbasbag56
(g72
g58
NtRp946
(dp947
g61
(dp948
sg70
g636
sg63
(lp949
g56
(g77
g58
NtRp950
(dp951
g61
(dp952
g81
g82
ssg70
g946
sg63
(lp953
S'http_user_agent'
p954
asbag56
(g77
g58
NtRp955
(dp956
g61
(dp957
g88
g89
ssg70
g946
sg63
(lp958
S':'
asbag56
(g77
g58
NtRp959
(dp960
g61
(dp961
sg70
g946
sg63
(lp962
g56
(g57
g58
NtRp963
(dp964
g61
(dp965
g69
I4
ssg70
g959
sg63
(lp966
S'Opera/9.80 (X11; Linux i686; U; pt-BR) Presto/2.9.168 Version/11.51'
p967
asbasbasbag56
(g72
g58
NtRp968
(dp969
g61
(dp970
sg70
g636
sg63
(lp971
g56
(g77
g58
NtRp972
(dp973
g61
(dp974
g81
g82
ssg70
g968
sg63
(lp975
S'https'
p976
asbag56
(g77
g58
NtRp977
(dp978
g61
(dp979
g88
g89
ssg70
g968
sg63
(lp980
S':'
asbag56
(g77
g58
NtRp981
(dp982
g61
(dp983
sg70
g968
sg63
(lp984
g56
(g57
g58
NtRp985
(dp986
g61
(dp987
g69
I4
ssg70
g981
sg63
(lp988
S'1'
asbasbasbag56
(g72
g58
NtRp989
(dp990
g61
(dp991
sg70
g636
sg63
(lp992
g56
(g77
g58
NtRp993
(dp994
g61
(dp995
g81
g82
ssg70
g989
sg63
(lp996
S'is_jython'
p997
asbag56
(g77
g58
NtRp998
(dp999
g61
(dp1000
g88
g89
ssg70
g989
sg63
(lp1001
S':'
asbag56
(g77
g58
NtRp1002
(dp1003
g61
(dp1004
sg70
g989
sg63
(lp1005
g56
(g57
g58
NtRp1006
(dp1007
g61
(dp1008
g69
I4
ssg70
g1002
sg63
(lp1009
g99
asbasbasbag56
(g72
g58
NtRp1010
(dp1011
g61
(dp1012
sg70
g636
sg63
(lp1013
g56
(g77
g58
NtRp1014
(dp1015
g61
(dp1016
g81
g82
ssg70
g1010
sg63
(lp1017
S'mod_wsgi_application_group'
p1018
asbag56
(g77
g58
NtRp1019
(dp1020
g61
(dp1021
g88
g89
ssg70
g1010
sg63
(lp1022
S':'
asbag56
(g77
g58
NtRp1023
(dp1024
g61
(dp1025
sg70
g1010
sg63
(lp1026
g56
(g57
g58
NtRp1027
(dp1028
g61
(dp1029
g69
I4
ssg70
g1023
sg63
(lp1030
S'localhost.localdomain|'
p1031
asbasbasbag56
(g72
g58
NtRp1032
(dp1033
g61
(dp1034
sg70
g636
sg63
(lp1035
g56
(g77
g58
NtRp1036
(dp1037
g61
(dp1038
g81
g82
ssg70
g1032
sg63
(lp1039
S'mod_wsgi_callable_object'
p1040
asbag56
(g77
g58
NtRp1041
(dp1042
g61
(dp1043
g88
g89
ssg70
g1032
sg63
(lp1044
S':'
asbag56
(g77
g58
NtRp1045
(dp1046
g61
(dp1047
sg70
g1032
sg63
(lp1048
g56
(g57
g58
NtRp1049
(dp1050
g61
(dp1051
g69
I4
ssg70
g1045
sg63
(lp1052
S'application'
p1053
asbasbasbag56
(g72
g58
NtRp1054
(dp1055
g61
(dp1056
sg70
g636
sg63
(lp1057
g56
(g77
g58
NtRp1058
(dp1059
g61
(dp1060
g81
g82
ssg70
g1054
sg63
(lp1061
S'mod_wsgi_handler_script'
p1062
asbag56
(g77
g58
NtRp1063
(dp1064
g61
(dp1065
g88
g89
ssg70
g1054
sg63
(lp1066
S':'
asbag56
(g77
g58
NtRp1067
(dp1068
g61
(dp1069
sg70
g1054
sg63
(lp1070
g56
(g57
g58
NtRp1071
(dp1072
g61
(dp1073
g69
I4
ssg70
g1067
sg63
(lp1074
S''
asbasbasbag56
(g72
g58
NtRp1075
(dp1076
g61
(dp1077
sg70
g636
sg63
(lp1078
g56
(g77
g58
NtRp1079
(dp1080
g61
(dp1081
g81
g82
ssg70
g1075
sg63
(lp1082
S'mod_wsgi_input_chunked'
p1083
asbag56
(g77
g58
NtRp1084
(dp1085
g61
(dp1086
g88
g89
ssg70
g1075
sg63
(lp1087
S':'
asbag56
(g77
g58
NtRp1088
(dp1089
g61
(dp1090
sg70
g1075
sg63
(lp1091
g56
(g57
g58
NtRp1092
(dp1093
g61
(dp1094
g69
I4
ssg70
g1088
sg63
(lp1095
S'0'
asbasbasbag56
(g72
g58
NtRp1096
(dp1097
g61
(dp1098
sg70
g636
sg63
(lp1099
g56
(g77
g58
NtRp1100
(dp1101
g61
(dp1102
g81
g82
ssg70
g1096
sg63
(lp1103
S'mod_wsgi_listener_host'
p1104
asbag56
(g77
g58
NtRp1105
(dp1106
g61
(dp1107
g88
g89
ssg70
g1096
sg63
(lp1108
S':'
asbag56
(g77
g58
NtRp1109
(dp1110
g61
(dp1111
sg70
g1096
sg63
(lp1112
g56
(g57
g58
NtRp1113
(dp1114
g61
(dp1115
g69
I4
ssg70
g1109
sg63
(lp1116
S''
asbasbasbag56
(g72
g58
NtRp1117
(dp1118
g61
(dp1119
sg70
g636
sg63
(lp1120
g56
(g77
g58
NtRp1121
(dp1122
g61
(dp1123
g81
g82
ssg70
g1117
sg63
(lp1124
S'mod_wsgi_listener_port'
p1125
asbag56
(g77
g58
NtRp1126
(dp1127
g61
(dp1128
g88
g89
ssg70
g1117
sg63
(lp1129
S':'
asbag56
(g77
g58
NtRp1130
(dp1131
g61
(dp1132
sg70
g1117
sg63
(lp1133
g56
(g57
g58
NtRp1134
(dp1135
g61
(dp1136
g69
I4
ssg70
g1130
sg63
(lp1137
S'443'
p1138
asbasbasbag56
(g72
g58
NtRp1139
(dp1140
g61
(dp1141
sg70
g636
sg63
(lp1142
g56
(g77
g58
NtRp1143
(dp1144
g61
(dp1145
g81
g82
ssg70
g1139
sg63
(lp1146
S'mod_wsgi_process_group'
p1147
asbag56
(g77
g58
NtRp1148
(dp1149
g61
(dp1150
g88
g89
ssg70
g1139
sg63
(lp1151
S':'
asbag56
(g77
g58
NtRp1152
(dp1153
g61
(dp1154
sg70
g1139
sg63
(lp1155
g56
(g57
g58
NtRp1156
(dp1157
g61
(dp1158
g69
I4
ssg70
g1152
sg63
(lp1159
S'web2py'
p1160
asbasbasbag56
(g72
g58
NtRp1161
(dp1162
g61
(dp1163
sg70
g636
sg63
(lp1164
g56
(g77
g58
NtRp1165
(dp1166
g61
(dp1167
g81
g82
ssg70
g1161
sg63
(lp1168
S'mod_wsgi_request_handler'
p1169
asbag56
(g77
g58
NtRp1170
(dp1171
g61
(dp1172
g88
g89
ssg70
g1161
sg63
(lp1173
S':'
asbag56
(g77
g58
NtRp1174
(dp1175
g61
(dp1176
sg70
g1161
sg63
(lp1177
g56
(g57
g58
NtRp1178
(dp1179
g61
(dp1180
g69
I4
ssg70
g1174
sg63
(lp1181
S'wsgi-script'
p1182
asbasbasbag56
(g72
g58
NtRp1183
(dp1184
g61
(dp1185
sg70
g636
sg63
(lp1186
g56
(g77
g58
NtRp1187
(dp1188
g61
(dp1189
g81
g82
ssg70
g1183
sg63
(lp1190
S'mod_wsgi_script_reloading'
p1191
asbag56
(g77
g58
NtRp1192
(dp1193
g61
(dp1194
g88
g89
ssg70
g1183
sg63
(lp1195
S':'
asbag56
(g77
g58
NtRp1196
(dp1197
g61
(dp1198
sg70
g1183
sg63
(lp1199
g56
(g57
g58
NtRp1200
(dp1201
g61
(dp1202
g69
I4
ssg70
g1196
sg63
(lp1203
S'1'
asbasbasbag56
(g72
g58
NtRp1204
(dp1205
g61
(dp1206
sg70
g636
sg63
(lp1207
g56
(g77
g58
NtRp1208
(dp1209
g61
(dp1210
g81
g82
ssg70
g1204
sg63
(lp1211
S'mod_wsgi_version'
p1212
asbag56
(g77
g58
NtRp1213
(dp1214
g61
(dp1215
g88
g89
ssg70
g1204
sg63
(lp1216
S':'
asbag56
(g77
g58
NtRp1217
(dp1218
g61
(dp1219
sg70
g1204
sg63
(lp1220
g56
(g57
g58
NtRp1221
(dp1222
g61
(dp1223
g69
I4
ssg70
g1217
sg63
(lp1224
g56
(g65
g58
NtRp1225
(dp1226
g61
(dp1227
g69
I3
ssg70
Nsg63
(lp1228
g56
(g72
g58
NtRp1229
(dp1230
g61
(dp1231
sg70
g1225
sg63
(lp1232
g56
(g77
g58
NtRp1233
(dp1234
g61
(dp1235
sg70
g1229
sg63
(lp1236
g56
(g57
g58
NtRp1237
(dp1238
g61
(dp1239
g69
I3
ssg70
g1233
sg63
(lp1240
S'3'
asbasbasbag56
(g72
g58
NtRp1241
(dp1242
g61
(dp1243
sg70
g1225
sg63
(lp1244
g56
(g77
g58
NtRp1245
(dp1246
g61
(dp1247
sg70
g1241
sg63
(lp1248
g56
(g57
g58
NtRp1249
(dp1250
g61
(dp1251
g69
I3
ssg70
g1245
sg63
(lp1252
S'3'
asbasbasbasbasbasbasbag56
(g72
g58
NtRp1253
(dp1254
g61
(dp1255
sg70
g636
sg63
(lp1256
g56
(g77
g58
NtRp1257
(dp1258
g61
(dp1259
g81
g82
ssg70
g1253
sg63
(lp1260
S'path_info'
p1261
asbag56
(g77
g58
NtRp1262
(dp1263
g61
(dp1264
g88
g89
ssg70
g1253
sg63
(lp1265
S':'
asbag56
(g77
g58
NtRp1266
(dp1267
g61
(dp1268
sg70
g1253
sg63
(lp1269
g56
(g57
g58
NtRp1270
(dp1271
g61
(dp1272
g69
I4
ssg70
g1266
sg63
(lp1273
S'/scrum/ticket/index'
p1274
asbasbasbag56
(g72
g58
NtRp1275
(dp1276
g61
(dp1277
sg70
g636
sg63
(lp1278
g56
(g77
g58
NtRp1279
(dp1280
g61
(dp1281
g81
g82
ssg70
g1275
sg63
(lp1282
S'path_translated'
p1283
asbag56
(g77
g58
NtRp1284
(dp1285
g61
(dp1286
g88
g89
ssg70
g1275
sg63
(lp1287
S':'
asbag56
(g77
g58
NtRp1288
(dp1289
g61
(dp1290
sg70
g1275
sg63
(lp1291
g56
(g57
g58
NtRp1292
(dp1293
g61
(dp1294
g69
I4
ssg70
g1288
sg63
(lp1295
S'/home/www-data/web2py/wsgihandler.py/scrum/ticket/index'
p1296
asbasbasbag56
(g72
g58
NtRp1297
(dp1298
g61
(dp1299
sg70
g636
sg63
(lp1300
g56
(g77
g58
NtRp1301
(dp1302
g61
(dp1303
g81
g82
ssg70
g1297
sg63
(lp1304
S'query_string'
p1305
asbag56
(g77
g58
NtRp1306
(dp1307
g61
(dp1308
g88
g89
ssg70
g1297
sg63
(lp1309
S':'
asbag56
(g77
g58
NtRp1310
(dp1311
g61
(dp1312
sg70
g1297
sg63
(lp1313
g56
(g57
g58
NtRp1314
(dp1315
g61
(dp1316
g69
I4
ssg70
g1310
sg63
(lp1317
S''
asbasbasbag56
(g72
g58
NtRp1318
(dp1319
g61
(dp1320
sg70
g636
sg63
(lp1321
g56
(g77
g58
NtRp1322
(dp1323
g61
(dp1324
g81
g82
ssg70
g1318
sg63
(lp1325
S'remote_addr'
p1326
asbag56
(g77
g58
NtRp1327
(dp1328
g61
(dp1329
g88
g89
ssg70
g1318
sg63
(lp1330
S':'
asbag56
(g77
g58
NtRp1331
(dp1332
g61
(dp1333
sg70
g1318
sg63
(lp1334
g56
(g57
g58
NtRp1335
(dp1336
g61
(dp1337
g69
I4
ssg70
g1331
sg63
(lp1338
g189
asbasbasbag56
(g72
g58
NtRp1339
(dp1340
g61
(dp1341
sg70
g636
sg63
(lp1342
g56
(g77
g58
NtRp1343
(dp1344
g61
(dp1345
g81
g82
ssg70
g1339
sg63
(lp1346
S'remote_port'
p1347
asbag56
(g77
g58
NtRp1348
(dp1349
g61
(dp1350
g88
g89
ssg70
g1339
sg63
(lp1351
S':'
asbag56
(g77
g58
NtRp1352
(dp1353
g61
(dp1354
sg70
g1339
sg63
(lp1355
g56
(g57
g58
NtRp1356
(dp1357
g61
(dp1358
g69
I4
ssg70
g1352
sg63
(lp1359
S'38918'
p1360
asbasbasbag56
(g72
g58
NtRp1361
(dp1362
g61
(dp1363
sg70
g636
sg63
(lp1364
g56
(g77
g58
NtRp1365
(dp1366
g61
(dp1367
g81
g82
ssg70
g1361
sg63
(lp1368
S'request_method'
p1369
asbag56
(g77
g58
NtRp1370
(dp1371
g61
(dp1372
g88
g89
ssg70
g1361
sg63
(lp1373
S':'
asbag56
(g77
g58
NtRp1374
(dp1375
g61
(dp1376
sg70
g1361
sg63
(lp1377
g56
(g57
g58
NtRp1378
(dp1379
g61
(dp1380
g69
I4
ssg70
g1374
sg63
(lp1381
S'GET'
p1382
asbasbasbag56
(g72
g58
NtRp1383
(dp1384
g61
(dp1385
sg70
g636
sg63
(lp1386
g56
(g77
g58
NtRp1387
(dp1388
g61
(dp1389
g81
g82
ssg70
g1383
sg63
(lp1390
S'request_uri'
p1391
asbag56
(g77
g58
NtRp1392
(dp1393
g61
(dp1394
g88
g89
ssg70
g1383
sg63
(lp1395
S':'
asbag56
(g77
g58
NtRp1396
(dp1397
g61
(dp1398
sg70
g1383
sg63
(lp1399
g56
(g57
g58
NtRp1400
(dp1401
g61
(dp1402
g69
I4
ssg70
g1396
sg63
(lp1403
S'/scrum/ticket/index'
p1404
asbasbasbag56
(g72
g58
NtRp1405
(dp1406
g61
(dp1407
sg70
g636
sg63
(lp1408
g56
(g77
g58
NtRp1409
(dp1410
g61
(dp1411
g81
g82
ssg70
g1405
sg63
(lp1412
S'script_filename'
p1413
asbag56
(g77
g58
NtRp1414
(dp1415
g61
(dp1416
g88
g89
ssg70
g1405
sg63
(lp1417
S':'
asbag56
(g77
g58
NtRp1418
(dp1419
g61
(dp1420
sg70
g1405
sg63
(lp1421
g56
(g57
g58
NtRp1422
(dp1423
g61
(dp1424
g69
I4
ssg70
g1418
sg63
(lp1425
S'/home/www-data/web2py/wsgihandler.py'
p1426
asbasbasbag56
(g72
g58
NtRp1427
(dp1428
g61
(dp1429
sg70
g636
sg63
(lp1430
g56
(g77
g58
NtRp1431
(dp1432
g61
(dp1433
g81
g82
ssg70
g1427
sg63
(lp1434
S'script_name'
p1435
asbag56
(g77
g58
NtRp1436
(dp1437
g61
(dp1438
g88
g89
ssg70
g1427
sg63
(lp1439
S':'
asbag56
(g77
g58
NtRp1440
(dp1441
g61
(dp1442
sg70
g1427
sg63
(lp1443
g56
(g57
g58
NtRp1444
(dp1445
g61
(dp1446
g69
I4
ssg70
g1440
sg63
(lp1447
S''
asbasbasbag56
(g72
g58
NtRp1448
(dp1449
g61
(dp1450
sg70
g636
sg63
(lp1451
g56
(g77
g58
NtRp1452
(dp1453
g61
(dp1454
g81
g82
ssg70
g1448
sg63
(lp1455
S'server_addr'
p1456
asbag56
(g77
g58
NtRp1457
(dp1458
g61
(dp1459
g88
g89
ssg70
g1448
sg63
(lp1460
S':'
asbag56
(g77
g58
NtRp1461
(dp1462
g61
(dp1463
sg70
g1448
sg63
(lp1464
g56
(g57
g58
NtRp1465
(dp1466
g61
(dp1467
g69
I4
ssg70
g1461
sg63
(lp1468
S'127.0.0.1'
p1469
asbasbasbag56
(g72
g58
NtRp1470
(dp1471
g61
(dp1472
sg70
g636
sg63
(lp1473
g56
(g77
g58
NtRp1474
(dp1475
g61
(dp1476
g81
g82
ssg70
g1470
sg63
(lp1477
S'server_admin'
p1478
asbag56
(g77
g58
NtRp1479
(dp1480
g61
(dp1481
g88
g89
ssg70
g1470
sg63
(lp1482
S':'
asbag56
(g77
g58
NtRp1483
(dp1484
g61
(dp1485
sg70
g1470
sg63
(lp1486
g56
(g57
g58
NtRp1487
(dp1488
g61
(dp1489
g69
I4
ssg70
g1483
sg63
(lp1490
S'[no address given]'
p1491
asbasbasbag56
(g72
g58
NtRp1492
(dp1493
g61
(dp1494
sg70
g636
sg63
(lp1495
g56
(g77
g58
NtRp1496
(dp1497
g61
(dp1498
g81
g82
ssg70
g1492
sg63
(lp1499
S'server_name'
p1500
asbag56
(g77
g58
NtRp1501
(dp1502
g61
(dp1503
g88
g89
ssg70
g1492
sg63
(lp1504
S':'
asbag56
(g77
g58
NtRp1505
(dp1506
g61
(dp1507
sg70
g1492
sg63
(lp1508
g56
(g57
g58
NtRp1509
(dp1510
g61
(dp1511
g69
I4
ssg70
g1505
sg63
(lp1512
S'localhost'
p1513
asbasbasbag56
(g72
g58
NtRp1514
(dp1515
g61
(dp1516
sg70
g636
sg63
(lp1517
g56
(g77
g58
NtRp1518
(dp1519
g61
(dp1520
g81
g82
ssg70
g1514
sg63
(lp1521
S'server_port'
p1522
asbag56
(g77
g58
NtRp1523
(dp1524
g61
(dp1525
g88
g89
ssg70
g1514
sg63
(lp1526
S':'
asbag56
(g77
g58
NtRp1527
(dp1528
g61
(dp1529
sg70
g1514
sg63
(lp1530
g56
(g57
g58
NtRp1531
(dp1532
g61
(dp1533
g69
I4
ssg70
g1527
sg63
(lp1534
S'443'
p1535
asbasbasbag56
(g72
g58
NtRp1536
(dp1537
g61
(dp1538
sg70
g636
sg63
(lp1539
g56
(g77
g58
NtRp1540
(dp1541
g61
(dp1542
g81
g82
ssg70
g1536
sg63
(lp1543
S'server_protocol'
p1544
asbag56
(g77
g58
NtRp1545
(dp1546
g61
(dp1547
g88
g89
ssg70
g1536
sg63
(lp1548
S':'
asbag56
(g77
g58
NtRp1549
(dp1550
g61
(dp1551
sg70
g1536
sg63
(lp1552
g56
(g57
g58
NtRp1553
(dp1554
g61
(dp1555
g69
I4
ssg70
g1549
sg63
(lp1556
S'HTTP/1.1'
p1557
asbasbasbag56
(g72
g58
NtRp1558
(dp1559
g61
(dp1560
sg70
g636
sg63
(lp1561
g56
(g77
g58
NtRp1562
(dp1563
g61
(dp1564
g81
g82
ssg70
g1558
sg63
(lp1565
S'server_signature'
p1566
asbag56
(g77
g58
NtRp1567
(dp1568
g61
(dp1569
g88
g89
ssg70
g1558
sg63
(lp1570
S':'
asbag56
(g77
g58
NtRp1571
(dp1572
g61
(dp1573
sg70
g1558
sg63
(lp1574
g56
(g57
g58
NtRp1575
(dp1576
g61
(dp1577
g69
I4
ssg70
g1571
sg63
(lp1578
S'<address>Apache/2.2.17 (Ubuntu) Server at localhost Port 443</address>\n'
p1579
asbasbasbag56
(g72
g58
NtRp1580
(dp1581
g61
(dp1582
sg70
g636
sg63
(lp1583
g56
(g77
g58
NtRp1584
(dp1585
g61
(dp1586
g81
g82
ssg70
g1580
sg63
(lp1587
S'server_software'
p1588
asbag56
(g77
g58
NtRp1589
(dp1590
g61
(dp1591
g88
g89
ssg70
g1580
sg63
(lp1592
S':'
asbag56
(g77
g58
NtRp1593
(dp1594
g61
(dp1595
sg70
g1580
sg63
(lp1596
g56
(g57
g58
NtRp1597
(dp1598
g61
(dp1599
g69
I4
ssg70
g1593
sg63
(lp1600
S'Apache/2.2.17 (Ubuntu)'
p1601
asbasbasbag56
(g72
g58
NtRp1602
(dp1603
g61
(dp1604
sg70
g636
sg63
(lp1605
g56
(g77
g58
NtRp1606
(dp1607
g61
(dp1608
g81
g82
ssg70
g1602
sg63
(lp1609
S'ssl_tls_sni'
p1610
asbag56
(g77
g58
NtRp1611
(dp1612
g61
(dp1613
g88
g89
ssg70
g1602
sg63
(lp1614
S':'
asbag56
(g77
g58
NtRp1615
(dp1616
g61
(dp1617
sg70
g1602
sg63
(lp1618
g56
(g57
g58
NtRp1619
(dp1620
g61
(dp1621
g69
I4
ssg70
g1615
sg63
(lp1622
S'localhost'
p1623
asbasbasbag56
(g72
g58
NtRp1624
(dp1625
g61
(dp1626
sg70
g636
sg63
(lp1627
g56
(g77
g58
NtRp1628
(dp1629
g61
(dp1630
g81
g82
ssg70
g1624
sg63
(lp1631
S'web2py_path'
p1632
asbag56
(g77
g58
NtRp1633
(dp1634
g61
(dp1635
g88
g89
ssg70
g1624
sg63
(lp1636
S':'
asbag56
(g77
g58
NtRp1637
(dp1638
g61
(dp1639
sg70
g1624
sg63
(lp1640
g56
(g57
g58
NtRp1641
(dp1642
g61
(dp1643
g69
I4
ssg70
g1637
sg63
(lp1644
g683
asbasbasbag56
(g72
g58
NtRp1645
(dp1646
g61
(dp1647
sg70
g636
sg63
(lp1648
g56
(g77
g58
NtRp1649
(dp1650
g61
(dp1651
g81
g82
ssg70
g1645
sg63
(lp1652
S'web2py_version'
p1653
asbag56
(g77
g58
NtRp1654
(dp1655
g61
(dp1656
g88
g89
ssg70
g1645
sg63
(lp1657
S':'
asbag56
(g77
g58
NtRp1658
(dp1659
g61
(dp1660
sg70
g1645
sg63
(lp1661
g56
(g57
g58
NtRp1662
(dp1663
g61
(dp1664
g69
I4
ssg70
g1658
sg63
(lp1665
S'Version 1.98.2 (2011-08-04 00:47:09)\n'
p1666
asbasbasbag56
(g72
g58
NtRp1667
(dp1668
g61
(dp1669
sg70
g636
sg63
(lp1670
g56
(g77
g58
NtRp1671
(dp1672
g61
(dp1673
g81
g82
ssg70
g1667
sg63
(lp1674
S'wsgi_errors'
p1675
asbag56
(g77
g58
NtRp1676
(dp1677
g61
(dp1678
g88
g89
ssg70
g1667
sg63
(lp1679
S':'
asbag56
(g77
g58
NtRp1680
(dp1681
g61
(dp1682
sg70
g1667
sg63
(lp1683
g56
(g57
g58
NtRp1684
(dp1685
g61
(dp1686
g69
I4
ssg70
g1680
sg63
(lp1687
S'<mod_wsgi.Log object at 0xb9cbaf98>'
p1688
asbasbasbag56
(g72
g58
NtRp1689
(dp1690
g61
(dp1691
sg70
g636
sg63
(lp1692
g56
(g77
g58
NtRp1693
(dp1694
g61
(dp1695
g81
g82
ssg70
g1689
sg63
(lp1696
S'wsgi_file_wrapper'
p1697
asbag56
(g77
g58
NtRp1698
(dp1699
g61
(dp1700
g88
g89
ssg70
g1689
sg63
(lp1701
S':'
asbag56
(g77
g58
NtRp1702
(dp1703
g61
(dp1704
sg70
g1689
sg63
(lp1705
g56
(g57
g58
NtRp1706
(dp1707
g61
(dp1708
g69
I4
ssg70
g1702
sg63
(lp1709
S'<built-in method file_wrapper of mod_wsgi.Adapter object at 0xb9658de8>'
p1710
asbasbasbag56
(g72
g58
NtRp1711
(dp1712
g61
(dp1713
sg70
g636
sg63
(lp1714
g56
(g77
g58
NtRp1715
(dp1716
g61
(dp1717
g81
g82
ssg70
g1711
sg63
(lp1718
S'wsgi_input'
p1719
asbag56
(g77
g58
NtRp1720
(dp1721
g61
(dp1722
g88
g89
ssg70
g1711
sg63
(lp1723
S':'
asbag56
(g77
g58
NtRp1724
(dp1725
g61
(dp1726
sg70
g1711
sg63
(lp1727
g56
(g57
g58
NtRp1728
(dp1729
g61
(dp1730
g69
I4
ssg70
g1724
sg63
(lp1731
S'<mod_wsgi.Input object at 0xb9cba688>'
p1732
asbasbasbag56
(g72
g58
NtRp1733
(dp1734
g61
(dp1735
sg70
g636
sg63
(lp1736
g56
(g77
g58
NtRp1737
(dp1738
g61
(dp1739
g81
g82
ssg70
g1733
sg63
(lp1740
S'wsgi_multiprocess'
p1741
asbag56
(g77
g58
NtRp1742
(dp1743
g61
(dp1744
g88
g89
ssg70
g1733
sg63
(lp1745
S':'
asbag56
(g77
g58
NtRp1746
(dp1747
g61
(dp1748
sg70
g1733
sg63
(lp1749
g56
(g57
g58
NtRp1750
(dp1751
g61
(dp1752
g69
I4
ssg70
g1746
sg63
(lp1753
g99
asbasbasbag56
(g72
g58
NtRp1754
(dp1755
g61
(dp1756
sg70
g636
sg63
(lp1757
g56
(g77
g58
NtRp1758
(dp1759
g61
(dp1760
g81
g82
ssg70
g1754
sg63
(lp1761
S'wsgi_multithread'
p1762
asbag56
(g77
g58
NtRp1763
(dp1764
g61
(dp1765
g88
g89
ssg70
g1754
sg63
(lp1766
S':'
asbag56
(g77
g58
NtRp1767
(dp1768
g61
(dp1769
sg70
g1754
sg63
(lp1770
g56
(g57
g58
NtRp1771
(dp1772
g61
(dp1773
g69
I4
ssg70
g1767
sg63
(lp1774
S'True'
p1775
asbasbasbag56
(g72
g58
NtRp1776
(dp1777
g61
(dp1778
sg70
g636
sg63
(lp1779
g56
(g77
g58
NtRp1780
(dp1781
g61
(dp1782
g81
g82
ssg70
g1776
sg63
(lp1783
S'wsgi_run_once'
p1784
asbag56
(g77
g58
NtRp1785
(dp1786
g61
(dp1787
g88
g89
ssg70
g1776
sg63
(lp1788
S':'
asbag56
(g77
g58
NtRp1789
(dp1790
g61
(dp1791
sg70
g1776
sg63
(lp1792
g56
(g57
g58
NtRp1793
(dp1794
g61
(dp1795
g69
I4
ssg70
g1789
sg63
(lp1796
g99
asbasbasbag56
(g72
g58
NtRp1797
(dp1798
g61
(dp1799
sg70
g636
sg63
(lp1800
g56
(g77
g58
NtRp1801
(dp1802
g61
(dp1803
g81
g82
ssg70
g1797
sg63
(lp1804
S'wsgi_url_scheme'
p1805
asbag56
(g77
g58
NtRp1806
(dp1807
g61
(dp1808
g88
g89
ssg70
g1797
sg63
(lp1809
S':'
asbag56
(g77
g58
NtRp1810
(dp1811
g61
(dp1812
sg70
g1797
sg63
(lp1813
g56
(g57
g58
NtRp1814
(dp1815
g61
(dp1816
g69
I4
ssg70
g1810
sg63
(lp1817
S'https'
p1818
asbasbasbag56
(g72
g58
NtRp1819
(dp1820
g61
(dp1821
sg70
g636
sg63
(lp1822
g56
(g77
g58
NtRp1823
(dp1824
g61
(dp1825
g81
g82
ssg70
g1819
sg63
(lp1826
S'wsgi_version'
p1827
asbag56
(g77
g58
NtRp1828
(dp1829
g61
(dp1830
g88
g89
ssg70
g1819
sg63
(lp1831
S':'
asbag56
(g77
g58
NtRp1832
(dp1833
g61
(dp1834
sg70
g1819
sg63
(lp1835
g56
(g57
g58
NtRp1836
(dp1837
g61
(dp1838
g69
I4
ssg70
g1832
sg63
(lp1839
g56
(g65
g58
NtRp1840
(dp1841
g61
(dp1842
g69
I3
ssg70
Nsg63
(lp1843
g56
(g72
g58
NtRp1844
(dp1845
g61
(dp1846
sg70
g1840
sg63
(lp1847
g56
(g77
g58
NtRp1848
(dp1849
g61
(dp1850
sg70
g1844
sg63
(lp1851
g56
(g57
g58
NtRp1852
(dp1853
g61
(dp1854
g69
I3
ssg70
g1848
sg63
(lp1855
S'1'
asbasbasbag56
(g72
g58
NtRp1856
(dp1857
g61
(dp1858
sg70
g1840
sg63
(lp1859
g56
(g77
g58
NtRp1860
(dp1861
g61
(dp1862
sg70
g1856
sg63
(lp1863
g56
(g57
g58
NtRp1864
(dp1865
g61
(dp1866
g69
I3
ssg70
g1860
sg63
(lp1867
S'1'
asbasbasbasbasbasbasbasbasbasbasbag56
(g72
g58
NtRp1868
(dp1869
g61
(dp1870
sg70
g66
sg63
(lp1871
g56
(g77
g58
NtRp1872
(dp1873
g61
(dp1874
g81
g82
ssg70
g1868
sg63
(lp1875
S'extension'
p1876
asbag56
(g77
g58
NtRp1877
(dp1878
g61
(dp1879
g88
g89
ssg70
g1868
sg63
(lp1880
S':'
asbag56
(g77
g58
NtRp1881
(dp1882
g61
(dp1883
sg70
g1868
sg63
(lp1884
g56
(g57
g58
NtRp1885
(dp1886
g61
(dp1887
g69
I5
ssg70
g1881
sg63
(lp1888
S'html'
p1889
asbasbasbag56
(g72
g58
NtRp1890
(dp1891
g61
(dp1892
sg70
g66
sg63
(lp1893
g56
(g77
g58
NtRp1894
(dp1895
g61
(dp1896
g81
g82
ssg70
g1890
sg63
(lp1897
S'folder'
p1898
asbag56
(g77
g58
NtRp1899
(dp1900
g61
(dp1901
g88
g89
ssg70
g1890
sg63
(lp1902
S':'
asbag56
(g77
g58
NtRp1903
(dp1904
g61
(dp1905
sg70
g1890
sg63
(lp1906
g56
(g57
g58
NtRp1907
(dp1908
g61
(dp1909
g69
I5
ssg70
g1903
sg63
(lp1910
S'/home/www-data/web2py/applications/scrum/'
p1911
asbasbasbag56
(g72
g58
NtRp1912
(dp1913
g61
(dp1914
sg70
g66
sg63
(lp1915
g56
(g77
g58
NtRp1916
(dp1917
g61
(dp1918
g81
g82
ssg70
g1912
sg63
(lp1919
S'function'
p1920
asbag56
(g77
g58
NtRp1921
(dp1922
g61
(dp1923
g88
g89
ssg70
g1912
sg63
(lp1924
S':'
asbag56
(g77
g58
NtRp1925
(dp1926
g61
(dp1927
sg70
g1912
sg63
(lp1928
g56
(g57
g58
NtRp1929
(dp1930
g61
(dp1931
g69
I5
ssg70
g1925
sg63
(lp1932
S'index'
p1933
asbasbasbag56
(g72
g58
NtRp1934
(dp1935
g61
(dp1936
sg70
g66
sg63
(lp1937
g56
(g77
g58
NtRp1938
(dp1939
g61
(dp1940
g81
g82
ssg70
g1934
sg63
(lp1941
S'get_vars'
p1942
asbag56
(g77
g58
NtRp1943
(dp1944
g61
(dp1945
g88
g89
ssg70
g1934
sg63
(lp1946
S':'
asbag56
(g77
g58
NtRp1947
(dp1948
g61
(dp1949
sg70
g1934
sg63
(lp1950
g56
(g57
g58
NtRp1951
(dp1952
g61
(dp1953
g69
I5
ssg70
g1947
sg63
(lp1954
g56
(g65
g58
NtRp1955
(dp1956
g61
(dp1957
g69
I4
ssg70
Nsg63
(lp1958
sbasbasbasbag56
(g72
g58
NtRp1959
(dp1960
g61
(dp1961
sg70
g66
sg63
(lp1962
g56
(g77
g58
NtRp1963
(dp1964
g61
(dp1965
g81
g82
ssg70
g1959
sg63
(lp1966
S'is_https'
p1967
asbag56
(g77
g58
NtRp1968
(dp1969
g61
(dp1970
g88
g89
ssg70
g1959
sg63
(lp1971
S':'
asbag56
(g77
g58
NtRp1972
(dp1973
g61
(dp1974
sg70
g1959
sg63
(lp1975
g56
(g57
g58
NtRp1976
(dp1977
g61
(dp1978
g69
I5
ssg70
g1972
sg63
(lp1979
g1775
asbasbasbag56
(g72
g58
NtRp1980
(dp1981
g61
(dp1982
sg70
g66
sg63
(lp1983
g56
(g77
g58
NtRp1984
(dp1985
g61
(dp1986
g81
g82
ssg70
g1980
sg63
(lp1987
S'is_local'
p1988
asbag56
(g77
g58
NtRp1989
(dp1990
g61
(dp1991
g88
g89
ssg70
g1980
sg63
(lp1992
S':'
asbag56
(g77
g58
NtRp1993
(dp1994
g61
(dp1995
sg70
g1980
sg63
(lp1996
g56
(g57
g58
NtRp1997
(dp1998
g61
(dp1999
g69
I5
ssg70
g1993
sg63
(lp2000
g1775
asbasbasbag56
(g72
g58
NtRp2001
(dp2002
g61
(dp2003
sg70
g66
sg63
(lp2004
g56
(g77
g58
NtRp2005
(dp2006
g61
(dp2007
g81
g82
ssg70
g2001
sg63
(lp2008
S'is_restful'
p2009
asbag56
(g77
g58
NtRp2010
(dp2011
g61
(dp2012
g88
g89
ssg70
g2001
sg63
(lp2013
S':'
asbag56
(g77
g58
NtRp2014
(dp2015
g61
(dp2016
sg70
g2001
sg63
(lp2017
g56
(g57
g58
NtRp2018
(dp2019
g61
(dp2020
g69
I5
ssg70
g2014
sg63
(lp2021
g99
asbasbasbag56
(g72
g58
NtRp2022
(dp2023
g61
(dp2024
sg70
g66
sg63
(lp2025
g56
(g77
g58
NtRp2026
(dp2027
g61
(dp2028
g81
g82
ssg70
g2022
sg63
(lp2029
S'now'
p2030
asbag56
(g77
g58
NtRp2031
(dp2032
g61
(dp2033
g88
g89
ssg70
g2022
sg63
(lp2034
S':'
asbag56
(g77
g58
NtRp2035
(dp2036
g61
(dp2037
sg70
g2022
sg63
(lp2038
g56
(g57
g58
NtRp2039
(dp2040
g61
(dp2041
g69
I5
ssg70
g2035
sg63
(lp2042
S'datetime.datetime(2011, 9, 8, 13, 42, 25, 485361)'
p2043
asbasbasbag56
(g72
g58
NtRp2044
(dp2045
g61
(dp2046
sg70
g66
sg63
(lp2047
g56
(g77
g58
NtRp2048
(dp2049
g61
(dp2050
g81
g82
ssg70
g2044
sg63
(lp2051
S'post_vars'
p2052
asbag56
(g77
g58
NtRp2053
(dp2054
g61
(dp2055
g88
g89
ssg70
g2044
sg63
(lp2056
S':'
asbag56
(g77
g58
NtRp2057
(dp2058
g61
(dp2059
sg70
g2044
sg63
(lp2060
g56
(g57
g58
NtRp2061
(dp2062
g61
(dp2063
g69
I5
ssg70
g2057
sg63
(lp2064
g56
(g65
g58
NtRp2065
(dp2066
g61
(dp2067
g69
I4
ssg70
Nsg63
(lp2068
sbasbasbasbag56
(g72
g58
NtRp2069
(dp2070
g61
(dp2071
sg70
g66
sg63
(lp2072
g56
(g77
g58
NtRp2073
(dp2074
g61
(dp2075
g81
g82
ssg70
g2069
sg63
(lp2076
S'url'
p2077
asbag56
(g77
g58
NtRp2078
(dp2079
g61
(dp2080
g88
g89
ssg70
g2069
sg63
(lp2081
S':'
asbag56
(g77
g58
NtRp2082
(dp2083
g61
(dp2084
sg70
g2069
sg63
(lp2085
g56
(g57
g58
NtRp2086
(dp2087
g61
(dp2088
g69
I5
ssg70
g2082
sg63
(lp2089
S'/scrum/ticket/index'
p2090
asbasbasbag56
(g72
g58
NtRp2091
(dp2092
g61
(dp2093
sg70
g66
sg63
(lp2094
g56
(g77
g58
NtRp2095
(dp2096
g61
(dp2097
g81
g82
ssg70
g2091
sg63
(lp2098
S'uuid'
p2099
asbag56
(g77
g58
NtRp2100
(dp2101
g61
(dp2102
g88
g89
ssg70
g2091
sg63
(lp2103
S':'
asbag56
(g77
g58
NtRp2104
(dp2105
g61
(dp2106
sg70
g2091
sg63
(lp2107
g56
(g57
g58
NtRp2108
(dp2109
g61
(dp2110
g69
I5
ssg70
g2104
sg63
(lp2111
S'scrum/127.0.0.1.2011-09-08.13-42-25.494f798b-3f4d-41ad-880a-2f2e86e6efde'
p2112
asbasbasbag56
(g72
g58
NtRp2113
(dp2114
g61
(dp2115
sg70
g66
sg63
(lp2116
g56
(g77
g58
NtRp2117
(dp2118
g61
(dp2119
g81
g82
ssg70
g2113
sg63
(lp2120
S'vars'
p2121
asbag56
(g77
g58
NtRp2122
(dp2123
g61
(dp2124
g88
g89
ssg70
g2113
sg63
(lp2125
S':'
asbag56
(g77
g58
NtRp2126
(dp2127
g61
(dp2128
sg70
g2113
sg63
(lp2129
g56
(g57
g58
NtRp2130
(dp2131
g61
(dp2132
g69
I5
ssg70
g2126
sg63
(lp2133
g56
(g65
g58
NtRp2134
(dp2135
g61
(dp2136
g69
I4
ssg70
Nsg63
(lp2137
sbasbasbasbag56
(g72
g58
NtRp2138
(dp2139
g61
(dp2140
sg70
g66
sg63
(lp2141
g56
(g77
g58
NtRp2142
(dp2143
g61
(dp2144
g81
g82
ssg70
g2138
sg63
(lp2145
S'wsgi'
p2146
asbag56
(g77
g58
NtRp2147
(dp2148
g61
(dp2149
g88
g89
ssg70
g2138
sg63
(lp2150
S':'
asbag56
(g77
g58
NtRp2151
(dp2152
g61
(dp2153
sg70
g2138
sg63
(lp2154
g56
(g57
g58
NtRp2155
(dp2156
g61
(dp2157
g69
I5
ssg70
g2151
sg63
(lp2158
g56
(g65
g58
NtRp2159
(dp2160
g61
(dp2161
g69
I4
ssg70
Nsg63
(lp2162
g56
(g72
g58
NtRp2163
(dp2164
g61
(dp2165
sg70
g2159
sg63
(lp2166
g56
(g77
g58
NtRp2167
(dp2168
g61
(dp2169
g81
g82
ssg70
g2163
sg63
(lp2170
S'environ'
p2171
asbag56
(g77
g58
NtRp2172
(dp2173
g61
(dp2174
g88
g89
ssg70
g2163
sg63
(lp2175
S':'
asbag56
(g77
g58
NtRp2176
(dp2177
g61
(dp2178
sg70
g2163
sg63
(lp2179
g56
(g57
g58
NtRp2180
(dp2181
g61
(dp2182
g69
I4
ssg70
g2176
sg63
(lp2183
g56
(g65
g58
NtRp2184
(dp2185
g61
(dp2186
g69
I3
ssg70
Nsg63
(lp2187
g56
(g72
g58
NtRp2188
(dp2189
g61
(dp2190
sg70
g2184
sg63
(lp2191
g56
(g77
g58
NtRp2192
(dp2193
g61
(dp2194
g81
g82
ssg70
g2188
sg63
(lp2195
S'DOCUMENT_ROOT'
p2196
asbag56
(g77
g58
NtRp2197
(dp2198
g61
(dp2199
g88
g89
ssg70
g2188
sg63
(lp2200
S':'
asbag56
(g77
g58
NtRp2201
(dp2202
g61
(dp2203
sg70
g2188
sg63
(lp2204
g56
(g57
g58
NtRp2205
(dp2206
g61
(dp2207
g69
I3
ssg70
g2201
sg63
(lp2208
g748
asbasbasbag56
(g72
g58
NtRp2209
(dp2210
g61
(dp2211
sg70
g2184
sg63
(lp2212
g56
(g77
g58
NtRp2213
(dp2214
g61
(dp2215
g81
g82
ssg70
g2209
sg63
(lp2216
S'GATEWAY_INTERFACE'
p2217
asbag56
(g77
g58
NtRp2218
(dp2219
g61
(dp2220
g88
g89
ssg70
g2209
sg63
(lp2221
S':'
asbag56
(g77
g58
NtRp2222
(dp2223
g61
(dp2224
sg70
g2209
sg63
(lp2225
g56
(g57
g58
NtRp2226
(dp2227
g61
(dp2228
g69
I3
ssg70
g2222
sg63
(lp2229
g770
asbasbasbag56
(g72
g58
NtRp2230
(dp2231
g61
(dp2232
sg70
g2184
sg63
(lp2233
g56
(g77
g58
NtRp2234
(dp2235
g61
(dp2236
g81
g82
ssg70
g2230
sg63
(lp2237
S'HTTPS'
p2238
asbag56
(g77
g58
NtRp2239
(dp2240
g61
(dp2241
g88
g89
ssg70
g2230
sg63
(lp2242
S':'
asbag56
(g77
g58
NtRp2243
(dp2244
g61
(dp2245
sg70
g2230
sg63
(lp2246
g56
(g57
g58
NtRp2247
(dp2248
g61
(dp2249
g69
I3
ssg70
g2243
sg63
(lp2250
S'1'
asbasbasbag56
(g72
g58
NtRp2251
(dp2252
g61
(dp2253
sg70
g2184
sg63
(lp2254
g56
(g77
g58
NtRp2255
(dp2256
g61
(dp2257
g81
g82
ssg70
g2251
sg63
(lp2258
S'HTTP_ACCEPT'
p2259
asbag56
(g77
g58
NtRp2260
(dp2261
g61
(dp2262
g88
g89
ssg70
g2251
sg63
(lp2263
S':'
asbag56
(g77
g58
NtRp2264
(dp2265
g61
(dp2266
sg70
g2251
sg63
(lp2267
g56
(g57
g58
NtRp2268
(dp2269
g61
(dp2270
g69
I3
ssg70
g2264
sg63
(lp2271
g813
asbasbasbag56
(g72
g58
NtRp2272
(dp2273
g61
(dp2274
sg70
g2184
sg63
(lp2275
g56
(g77
g58
NtRp2276
(dp2277
g61
(dp2278
g81
g82
ssg70
g2272
sg63
(lp2279
S'HTTP_ACCEPT_ENCODING'
p2280
asbag56
(g77
g58
NtRp2281
(dp2282
g61
(dp2283
g88
g89
ssg70
g2272
sg63
(lp2284
S':'
asbag56
(g77
g58
NtRp2285
(dp2286
g61
(dp2287
sg70
g2272
sg63
(lp2288
g56
(g57
g58
NtRp2289
(dp2290
g61
(dp2291
g69
I3
ssg70
g2285
sg63
(lp2292
g835
asbasbasbag56
(g72
g58
NtRp2293
(dp2294
g61
(dp2295
sg70
g2184
sg63
(lp2296
g56
(g77
g58
NtRp2297
(dp2298
g61
(dp2299
g81
g82
ssg70
g2293
sg63
(lp2300
S'HTTP_ACCEPT_LANGUAGE'
p2301
asbag56
(g77
g58
NtRp2302
(dp2303
g61
(dp2304
g88
g89
ssg70
g2293
sg63
(lp2305
S':'
asbag56
(g77
g58
NtRp2306
(dp2307
g61
(dp2308
sg70
g2293
sg63
(lp2309
g56
(g57
g58
NtRp2310
(dp2311
g61
(dp2312
g69
I3
ssg70
g2306
sg63
(lp2313
g857
asbasbasbag56
(g72
g58
NtRp2314
(dp2315
g61
(dp2316
sg70
g2184
sg63
(lp2317
g56
(g77
g58
NtRp2318
(dp2319
g61
(dp2320
g81
g82
ssg70
g2314
sg63
(lp2321
S'HTTP_CACHE_CONTROL'
p2322
asbag56
(g77
g58
NtRp2323
(dp2324
g61
(dp2325
g88
g89
ssg70
g2314
sg63
(lp2326
S':'
asbag56
(g77
g58
NtRp2327
(dp2328
g61
(dp2329
sg70
g2314
sg63
(lp2330
g56
(g57
g58
NtRp2331
(dp2332
g61
(dp2333
g69
I3
ssg70
g2327
sg63
(lp2334
g879
asbasbasbag56
(g72
g58
NtRp2335
(dp2336
g61
(dp2337
sg70
g2184
sg63
(lp2338
g56
(g77
g58
NtRp2339
(dp2340
g61
(dp2341
g81
g82
ssg70
g2335
sg63
(lp2342
S'HTTP_CONNECTION'
p2343
asbag56
(g77
g58
NtRp2344
(dp2345
g61
(dp2346
g88
g89
ssg70
g2335
sg63
(lp2347
S':'
asbag56
(g77
g58
NtRp2348
(dp2349
g61
(dp2350
sg70
g2335
sg63
(lp2351
g56
(g57
g58
NtRp2352
(dp2353
g61
(dp2354
g69
I3
ssg70
g2348
sg63
(lp2355
g901
asbasbasbag56
(g72
g58
NtRp2356
(dp2357
g61
(dp2358
sg70
g2184
sg63
(lp2359
g56
(g77
g58
NtRp2360
(dp2361
g61
(dp2362
g81
g82
ssg70
g2356
sg63
(lp2363
S'HTTP_COOKIE'
p2364
asbag56
(g77
g58
NtRp2365
(dp2366
g61
(dp2367
g88
g89
ssg70
g2356
sg63
(lp2368
S':'
asbag56
(g77
g58
NtRp2369
(dp2370
g61
(dp2371
sg70
g2356
sg63
(lp2372
g56
(g57
g58
NtRp2373
(dp2374
g61
(dp2375
g69
I3
ssg70
g2369
sg63
(lp2376
g923
asbasbasbag56
(g72
g58
NtRp2377
(dp2378
g61
(dp2379
sg70
g2184
sg63
(lp2380
g56
(g77
g58
NtRp2381
(dp2382
g61
(dp2383
g81
g82
ssg70
g2377
sg63
(lp2384
S'HTTP_HOST'
p2385
asbag56
(g77
g58
NtRp2386
(dp2387
g61
(dp2388
g88
g89
ssg70
g2377
sg63
(lp2389
S':'
asbag56
(g77
g58
NtRp2390
(dp2391
g61
(dp2392
sg70
g2377
sg63
(lp2393
g56
(g57
g58
NtRp2394
(dp2395
g61
(dp2396
g69
I3
ssg70
g2390
sg63
(lp2397
g945
asbasbasbag56
(g72
g58
NtRp2398
(dp2399
g61
(dp2400
sg70
g2184
sg63
(lp2401
g56
(g77
g58
NtRp2402
(dp2403
g61
(dp2404
g81
g82
ssg70
g2398
sg63
(lp2405
S'HTTP_USER_AGENT'
p2406
asbag56
(g77
g58
NtRp2407
(dp2408
g61
(dp2409
g88
g89
ssg70
g2398
sg63
(lp2410
S':'
asbag56
(g77
g58
NtRp2411
(dp2412
g61
(dp2413
sg70
g2398
sg63
(lp2414
g56
(g57
g58
NtRp2415
(dp2416
g61
(dp2417
g69
I3
ssg70
g2411
sg63
(lp2418
g967
asbasbasbag56
(g72
g58
NtRp2419
(dp2420
g61
(dp2421
sg70
g2184
sg63
(lp2422
g56
(g77
g58
NtRp2423
(dp2424
g61
(dp2425
g81
g82
ssg70
g2419
sg63
(lp2426
S'PATH_INFO'
p2427
asbag56
(g77
g58
NtRp2428
(dp2429
g61
(dp2430
g88
g89
ssg70
g2419
sg63
(lp2431
S':'
asbag56
(g77
g58
NtRp2432
(dp2433
g61
(dp2434
sg70
g2419
sg63
(lp2435
g56
(g57
g58
NtRp2436
(dp2437
g61
(dp2438
g69
I3
ssg70
g2432
sg63
(lp2439
g1274
asbasbasbag56
(g72
g58
NtRp2440
(dp2441
g61
(dp2442
sg70
g2184
sg63
(lp2443
g56
(g77
g58
NtRp2444
(dp2445
g61
(dp2446
g81
g82
ssg70
g2440
sg63
(lp2447
S'PATH_TRANSLATED'
p2448
asbag56
(g77
g58
NtRp2449
(dp2450
g61
(dp2451
g88
g89
ssg70
g2440
sg63
(lp2452
S':'
asbag56
(g77
g58
NtRp2453
(dp2454
g61
(dp2455
sg70
g2440
sg63
(lp2456
g56
(g57
g58
NtRp2457
(dp2458
g61
(dp2459
g69
I3
ssg70
g2453
sg63
(lp2460
g1296
asbasbasbag56
(g72
g58
NtRp2461
(dp2462
g61
(dp2463
sg70
g2184
sg63
(lp2464
g56
(g77
g58
NtRp2465
(dp2466
g61
(dp2467
g81
g82
ssg70
g2461
sg63
(lp2468
S'QUERY_STRING'
p2469
asbag56
(g77
g58
NtRp2470
(dp2471
g61
(dp2472
g88
g89
ssg70
g2461
sg63
(lp2473
S':'
asbag56
(g77
g58
NtRp2474
(dp2475
g61
(dp2476
sg70
g2461
sg63
(lp2477
g56
(g57
g58
NtRp2478
(dp2479
g61
(dp2480
g69
I3
ssg70
g2474
sg63
(lp2481
S''
asbasbasbag56
(g72
g58
NtRp2482
(dp2483
g61
(dp2484
sg70
g2184
sg63
(lp2485
g56
(g77
g58
NtRp2486
(dp2487
g61
(dp2488
g81
g82
ssg70
g2482
sg63
(lp2489
S'REMOTE_ADDR'
p2490
asbag56
(g77
g58
NtRp2491
(dp2492
g61
(dp2493
g88
g89
ssg70
g2482
sg63
(lp2494
S':'
asbag56
(g77
g58
NtRp2495
(dp2496
g61
(dp2497
sg70
g2482
sg63
(lp2498
g56
(g57
g58
NtRp2499
(dp2500
g61
(dp2501
g69
I3
ssg70
g2495
sg63
(lp2502
g189
asbasbasbag56
(g72
g58
NtRp2503
(dp2504
g61
(dp2505
sg70
g2184
sg63
(lp2506
g56
(g77
g58
NtRp2507
(dp2508
g61
(dp2509
g81
g82
ssg70
g2503
sg63
(lp2510
S'REMOTE_PORT'
p2511
asbag56
(g77
g58
NtRp2512
(dp2513
g61
(dp2514
g88
g89
ssg70
g2503
sg63
(lp2515
S':'
asbag56
(g77
g58
NtRp2516
(dp2517
g61
(dp2518
sg70
g2503
sg63
(lp2519
g56
(g57
g58
NtRp2520
(dp2521
g61
(dp2522
g69
I3
ssg70
g2516
sg63
(lp2523
g1360
asbasbasbag56
(g72
g58
NtRp2524
(dp2525
g61
(dp2526
sg70
g2184
sg63
(lp2527
g56
(g77
g58
NtRp2528
(dp2529
g61
(dp2530
g81
g82
ssg70
g2524
sg63
(lp2531
S'REQUEST_METHOD'
p2532
asbag56
(g77
g58
NtRp2533
(dp2534
g61
(dp2535
g88
g89
ssg70
g2524
sg63
(lp2536
S':'
asbag56
(g77
g58
NtRp2537
(dp2538
g61
(dp2539
sg70
g2524
sg63
(lp2540
g56
(g57
g58
NtRp2541
(dp2542
g61
(dp2543
g69
I3
ssg70
g2537
sg63
(lp2544
g1382
asbasbasbag56
(g72
g58
NtRp2545
(dp2546
g61
(dp2547
sg70
g2184
sg63
(lp2548
g56
(g77
g58
NtRp2549
(dp2550
g61
(dp2551
g81
g82
ssg70
g2545
sg63
(lp2552
S'REQUEST_URI'
p2553
asbag56
(g77
g58
NtRp2554
(dp2555
g61
(dp2556
g88
g89
ssg70
g2545
sg63
(lp2557
S':'
asbag56
(g77
g58
NtRp2558
(dp2559
g61
(dp2560
sg70
g2545
sg63
(lp2561
g56
(g57
g58
NtRp2562
(dp2563
g61
(dp2564
g69
I3
ssg70
g2558
sg63
(lp2565
g1404
asbasbasbag56
(g72
g58
NtRp2566
(dp2567
g61
(dp2568
sg70
g2184
sg63
(lp2569
g56
(g77
g58
NtRp2570
(dp2571
g61
(dp2572
g81
g82
ssg70
g2566
sg63
(lp2573
S'SCRIPT_FILENAME'
p2574
asbag56
(g77
g58
NtRp2575
(dp2576
g61
(dp2577
g88
g89
ssg70
g2566
sg63
(lp2578
S':'
asbag56
(g77
g58
NtRp2579
(dp2580
g61
(dp2581
sg70
g2566
sg63
(lp2582
g56
(g57
g58
NtRp2583
(dp2584
g61
(dp2585
g69
I3
ssg70
g2579
sg63
(lp2586
g1426
asbasbasbag56
(g72
g58
NtRp2587
(dp2588
g61
(dp2589
sg70
g2184
sg63
(lp2590
g56
(g77
g58
NtRp2591
(dp2592
g61
(dp2593
g81
g82
ssg70
g2587
sg63
(lp2594
S'SCRIPT_NAME'
p2595
asbag56
(g77
g58
NtRp2596
(dp2597
g61
(dp2598
g88
g89
ssg70
g2587
sg63
(lp2599
S':'
asbag56
(g77
g58
NtRp2600
(dp2601
g61
(dp2602
sg70
g2587
sg63
(lp2603
g56
(g57
g58
NtRp2604
(dp2605
g61
(dp2606
g69
I3
ssg70
g2600
sg63
(lp2607
S''
asbasbasbag56
(g72
g58
NtRp2608
(dp2609
g61
(dp2610
sg70
g2184
sg63
(lp2611
g56
(g77
g58
NtRp2612
(dp2613
g61
(dp2614
g81
g82
ssg70
g2608
sg63
(lp2615
S'SERVER_ADDR'
p2616
asbag56
(g77
g58
NtRp2617
(dp2618
g61
(dp2619
g88
g89
ssg70
g2608
sg63
(lp2620
S':'
asbag56
(g77
g58
NtRp2621
(dp2622
g61
(dp2623
sg70
g2608
sg63
(lp2624
g56
(g57
g58
NtRp2625
(dp2626
g61
(dp2627
g69
I3
ssg70
g2621
sg63
(lp2628
g1469
asbasbasbag56
(g72
g58
NtRp2629
(dp2630
g61
(dp2631
sg70
g2184
sg63
(lp2632
g56
(g77
g58
NtRp2633
(dp2634
g61
(dp2635
g81
g82
ssg70
g2629
sg63
(lp2636
S'SERVER_ADMIN'
p2637
asbag56
(g77
g58
NtRp2638
(dp2639
g61
(dp2640
g88
g89
ssg70
g2629
sg63
(lp2641
S':'
asbag56
(g77
g58
NtRp2642
(dp2643
g61
(dp2644
sg70
g2629
sg63
(lp2645
g56
(g57
g58
NtRp2646
(dp2647
g61
(dp2648
g69
I3
ssg70
g2642
sg63
(lp2649
g1491
asbasbasbag56
(g72
g58
NtRp2650
(dp2651
g61
(dp2652
sg70
g2184
sg63
(lp2653
g56
(g77
g58
NtRp2654
(dp2655
g61
(dp2656
g81
g82
ssg70
g2650
sg63
(lp2657
S'SERVER_NAME'
p2658
asbag56
(g77
g58
NtRp2659
(dp2660
g61
(dp2661
g88
g89
ssg70
g2650
sg63
(lp2662
S':'
asbag56
(g77
g58
NtRp2663
(dp2664
g61
(dp2665
sg70
g2650
sg63
(lp2666
g56
(g57
g58
NtRp2667
(dp2668
g61
(dp2669
g69
I3
ssg70
g2663
sg63
(lp2670
g1513
asbasbasbag56
(g72
g58
NtRp2671
(dp2672
g61
(dp2673
sg70
g2184
sg63
(lp2674
g56
(g77
g58
NtRp2675
(dp2676
g61
(dp2677
g81
g82
ssg70
g2671
sg63
(lp2678
S'SERVER_PORT'
p2679
asbag56
(g77
g58
NtRp2680
(dp2681
g61
(dp2682
g88
g89
ssg70
g2671
sg63
(lp2683
S':'
asbag56
(g77
g58
NtRp2684
(dp2685
g61
(dp2686
sg70
g2671
sg63
(lp2687
g56
(g57
g58
NtRp2688
(dp2689
g61
(dp2690
g69
I3
ssg70
g2684
sg63
(lp2691
g1535
asbasbasbag56
(g72
g58
NtRp2692
(dp2693
g61
(dp2694
sg70
g2184
sg63
(lp2695
g56
(g77
g58
NtRp2696
(dp2697
g61
(dp2698
g81
g82
ssg70
g2692
sg63
(lp2699
S'SERVER_PROTOCOL'
p2700
asbag56
(g77
g58
NtRp2701
(dp2702
g61
(dp2703
g88
g89
ssg70
g2692
sg63
(lp2704
S':'
asbag56
(g77
g58
NtRp2705
(dp2706
g61
(dp2707
sg70
g2692
sg63
(lp2708
g56
(g57
g58
NtRp2709
(dp2710
g61
(dp2711
g69
I3
ssg70
g2705
sg63
(lp2712
g1557
asbasbasbag56
(g72
g58
NtRp2713
(dp2714
g61
(dp2715
sg70
g2184
sg63
(lp2716
g56
(g77
g58
NtRp2717
(dp2718
g61
(dp2719
g81
g82
ssg70
g2713
sg63
(lp2720
S'SERVER_SIGNATURE'
p2721
asbag56
(g77
g58
NtRp2722
(dp2723
g61
(dp2724
g88
g89
ssg70
g2713
sg63
(lp2725
S':'
asbag56
(g77
g58
NtRp2726
(dp2727
g61
(dp2728
sg70
g2713
sg63
(lp2729
g56
(g57
g58
NtRp2730
(dp2731
g61
(dp2732
g69
I3
ssg70
g2726
sg63
(lp2733
g1579
asbasbasbag56
(g72
g58
NtRp2734
(dp2735
g61
(dp2736
sg70
g2184
sg63
(lp2737
g56
(g77
g58
NtRp2738
(dp2739
g61
(dp2740
g81
g82
ssg70
g2734
sg63
(lp2741
S'SERVER_SOFTWARE'
p2742
asbag56
(g77
g58
NtRp2743
(dp2744
g61
(dp2745
g88
g89
ssg70
g2734
sg63
(lp2746
S':'
asbag56
(g77
g58
NtRp2747
(dp2748
g61
(dp2749
sg70
g2734
sg63
(lp2750
g56
(g57
g58
NtRp2751
(dp2752
g61
(dp2753
g69
I3
ssg70
g2747
sg63
(lp2754
g1601
asbasbasbag56
(g72
g58
NtRp2755
(dp2756
g61
(dp2757
sg70
g2184
sg63
(lp2758
g56
(g77
g58
NtRp2759
(dp2760
g61
(dp2761
g81
g82
ssg70
g2755
sg63
(lp2762
S'SSL_TLS_SNI'
p2763
asbag56
(g77
g58
NtRp2764
(dp2765
g61
(dp2766
g88
g89
ssg70
g2755
sg63
(lp2767
S':'
asbag56
(g77
g58
NtRp2768
(dp2769
g61
(dp2770
sg70
g2755
sg63
(lp2771
g56
(g57
g58
NtRp2772
(dp2773
g61
(dp2774
g69
I3
ssg70
g2768
sg63
(lp2775
g1623
asbasbasbag56
(g72
g58
NtRp2776
(dp2777
g61
(dp2778
sg70
g2184
sg63
(lp2779
g56
(g77
g58
NtRp2780
(dp2781
g61
(dp2782
g81
g82
ssg70
g2776
sg63
(lp2783
S'mod_wsgi.application_group'
p2784
asbag56
(g77
g58
NtRp2785
(dp2786
g61
(dp2787
g88
g89
ssg70
g2776
sg63
(lp2788
S':'
asbag56
(g77
g58
NtRp2789
(dp2790
g61
(dp2791
sg70
g2776
sg63
(lp2792
g56
(g57
g58
NtRp2793
(dp2794
g61
(dp2795
g69
I3
ssg70
g2789
sg63
(lp2796
g1031
asbasbasbag56
(g72
g58
NtRp2797
(dp2798
g61
(dp2799
sg70
g2184
sg63
(lp2800
g56
(g77
g58
NtRp2801
(dp2802
g61
(dp2803
g81
g82
ssg70
g2797
sg63
(lp2804
S'mod_wsgi.callable_object'
p2805
asbag56
(g77
g58
NtRp2806
(dp2807
g61
(dp2808
g88
g89
ssg70
g2797
sg63
(lp2809
S':'
asbag56
(g77
g58
NtRp2810
(dp2811
g61
(dp2812
sg70
g2797
sg63
(lp2813
g56
(g57
g58
NtRp2814
(dp2815
g61
(dp2816
g69
I3
ssg70
g2810
sg63
(lp2817
g1053
asbasbasbag56
(g72
g58
NtRp2818
(dp2819
g61
(dp2820
sg70
g2184
sg63
(lp2821
g56
(g77
g58
NtRp2822
(dp2823
g61
(dp2824
g81
g82
ssg70
g2818
sg63
(lp2825
S'mod_wsgi.handler_script'
p2826
asbag56
(g77
g58
NtRp2827
(dp2828
g61
(dp2829
g88
g89
ssg70
g2818
sg63
(lp2830
S':'
asbag56
(g77
g58
NtRp2831
(dp2832
g61
(dp2833
sg70
g2818
sg63
(lp2834
g56
(g57
g58
NtRp2835
(dp2836
g61
(dp2837
g69
I3
ssg70
g2831
sg63
(lp2838
S''
asbasbasbag56
(g72
g58
NtRp2839
(dp2840
g61
(dp2841
sg70
g2184
sg63
(lp2842
g56
(g77
g58
NtRp2843
(dp2844
g61
(dp2845
g81
g82
ssg70
g2839
sg63
(lp2846
S'mod_wsgi.input_chunked'
p2847
asbag56
(g77
g58
NtRp2848
(dp2849
g61
(dp2850
g88
g89
ssg70
g2839
sg63
(lp2851
S':'
asbag56
(g77
g58
NtRp2852
(dp2853
g61
(dp2854
sg70
g2839
sg63
(lp2855
g56
(g57
g58
NtRp2856
(dp2857
g61
(dp2858
g69
I3
ssg70
g2852
sg63
(lp2859
S'0'
asbasbasbag56
(g72
g58
NtRp2860
(dp2861
g61
(dp2862
sg70
g2184
sg63
(lp2863
g56
(g77
g58
NtRp2864
(dp2865
g61
(dp2866
g81
g82
ssg70
g2860
sg63
(lp2867
S'mod_wsgi.listener_host'
p2868
asbag56
(g77
g58
NtRp2869
(dp2870
g61
(dp2871
g88
g89
ssg70
g2860
sg63
(lp2872
S':'
asbag56
(g77
g58
NtRp2873
(dp2874
g61
(dp2875
sg70
g2860
sg63
(lp2876
g56
(g57
g58
NtRp2877
(dp2878
g61
(dp2879
g69
I3
ssg70
g2873
sg63
(lp2880
S''
asbasbasbag56
(g72
g58
NtRp2881
(dp2882
g61
(dp2883
sg70
g2184
sg63
(lp2884
g56
(g77
g58
NtRp2885
(dp2886
g61
(dp2887
g81
g82
ssg70
g2881
sg63
(lp2888
S'mod_wsgi.listener_port'
p2889
asbag56
(g77
g58
NtRp2890
(dp2891
g61
(dp2892
g88
g89
ssg70
g2881
sg63
(lp2893
S':'
asbag56
(g77
g58
NtRp2894
(dp2895
g61
(dp2896
sg70
g2881
sg63
(lp2897
g56
(g57
g58
NtRp2898
(dp2899
g61
(dp2900
g69
I3
ssg70
g2894
sg63
(lp2901
g1138
asbasbasbag56
(g72
g58
NtRp2902
(dp2903
g61
(dp2904
sg70
g2184
sg63
(lp2905
g56
(g77
g58
NtRp2906
(dp2907
g61
(dp2908
g81
g82
ssg70
g2902
sg63
(lp2909
S'mod_wsgi.process_group'
p2910
asbag56
(g77
g58
NtRp2911
(dp2912
g61
(dp2913
g88
g89
ssg70
g2902
sg63
(lp2914
S':'
asbag56
(g77
g58
NtRp2915
(dp2916
g61
(dp2917
sg70
g2902
sg63
(lp2918
g56
(g57
g58
NtRp2919
(dp2920
g61
(dp2921
g69
I3
ssg70
g2915
sg63
(lp2922
g1160
asbasbasbag56
(g72
g58
NtRp2923
(dp2924
g61
(dp2925
sg70
g2184
sg63
(lp2926
g56
(g77
g58
NtRp2927
(dp2928
g61
(dp2929
g81
g82
ssg70
g2923
sg63
(lp2930
S'mod_wsgi.request_handler'
p2931
asbag56
(g77
g58
NtRp2932
(dp2933
g61
(dp2934
g88
g89
ssg70
g2923
sg63
(lp2935
S':'
asbag56
(g77
g58
NtRp2936
(dp2937
g61
(dp2938
sg70
g2923
sg63
(lp2939
g56
(g57
g58
NtRp2940
(dp2941
g61
(dp2942
g69
I3
ssg70
g2936
sg63
(lp2943
g1182
asbasbasbag56
(g72
g58
NtRp2944
(dp2945
g61
(dp2946
sg70
g2184
sg63
(lp2947
g56
(g77
g58
NtRp2948
(dp2949
g61
(dp2950
g81
g82
ssg70
g2944
sg63
(lp2951
S'mod_wsgi.script_reloading'
p2952
asbag56
(g77
g58
NtRp2953
(dp2954
g61
(dp2955
g88
g89
ssg70
g2944
sg63
(lp2956
S':'
asbag56
(g77
g58
NtRp2957
(dp2958
g61
(dp2959
sg70
g2944
sg63
(lp2960
g56
(g57
g58
NtRp2961
(dp2962
g61
(dp2963
g69
I3
ssg70
g2957
sg63
(lp2964
S'1'
asbasbasbag56
(g72
g58
NtRp2965
(dp2966
g61
(dp2967
sg70
g2184
sg63
(lp2968
g56
(g77
g58
NtRp2969
(dp2970
g61
(dp2971
g81
g82
ssg70
g2965
sg63
(lp2972
S'mod_wsgi.version'
p2973
asbag56
(g77
g58
NtRp2974
(dp2975
g61
(dp2976
g88
g89
ssg70
g2965
sg63
(lp2977
S':'
asbag56
(g77
g58
NtRp2978
(dp2979
g61
(dp2980
sg70
g2965
sg63
(lp2981
g56
(g57
g58
NtRp2982
(dp2983
g61
(dp2984
g69
I3
ssg70
g2978
sg63
(lp2985
g56
(g65
g58
NtRp2986
(dp2987
g61
(dp2988
g69
I2
ssg70
Nsg63
(lp2989
g56
(g72
g58
NtRp2990
(dp2991
g61
(dp2992
sg70
g2986
sg63
(lp2993
g56
(g77
g58
NtRp2994
(dp2995
g61
(dp2996
sg70
g2990
sg63
(lp2997
g56
(g57
g58
NtRp2998
(dp2999
g61
(dp3000
g69
I2
ssg70
g2994
sg63
(lp3001
S'3'
asbasbasbag56
(g72
g58
NtRp3002
(dp3003
g61
(dp3004
sg70
g2986
sg63
(lp3005
g56
(g77
g58
NtRp3006
(dp3007
g61
(dp3008
sg70
g3002
sg63
(lp3009
g56
(g57
g58
NtRp3010
(dp3011
g61
(dp3012
g69
I2
ssg70
g3006
sg63
(lp3013
S'3'
asbasbasbasbasbasbasbag56
(g72
g58
NtRp3014
(dp3015
g61
(dp3016
sg70
g2184
sg63
(lp3017
g56
(g77
g58
NtRp3018
(dp3019
g61
(dp3020
g81
g82
ssg70
g3014
sg63
(lp3021
S'wsgi.errors'
p3022
asbag56
(g77
g58
NtRp3023
(dp3024
g61
(dp3025
g88
g89
ssg70
g3014
sg63
(lp3026
S':'
asbag56
(g77
g58
NtRp3027
(dp3028
g61
(dp3029
sg70
g3014
sg63
(lp3030
g56
(g57
g58
NtRp3031
(dp3032
g61
(dp3033
g69
I3
ssg70
g3027
sg63
(lp3034
S'<mod_wsgi.Log object at 0xb9cbaf98>'
p3035
asbasbasbag56
(g72
g58
NtRp3036
(dp3037
g61
(dp3038
sg70
g2184
sg63
(lp3039
g56
(g77
g58
NtRp3040
(dp3041
g61
(dp3042
g81
g82
ssg70
g3036
sg63
(lp3043
S'wsgi.file_wrapper'
p3044
asbag56
(g77
g58
NtRp3045
(dp3046
g61
(dp3047
g88
g89
ssg70
g3036
sg63
(lp3048
S':'
asbag56
(g77
g58
NtRp3049
(dp3050
g61
(dp3051
sg70
g3036
sg63
(lp3052
g56
(g57
g58
NtRp3053
(dp3054
g61
(dp3055
g69
I3
ssg70
g3049
sg63
(lp3056
S'<built-in method file_wrapper of mod_wsgi.Adapter object at 0xb9658de8>'
p3057
asbasbasbag56
(g72
g58
NtRp3058
(dp3059
g61
(dp3060
sg70
g2184
sg63
(lp3061
g56
(g77
g58
NtRp3062
(dp3063
g61
(dp3064
g81
g82
ssg70
g3058
sg63
(lp3065
S'wsgi.input'
p3066
asbag56
(g77
g58
NtRp3067
(dp3068
g61
(dp3069
g88
g89
ssg70
g3058
sg63
(lp3070
S':'
asbag56
(g77
g58
NtRp3071
(dp3072
g61
(dp3073
sg70
g3058
sg63
(lp3074
g56
(g57
g58
NtRp3075
(dp3076
g61
(dp3077
g69
I3
ssg70
g3071
sg63
(lp3078
S'<cStringIO.StringO object at 0xb9a08a00>'
p3079
asbasbasbag56
(g72
g58
NtRp3080
(dp3081
g61
(dp3082
sg70
g2184
sg63
(lp3083
g56
(g77
g58
NtRp3084
(dp3085
g61
(dp3086
g81
g82
ssg70
g3080
sg63
(lp3087
S'wsgi.multiprocess'
p3088
asbag56
(g77
g58
NtRp3089
(dp3090
g61
(dp3091
g88
g89
ssg70
g3080
sg63
(lp3092
S':'
asbag56
(g77
g58
NtRp3093
(dp3094
g61
(dp3095
sg70
g3080
sg63
(lp3096
g56
(g57
g58
NtRp3097
(dp3098
g61
(dp3099
g69
I3
ssg70
g3093
sg63
(lp3100
g99
asbasbasbag56
(g72
g58
NtRp3101
(dp3102
g61
(dp3103
sg70
g2184
sg63
(lp3104
g56
(g77
g58
NtRp3105
(dp3106
g61
(dp3107
g81
g82
ssg70
g3101
sg63
(lp3108
S'wsgi.multithread'
p3109
asbag56
(g77
g58
NtRp3110
(dp3111
g61
(dp3112
g88
g89
ssg70
g3101
sg63
(lp3113
S':'
asbag56
(g77
g58
NtRp3114
(dp3115
g61
(dp3116
sg70
g3101
sg63
(lp3117
g56
(g57
g58
NtRp3118
(dp3119
g61
(dp3120
g69
I3
ssg70
g3114
sg63
(lp3121
g1775
asbasbasbag56
(g72
g58
NtRp3122
(dp3123
g61
(dp3124
sg70
g2184
sg63
(lp3125
g56
(g77
g58
NtRp3126
(dp3127
g61
(dp3128
g81
g82
ssg70
g3122
sg63
(lp3129
S'wsgi.run_once'
p3130
asbag56
(g77
g58
NtRp3131
(dp3132
g61
(dp3133
g88
g89
ssg70
g3122
sg63
(lp3134
S':'
asbag56
(g77
g58
NtRp3135
(dp3136
g61
(dp3137
sg70
g3122
sg63
(lp3138
g56
(g57
g58
NtRp3139
(dp3140
g61
(dp3141
g69
I3
ssg70
g3135
sg63
(lp3142
g99
asbasbasbag56
(g72
g58
NtRp3143
(dp3144
g61
(dp3145
sg70
g2184
sg63
(lp3146
g56
(g77
g58
NtRp3147
(dp3148
g61
(dp3149
g81
g82
ssg70
g3143
sg63
(lp3150
S'wsgi.url_scheme'
p3151
asbag56
(g77
g58
NtRp3152
(dp3153
g61
(dp3154
g88
g89
ssg70
g3143
sg63
(lp3155
S':'
asbag56
(g77
g58
NtRp3156
(dp3157
g61
(dp3158
sg70
g3143
sg63
(lp3159
g56
(g57
g58
NtRp3160
(dp3161
g61
(dp3162
g69
I3
ssg70
g3156
sg63
(lp3163
g1818
asbasbasbag56
(g72
g58
NtRp3164
(dp3165
g61
(dp3166
sg70
g2184
sg63
(lp3167
g56
(g77
g58
NtRp3168
(dp3169
g61
(dp3170
g81
g82
ssg70
g3164
sg63
(lp3171
S'wsgi.version'
p3172
asbag56
(g77
g58
NtRp3173
(dp3174
g61
(dp3175
g88
g89
ssg70
g3164
sg63
(lp3176
S':'
asbag56
(g77
g58
NtRp3177
(dp3178
g61
(dp3179
sg70
g3164
sg63
(lp3180
g56
(g57
g58
NtRp3181
(dp3182
g61
(dp3183
g69
I3
ssg70
g3177
sg63
(lp3184
S'1'
asbasbasbasbasbasbasbasbasbasbasbasbasbsS'frames'
p3185
(lp3186
(dp3187
S'file'
p3188
S'/home/www-data/web2py/gluon/restricted.py'
p3189
sS'dump'
p3190
(dp3191
S'environment'
p3192
S"{'A': <class 'gluon.html.A'>, 'Auth': <class 'gluon.tools.Auth'>, 'B': <class 'gluon.html.B'>, 'BEAUTIFY': <class 'gluon.html.BEAUTIFY'>, 'BODY': <class 'gluon.html.BODY'>, 'BR': <class 'gluon.html.BR'>, 'BUTTON': <class 'gluon.html.BUTTON'>, 'CAT': <class 'gluon.html.CAT'>, 'CENTER': <class 'gluon.html.CENTER'>, 'CLEANUP': <class 'gluon.validators.CLEANUP'>, ...}"
p3193
sS'ccode'
p3194
S'<code object <module> at 0xb9830800, file "/home...pplications/scrum/controllers/ticket.py", line 2>'
p3195
ssS'lnum'
p3196
I192
sS'lines'
p3197
(dp3198
I192
S'        exec ccode in environment'
p3199
sI193
S'    except HTTP:'
p3200
sI194
S'        raise'
p3201
sI195
S'    except Exception, error:'
p3202
sI196
S'        # XXX Show exception in Wing IDE if running in debugger'
p3203
sI187
S'    try:'
p3204
sI188
S'        if type(code) == types.CodeType:'
p3205
sI189
S'            ccode = code'
p3206
sI190
S'        else:'
p3207
sI191
S'            ccode = compile2(code,layer)'
p3208
ssS'call'
p3209
S"(code='# coding: utf8# tente algo como\\n@auth.requires_l...tickets)\\n\\nresponse._vars=response._caller(index)\\n', environment={'A': <class 'gluon.html.A'>, 'Auth': <class 'gluon.tools.Auth'>, 'B': <class 'gluon.html.B'>, 'BEAUTIFY': <class 'gluon.html.BEAUTIFY'>, 'BODY': <class 'gluon.html.BODY'>, 'BR': <class 'gluon.html.BR'>, 'BUTTON': <class 'gluon.html.BUTTON'>, 'CAT': <class 'gluon.html.CAT'>, 'CENTER': <class 'gluon.html.CENTER'>, 'CLEANUP': <class 'gluon.validators.CLEANUP'>, ...}, layer='/home/www-data/web2py/applications/scrum/controllers/ticket.py')"
p3210
sS'func'
p3211
S'restricted'
p3212
sa(dp3213
g3188
S'/home/www-data/web2py/applications/scrum/controllers/ticket.py'
p3214
sg3190
(dp3215
sg3196
I8
sg3197
(dp3216
I1
S'# coding: utf8# tente algo como'
p3217
sI2
S'@auth.requires_login()'
p3218
sI3
S'def index():'
p3219
sI4
S'    tickets = db((db.ticket.consultor == auth.user) |'
p3220
sI5
S'                 (db.ticket.analista == auth.user)).select()'
p3221
sI6
S'    return dict(tickets=tickets)'
p3222
ssg3209
S'()'
p3223
sg3211
S'<module>'
p3224
sa(dp3225
g3188
S'/home/www-data/web2py/gluon/globals.py'
p3226
sg3190
(dp3227
S'self'
p3228
S'undefined'
p3229
sS'f'
S'<function index>'
p3230
ssg3196
I145
sg3197
(dp3231
I140
S'        self.meta = Storage()      # used by web2py_ajax.html'
p3232
sI141
S'        self.menu = []             # used by the default view layout'
p3233
sI142
S'        self.files = []            # used by web2py_ajax.html'
p3234
sI143
S'        self.generic_patterns = [] # patterns to allow generic views'
p3235
sI144
S'        self._vars = None'
p3236
sI145
S'        self._caller = lambda f: f()'
p3237
sI146
S'        self._view_environment = None'
p3238
sI147
S'        self._custom_commit = None'
p3239
sI148
S'        self._custom_rollback = None'
p3240
sI149
S''
ssg3209
S'(f=<function index>)'
p3241
sg3211
S'<lambda>'
p3242
sa(dp3243
g3188
S'/home/www-data/web2py/gluon/tools.py'
p3244
sg3190
(dp3245
S'action'
p3246
S'<function index>'
p3247
sS'a'
S'()'
p3248
sS'b'
g44
ssg3196
I2462
sg3197
(dp3249
I2464
S'            f.__name__ = action.__name__'
p3250
sI2465
S'            f.__dict__.update(action.__dict__)'
p3251
sI2466
S'            return f'
p3252
sI2457
S'                    current.session.flash = current.response.flash'
p3253
sI2458
S'                    return call_or_redirect('
p3254
sI2459
S'                        self.settings.on_failed_authentication,'
p3255
sI2460
S"                        self.settings.login_url + '?_next='+urllib.quote(next)"
p3256
sI2461
S'                        )'
p3257
sI2462
S'                return action(*a, **b)'
p3258
sI2463
S'            f.__doc__ = action.__doc__'
p3259
ssg3209
S'(*a=(), **b={})'
p3260
sg3211
S'f'
sa(dp3261
g3188
S'/home/www-data/web2py/applications/scrum/controllers/ticket.py'
p3262
sg3190
(dp3263
S'auth.user'
p3264
S"<Storage {'reset_password_key': '', 'first_name'..., 'id': 1, 'email': 'carlos.mg@vilesoft.com.br'}>"
p3265
sS').select'
p3266
S'None'
p3267
sS'global auth'
p3268
S'<gluon.tools.Auth object>'
p3269
sS'db.ticket'
p3270
S"<Table {'ALL': <gluon.dal.SQLALL object at 0xb9a...>, 'id': <gluon.dal.Field object at 0xb9a1f98c>}>"
p3271
sS'db.ticket.analista'
p3272
S'<gluon.dal.Field object>'
p3273
sS'global db'
p3274
S"<DAL {'auth_event': <Table {'origin': <gluon.dal... 'id': <gluon.dal.Field object at 0xb990606c>}>}>"
p3275
ssg3196
I5
sg3197
(dp3276
I1
S'# coding: utf8# tente algo como'
p3277
sI2
S'@auth.requires_login()'
p3278
sI3
S'def index():'
p3279
sI4
S'    tickets = db((db.ticket.consultor == auth.user) |'
p3280
sI5
S'                 (db.ticket.analista == auth.user)).select()'
p3281
sI6
S'    return dict(tickets=tickets)'
p3282
ssg3209
S'()'
p3283
sg3211
S'index'
p3284
sa(dp3285
g3188
S'/home/www-data/web2py/gluon/dal.py'
p3286
sg3190
(dp3287
S'self.query'
p3288
S'<gluon.dal.Query object>'
p3289
sS'fields'
p3290
S'()'
p3291
sS'self'
p3292
S'<gluon.dal.Set object>'
p3293
sS'self.db._adapter.select'
p3294
S'<bound method SQLiteAdapter.select of <gluon.dal.SQLiteAdapter object>>'
p3295
sS'self.db._adapter'
p3296
S'<gluon.dal.SQLiteAdapter object>'
p3297
sS'attributes'
p3298
g44
sS'self.db'
p3299
S"<DAL {'auth_event': <Table {'origin': <gluon.dal... 'id': <gluon.dal.Field object at 0xb990606c>}>}>"
p3300
ssg3196
I5481
sg3197
(dp3301
I5476
S''
sI5477
S'    def count(self,distinct=None):'
p3302
sI5478
S'        return self.db._adapter.count(self.query,distinct)'
p3303
sI5479
S''
sI5480
S'    def select(self, *fields, **attributes):'
p3304
sI5481
S'        return self.db._adapter.select(self.query,fields,attributes)'
p3305
sI5482
S''
sI5483
S'    def delete(self):'
p3306
sI5484
S'        tablename=self.db._adapter.get_table(self.query)'
p3307
sI5485
S'        self.delete_uploaded_files()'
p3308
ssg3209
S'(self=<gluon.dal.Set object>, *fields=(), **attributes={})'
p3309
sg3211
S'select'
p3310
sa(dp3311
g3188
S'/home/www-data/web2py/gluon/dal.py'
p3312
sg3190
(dp3313
S'self._select'
p3314
S'<bound method SQLiteAdapter._select of <gluon.dal.SQLiteAdapter object>>'
p3315
sS'fields'
p3316
S'()'
p3317
sS'self'
p3318
S'<gluon.dal.SQLiteAdapter object>'
p3319
sS'sql'
p3320
g3229
sS'query'
p3321
S'<gluon.dal.Query object>'
p3322
sS'attributes'
p3323
g44
ssg3196
I1179
sg3197
(dp3324
I1174
S'        Always returns a Rows object, even if it may be empty'
p3325
sI1175
S'        """'
p3326
sI1176
S'        def response(sql):'
p3327
sI1177
S'            self.execute(sql)'
p3328
sI1178
S'            return self.cursor.fetchall()'
p3329
sI1179
S'        sql = self._select(query,fields,attributes)'
p3330
sI1180
S"        if attributes.get('cache', None):"
p3331
sI1181
S"            (cache_model, time_expire) = attributes['cache']"
p3332
sI1182
S"            del attributes['cache']"
p3333
sI1183
S"            key = self.uri + '/' + sql"
p3334
ssg3209
S'(self=<gluon.dal.SQLiteAdapter object>, query=<gluon.dal.Query object>, fields=(), attributes={})'
p3335
sg3211
g3310
sa(dp3336
g3188
S'/home/www-data/web2py/gluon/dal.py'
p3337
sg3190
(dp3338
S'query'
p3339
S'<gluon.dal.Query object>'
p3340
sS'self'
p3341
S'<gluon.dal.SQLiteAdapter object>'
p3342
sS'sql_w'
p3343
g3229
sS'self.expand'
p3344
S'<bound method SQLiteAdapter.expand of <gluon.dal.SQLiteAdapter object>>'
p3345
ssg3196
I1086
sg3197
(dp3346
I1088
S"            sql_w = ''"
p3347
sI1089
S"        sql_o = ''"
p3348
sI1090
S"        sql_s = ''"
p3349
sI1081
S'        if len(tablenames) < 1:'
p3350
sI1082
S"            raise SyntaxError, 'Set: no tables selected'"
p3351
sI1083
S"        sql_f = ', '.join(map(self.expand,fields))"
p3352
sI1084
S"        self._colnames = [c.strip() for c in sql_f.split(', ')]"
p3353
sI1085
S'        if query:'
p3354
sI1086
S"            sql_w = ' WHERE ' + self.expand(query)"
p3355
sI1087
S'        else:'
p3356
ssg3209
S'(self=<gluon.dal.SQLiteAdapter object>, query=<gluon.dal.Query object>, fields=[<gluon.dal.Field object>, <gluon.dal.Field object>, <gluon.dal.Field object>, <gluon.dal.Field object>, <gluon.dal.Field object>, <gluon.dal.Field object>, <gluon.dal.Field object>], attributes={})'
p3357
sg3211
S'_select'
p3358
sa(dp3359
g3188
S'/home/www-data/web2py/gluon/dal.py'
p3360
sg3190
(dp3361
S'expression.op'
p3362
S'<bound method SQLiteAdapter.OR of <gluon.dal.SQLiteAdapter object>>'
p3363
sS'expression'
p3364
S'<gluon.dal.Query object>'
p3365
sS'expression.first'
p3366
S'<gluon.dal.Query object>'
p3367
sS'expression.second'
p3368
S'<gluon.dal.Query object>'
p3369
ssg3196
I945
sg3197
(dp3370
I940
S'    def expand(self,expression,field_type=None):'
p3371
sI941
S'        if isinstance(expression,Field):'
p3372
sI942
S'            return str(expression)'
p3373
sI943
S'        elif isinstance(expression, (Expression, Query)):'
p3374
sI944
S'            if not expression.second is None:'
p3375
sI945
S'                return expression.op(expression.first, expression.second)'
p3376
sI946
S'            elif not expression.first is None:'
p3377
sI947
S'                return expression.op(expression.first)'
p3378
sI948
S'            else:'
p3379
sI949
S'                return expression.op()'
p3380
ssg3209
S'(self=<gluon.dal.SQLiteAdapter object>, expression=<gluon.dal.Query object>, field_type=None)'
p3381
sg3211
S'expand'
p3382
sa(dp3383
g3188
S'/home/www-data/web2py/gluon/dal.py'
p3384
sg3190
(dp3385
S'self'
p3386
S'<gluon.dal.SQLiteAdapter object>'
p3387
sS'first'
p3388
S'<gluon.dal.Query object>'
p3389
sS'second'
p3390
S'<gluon.dal.Query object>'
p3391
sS'self.expand'
p3392
S'<bound method SQLiteAdapter.expand of <gluon.dal.SQLiteAdapter object>>'
p3393
ssg3196
I865
sg3197
(dp3394
I864
S'    def OR(self,first,second):'
p3395
sI865
S"        return '(%s OR %s)' % (self.expand(first),self.expand(second))"
p3396
sI866
S''
sI867
S'    def BELONGS(self,first,second):'
p3397
sI868
S'        if isinstance(second,str):'
p3398
sI869
S"            return '(%s IN (%s))' % (self.expand(first),second[:-1])"
p3399
sI860
S''
sI861
S'    def AND(self,first,second):'
p3400
sI862
S"        return '(%s AND %s)' % (self.expand(first),self.expand(second))"
p3401
sI863
S''
ssg3209
S'(self=<gluon.dal.SQLiteAdapter object>, first=<gluon.dal.Query object>, second=<gluon.dal.Query object>)'
p3402
sg3211
S'OR'
p3403
sa(dp3404
g3188
S'/home/www-data/web2py/gluon/dal.py'
p3405
sg3190
(dp3406
S'expression.op'
p3407
S'<bound method SQLiteAdapter.EQ of <gluon.dal.SQLiteAdapter object>>'
p3408
sS'expression'
p3409
S'<gluon.dal.Query object>'
p3410
sS'expression.first'
p3411
S'<gluon.dal.Field object>'
p3412
sS'expression.second'
p3413
S"<Storage {'reset_password_key': '', 'first_name'..., 'id': 1, 'email': 'carlos.mg@vilesoft.com.br'}>"
p3414
ssg3196
I945
sg3197
(dp3415
I940
S'    def expand(self,expression,field_type=None):'
p3416
sI941
S'        if isinstance(expression,Field):'
p3417
sI942
S'            return str(expression)'
p3418
sI943
S'        elif isinstance(expression, (Expression, Query)):'
p3419
sI944
S'            if not expression.second is None:'
p3420
sI945
S'                return expression.op(expression.first, expression.second)'
p3421
sI946
S'            elif not expression.first is None:'
p3422
sI947
S'                return expression.op(expression.first)'
p3423
sI948
S'            else:'
p3424
sI949
S'                return expression.op()'
p3425
ssg3209
S'(self=<gluon.dal.SQLiteAdapter object>, expression=<gluon.dal.Query object>, field_type=None)'
p3426
sg3211
g3382
sa(dp3427
g3188
S'/home/www-data/web2py/gluon/dal.py'
p3428
sg3190
(dp3429
S'first.type'
p3430
S"'reference auth_user'"
p3431
sS'self'
p3432
S'<gluon.dal.SQLiteAdapter object>'
p3433
sS'first'
p3434
S'<gluon.dal.Field object>'
p3435
sS'second'
p3436
S"<Storage {'reset_password_key': '', 'first_name'..., 'id': 1, 'email': 'carlos.mg@vilesoft.com.br'}>"
p3437
sS'self.expand'
p3438
S'<bound method SQLiteAdapter.expand of <gluon.dal.SQLiteAdapter object>>'
p3439
ssg3196
I894
sg3197
(dp3440
I896
S'    def NE(self,first,second=None):'
p3441
sI897
S'        if second is None:'
p3442
sI898
S"            return '(%s IS NOT NULL)' % self.expand(first)"
p3443
sI889
S"        return '(%s LIKE %s)' % (self.expand(first),self.expand(key,'string'))"
p3444
sI890
S''
sI891
S'    def EQ(self,first,second=None):'
p3445
sI892
S'        if second is None:'
p3446
sI893
S"            return '(%s IS NULL)' % self.expand(first)"
p3447
sI894
S"        return '(%s = %s)' % (self.expand(first),self.expand(second,first.type))"
p3448
sI895
S''
ssg3209
S"(self=<gluon.dal.SQLiteAdapter object>, first=<gluon.dal.Field object>, second=<Storage {'reset_password_key': '', 'first_name'..., 'id': 1, 'email': 'carlos.mg@vilesoft.com.br'}>)"
p3449
sg3211
S'EQ'
p3450
sa(dp3451
g3188
S'/home/www-data/web2py/gluon/dal.py'
p3452
sg3190
(dp3453
S'field_type'
p3454
S"'reference auth_user'"
p3455
sS'self'
p3456
S'<gluon.dal.SQLiteAdapter object>'
p3457
sS'expression'
p3458
S"<Storage {'reset_password_key': '', 'first_name'..., 'id': 1, 'email': 'carlos.mg@vilesoft.com.br'}>"
p3459
sS'self.represent'
p3460
S'<bound method SQLiteAdapter.represent of <gluon.dal.SQLiteAdapter object>>'
p3461
ssg3196
I951
sg3197
(dp3462
I946
S'            elif not expression.first is None:'
p3463
sI947
S'                return expression.op(expression.first)'
p3464
sI948
S'            else:'
p3465
sI949
S'                return expression.op()'
p3466
sI950
S'        elif field_type:'
p3467
sI951
S'            return self.represent(expression,field_type)'
p3468
sI952
S'        elif isinstance(expression,(list,tuple)):'
p3469
sI953
S"            return ','.join([self.represent(item,field_type) for item in expression])"
p3470
sI954
S'        else:'
p3471
sI955
S'            return str(expression)'
p3472
ssg3209
S"(self=<gluon.dal.SQLiteAdapter object>, expression=<Storage {'reset_password_key': '', 'first_name'..., 'id': 1, 'email': 'carlos.mg@vilesoft.com.br'}>, field_type='reference auth_user')"
p3473
sg3211
g3382
sa(dp3474
g3188
S'/home/www-data/web2py/gluon/dal.py'
p3475
sg3190
(dp3476
S'builtinstr'
p3477
S"<type 'str'>"
p3478
sS'builtinint'
p3479
S"<type 'int'>"
p3480
sS'obj'
p3481
S"<Storage {'reset_password_key': '', 'first_name'..., 'id': 1, 'email': 'carlos.mg@vilesoft.com.br'}>"
p3482
ssg3196
I1299
sg3197
(dp3483
I1294
S"        elif fieldtype.startswith('reference'): # reference"
p3484
sI1295
S"            if fieldtype.find('.')>0:"
p3485
sI1296
S'                return repr(obj)'
p3486
sI1297
S'            elif isinstance(obj, (Row, Reference)):'
p3487
sI1298
S"                return str(obj['id'])"
p3488
sI1299
S'            return str(int(obj))'
p3489
sI1300
S"        elif fieldtype == 'double':"
p3490
sI1301
S'            return repr(float(obj))'
p3491
sI1302
S'        if isinstance(obj, unicode):'
p3492
sI1303
S'            obj = obj.encode(self.db_codec)'
p3493
ssg3209
S"(self=<gluon.dal.SQLiteAdapter object>, obj=<Storage {'reset_password_key': '', 'first_name'..., 'id': 1, 'email': 'carlos.mg@vilesoft.com.br'}>, fieldtype='reference auth_user')"
p3494
sg3211
S'represent'
p3495
sasS'pyver'
p3496
S'Python 2.7.1+: /usr/bin/python'
p3497
sS'session'
p3498
g56
(g57
g58
NtRp3499
(dp3500
g61
(dp3501
sg63
(lp3502
g56
(g65
g58
NtRp3503
(dp3504
g61
(dp3505
g69
I5
ssg70
Nsg63
(lp3506
g56
(g72
g58
NtRp3507
(dp3508
g61
(dp3509
sg70
g3503
sg63
(lp3510
g56
(g77
g58
NtRp3511
(dp3512
g61
(dp3513
g81
g82
ssg70
g3507
sg63
(lp3514
S'auth'
p3515
asbag56
(g77
g58
NtRp3516
(dp3517
g61
(dp3518
g88
g89
ssg70
g3507
sg63
(lp3519
S':'
asbag56
(g77
g58
NtRp3520
(dp3521
g61
(dp3522
sg70
g3507
sg63
(lp3523
g56
(g57
g58
NtRp3524
(dp3525
g61
(dp3526
g69
I5
ssg70
g3520
sg63
(lp3527
g56
(g65
g58
NtRp3528
(dp3529
g61
(dp3530
g69
I4
ssg70
Nsg63
(lp3531
g56
(g72
g58
NtRp3532
(dp3533
g61
(dp3534
sg70
g3528
sg63
(lp3535
g56
(g77
g58
NtRp3536
(dp3537
g61
(dp3538
g81
g82
ssg70
g3532
sg63
(lp3539
S'expiration'
p3540
asbag56
(g77
g58
NtRp3541
(dp3542
g61
(dp3543
g88
g89
ssg70
g3532
sg63
(lp3544
S':'
asbag56
(g77
g58
NtRp3545
(dp3546
g61
(dp3547
sg70
g3532
sg63
(lp3548
g56
(g57
g58
NtRp3549
(dp3550
g61
(dp3551
g69
I4
ssg70
g3545
sg63
(lp3552
S'3600'
p3553
asbasbasbag56
(g72
g58
NtRp3554
(dp3555
g61
(dp3556
sg70
g3528
sg63
(lp3557
g56
(g77
g58
NtRp3558
(dp3559
g61
(dp3560
g81
g82
ssg70
g3554
sg63
(lp3561
S'hmac_key'
p3562
asbag56
(g77
g58
NtRp3563
(dp3564
g61
(dp3565
g88
g89
ssg70
g3554
sg63
(lp3566
S':'
asbag56
(g77
g58
NtRp3567
(dp3568
g61
(dp3569
sg70
g3554
sg63
(lp3570
g56
(g57
g58
NtRp3571
(dp3572
g61
(dp3573
g69
I4
ssg70
g3567
sg63
(lp3574
S'c18b391f-62d1-4a51-8b2b-1e809e4c900d'
p3575
asbasbasbag56
(g72
g58
NtRp3576
(dp3577
g61
(dp3578
sg70
g3528
sg63
(lp3579
g56
(g77
g58
NtRp3580
(dp3581
g61
(dp3582
g81
g82
ssg70
g3576
sg63
(lp3583
S'last_visit'
p3584
asbag56
(g77
g58
NtRp3585
(dp3586
g61
(dp3587
g88
g89
ssg70
g3576
sg63
(lp3588
S':'
asbag56
(g77
g58
NtRp3589
(dp3590
g61
(dp3591
sg70
g3576
sg63
(lp3592
g56
(g57
g58
NtRp3593
(dp3594
g61
(dp3595
g69
I4
ssg70
g3589
sg63
(lp3596
S'datetime.datetime(2011, 9, 8, 13, 39, 20, 45173)'
p3597
asbasbasbag56
(g72
g58
NtRp3598
(dp3599
g61
(dp3600
sg70
g3528
sg63
(lp3601
g56
(g77
g58
NtRp3602
(dp3603
g61
(dp3604
g81
g82
ssg70
g3598
sg63
(lp3605
S'user'
p3606
asbag56
(g77
g58
NtRp3607
(dp3608
g61
(dp3609
g88
g89
ssg70
g3598
sg63
(lp3610
S':'
asbag56
(g77
g58
NtRp3611
(dp3612
g61
(dp3613
sg70
g3598
sg63
(lp3614
g56
(g57
g58
NtRp3615
(dp3616
g61
(dp3617
g69
I4
ssg70
g3611
sg63
(lp3618
g56
(g65
g58
NtRp3619
(dp3620
g61
(dp3621
g69
I3
ssg70
Nsg63
(lp3622
g56
(g72
g58
NtRp3623
(dp3624
g61
(dp3625
sg70
g3619
sg63
(lp3626
g56
(g77
g58
NtRp3627
(dp3628
g61
(dp3629
g81
g82
ssg70
g3623
sg63
(lp3630
S'email'
p3631
asbag56
(g77
g58
NtRp3632
(dp3633
g61
(dp3634
g88
g89
ssg70
g3623
sg63
(lp3635
S':'
asbag56
(g77
g58
NtRp3636
(dp3637
g61
(dp3638
sg70
g3623
sg63
(lp3639
g56
(g57
g58
NtRp3640
(dp3641
g61
(dp3642
g69
I3
ssg70
g3636
sg63
(lp3643
S'carlos.mg@vilesoft.com.br'
p3644
asbasbasbag56
(g72
g58
NtRp3645
(dp3646
g61
(dp3647
sg70
g3619
sg63
(lp3648
g56
(g77
g58
NtRp3649
(dp3650
g61
(dp3651
g81
g82
ssg70
g3645
sg63
(lp3652
S'first_name'
p3653
asbag56
(g77
g58
NtRp3654
(dp3655
g61
(dp3656
g88
g89
ssg70
g3645
sg63
(lp3657
S':'
asbag56
(g77
g58
NtRp3658
(dp3659
g61
(dp3660
sg70
g3645
sg63
(lp3661
g56
(g57
g58
NtRp3662
(dp3663
g61
(dp3664
g69
I3
ssg70
g3658
sg63
(lp3665
S'Carlos Jos\xc3\xa9'
p3666
asbasbasbag56
(g72
g58
NtRp3667
(dp3668
g61
(dp3669
sg70
g3619
sg63
(lp3670
g56
(g77
g58
NtRp3671
(dp3672
g61
(dp3673
g81
g82
ssg70
g3667
sg63
(lp3674
S'id'
p3675
asbag56
(g77
g58
NtRp3676
(dp3677
g61
(dp3678
g88
g89
ssg70
g3667
sg63
(lp3679
S':'
asbag56
(g77
g58
NtRp3680
(dp3681
g61
(dp3682
sg70
g3667
sg63
(lp3683
g56
(g57
g58
NtRp3684
(dp3685
g61
(dp3686
g69
I3
ssg70
g3680
sg63
(lp3687
S'1'
asbasbasbag56
(g72
g58
NtRp3688
(dp3689
g61
(dp3690
sg70
g3619
sg63
(lp3691
g56
(g77
g58
NtRp3692
(dp3693
g61
(dp3694
g81
g82
ssg70
g3688
sg63
(lp3695
S'last_name'
p3696
asbag56
(g77
g58
NtRp3697
(dp3698
g61
(dp3699
g88
g89
ssg70
g3688
sg63
(lp3700
S':'
asbag56
(g77
g58
NtRp3701
(dp3702
g61
(dp3703
sg70
g3688
sg63
(lp3704
g56
(g57
g58
NtRp3705
(dp3706
g61
(dp3707
g69
I3
ssg70
g3701
sg63
(lp3708
S'da Costa'
p3709
asbasbasbag56
(g72
g58
NtRp3710
(dp3711
g61
(dp3712
sg70
g3619
sg63
(lp3713
g56
(g77
g58
NtRp3714
(dp3715
g61
(dp3716
g81
g82
ssg70
g3710
sg63
(lp3717
S'password'
p3718
asbag56
(g77
g58
NtRp3719
(dp3720
g61
(dp3721
g88
g89
ssg70
g3710
sg63
(lp3722
S':'
asbag56
(g77
g58
NtRp3723
(dp3724
g61
(dp3725
sg70
g3710
sg63
(lp3726
g56
(g57
g58
NtRp3727
(dp3728
g61
(dp3729
g69
I3
ssg70
g3723
sg63
(lp3730
S'00a7a128f71552b063e36943370dd0944d5adb4000c6382d33eb3e1a93dc679cb99beb47e3003d318803f96ef839a18a379eae2e2bb917ca3c52c4e45231b331'
p3731
asbasbasbag56
(g72
g58
NtRp3732
(dp3733
g61
(dp3734
sg70
g3619
sg63
(lp3735
g56
(g77
g58
NtRp3736
(dp3737
g61
(dp3738
g81
g82
ssg70
g3732
sg63
(lp3739
S'registration_key'
p3740
asbag56
(g77
g58
NtRp3741
(dp3742
g61
(dp3743
g88
g89
ssg70
g3732
sg63
(lp3744
S':'
asbag56
(g77
g58
NtRp3745
(dp3746
g61
(dp3747
sg70
g3732
sg63
(lp3748
g56
(g57
g58
NtRp3749
(dp3750
g61
(dp3751
g69
I3
ssg70
g3745
sg63
(lp3752
S''
asbasbasbag56
(g72
g58
NtRp3753
(dp3754
g61
(dp3755
sg70
g3619
sg63
(lp3756
g56
(g77
g58
NtRp3757
(dp3758
g61
(dp3759
g81
g82
ssg70
g3753
sg63
(lp3760
S'reset_password_key'
p3761
asbag56
(g77
g58
NtRp3762
(dp3763
g61
(dp3764
g88
g89
ssg70
g3753
sg63
(lp3765
S':'
asbag56
(g77
g58
NtRp3766
(dp3767
g61
(dp3768
sg70
g3753
sg63
(lp3769
g56
(g57
g58
NtRp3770
(dp3771
g61
(dp3772
g69
I3
ssg70
g3766
sg63
(lp3773
S''
asbasbasbasbasbasbasbasbasbasbasbasbasbsS'etype'
p3774
S"<type 'exceptions.TypeError'>"
p3775
sS'date'
p3776
S'Thu Sep  8 13:42:25 2011'
p3777
sS'response'
p3778
g56
(g57
g58
NtRp3779
(dp3780
g61
(dp3781
sg63
(lp3782
g56
(g65
g58
NtRp3783
(dp3784
g61
(dp3785
g69
I5
ssg70
Nsg63
(lp3786
g56
(g72
g58
NtRp3787
(dp3788
g61
(dp3789
sg70
g3783
sg63
(lp3790
g56
(g77
g58
NtRp3791
(dp3792
g61
(dp3793
g81
g82
ssg70
g3787
sg63
(lp3794
g154
asbag56
(g77
g58
NtRp3795
(dp3796
g61
(dp3797
g88
g89
ssg70
g3787
sg63
(lp3798
S':'
asbag56
(g77
g58
NtRp3799
(dp3800
g61
(dp3801
sg70
g3787
sg63
(lp3802
g56
(g57
g58
NtRp3803
(dp3804
g61
(dp3805
g69
I5
ssg70
g3799
sg63
(lp3806
S'<cStringIO.StringO object at 0xb9a08cc0>'
p3807
asbasbasbag56
(g72
g58
NtRp3808
(dp3809
g61
(dp3810
sg70
g3783
sg63
(lp3811
g56
(g77
g58
NtRp3812
(dp3813
g61
(dp3814
g81
g82
ssg70
g3808
sg63
(lp3815
g220
asbag56
(g77
g58
NtRp3816
(dp3817
g61
(dp3818
g88
g89
ssg70
g3808
sg63
(lp3819
S':'
asbag56
(g77
g58
NtRp3820
(dp3821
g61
(dp3822
sg70
g3808
sg63
(lp3823
g56
(g57
g58
NtRp3824
(dp3825
g61
(dp3826
g69
I5
ssg70
g3820
sg63
(lp3827
g56
(g65
g58
NtRp3828
(dp3829
g61
(dp3830
g69
I4
ssg70
Nsg63
(lp3831
g56
(g72
g58
NtRp3832
(dp3833
g61
(dp3834
sg70
g3828
sg63
(lp3835
g56
(g77
g58
NtRp3836
(dp3837
g61
(dp3838
g81
g82
ssg70
g3832
sg63
(lp3839
S'session_id_scrum'
p3840
asbag56
(g77
g58
NtRp3841
(dp3842
g61
(dp3843
g88
g89
ssg70
g3832
sg63
(lp3844
S':'
asbag56
(g77
g58
NtRp3845
(dp3846
g61
(dp3847
sg70
g3832
sg63
(lp3848
g56
(g57
g58
NtRp3849
(dp3850
g61
(dp3851
g69
I4
ssg70
g3845
sg63
(lp3852
g56
(g65
g58
NtRp3853
(dp3854
g61
(dp3855
g69
I3
ssg70
Nsg63
(lp3856
g56
(g72
g58
NtRp3857
(dp3858
g61
(dp3859
sg70
g3853
sg63
(lp3860
g56
(g77
g58
NtRp3861
(dp3862
g61
(dp3863
g81
g82
ssg70
g3857
sg63
(lp3864
g270
asbag56
(g77
g58
NtRp3865
(dp3866
g61
(dp3867
g88
g89
ssg70
g3857
sg63
(lp3868
S':'
asbag56
(g77
g58
NtRp3869
(dp3870
g61
(dp3871
sg70
g3857
sg63
(lp3872
g56
(g57
g58
NtRp3873
(dp3874
g61
(dp3875
g69
I3
ssg70
g3869
sg63
(lp3876
S''
asbasbasbag56
(g72
g58
NtRp3877
(dp3878
g61
(dp3879
sg70
g3853
sg63
(lp3880
g56
(g77
g58
NtRp3881
(dp3882
g61
(dp3883
g81
g82
ssg70
g3877
sg63
(lp3884
g291
asbag56
(g77
g58
NtRp3885
(dp3886
g61
(dp3887
g88
g89
ssg70
g3877
sg63
(lp3888
S':'
asbag56
(g77
g58
NtRp3889
(dp3890
g61
(dp3891
sg70
g3877
sg63
(lp3892
g56
(g57
g58
NtRp3893
(dp3894
g61
(dp3895
g69
I3
ssg70
g3889
sg63
(lp3896
S''
asbasbasbag56
(g72
g58
NtRp3897
(dp3898
g61
(dp3899
sg70
g3853
sg63
(lp3900
g56
(g77
g58
NtRp3901
(dp3902
g61
(dp3903
g81
g82
ssg70
g3897
sg63
(lp3904
g312
asbag56
(g77
g58
NtRp3905
(dp3906
g61
(dp3907
g88
g89
ssg70
g3897
sg63
(lp3908
S':'
asbag56
(g77
g58
NtRp3909
(dp3910
g61
(dp3911
sg70
g3897
sg63
(lp3912
g56
(g57
g58
NtRp3913
(dp3914
g61
(dp3915
g69
I3
ssg70
g3909
sg63
(lp3916
S''
asbasbasbag56
(g72
g58
NtRp3917
(dp3918
g61
(dp3919
sg70
g3853
sg63
(lp3920
g56
(g77
g58
NtRp3921
(dp3922
g61
(dp3923
g81
g82
ssg70
g3917
sg63
(lp3924
g333
asbag56
(g77
g58
NtRp3925
(dp3926
g61
(dp3927
g88
g89
ssg70
g3917
sg63
(lp3928
S':'
asbag56
(g77
g58
NtRp3929
(dp3930
g61
(dp3931
sg70
g3917
sg63
(lp3932
g56
(g57
g58
NtRp3933
(dp3934
g61
(dp3935
g69
I3
ssg70
g3929
sg63
(lp3936
S''
asbasbasbag56
(g72
g58
NtRp3937
(dp3938
g61
(dp3939
sg70
g3853
sg63
(lp3940
g56
(g77
g58
NtRp3941
(dp3942
g61
(dp3943
g81
g82
ssg70
g3937
sg63
(lp3944
g354
asbag56
(g77
g58
NtRp3945
(dp3946
g61
(dp3947
g88
g89
ssg70
g3937
sg63
(lp3948
S':'
asbag56
(g77
g58
NtRp3949
(dp3950
g61
(dp3951
sg70
g3937
sg63
(lp3952
g56
(g57
g58
NtRp3953
(dp3954
g61
(dp3955
g69
I3
ssg70
g3949
sg63
(lp3956
S''
asbasbasbag56
(g72
g58
NtRp3957
(dp3958
g61
(dp3959
sg70
g3853
sg63
(lp3960
g56
(g77
g58
NtRp3961
(dp3962
g61
(dp3963
g81
g82
ssg70
g3957
sg63
(lp3964
g375
asbag56
(g77
g58
NtRp3965
(dp3966
g61
(dp3967
g88
g89
ssg70
g3957
sg63
(lp3968
S':'
asbag56
(g77
g58
NtRp3969
(dp3970
g61
(dp3971
sg70
g3957
sg63
(lp3972
g56
(g57
g58
NtRp3973
(dp3974
g61
(dp3975
g69
I3
ssg70
g3969
sg63
(lp3976
S'/'
asbasbasbag56
(g72
g58
NtRp3977
(dp3978
g61
(dp3979
sg70
g3853
sg63
(lp3980
g56
(g77
g58
NtRp3981
(dp3982
g61
(dp3983
g81
g82
ssg70
g3977
sg63
(lp3984
g396
asbag56
(g77
g58
NtRp3985
(dp3986
g61
(dp3987
g88
g89
ssg70
g3977
sg63
(lp3988
S':'
asbag56
(g77
g58
NtRp3989
(dp3990
g61
(dp3991
sg70
g3977
sg63
(lp3992
g56
(g57
g58
NtRp3993
(dp3994
g61
(dp3995
g69
I3
ssg70
g3989
sg63
(lp3996
S''
asbasbasbag56
(g72
g58
NtRp3997
(dp3998
g61
(dp3999
sg70
g3853
sg63
(lp4000
g56
(g77
g58
NtRp4001
(dp4002
g61
(dp4003
g81
g82
ssg70
g3997
sg63
(lp4004
g417
asbag56
(g77
g58
NtRp4005
(dp4006
g61
(dp4007
g88
g89
ssg70
g3997
sg63
(lp4008
S':'
asbag56
(g77
g58
NtRp4009
(dp4010
g61
(dp4011
sg70
g3997
sg63
(lp4012
g56
(g57
g58
NtRp4013
(dp4014
g61
(dp4015
g69
I3
ssg70
g4009
sg63
(lp4016
S''
asbasbasbasbasbasbasbasbasbasbasbag56
(g72
g58
NtRp4017
(dp4018
g61
(dp4019
sg70
g3783
sg63
(lp4020
g56
(g77
g58
NtRp4021
(dp4022
g61
(dp4023
g81
g82
ssg70
g4017
sg63
(lp4024
S'files'
p4025
asbag56
(g77
g58
NtRp4026
(dp4027
g61
(dp4028
g88
g89
ssg70
g4017
sg63
(lp4029
S':'
asbag56
(g77
g58
NtRp4030
(dp4031
g61
(dp4032
sg70
g4017
sg63
(lp4033
g56
(g57
g58
NtRp4034
(dp4035
g61
(dp4036
g69
I5
ssg70
g4030
sg63
(lp4037
g56
(g65
g58
NtRp4038
(dp4039
g61
(dp4040
g69
I4
ssg70
Nsg63
(lp4041
sbasbasbasbag56
(g72
g58
NtRp4042
(dp4043
g61
(dp4044
sg70
g3783
sg63
(lp4045
g56
(g77
g58
NtRp4046
(dp4047
g61
(dp4048
g81
g82
ssg70
g4042
sg63
(lp4049
S'flash'
p4050
asbag56
(g77
g58
NtRp4051
(dp4052
g61
(dp4053
g88
g89
ssg70
g4042
sg63
(lp4054
S':'
asbag56
(g77
g58
NtRp4055
(dp4056
g61
(dp4057
sg70
g4042
sg63
(lp4058
g56
(g57
g58
NtRp4059
(dp4060
g61
(dp4061
g69
I5
ssg70
g4055
sg63
(lp4062
S''
asbasbasbag56
(g72
g58
NtRp4063
(dp4064
g61
(dp4065
sg70
g3783
sg63
(lp4066
g56
(g77
g58
NtRp4067
(dp4068
g61
(dp4069
g81
g82
ssg70
g4063
sg63
(lp4070
S'generic_patterns'
p4071
asbag56
(g77
g58
NtRp4072
(dp4073
g61
(dp4074
g88
g89
ssg70
g4063
sg63
(lp4075
S':'
asbag56
(g77
g58
NtRp4076
(dp4077
g61
(dp4078
sg70
g4063
sg63
(lp4079
g56
(g57
g58
NtRp4080
(dp4081
g61
(dp4082
g69
I5
ssg70
g4076
sg63
(lp4083
g56
(g65
g58
NtRp4084
(dp4085
g61
(dp4086
g69
I4
ssg70
Nsg63
(lp4087
sbasbasbasbag56
(g72
g58
NtRp4088
(dp4089
g61
(dp4090
sg70
g3783
sg63
(lp4091
g56
(g77
g58
NtRp4092
(dp4093
g61
(dp4094
g81
g82
ssg70
g4088
sg63
(lp4095
S'headers'
p4096
asbag56
(g77
g58
NtRp4097
(dp4098
g61
(dp4099
g88
g89
ssg70
g4088
sg63
(lp4100
S':'
asbag56
(g77
g58
NtRp4101
(dp4102
g61
(dp4103
sg70
g4088
sg63
(lp4104
g56
(g57
g58
NtRp4105
(dp4106
g61
(dp4107
g69
I5
ssg70
g4101
sg63
(lp4108
g56
(g65
g58
NtRp4109
(dp4110
g61
(dp4111
g69
I4
ssg70
Nsg63
(lp4112
g56
(g72
g58
NtRp4113
(dp4114
g61
(dp4115
sg70
g4109
sg63
(lp4116
g56
(g77
g58
NtRp4117
(dp4118
g61
(dp4119
g81
g82
ssg70
g4113
sg63
(lp4120
S'Cache-Control'
p4121
asbag56
(g77
g58
NtRp4122
(dp4123
g61
(dp4124
g88
g89
ssg70
g4113
sg63
(lp4125
S':'
asbag56
(g77
g58
NtRp4126
(dp4127
g61
(dp4128
sg70
g4113
sg63
(lp4129
g56
(g57
g58
NtRp4130
(dp4131
g61
(dp4132
g69
I4
ssg70
g4126
sg63
(lp4133
S'no-store, no-cache, must-revalidate, post-check=0, pre-check=0'
p4134
asbasbasbag56
(g72
g58
NtRp4135
(dp4136
g61
(dp4137
sg70
g4109
sg63
(lp4138
g56
(g77
g58
NtRp4139
(dp4140
g61
(dp4141
g81
g82
ssg70
g4135
sg63
(lp4142
S'Content-Type'
p4143
asbag56
(g77
g58
NtRp4144
(dp4145
g61
(dp4146
g88
g89
ssg70
g4135
sg63
(lp4147
S':'
asbag56
(g77
g58
NtRp4148
(dp4149
g61
(dp4150
sg70
g4135
sg63
(lp4151
g56
(g57
g58
NtRp4152
(dp4153
g61
(dp4154
g69
I4
ssg70
g4148
sg63
(lp4155
S'text/html; charset=utf-8'
p4156
asbasbasbag56
(g72
g58
NtRp4157
(dp4158
g61
(dp4159
sg70
g4109
sg63
(lp4160
g56
(g77
g58
NtRp4161
(dp4162
g61
(dp4163
g81
g82
ssg70
g4157
sg63
(lp4164
S'Expires'
p4165
asbag56
(g77
g58
NtRp4166
(dp4167
g61
(dp4168
g88
g89
ssg70
g4157
sg63
(lp4169
S':'
asbag56
(g77
g58
NtRp4170
(dp4171
g61
(dp4172
sg70
g4157
sg63
(lp4173
g56
(g57
g58
NtRp4174
(dp4175
g61
(dp4176
g69
I4
ssg70
g4170
sg63
(lp4177
S'Thu, 08 Sep 2011 16:42:25 GMT'
p4178
asbasbasbag56
(g72
g58
NtRp4179
(dp4180
g61
(dp4181
sg70
g4109
sg63
(lp4182
g56
(g77
g58
NtRp4183
(dp4184
g61
(dp4185
g81
g82
ssg70
g4179
sg63
(lp4186
S'Pragma'
p4187
asbag56
(g77
g58
NtRp4188
(dp4189
g61
(dp4190
g88
g89
ssg70
g4179
sg63
(lp4191
S':'
asbag56
(g77
g58
NtRp4192
(dp4193
g61
(dp4194
sg70
g4179
sg63
(lp4195
g56
(g57
g58
NtRp4196
(dp4197
g61
(dp4198
g69
I4
ssg70
g4192
sg63
(lp4199
S'no-cache'
p4200
asbasbasbag56
(g72
g58
NtRp4201
(dp4202
g61
(dp4203
sg70
g4109
sg63
(lp4204
g56
(g77
g58
NtRp4205
(dp4206
g61
(dp4207
g81
g82
ssg70
g4201
sg63
(lp4208
S'X-Powered-By'
p4209
asbag56
(g77
g58
NtRp4210
(dp4211
g61
(dp4212
g88
g89
ssg70
g4201
sg63
(lp4213
S':'
asbag56
(g77
g58
NtRp4214
(dp4215
g61
(dp4216
sg70
g4201
sg63
(lp4217
g56
(g57
g58
NtRp4218
(dp4219
g61
(dp4220
g69
I4
ssg70
g4214
sg63
(lp4221
S'web2py'
p4222
asbasbasbasbasbasbasbag56
(g72
g58
NtRp4223
(dp4224
g61
(dp4225
sg70
g3783
sg63
(lp4226
g56
(g77
g58
NtRp4227
(dp4228
g61
(dp4229
g81
g82
ssg70
g4223
sg63
(lp4230
S'menu'
p4231
asbag56
(g77
g58
NtRp4232
(dp4233
g61
(dp4234
g88
g89
ssg70
g4223
sg63
(lp4235
S':'
asbag56
(g77
g58
NtRp4236
(dp4237
g61
(dp4238
sg70
g4223
sg63
(lp4239
g56
(g57
g58
NtRp4240
(dp4241
g61
(dp4242
g69
I5
ssg70
g4236
sg63
(lp4243
g56
(g65
g58
NtRp4244
(dp4245
g61
(dp4246
g69
I4
ssg70
Nsg63
(lp4247
g56
(g72
g58
NtRp4248
(dp4249
g61
(dp4250
sg70
g4244
sg63
(lp4251
g56
(g77
g58
NtRp4252
(dp4253
g61
(dp4254
sg70
g4248
sg63
(lp4255
g56
(g57
g58
NtRp4256
(dp4257
g61
(dp4258
g69
I4
ssg70
g4252
sg63
(lp4259
g56
(g65
g58
NtRp4260
(dp4261
g61
(dp4262
g69
I3
ssg70
Nsg63
(lp4263
g56
(g72
g58
NtRp4264
(dp4265
g61
(dp4266
sg70
g4260
sg63
(lp4267
g56
(g77
g58
NtRp4268
(dp4269
g61
(dp4270
sg70
g4264
sg63
(lp4271
g56
(g57
g58
NtRp4272
(dp4273
g61
(dp4274
g69
I3
ssg70
g4268
sg63
(lp4275
cgluon.languages
lazyT_unpickle
p4276
(S't\x04\x00\x00\x00Home'
tRp4277
asbasbasbag56
(g72
g58
NtRp4278
(dp4279
g61
(dp4280
sg70
g4260
sg63
(lp4281
g56
(g77
g58
NtRp4282
(dp4283
g61
(dp4284
sg70
g4278
sg63
(lp4285
g56
(g57
g58
NtRp4286
(dp4287
g61
(dp4288
g69
I3
ssg70
g4282
sg63
(lp4289
g99
asbasbasbag56
(g72
g58
NtRp4290
(dp4291
g61
(dp4292
sg70
g4260
sg63
(lp4293
g56
(g77
g58
NtRp4294
(dp4295
g61
(dp4296
sg70
g4290
sg63
(lp4297
g56
(g57
g58
NtRp4298
(dp4299
g61
(dp4300
g69
I3
ssg70
g4294
sg63
(lp4301
S'/scrum/default/index'
p4302
asbasbasbag56
(g72
g58
NtRp4303
(dp4304
g61
(dp4305
sg70
g4260
sg63
(lp4306
g56
(g77
g58
NtRp4307
(dp4308
g61
(dp4309
sg70
g4303
sg63
(lp4310
g56
(g57
g58
NtRp4311
(dp4312
g61
(dp4313
g69
I3
ssg70
g4307
sg63
(lp4314
g56
(g65
g58
NtRp4315
(dp4316
g61
(dp4317
g69
I2
ssg70
Nsg63
(lp4318
sbasbasbasbasbasbasbasbag56
(g72
g58
NtRp4319
(dp4320
g61
(dp4321
sg70
g4244
sg63
(lp4322
g56
(g77
g58
NtRp4323
(dp4324
g61
(dp4325
sg70
g4319
sg63
(lp4326
g56
(g57
g58
NtRp4327
(dp4328
g61
(dp4329
g69
I4
ssg70
g4323
sg63
(lp4330
g56
(g65
g58
NtRp4331
(dp4332
g61
(dp4333
g69
I3
ssg70
Nsg63
(lp4334
g56
(g72
g58
NtRp4335
(dp4336
g61
(dp4337
sg70
g4331
sg63
(lp4338
g56
(g77
g58
NtRp4339
(dp4340
g61
(dp4341
sg70
g4335
sg63
(lp4342
g56
(g57
g58
NtRp4343
(dp4344
g61
(dp4345
g69
I3
ssg70
g4339
sg63
(lp4346
g4276
(S't\x03\x00\x00\x00BIV'
tRp4347
asbasbasbag56
(g72
g58
NtRp4348
(dp4349
g61
(dp4350
sg70
g4331
sg63
(lp4351
g56
(g77
g58
NtRp4352
(dp4353
g61
(dp4354
sg70
g4348
sg63
(lp4355
g56
(g57
g58
NtRp4356
(dp4357
g61
(dp4358
g69
I3
ssg70
g4352
sg63
(lp4359
g99
asbasbasbag56
(g72
g58
NtRp4360
(dp4361
g61
(dp4362
sg70
g4331
sg63
(lp4363
g56
(g77
g58
NtRp4364
(dp4365
g61
(dp4366
sg70
g4360
sg63
(lp4367
g56
(g57
g58
NtRp4368
(dp4369
g61
(dp4370
g69
I3
ssg70
g4364
sg63
(lp4371
S''
asbasbasbag56
(g72
g58
NtRp4372
(dp4373
g61
(dp4374
sg70
g4331
sg63
(lp4375
g56
(g77
g58
NtRp4376
(dp4377
g61
(dp4378
sg70
g4372
sg63
(lp4379
g56
(g57
g58
NtRp4380
(dp4381
g61
(dp4382
g69
I3
ssg70
g4376
sg63
(lp4383
g56
(g65
g58
NtRp4384
(dp4385
g61
(dp4386
g69
I2
ssg70
Nsg63
(lp4387
g56
(g72
g58
NtRp4388
(dp4389
g61
(dp4390
sg70
g4384
sg63
(lp4391
g56
(g77
g58
NtRp4392
(dp4393
g61
(dp4394
sg70
g4388
sg63
(lp4395
g56
(g57
g58
NtRp4396
(dp4397
g61
(dp4398
g69
I2
ssg70
g4392
sg63
(lp4399
g56
(g65
g58
NtRp4400
(dp4401
g61
(dp4402
g69
I1
ssg70
Nsg63
(lp4403
g56
(g72
g58
NtRp4404
(dp4405
g61
(dp4406
sg70
g4400
sg63
(lp4407
g56
(g77
g58
NtRp4408
(dp4409
g61
(dp4410
sg70
g4404
sg63
(lp4411
g56
(g57
g58
NtRp4412
(dp4413
g61
(dp4414
g69
I1
ssg70
g4408
sg63
(lp4415
g4276
(S't\x04\x00\x00\x00Novo'
tRp4416
asbasbasbag56
(g72
g58
NtRp4417
(dp4418
g61
(dp4419
sg70
g4400
sg63
(lp4420
g56
(g77
g58
NtRp4421
(dp4422
g61
(dp4423
sg70
g4417
sg63
(lp4424
g56
(g57
g58
NtRp4425
(dp4426
g61
(dp4427
g69
I1
ssg70
g4421
sg63
(lp4428
I00
asbasbasbag56
(g72
g58
NtRp4429
(dp4430
g61
(dp4431
sg70
g4400
sg63
(lp4432
g56
(g77
g58
NtRp4433
(dp4434
g61
(dp4435
sg70
g4429
sg63
(lp4436
g56
(g57
g58
NtRp4437
(dp4438
g61
(dp4439
g69
I1
ssg70
g4433
sg63
(lp4440
S'/scrum/default/novo_biv'
p4441
asbasbasbag56
(g72
g58
NtRp4442
(dp4443
g61
(dp4444
sg70
g4400
sg63
(lp4445
g56
(g77
g58
NtRp4446
(dp4447
g61
(dp4448
sg70
g4442
sg63
(lp4449
g56
(g57
g58
NtRp4450
(dp4451
g61
(dp4452
g69
I1
ssg70
g4446
sg63
(lp4453
(lp4454
asbasbasbasbasbasbasbag56
(g72
g58
NtRp4455
(dp4456
g61
(dp4457
sg70
g4384
sg63
(lp4458
g56
(g77
g58
NtRp4459
(dp4460
g61
(dp4461
sg70
g4455
sg63
(lp4462
g56
(g57
g58
NtRp4463
(dp4464
g61
(dp4465
g69
I2
ssg70
g4459
sg63
(lp4466
g56
(g65
g58
NtRp4467
(dp4468
g61
(dp4469
g69
I1
ssg70
Nsg63
(lp4470
g56
(g72
g58
NtRp4471
(dp4472
g61
(dp4473
sg70
g4467
sg63
(lp4474
g56
(g77
g58
NtRp4475
(dp4476
g61
(dp4477
sg70
g4471
sg63
(lp4478
g56
(g57
g58
NtRp4479
(dp4480
g61
(dp4481
g69
I1
ssg70
g4475
sg63
(lp4482
g4276
(S't\n\x00\x00\x00Selecionar'
tRp4483
asbasbasbag56
(g72
g58
NtRp4484
(dp4485
g61
(dp4486
sg70
g4467
sg63
(lp4487
g56
(g77
g58
NtRp4488
(dp4489
g61
(dp4490
sg70
g4484
sg63
(lp4491
g56
(g57
g58
NtRp4492
(dp4493
g61
(dp4494
g69
I1
ssg70
g4488
sg63
(lp4495
I00
asbasbasbag56
(g72
g58
NtRp4496
(dp4497
g61
(dp4498
sg70
g4467
sg63
(lp4499
g56
(g77
g58
NtRp4500
(dp4501
g61
(dp4502
sg70
g4496
sg63
(lp4503
g56
(g57
g58
NtRp4504
(dp4505
g61
(dp4506
g69
I1
ssg70
g4500
sg63
(lp4507
S'/scrum/default/selecionar_biv'
p4508
asbasbasbag56
(g72
g58
NtRp4509
(dp4510
g61
(dp4511
sg70
g4467
sg63
(lp4512
g56
(g77
g58
NtRp4513
(dp4514
g61
(dp4515
sg70
g4509
sg63
(lp4516
g56
(g57
g58
NtRp4517
(dp4518
g61
(dp4519
g69
I1
ssg70
g4513
sg63
(lp4520
(lp4521
asbasbasbasbasbasbasbasbasbasbasbasbasbasbasbasbasbasbasbag56
(g72
g58
NtRp4522
(dp4523
g61
(dp4524
sg70
g3783
sg63
(lp4525
g56
(g77
g58
NtRp4526
(dp4527
g61
(dp4528
g81
g82
ssg70
g4522
sg63
(lp4529
S'meta'
p4530
asbag56
(g77
g58
NtRp4531
(dp4532
g61
(dp4533
g88
g89
ssg70
g4522
sg63
(lp4534
S':'
asbag56
(g77
g58
NtRp4535
(dp4536
g61
(dp4537
sg70
g4522
sg63
(lp4538
g56
(g57
g58
NtRp4539
(dp4540
g61
(dp4541
g69
I5
ssg70
g4535
sg63
(lp4542
g56
(g65
g58
NtRp4543
(dp4544
g61
(dp4545
g69
I4
ssg70
Nsg63
(lp4546
g56
(g72
g58
NtRp4547
(dp4548
g61
(dp4549
sg70
g4543
sg63
(lp4550
g56
(g77
g58
NtRp4551
(dp4552
g61
(dp4553
g81
g82
ssg70
g4547
sg63
(lp4554
S'author'
p4555
asbag56
(g77
g58
NtRp4556
(dp4557
g61
(dp4558
g88
g89
ssg70
g4547
sg63
(lp4559
S':'
asbag56
(g77
g58
NtRp4560
(dp4561
g61
(dp4562
sg70
g4547
sg63
(lp4563
g56
(g57
g58
NtRp4564
(dp4565
g61
(dp4566
g69
I4
ssg70
g4560
sg63
(lp4567
S'you'
p4568
asbasbasbag56
(g72
g58
NtRp4569
(dp4570
g61
(dp4571
sg70
g4543
sg63
(lp4572
g56
(g77
g58
NtRp4573
(dp4574
g61
(dp4575
g81
g82
ssg70
g4569
sg63
(lp4576
S'copyright'
p4577
asbag56
(g77
g58
NtRp4578
(dp4579
g61
(dp4580
g88
g89
ssg70
g4569
sg63
(lp4581
S':'
asbag56
(g77
g58
NtRp4582
(dp4583
g61
(dp4584
sg70
g4569
sg63
(lp4585
g56
(g57
g58
NtRp4586
(dp4587
g61
(dp4588
g69
I4
ssg70
g4582
sg63
(lp4589
S'Copyright 2007-2010'
p4590
asbasbasbag56
(g72
g58
NtRp4591
(dp4592
g61
(dp4593
sg70
g4543
sg63
(lp4594
g56
(g77
g58
NtRp4595
(dp4596
g61
(dp4597
g81
g82
ssg70
g4591
sg63
(lp4598
S'description'
p4599
asbag56
(g77
g58
NtRp4600
(dp4601
g61
(dp4602
g88
g89
ssg70
g4591
sg63
(lp4603
S':'
asbag56
(g77
g58
NtRp4604
(dp4605
g61
(dp4606
sg70
g4591
sg63
(lp4607
g56
(g57
g58
NtRp4608
(dp4609
g61
(dp4610
g69
I4
ssg70
g4604
sg63
(lp4611
S'Free and open source full-stack enterprise framework for agile development of fast, scalable, secure and portable database-driven web-based applications. Written and programmable in Python'
p4612
asbasbasbag56
(g72
g58
NtRp4613
(dp4614
g61
(dp4615
sg70
g4543
sg63
(lp4616
g56
(g77
g58
NtRp4617
(dp4618
g61
(dp4619
g81
g82
ssg70
g4613
sg63
(lp4620
S'generator'
p4621
asbag56
(g77
g58
NtRp4622
(dp4623
g61
(dp4624
g88
g89
ssg70
g4613
sg63
(lp4625
S':'
asbag56
(g77
g58
NtRp4626
(dp4627
g61
(dp4628
sg70
g4613
sg63
(lp4629
g56
(g57
g58
NtRp4630
(dp4631
g61
(dp4632
g69
I4
ssg70
g4626
sg63
(lp4633
S'Web2py Enterprise Framework'
p4634
asbasbasbag56
(g72
g58
NtRp4635
(dp4636
g61
(dp4637
sg70
g4543
sg63
(lp4638
g56
(g77
g58
NtRp4639
(dp4640
g61
(dp4641
g81
g82
ssg70
g4635
sg63
(lp4642
S'keywords'
p4643
asbag56
(g77
g58
NtRp4644
(dp4645
g61
(dp4646
g88
g89
ssg70
g4635
sg63
(lp4647
S':'
asbag56
(g77
g58
NtRp4648
(dp4649
g61
(dp4650
sg70
g4635
sg63
(lp4651
g56
(g57
g58
NtRp4652
(dp4653
g61
(dp4654
g69
I4
ssg70
g4648
sg63
(lp4655
S'web2py, python, framework'
p4656
asbasbasbasbasbasbasbag56
(g72
g58
NtRp4657
(dp4658
g61
(dp4659
sg70
g3783
sg63
(lp4660
g56
(g77
g58
NtRp4661
(dp4662
g61
(dp4663
g81
g82
ssg70
g4657
sg63
(lp4664
S'postprocessing'
p4665
asbag56
(g77
g58
NtRp4666
(dp4667
g61
(dp4668
g88
g89
ssg70
g4657
sg63
(lp4669
S':'
asbag56
(g77
g58
NtRp4670
(dp4671
g61
(dp4672
sg70
g4657
sg63
(lp4673
g56
(g57
g58
NtRp4674
(dp4675
g61
(dp4676
g69
I5
ssg70
g4670
sg63
(lp4677
g56
(g65
g58
NtRp4678
(dp4679
g61
(dp4680
g69
I4
ssg70
Nsg63
(lp4681
sbasbasbasbag56
(g72
g58
NtRp4682
(dp4683
g61
(dp4684
sg70
g3783
sg63
(lp4685
g56
(g77
g58
NtRp4686
(dp4687
g61
(dp4688
g81
g82
ssg70
g4682
sg63
(lp4689
S'session_file'
p4690
asbag56
(g77
g58
NtRp4691
(dp4692
g61
(dp4693
g88
g89
ssg70
g4682
sg63
(lp4694
S':'
asbag56
(g77
g58
NtRp4695
(dp4696
g61
(dp4697
sg70
g4682
sg63
(lp4698
g56
(g57
g58
NtRp4699
(dp4700
g61
(dp4701
g69
I5
ssg70
g4695
sg63
(lp4702
S"<open file '/home/www-data/web2py/applications/scrum/sessions/127.0.0.1-f47d3ac4-8d8c-46d5-8321-f944561d518f', mode 'rb+' at 0xb940e808>"
p4703
asbasbasbag56
(g72
g58
NtRp4704
(dp4705
g61
(dp4706
sg70
g3783
sg63
(lp4707
g56
(g77
g58
NtRp4708
(dp4709
g61
(dp4710
g81
g82
ssg70
g4704
sg63
(lp4711
S'session_filename'
p4712
asbag56
(g77
g58
NtRp4713
(dp4714
g61
(dp4715
g88
g89
ssg70
g4704
sg63
(lp4716
S':'
asbag56
(g77
g58
NtRp4717
(dp4718
g61
(dp4719
sg70
g4704
sg63
(lp4720
g56
(g57
g58
NtRp4721
(dp4722
g61
(dp4723
g69
I5
ssg70
g4717
sg63
(lp4724
S'/home/www-data/web2py/applications/scrum/sessions/127.0.0.1-f47d3ac4-8d8c-46d5-8321-f944561d518f'
p4725
asbasbasbag56
(g72
g58
NtRp4726
(dp4727
g61
(dp4728
sg70
g3783
sg63
(lp4729
g56
(g77
g58
NtRp4730
(dp4731
g61
(dp4732
g81
g82
ssg70
g4726
sg63
(lp4733
S'session_id'
p4734
asbag56
(g77
g58
NtRp4735
(dp4736
g61
(dp4737
g88
g89
ssg70
g4726
sg63
(lp4738
S':'
asbag56
(g77
g58
NtRp4739
(dp4740
g61
(dp4741
sg70
g4726
sg63
(lp4742
g56
(g57
g58
NtRp4743
(dp4744
g61
(dp4745
g69
I5
ssg70
g4739
sg63
(lp4746
S'127.0.0.1-f47d3ac4-8d8c-46d5-8321-f944561d518f'
p4747
asbasbasbag56
(g72
g58
NtRp4748
(dp4749
g61
(dp4750
sg70
g3783
sg63
(lp4751
g56
(g77
g58
NtRp4752
(dp4753
g61
(dp4754
g81
g82
ssg70
g4748
sg63
(lp4755
S'session_id_name'
p4756
asbag56
(g77
g58
NtRp4757
(dp4758
g61
(dp4759
g88
g89
ssg70
g4748
sg63
(lp4760
S':'
asbag56
(g77
g58
NtRp4761
(dp4762
g61
(dp4763
sg70
g4748
sg63
(lp4764
g56
(g57
g58
NtRp4765
(dp4766
g61
(dp4767
g69
I5
ssg70
g4761
sg63
(lp4768
g3840
asbasbasbag56
(g72
g58
NtRp4769
(dp4770
g61
(dp4771
sg70
g3783
sg63
(lp4772
g56
(g77
g58
NtRp4773
(dp4774
g61
(dp4775
g81
g82
ssg70
g4769
sg63
(lp4776
S'session_locked'
p4777
asbag56
(g77
g58
NtRp4778
(dp4779
g61
(dp4780
g88
g89
ssg70
g4769
sg63
(lp4781
S':'
asbag56
(g77
g58
NtRp4782
(dp4783
g61
(dp4784
sg70
g4769
sg63
(lp4785
g56
(g57
g58
NtRp4786
(dp4787
g61
(dp4788
g69
I5
ssg70
g4782
sg63
(lp4789
g1775
asbasbasbag56
(g72
g58
NtRp4790
(dp4791
g61
(dp4792
sg70
g3783
sg63
(lp4793
g56
(g77
g58
NtRp4794
(dp4795
g61
(dp4796
g81
g82
ssg70
g4790
sg63
(lp4797
S'session_new'
p4798
asbag56
(g77
g58
NtRp4799
(dp4800
g61
(dp4801
g88
g89
ssg70
g4790
sg63
(lp4802
S':'
asbag56
(g77
g58
NtRp4803
(dp4804
g61
(dp4805
sg70
g4790
sg63
(lp4806
g56
(g57
g58
NtRp4807
(dp4808
g61
(dp4809
g69
I5
ssg70
g4803
sg63
(lp4810
g99
asbasbasbag56
(g72
g58
NtRp4811
(dp4812
g61
(dp4813
sg70
g3783
sg63
(lp4814
g56
(g77
g58
NtRp4815
(dp4816
g61
(dp4817
g81
g82
ssg70
g4811
sg63
(lp4818
S'status'
p4819
asbag56
(g77
g58
NtRp4820
(dp4821
g61
(dp4822
g88
g89
ssg70
g4811
sg63
(lp4823
S':'
asbag56
(g77
g58
NtRp4824
(dp4825
g61
(dp4826
sg70
g4811
sg63
(lp4827
g56
(g57
g58
NtRp4828
(dp4829
g61
(dp4830
g69
I5
ssg70
g4824
sg63
(lp4831
S'200'
p4832
asbasbasbag56
(g72
g58
NtRp4833
(dp4834
g61
(dp4835
sg70
g3783
sg63
(lp4836
g56
(g77
g58
NtRp4837
(dp4838
g61
(dp4839
g81
g82
ssg70
g4833
sg63
(lp4840
S'subtitle'
p4841
asbag56
(g77
g58
NtRp4842
(dp4843
g61
(dp4844
g88
g89
ssg70
g4833
sg63
(lp4845
S':'
asbag56
(g77
g58
NtRp4846
(dp4847
g61
(dp4848
sg70
g4833
sg63
(lp4849
g56
(g57
g58
NtRp4850
(dp4851
g61
(dp4852
g69
I5
ssg70
g4846
sg63
(lp4853
g4276
(S's\x0f\x00\x00\x00Personalize-me!'
tRp4854
asbasbasbag56
(g72
g58
NtRp4855
(dp4856
g61
(dp4857
sg70
g3783
sg63
(lp4858
g56
(g77
g58
NtRp4859
(dp4860
g61
(dp4861
g81
g82
ssg70
g4855
sg63
(lp4862
S'title'
p4863
asbag56
(g77
g58
NtRp4864
(dp4865
g61
(dp4866
g88
g89
ssg70
g4855
sg63
(lp4867
S':'
asbag56
(g77
g58
NtRp4868
(dp4869
g61
(dp4870
sg70
g4855
sg63
(lp4871
g56
(g57
g58
NtRp4872
(dp4873
g61
(dp4874
g69
I5
ssg70
g4868
sg63
(lp4875
g121
asbasbasbag56
(g72
g58
NtRp4876
(dp4877
g61
(dp4878
sg70
g3783
sg63
(lp4879
g56
(g77
g58
NtRp4880
(dp4881
g61
(dp4882
g81
g82
ssg70
g4876
sg63
(lp4883
g2099
asbag56
(g77
g58
NtRp4884
(dp4885
g61
(dp4886
g88
g89
ssg70
g4876
sg63
(lp4887
S':'
asbag56
(g77
g58
NtRp4888
(dp4889
g61
(dp4890
sg70
g4876
sg63
(lp4891
g56
(g57
g58
NtRp4892
(dp4893
g61
(dp4894
g69
I5
ssg70
g4888
sg63
(lp4895
g2112
asbasbasbag56
(g72
g58
NtRp4896
(dp4897
g61
(dp4898
sg70
g3783
sg63
(lp4899
g56
(g77
g58
NtRp4900
(dp4901
g61
(dp4902
g81
g82
ssg70
g4896
sg63
(lp4903
S'view'
p4904
asbag56
(g77
g58
NtRp4905
(dp4906
g61
(dp4907
g88
g89
ssg70
g4896
sg63
(lp4908
S':'
asbag56
(g77
g58
NtRp4909
(dp4910
g61
(dp4911
sg70
g4896
sg63
(lp4912
g56
(g57
g58
NtRp4913
(dp4914
g61
(dp4915
g69
I5
ssg70
g4909
sg63
(lp4916
S'ticket/index.html'
p4917
asbasbasbasbasbsS'locals'
p4918
(dp4919
S'self'
p4920
S'<gluon.dal.SQLiteAdapter object>'
p4921
sS'r'
S'None'
p4922
sS'obj'
p4923
S"<Storage {'reset_password_key': '', 'first_name'..., 'id': 1, 'email': 'carlos.mg@vilesoft.com.br'}>"
p4924
sS'fieldtype'
p4925
S"'reference auth_user'"
p4926
sssS'traceback'
p4927
S'Traceback (most recent call last):\n  File "/home/www-data/web2py/gluon/restricted.py", line 192, in restricted\n    exec ccode in environment\n  File "/home/www-data/web2py/applications/scrum/controllers/ticket.py", line 8, in <module>\n  File "/home/www-data/web2py/gluon/globals.py", line 145, in <lambda>\n    self._caller = lambda f: f()\n  File "/home/www-data/web2py/gluon/tools.py", line 2462, in f\n    return action(*a, **b)\n  File "/home/www-data/web2py/applications/scrum/controllers/ticket.py", line 5, in index\n    (db.ticket.analista == auth.user)).select()\n  File "/home/www-data/web2py/gluon/dal.py", line 5481, in select\n    return self.db._adapter.select(self.query,fields,attributes)\n  File "/home/www-data/web2py/gluon/dal.py", line 1179, in select\n    sql = self._select(query,fields,attributes)\n  File "/home/www-data/web2py/gluon/dal.py", line 1086, in _select\n    sql_w = \' WHERE \' + self.expand(query)\n  File "/home/www-data/web2py/gluon/dal.py", line 945, in expand\n    return expression.op(expression.first, expression.second)\n  File "/home/www-data/web2py/gluon/dal.py", line 865, in OR\n    return \'(%s OR %s)\' % (self.expand(first),self.expand(second))\n  File "/home/www-data/web2py/gluon/dal.py", line 945, in expand\n    return expression.op(expression.first, expression.second)\n  File "/home/www-data/web2py/gluon/dal.py", line 894, in EQ\n    return \'(%s = %s)\' % (self.expand(first),self.expand(second,first.type))\n  File "/home/www-data/web2py/gluon/dal.py", line 951, in expand\n    return self.represent(expression,field_type)\n  File "/home/www-data/web2py/gluon/dal.py", line 1299, in represent\n    return str(int(obj))\nTypeError: \'NoneType\' object is not callable\n'
p4928
s.