(dp1
S'output'
p2
S''
sS'layer'
p3
S'/home/www-data/web2py/applications/scrum/controllers/ticket.py'
p4
sS'code'
p5
S"# coding: utf8# tente algo como\n@auth.has_membership(config.grupo_consultor)\ndef index():    \n    tickets = db((db.ticket.consultor == auth.user_id) | \n                 (db.ticket.analista == auth.user_id)).select()\n    return dict(tickets=tickets)\n   \n@auth.requires_membership(config.grupo_consultor)\ndef novo():\n    response.view = 'simple_form.html'\n    db.ticket.consultor.default = auth.user_id\n    db.ticket.consultor.writable = False  \n    form = crud.create(db.ticket)\n    return dict(form=form)\n\nresponse._vars=response._caller(index)\n"
p6
sS'snapshot'
p7
(dp8
S'exception'
p9
(dp10
S'__hash__'
p11
S"<method-wrapper '__hash__' of exceptions.TypeError object>"
p12
sS'__setattr__'
p13
S"<method-wrapper '__setattr__' of exceptions.TypeError object>"
p14
sS'__reduce_ex__'
p15
S'<built-in method __reduce_ex__ of exceptions.TypeError object>'
p16
sS'__getslice__'
p17
S"<method-wrapper '__getslice__' of exceptions.TypeError object>"
p18
sS'__getitem__'
p19
S"<method-wrapper '__getitem__' of exceptions.TypeError object>"
p20
sS'__setstate__'
p21
S'<built-in method __setstate__ of exceptions.TypeError object>'
p22
sS'__reduce__'
p23
S'<built-in method __reduce__ of exceptions.TypeError object>'
p24
sS'__str__'
p25
S"<method-wrapper '__str__' of exceptions.TypeError object>"
p26
sS'__format__'
p27
S'<built-in method __format__ of exceptions.TypeError object>'
p28
sS'__getattribute__'
p29
S"<method-wrapper '__getattribute__' of exceptions.TypeError object>"
p30
sS'__class__'
p31
S"<type 'exceptions.TypeError'>"
p32
sS'__unicode__'
p33
S'<built-in method __unicode__ of exceptions.TypeError object>'
p34
sS'__delattr__'
p35
S"<method-wrapper '__delattr__' of exceptions.TypeError object>"
p36
sS'__subclasshook__'
p37
S'<built-in method __subclasshook__ of type object>'
p38
sS'__repr__'
p39
S"<method-wrapper '__repr__' of exceptions.TypeError object>"
p40
sS'args'
p41
S'("\'bool\' object is not callable",)'
p42
sS'__dict__'
p43
S'{}'
p44
sS'__sizeof__'
p45
S'<built-in method __sizeof__ of exceptions.TypeError object>'
p46
sS'__doc__'
p47
S"'Inappropriate argument type.'"
p48
sS'__init__'
p49
S"<method-wrapper '__init__' of exceptions.TypeError object>"
p50
sS'__new__'
p51
S'<built-in method __new__ of type object>'
p52
ssS'evalue'
p53
S"'bool' object is not callable"
p54
sS'request'
p55
ccopy_reg
_reconstructor
p56
(cgluon.html
BEAUTIFY
p57
c__builtin__
object
p58
NtRp59
(dp60
S'attributes'
p61
(dp62
sS'components'
p63
(lp64
g56
(cgluon.html
TABLE
p65
g58
NtRp66
(dp67
g61
(dp68
S'level'
p69
I5
ssS'parent'
p70
Nsg63
(lp71
g56
(cgluon.html
TR
p72
g58
NtRp73
(dp74
g61
(dp75
sg70
g66
sg63
(lp76
g56
(cgluon.html
TD
p77
g58
NtRp78
(dp79
g61
(dp80
S'_style'
p81
S'font-weight:bold;'
p82
ssg70
g73
sg63
(lp83
S'ajax'
p84
asbag56
(g77
g58
NtRp85
(dp86
g61
(dp87
S'_valign'
p88
S'top'
p89
ssg70
g73
sg63
(lp90
S':'
asbag56
(g77
g58
NtRp91
(dp92
g61
(dp93
sg70
g73
sg63
(lp94
g56
(g57
g58
NtRp95
(dp96
g61
(dp97
g69
I5
ssg70
g91
sg63
(lp98
S'False'
p99
asbasbasbag56
(g72
g58
NtRp100
(dp101
g61
(dp102
sg70
g66
sg63
(lp103
g56
(g77
g58
NtRp104
(dp105
g61
(dp106
g81
g82
ssg70
g100
sg63
(lp107
S'application'
p108
asbag56
(g77
g58
NtRp109
(dp110
g61
(dp111
g88
g89
ssg70
g100
sg63
(lp112
S':'
asbag56
(g77
g58
NtRp113
(dp114
g61
(dp115
sg70
g100
sg63
(lp116
g56
(g57
g58
NtRp117
(dp118
g61
(dp119
g69
I5
ssg70
g113
sg63
(lp120
S'scrum'
p121
asbasbasbag56
(g72
g58
NtRp122
(dp123
g61
(dp124
sg70
g66
sg63
(lp125
g56
(g77
g58
NtRp126
(dp127
g61
(dp128
g81
g82
ssg70
g122
sg63
(lp129
g41
asbag56
(g77
g58
NtRp130
(dp131
g61
(dp132
g88
g89
ssg70
g122
sg63
(lp133
S':'
asbag56
(g77
g58
NtRp134
(dp135
g61
(dp136
sg70
g122
sg63
(lp137
g56
(g57
g58
NtRp138
(dp139
g61
(dp140
g69
I5
ssg70
g134
sg63
(lp141
g56
(g65
g58
NtRp142
(dp143
g61
(dp144
g69
I4
ssg70
Nsg63
(lp145
sbasbasbasbag56
(g72
g58
NtRp146
(dp147
g61
(dp148
sg70
g66
sg63
(lp149
g56
(g77
g58
NtRp150
(dp151
g61
(dp152
g81
g82
ssg70
g146
sg63
(lp153
S'body'
p154
asbag56
(g77
g58
NtRp155
(dp156
g61
(dp157
g88
g89
ssg70
g146
sg63
(lp158
S':'
asbag56
(g77
g58
NtRp159
(dp160
g61
(dp161
sg70
g146
sg63
(lp162
g56
(g57
g58
NtRp163
(dp164
g61
(dp165
g69
I5
ssg70
g159
sg63
(lp166
S'<cStringIO.StringO object at 0xb9a08900>'
p167
asbasbasbag56
(g72
g58
NtRp168
(dp169
g61
(dp170
sg70
g66
sg63
(lp171
g56
(g77
g58
NtRp172
(dp173
g61
(dp174
g81
g82
ssg70
g168
sg63
(lp175
S'client'
p176
asbag56
(g77
g58
NtRp177
(dp178
g61
(dp179
g88
g89
ssg70
g168
sg63
(lp180
S':'
asbag56
(g77
g58
NtRp181
(dp182
g61
(dp183
sg70
g168
sg63
(lp184
g56
(g57
g58
NtRp185
(dp186
g61
(dp187
g69
I5
ssg70
g181
sg63
(lp188
S'127.0.0.1'
p189
asbasbasbag56
(g72
g58
NtRp190
(dp191
g61
(dp192
sg70
g66
sg63
(lp193
g56
(g77
g58
NtRp194
(dp195
g61
(dp196
g81
g82
ssg70
g190
sg63
(lp197
S'controller'
p198
asbag56
(g77
g58
NtRp199
(dp200
g61
(dp201
g88
g89
ssg70
g190
sg63
(lp202
S':'
asbag56
(g77
g58
NtRp203
(dp204
g61
(dp205
sg70
g190
sg63
(lp206
g56
(g57
g58
NtRp207
(dp208
g61
(dp209
g69
I5
ssg70
g203
sg63
(lp210
S'ticket'
p211
asbasbasbag56
(g72
g58
NtRp212
(dp213
g61
(dp214
sg70
g66
sg63
(lp215
g56
(g77
g58
NtRp216
(dp217
g61
(dp218
g81
g82
ssg70
g212
sg63
(lp219
S'cookies'
p220
asbag56
(g77
g58
NtRp221
(dp222
g61
(dp223
g88
g89
ssg70
g212
sg63
(lp224
S':'
asbag56
(g77
g58
NtRp225
(dp226
g61
(dp227
sg70
g212
sg63
(lp228
g56
(g57
g58
NtRp229
(dp230
g61
(dp231
g69
I5
ssg70
g225
sg63
(lp232
g56
(g65
g58
NtRp233
(dp234
g61
(dp235
g69
I4
ssg70
Nsg63
(lp236
g56
(g72
g58
NtRp237
(dp238
g61
(dp239
sg70
g233
sg63
(lp240
g56
(g77
g58
NtRp241
(dp242
g61
(dp243
g81
g82
ssg70
g237
sg63
(lp244
S'session_id_admin'
p245
asbag56
(g77
g58
NtRp246
(dp247
g61
(dp248
g88
g89
ssg70
g237
sg63
(lp249
S':'
asbag56
(g77
g58
NtRp250
(dp251
g61
(dp252
sg70
g237
sg63
(lp253
g56
(g57
g58
NtRp254
(dp255
g61
(dp256
g69
I4
ssg70
g250
sg63
(lp257
g56
(g65
g58
NtRp258
(dp259
g61
(dp260
g69
I3
ssg70
Nsg63
(lp261
g56
(g72
g58
NtRp262
(dp263
g61
(dp264
sg70
g258
sg63
(lp265
g56
(g77
g58
NtRp266
(dp267
g61
(dp268
g81
g82
ssg70
g262
sg63
(lp269
S'comment'
p270
asbag56
(g77
g58
NtRp271
(dp272
g61
(dp273
g88
g89
ssg70
g262
sg63
(lp274
S':'
asbag56
(g77
g58
NtRp275
(dp276
g61
(dp277
sg70
g262
sg63
(lp278
g56
(g57
g58
NtRp279
(dp280
g61
(dp281
g69
I3
ssg70
g275
sg63
(lp282
S''
asbasbasbag56
(g72
g58
NtRp283
(dp284
g61
(dp285
sg70
g258
sg63
(lp286
g56
(g77
g58
NtRp287
(dp288
g61
(dp289
g81
g82
ssg70
g283
sg63
(lp290
S'domain'
p291
asbag56
(g77
g58
NtRp292
(dp293
g61
(dp294
g88
g89
ssg70
g283
sg63
(lp295
S':'
asbag56
(g77
g58
NtRp296
(dp297
g61
(dp298
sg70
g283
sg63
(lp299
g56
(g57
g58
NtRp300
(dp301
g61
(dp302
g69
I3
ssg70
g296
sg63
(lp303
S''
asbasbasbag56
(g72
g58
NtRp304
(dp305
g61
(dp306
sg70
g258
sg63
(lp307
g56
(g77
g58
NtRp308
(dp309
g61
(dp310
g81
g82
ssg70
g304
sg63
(lp311
S'expires'
p312
asbag56
(g77
g58
NtRp313
(dp314
g61
(dp315
g88
g89
ssg70
g304
sg63
(lp316
S':'
asbag56
(g77
g58
NtRp317
(dp318
g61
(dp319
sg70
g304
sg63
(lp320
g56
(g57
g58
NtRp321
(dp322
g61
(dp323
g69
I3
ssg70
g317
sg63
(lp324
S''
asbasbasbag56
(g72
g58
NtRp325
(dp326
g61
(dp327
sg70
g258
sg63
(lp328
g56
(g77
g58
NtRp329
(dp330
g61
(dp331
g81
g82
ssg70
g325
sg63
(lp332
S'httponly'
p333
asbag56
(g77
g58
NtRp334
(dp335
g61
(dp336
g88
g89
ssg70
g325
sg63
(lp337
S':'
asbag56
(g77
g58
NtRp338
(dp339
g61
(dp340
sg70
g325
sg63
(lp341
g56
(g57
g58
NtRp342
(dp343
g61
(dp344
g69
I3
ssg70
g338
sg63
(lp345
S''
asbasbasbag56
(g72
g58
NtRp346
(dp347
g61
(dp348
sg70
g258
sg63
(lp349
g56
(g77
g58
NtRp350
(dp351
g61
(dp352
g81
g82
ssg70
g346
sg63
(lp353
S'max-age'
p354
asbag56
(g77
g58
NtRp355
(dp356
g61
(dp357
g88
g89
ssg70
g346
sg63
(lp358
S':'
asbag56
(g77
g58
NtRp359
(dp360
g61
(dp361
sg70
g346
sg63
(lp362
g56
(g57
g58
NtRp363
(dp364
g61
(dp365
g69
I3
ssg70
g359
sg63
(lp366
S''
asbasbasbag56
(g72
g58
NtRp367
(dp368
g61
(dp369
sg70
g258
sg63
(lp370
g56
(g77
g58
NtRp371
(dp372
g61
(dp373
g81
g82
ssg70
g367
sg63
(lp374
S'path'
p375
asbag56
(g77
g58
NtRp376
(dp377
g61
(dp378
g88
g89
ssg70
g367
sg63
(lp379
S':'
asbag56
(g77
g58
NtRp380
(dp381
g61
(dp382
sg70
g367
sg63
(lp383
g56
(g57
g58
NtRp384
(dp385
g61
(dp386
g69
I3
ssg70
g380
sg63
(lp387
S''
asbasbasbag56
(g72
g58
NtRp388
(dp389
g61
(dp390
sg70
g258
sg63
(lp391
g56
(g77
g58
NtRp392
(dp393
g61
(dp394
g81
g82
ssg70
g388
sg63
(lp395
S'secure'
p396
asbag56
(g77
g58
NtRp397
(dp398
g61
(dp399
g88
g89
ssg70
g388
sg63
(lp400
S':'
asbag56
(g77
g58
NtRp401
(dp402
g61
(dp403
sg70
g388
sg63
(lp404
g56
(g57
g58
NtRp405
(dp406
g61
(dp407
g69
I3
ssg70
g401
sg63
(lp408
S''
asbasbasbag56
(g72
g58
NtRp409
(dp410
g61
(dp411
sg70
g258
sg63
(lp412
g56
(g77
g58
NtRp413
(dp414
g61
(dp415
g81
g82
ssg70
g409
sg63
(lp416
S'version'
p417
asbag56
(g77
g58
NtRp418
(dp419
g61
(dp420
g88
g89
ssg70
g409
sg63
(lp421
S':'
asbag56
(g77
g58
NtRp422
(dp423
g61
(dp424
sg70
g409
sg63
(lp425
g56
(g57
g58
NtRp426
(dp427
g61
(dp428
g69
I3
ssg70
g422
sg63
(lp429
S''
asbasbasbasbasbasbasbag56
(g72
g58
NtRp430
(dp431
g61
(dp432
sg70
g233
sg63
(lp433
g56
(g77
g58
NtRp434
(dp435
g61
(dp436
g81
g82
ssg70
g430
sg63
(lp437
S'session_id_scrum'
p438
asbag56
(g77
g58
NtRp439
(dp440
g61
(dp441
g88
g89
ssg70
g430
sg63
(lp442
S':'
asbag56
(g77
g58
NtRp443
(dp444
g61
(dp445
sg70
g430
sg63
(lp446
g56
(g57
g58
NtRp447
(dp448
g61
(dp449
g69
I4
ssg70
g443
sg63
(lp450
g56
(g65
g58
NtRp451
(dp452
g61
(dp453
g69
I3
ssg70
Nsg63
(lp454
g56
(g72
g58
NtRp455
(dp456
g61
(dp457
sg70
g451
sg63
(lp458
g56
(g77
g58
NtRp459
(dp460
g61
(dp461
g81
g82
ssg70
g455
sg63
(lp462
g270
asbag56
(g77
g58
NtRp463
(dp464
g61
(dp465
g88
g89
ssg70
g455
sg63
(lp466
S':'
asbag56
(g77
g58
NtRp467
(dp468
g61
(dp469
sg70
g455
sg63
(lp470
g56
(g57
g58
NtRp471
(dp472
g61
(dp473
g69
I3
ssg70
g467
sg63
(lp474
S''
asbasbasbag56
(g72
g58
NtRp475
(dp476
g61
(dp477
sg70
g451
sg63
(lp478
g56
(g77
g58
NtRp479
(dp480
g61
(dp481
g81
g82
ssg70
g475
sg63
(lp482
g291
asbag56
(g77
g58
NtRp483
(dp484
g61
(dp485
g88
g89
ssg70
g475
sg63
(lp486
S':'
asbag56
(g77
g58
NtRp487
(dp488
g61
(dp489
sg70
g475
sg63
(lp490
g56
(g57
g58
NtRp491
(dp492
g61
(dp493
g69
I3
ssg70
g487
sg63
(lp494
S''
asbasbasbag56
(g72
g58
NtRp495
(dp496
g61
(dp497
sg70
g451
sg63
(lp498
g56
(g77
g58
NtRp499
(dp500
g61
(dp501
g81
g82
ssg70
g495
sg63
(lp502
g312
asbag56
(g77
g58
NtRp503
(dp504
g61
(dp505
g88
g89
ssg70
g495
sg63
(lp506
S':'
asbag56
(g77
g58
NtRp507
(dp508
g61
(dp509
sg70
g495
sg63
(lp510
g56
(g57
g58
NtRp511
(dp512
g61
(dp513
g69
I3
ssg70
g507
sg63
(lp514
S''
asbasbasbag56
(g72
g58
NtRp515
(dp516
g61
(dp517
sg70
g451
sg63
(lp518
g56
(g77
g58
NtRp519
(dp520
g61
(dp521
g81
g82
ssg70
g515
sg63
(lp522
g333
asbag56
(g77
g58
NtRp523
(dp524
g61
(dp525
g88
g89
ssg70
g515
sg63
(lp526
S':'
asbag56
(g77
g58
NtRp527
(dp528
g61
(dp529
sg70
g515
sg63
(lp530
g56
(g57
g58
NtRp531
(dp532
g61
(dp533
g69
I3
ssg70
g527
sg63
(lp534
S''
asbasbasbag56
(g72
g58
NtRp535
(dp536
g61
(dp537
sg70
g451
sg63
(lp538
g56
(g77
g58
NtRp539
(dp540
g61
(dp541
g81
g82
ssg70
g535
sg63
(lp542
g354
asbag56
(g77
g58
NtRp543
(dp544
g61
(dp545
g88
g89
ssg70
g535
sg63
(lp546
S':'
asbag56
(g77
g58
NtRp547
(dp548
g61
(dp549
sg70
g535
sg63
(lp550
g56
(g57
g58
NtRp551
(dp552
g61
(dp553
g69
I3
ssg70
g547
sg63
(lp554
S''
asbasbasbag56
(g72
g58
NtRp555
(dp556
g61
(dp557
sg70
g451
sg63
(lp558
g56
(g77
g58
NtRp559
(dp560
g61
(dp561
g81
g82
ssg70
g555
sg63
(lp562
g375
asbag56
(g77
g58
NtRp563
(dp564
g61
(dp565
g88
g89
ssg70
g555
sg63
(lp566
S':'
asbag56
(g77
g58
NtRp567
(dp568
g61
(dp569
sg70
g555
sg63
(lp570
g56
(g57
g58
NtRp571
(dp572
g61
(dp573
g69
I3
ssg70
g567
sg63
(lp574
S''
asbasbasbag56
(g72
g58
NtRp575
(dp576
g61
(dp577
sg70
g451
sg63
(lp578
g56
(g77
g58
NtRp579
(dp580
g61
(dp581
g81
g82
ssg70
g575
sg63
(lp582
g396
asbag56
(g77
g58
NtRp583
(dp584
g61
(dp585
g88
g89
ssg70
g575
sg63
(lp586
S':'
asbag56
(g77
g58
NtRp587
(dp588
g61
(dp589
sg70
g575
sg63
(lp590
g56
(g57
g58
NtRp591
(dp592
g61
(dp593
g69
I3
ssg70
g587
sg63
(lp594
S''
asbasbasbag56
(g72
g58
NtRp595
(dp596
g61
(dp597
sg70
g451
sg63
(lp598
g56
(g77
g58
NtRp599
(dp600
g61
(dp601
g81
g82
ssg70
g595
sg63
(lp602
g417
asbag56
(g77
g58
NtRp603
(dp604
g61
(dp605
g88
g89
ssg70
g595
sg63
(lp606
S':'
asbag56
(g77
g58
NtRp607
(dp608
g61
(dp609
sg70
g595
sg63
(lp610
g56
(g57
g58
NtRp611
(dp612
g61
(dp613
g69
I3
ssg70
g607
sg63
(lp614
S''
asbasbasbasbasbasbasbag56
(g72
g58
NtRp615
(dp616
g61
(dp617
sg70
g233
sg63
(lp618
g56
(g77
g58
NtRp619
(dp620
g61
(dp621
g81
g82
ssg70
g615
sg63
(lp622
S'session_id_welcome'
p623
asbag56
(g77
g58
NtRp624
(dp625
g61
(dp626
g88
g89
ssg70
g615
sg63
(lp627
S':'
asbag56
(g77
g58
NtRp628
(dp629
g61
(dp630
sg70
g615
sg63
(lp631
g56
(g57
g58
NtRp632
(dp633
g61
(dp634
g69
I4
ssg70
g628
sg63
(lp635
g56
(g65
g58
NtRp636
(dp637
g61
(dp638
g69
I3
ssg70
Nsg63
(lp639
g56
(g72
g58
NtRp640
(dp641
g61
(dp642
sg70
g636
sg63
(lp643
g56
(g77
g58
NtRp644
(dp645
g61
(dp646
g81
g82
ssg70
g640
sg63
(lp647
g270
asbag56
(g77
g58
NtRp648
(dp649
g61
(dp650
g88
g89
ssg70
g640
sg63
(lp651
S':'
asbag56
(g77
g58
NtRp652
(dp653
g61
(dp654
sg70
g640
sg63
(lp655
g56
(g57
g58
NtRp656
(dp657
g61
(dp658
g69
I3
ssg70
g652
sg63
(lp659
S''
asbasbasbag56
(g72
g58
NtRp660
(dp661
g61
(dp662
sg70
g636
sg63
(lp663
g56
(g77
g58
NtRp664
(dp665
g61
(dp666
g81
g82
ssg70
g660
sg63
(lp667
g291
asbag56
(g77
g58
NtRp668
(dp669
g61
(dp670
g88
g89
ssg70
g660
sg63
(lp671
S':'
asbag56
(g77
g58
NtRp672
(dp673
g61
(dp674
sg70
g660
sg63
(lp675
g56
(g57
g58
NtRp676
(dp677
g61
(dp678
g69
I3
ssg70
g672
sg63
(lp679
S''
asbasbasbag56
(g72
g58
NtRp680
(dp681
g61
(dp682
sg70
g636
sg63
(lp683
g56
(g77
g58
NtRp684
(dp685
g61
(dp686
g81
g82
ssg70
g680
sg63
(lp687
g312
asbag56
(g77
g58
NtRp688
(dp689
g61
(dp690
g88
g89
ssg70
g680
sg63
(lp691
S':'
asbag56
(g77
g58
NtRp692
(dp693
g61
(dp694
sg70
g680
sg63
(lp695
g56
(g57
g58
NtRp696
(dp697
g61
(dp698
g69
I3
ssg70
g692
sg63
(lp699
S''
asbasbasbag56
(g72
g58
NtRp700
(dp701
g61
(dp702
sg70
g636
sg63
(lp703
g56
(g77
g58
NtRp704
(dp705
g61
(dp706
g81
g82
ssg70
g700
sg63
(lp707
g333
asbag56
(g77
g58
NtRp708
(dp709
g61
(dp710
g88
g89
ssg70
g700
sg63
(lp711
S':'
asbag56
(g77
g58
NtRp712
(dp713
g61
(dp714
sg70
g700
sg63
(lp715
g56
(g57
g58
NtRp716
(dp717
g61
(dp718
g69
I3
ssg70
g712
sg63
(lp719
S''
asbasbasbag56
(g72
g58
NtRp720
(dp721
g61
(dp722
sg70
g636
sg63
(lp723
g56
(g77
g58
NtRp724
(dp725
g61
(dp726
g81
g82
ssg70
g720
sg63
(lp727
g354
asbag56
(g77
g58
NtRp728
(dp729
g61
(dp730
g88
g89
ssg70
g720
sg63
(lp731
S':'
asbag56
(g77
g58
NtRp732
(dp733
g61
(dp734
sg70
g720
sg63
(lp735
g56
(g57
g58
NtRp736
(dp737
g61
(dp738
g69
I3
ssg70
g732
sg63
(lp739
S''
asbasbasbag56
(g72
g58
NtRp740
(dp741
g61
(dp742
sg70
g636
sg63
(lp743
g56
(g77
g58
NtRp744
(dp745
g61
(dp746
g81
g82
ssg70
g740
sg63
(lp747
g375
asbag56
(g77
g58
NtRp748
(dp749
g61
(dp750
g88
g89
ssg70
g740
sg63
(lp751
S':'
asbag56
(g77
g58
NtRp752
(dp753
g61
(dp754
sg70
g740
sg63
(lp755
g56
(g57
g58
NtRp756
(dp757
g61
(dp758
g69
I3
ssg70
g752
sg63
(lp759
S''
asbasbasbag56
(g72
g58
NtRp760
(dp761
g61
(dp762
sg70
g636
sg63
(lp763
g56
(g77
g58
NtRp764
(dp765
g61
(dp766
g81
g82
ssg70
g760
sg63
(lp767
g396
asbag56
(g77
g58
NtRp768
(dp769
g61
(dp770
g88
g89
ssg70
g760
sg63
(lp771
S':'
asbag56
(g77
g58
NtRp772
(dp773
g61
(dp774
sg70
g760
sg63
(lp775
g56
(g57
g58
NtRp776
(dp777
g61
(dp778
g69
I3
ssg70
g772
sg63
(lp779
S''
asbasbasbag56
(g72
g58
NtRp780
(dp781
g61
(dp782
sg70
g636
sg63
(lp783
g56
(g77
g58
NtRp784
(dp785
g61
(dp786
g81
g82
ssg70
g780
sg63
(lp787
g417
asbag56
(g77
g58
NtRp788
(dp789
g61
(dp790
g88
g89
ssg70
g780
sg63
(lp791
S':'
asbag56
(g77
g58
NtRp792
(dp793
g61
(dp794
sg70
g780
sg63
(lp795
g56
(g57
g58
NtRp796
(dp797
g61
(dp798
g69
I3
ssg70
g792
sg63
(lp799
S''
asbasbasbasbasbasbasbasbasbasbasbag56
(g72
g58
NtRp800
(dp801
g61
(dp802
sg70
g66
sg63
(lp803
g56
(g77
g58
NtRp804
(dp805
g61
(dp806
g81
g82
ssg70
g800
sg63
(lp807
S'env'
p808
asbag56
(g77
g58
NtRp809
(dp810
g61
(dp811
g88
g89
ssg70
g800
sg63
(lp812
S':'
asbag56
(g77
g58
NtRp813
(dp814
g61
(dp815
sg70
g800
sg63
(lp816
g56
(g57
g58
NtRp817
(dp818
g61
(dp819
g69
I5
ssg70
g813
sg63
(lp820
g56
(g65
g58
NtRp821
(dp822
g61
(dp823
g69
I4
ssg70
Nsg63
(lp824
g56
(g72
g58
NtRp825
(dp826
g61
(dp827
sg70
g821
sg63
(lp828
g56
(g77
g58
NtRp829
(dp830
g61
(dp831
g81
g82
ssg70
g825
sg63
(lp832
S'app_folders'
p833
asbag56
(g77
g58
NtRp834
(dp835
g61
(dp836
g88
g89
ssg70
g825
sg63
(lp837
S':'
asbag56
(g77
g58
NtRp838
(dp839
g61
(dp840
sg70
g825
sg63
(lp841
g56
(g57
g58
NtRp842
(dp843
g61
(dp844
g69
I4
ssg70
g838
sg63
(lp845
S"set(['/home/www-data/web2py/applications/scrum/', '/home/www-data/web2py/applications/welcome/', '/home/www-data/web2py/applications/admin/'])"
p846
asbasbasbag56
(g72
g58
NtRp847
(dp848
g61
(dp849
sg70
g821
sg63
(lp850
g56
(g77
g58
NtRp851
(dp852
g61
(dp853
g81
g82
ssg70
g847
sg63
(lp854
S'applications_parent'
p855
asbag56
(g77
g58
NtRp856
(dp857
g61
(dp858
g88
g89
ssg70
g847
sg63
(lp859
S':'
asbag56
(g77
g58
NtRp860
(dp861
g61
(dp862
sg70
g847
sg63
(lp863
g56
(g57
g58
NtRp864
(dp865
g61
(dp866
g69
I4
ssg70
g860
sg63
(lp867
S'/home/www-data/web2py'
p868
asbasbasbag56
(g72
g58
NtRp869
(dp870
g61
(dp871
sg70
g821
sg63
(lp872
g56
(g77
g58
NtRp873
(dp874
g61
(dp875
g81
g82
ssg70
g869
sg63
(lp876
S'db_sessions'
p877
asbag56
(g77
g58
NtRp878
(dp879
g61
(dp880
g88
g89
ssg70
g869
sg63
(lp881
S':'
asbag56
(g77
g58
NtRp882
(dp883
g61
(dp884
sg70
g869
sg63
(lp885
g56
(g57
g58
NtRp886
(dp887
g61
(dp888
g69
I4
ssg70
g882
sg63
(lp889
S'set([])'
p890
asbasbasbag56
(g72
g58
NtRp891
(dp892
g61
(dp893
sg70
g821
sg63
(lp894
g56
(g77
g58
NtRp895
(dp896
g61
(dp897
g81
g82
ssg70
g891
sg63
(lp898
S'debugging'
p899
asbag56
(g77
g58
NtRp900
(dp901
g61
(dp902
g88
g89
ssg70
g891
sg63
(lp903
S':'
asbag56
(g77
g58
NtRp904
(dp905
g61
(dp906
sg70
g891
sg63
(lp907
g56
(g57
g58
NtRp908
(dp909
g61
(dp910
g69
I4
ssg70
g904
sg63
(lp911
g99
asbasbasbag56
(g72
g58
NtRp912
(dp913
g61
(dp914
sg70
g821
sg63
(lp915
g56
(g77
g58
NtRp916
(dp917
g61
(dp918
g81
g82
ssg70
g912
sg63
(lp919
S'document_root'
p920
asbag56
(g77
g58
NtRp921
(dp922
g61
(dp923
g88
g89
ssg70
g912
sg63
(lp924
S':'
asbag56
(g77
g58
NtRp925
(dp926
g61
(dp927
sg70
g912
sg63
(lp928
g56
(g57
g58
NtRp929
(dp930
g61
(dp931
g69
I4
ssg70
g925
sg63
(lp932
S'/etc/apache2/htdocs'
p933
asbasbasbag56
(g72
g58
NtRp934
(dp935
g61
(dp936
sg70
g821
sg63
(lp937
g56
(g77
g58
NtRp938
(dp939
g61
(dp940
g81
g82
ssg70
g934
sg63
(lp941
S'gateway_interface'
p942
asbag56
(g77
g58
NtRp943
(dp944
g61
(dp945
g88
g89
ssg70
g934
sg63
(lp946
S':'
asbag56
(g77
g58
NtRp947
(dp948
g61
(dp949
sg70
g934
sg63
(lp950
g56
(g57
g58
NtRp951
(dp952
g61
(dp953
g69
I4
ssg70
g947
sg63
(lp954
S'CGI/1.1'
p955
asbasbasbag56
(g72
g58
NtRp956
(dp957
g61
(dp958
sg70
g821
sg63
(lp959
g56
(g77
g58
NtRp960
(dp961
g61
(dp962
g81
g82
ssg70
g956
sg63
(lp963
S'gluon_parent'
p964
asbag56
(g77
g58
NtRp965
(dp966
g61
(dp967
g88
g89
ssg70
g956
sg63
(lp968
S':'
asbag56
(g77
g58
NtRp969
(dp970
g61
(dp971
sg70
g956
sg63
(lp972
g56
(g57
g58
NtRp973
(dp974
g61
(dp975
g69
I4
ssg70
g969
sg63
(lp976
g868
asbasbasbag56
(g72
g58
NtRp977
(dp978
g61
(dp979
sg70
g821
sg63
(lp980
g56
(g77
g58
NtRp981
(dp982
g61
(dp983
g81
g82
ssg70
g977
sg63
(lp984
S'http_accept'
p985
asbag56
(g77
g58
NtRp986
(dp987
g61
(dp988
g88
g89
ssg70
g977
sg63
(lp989
S':'
asbag56
(g77
g58
NtRp990
(dp991
g61
(dp992
sg70
g977
sg63
(lp993
g56
(g57
g58
NtRp994
(dp995
g61
(dp996
g69
I4
ssg70
g990
sg63
(lp997
S'text/html, application/xml;q=0.9, application/xhtml+xml, image/png, image/webp, image/jpeg, image/gif, image/x-xbitmap, */*;q=0.1'
p998
asbasbasbag56
(g72
g58
NtRp999
(dp1000
g61
(dp1001
sg70
g821
sg63
(lp1002
g56
(g77
g58
NtRp1003
(dp1004
g61
(dp1005
g81
g82
ssg70
g999
sg63
(lp1006
S'http_accept_encoding'
p1007
asbag56
(g77
g58
NtRp1008
(dp1009
g61
(dp1010
g88
g89
ssg70
g999
sg63
(lp1011
S':'
asbag56
(g77
g58
NtRp1012
(dp1013
g61
(dp1014
sg70
g999
sg63
(lp1015
g56
(g57
g58
NtRp1016
(dp1017
g61
(dp1018
g69
I4
ssg70
g1012
sg63
(lp1019
S'gzip, deflate'
p1020
asbasbasbag56
(g72
g58
NtRp1021
(dp1022
g61
(dp1023
sg70
g821
sg63
(lp1024
g56
(g77
g58
NtRp1025
(dp1026
g61
(dp1027
g81
g82
ssg70
g1021
sg63
(lp1028
S'http_accept_language'
p1029
asbag56
(g77
g58
NtRp1030
(dp1031
g61
(dp1032
g88
g89
ssg70
g1021
sg63
(lp1033
S':'
asbag56
(g77
g58
NtRp1034
(dp1035
g61
(dp1036
sg70
g1021
sg63
(lp1037
g56
(g57
g58
NtRp1038
(dp1039
g61
(dp1040
g69
I4
ssg70
g1034
sg63
(lp1041
S'pt-BR,pt;q=0.9,en;q=0.8'
p1042
asbasbasbag56
(g72
g58
NtRp1043
(dp1044
g61
(dp1045
sg70
g821
sg63
(lp1046
g56
(g77
g58
NtRp1047
(dp1048
g61
(dp1049
g81
g82
ssg70
g1043
sg63
(lp1050
S'http_connection'
p1051
asbag56
(g77
g58
NtRp1052
(dp1053
g61
(dp1054
g88
g89
ssg70
g1043
sg63
(lp1055
S':'
asbag56
(g77
g58
NtRp1056
(dp1057
g61
(dp1058
sg70
g1043
sg63
(lp1059
g56
(g57
g58
NtRp1060
(dp1061
g61
(dp1062
g69
I4
ssg70
g1056
sg63
(lp1063
S'Keep-Alive'
p1064
asbasbasbag56
(g72
g58
NtRp1065
(dp1066
g61
(dp1067
sg70
g821
sg63
(lp1068
g56
(g77
g58
NtRp1069
(dp1070
g61
(dp1071
g81
g82
ssg70
g1065
sg63
(lp1072
S'http_cookie'
p1073
asbag56
(g77
g58
NtRp1074
(dp1075
g61
(dp1076
g88
g89
ssg70
g1065
sg63
(lp1077
S':'
asbag56
(g77
g58
NtRp1078
(dp1079
g61
(dp1080
sg70
g1065
sg63
(lp1081
g56
(g57
g58
NtRp1082
(dp1083
g61
(dp1084
g69
I4
ssg70
g1078
sg63
(lp1085
S'session_id_welcome=127.0.0.1-59bb9f3c-ccbe-49d8-bb33-39cb1149a47f; session_id_scrum=127.0.0.1-f47d3ac4-8d8c-46d5-8321-f944561d518f; session_id_admin=127.0.0.1-ce034cfe-dc55-49ae-8249-b059df779a22'
p1086
asbasbasbag56
(g72
g58
NtRp1087
(dp1088
g61
(dp1089
sg70
g821
sg63
(lp1090
g56
(g77
g58
NtRp1091
(dp1092
g61
(dp1093
g81
g82
ssg70
g1087
sg63
(lp1094
S'http_host'
p1095
asbag56
(g77
g58
NtRp1096
(dp1097
g61
(dp1098
g88
g89
ssg70
g1087
sg63
(lp1099
S':'
asbag56
(g77
g58
NtRp1100
(dp1101
g61
(dp1102
sg70
g1087
sg63
(lp1103
g56
(g57
g58
NtRp1104
(dp1105
g61
(dp1106
g69
I4
ssg70
g1100
sg63
(lp1107
S'localhost'
p1108
asbasbasbag56
(g72
g58
NtRp1109
(dp1110
g61
(dp1111
sg70
g821
sg63
(lp1112
g56
(g77
g58
NtRp1113
(dp1114
g61
(dp1115
g81
g82
ssg70
g1109
sg63
(lp1116
S'http_user_agent'
p1117
asbag56
(g77
g58
NtRp1118
(dp1119
g61
(dp1120
g88
g89
ssg70
g1109
sg63
(lp1121
S':'
asbag56
(g77
g58
NtRp1122
(dp1123
g61
(dp1124
sg70
g1109
sg63
(lp1125
g56
(g57
g58
NtRp1126
(dp1127
g61
(dp1128
g69
I4
ssg70
g1122
sg63
(lp1129
S'Opera/9.80 (X11; Linux i686; U; pt-BR) Presto/2.9.168 Version/11.51'
p1130
asbasbasbag56
(g72
g58
NtRp1131
(dp1132
g61
(dp1133
sg70
g821
sg63
(lp1134
g56
(g77
g58
NtRp1135
(dp1136
g61
(dp1137
g81
g82
ssg70
g1131
sg63
(lp1138
S'https'
p1139
asbag56
(g77
g58
NtRp1140
(dp1141
g61
(dp1142
g88
g89
ssg70
g1131
sg63
(lp1143
S':'
asbag56
(g77
g58
NtRp1144
(dp1145
g61
(dp1146
sg70
g1131
sg63
(lp1147
g56
(g57
g58
NtRp1148
(dp1149
g61
(dp1150
g69
I4
ssg70
g1144
sg63
(lp1151
S'1'
asbasbasbag56
(g72
g58
NtRp1152
(dp1153
g61
(dp1154
sg70
g821
sg63
(lp1155
g56
(g77
g58
NtRp1156
(dp1157
g61
(dp1158
g81
g82
ssg70
g1152
sg63
(lp1159
S'is_jython'
p1160
asbag56
(g77
g58
NtRp1161
(dp1162
g61
(dp1163
g88
g89
ssg70
g1152
sg63
(lp1164
S':'
asbag56
(g77
g58
NtRp1165
(dp1166
g61
(dp1167
sg70
g1152
sg63
(lp1168
g56
(g57
g58
NtRp1169
(dp1170
g61
(dp1171
g69
I4
ssg70
g1165
sg63
(lp1172
g99
asbasbasbag56
(g72
g58
NtRp1173
(dp1174
g61
(dp1175
sg70
g821
sg63
(lp1176
g56
(g77
g58
NtRp1177
(dp1178
g61
(dp1179
g81
g82
ssg70
g1173
sg63
(lp1180
S'mod_wsgi_application_group'
p1181
asbag56
(g77
g58
NtRp1182
(dp1183
g61
(dp1184
g88
g89
ssg70
g1173
sg63
(lp1185
S':'
asbag56
(g77
g58
NtRp1186
(dp1187
g61
(dp1188
sg70
g1173
sg63
(lp1189
g56
(g57
g58
NtRp1190
(dp1191
g61
(dp1192
g69
I4
ssg70
g1186
sg63
(lp1193
S'localhost.localdomain|'
p1194
asbasbasbag56
(g72
g58
NtRp1195
(dp1196
g61
(dp1197
sg70
g821
sg63
(lp1198
g56
(g77
g58
NtRp1199
(dp1200
g61
(dp1201
g81
g82
ssg70
g1195
sg63
(lp1202
S'mod_wsgi_callable_object'
p1203
asbag56
(g77
g58
NtRp1204
(dp1205
g61
(dp1206
g88
g89
ssg70
g1195
sg63
(lp1207
S':'
asbag56
(g77
g58
NtRp1208
(dp1209
g61
(dp1210
sg70
g1195
sg63
(lp1211
g56
(g57
g58
NtRp1212
(dp1213
g61
(dp1214
g69
I4
ssg70
g1208
sg63
(lp1215
S'application'
p1216
asbasbasbag56
(g72
g58
NtRp1217
(dp1218
g61
(dp1219
sg70
g821
sg63
(lp1220
g56
(g77
g58
NtRp1221
(dp1222
g61
(dp1223
g81
g82
ssg70
g1217
sg63
(lp1224
S'mod_wsgi_handler_script'
p1225
asbag56
(g77
g58
NtRp1226
(dp1227
g61
(dp1228
g88
g89
ssg70
g1217
sg63
(lp1229
S':'
asbag56
(g77
g58
NtRp1230
(dp1231
g61
(dp1232
sg70
g1217
sg63
(lp1233
g56
(g57
g58
NtRp1234
(dp1235
g61
(dp1236
g69
I4
ssg70
g1230
sg63
(lp1237
S''
asbasbasbag56
(g72
g58
NtRp1238
(dp1239
g61
(dp1240
sg70
g821
sg63
(lp1241
g56
(g77
g58
NtRp1242
(dp1243
g61
(dp1244
g81
g82
ssg70
g1238
sg63
(lp1245
S'mod_wsgi_input_chunked'
p1246
asbag56
(g77
g58
NtRp1247
(dp1248
g61
(dp1249
g88
g89
ssg70
g1238
sg63
(lp1250
S':'
asbag56
(g77
g58
NtRp1251
(dp1252
g61
(dp1253
sg70
g1238
sg63
(lp1254
g56
(g57
g58
NtRp1255
(dp1256
g61
(dp1257
g69
I4
ssg70
g1251
sg63
(lp1258
S'0'
asbasbasbag56
(g72
g58
NtRp1259
(dp1260
g61
(dp1261
sg70
g821
sg63
(lp1262
g56
(g77
g58
NtRp1263
(dp1264
g61
(dp1265
g81
g82
ssg70
g1259
sg63
(lp1266
S'mod_wsgi_listener_host'
p1267
asbag56
(g77
g58
NtRp1268
(dp1269
g61
(dp1270
g88
g89
ssg70
g1259
sg63
(lp1271
S':'
asbag56
(g77
g58
NtRp1272
(dp1273
g61
(dp1274
sg70
g1259
sg63
(lp1275
g56
(g57
g58
NtRp1276
(dp1277
g61
(dp1278
g69
I4
ssg70
g1272
sg63
(lp1279
S''
asbasbasbag56
(g72
g58
NtRp1280
(dp1281
g61
(dp1282
sg70
g821
sg63
(lp1283
g56
(g77
g58
NtRp1284
(dp1285
g61
(dp1286
g81
g82
ssg70
g1280
sg63
(lp1287
S'mod_wsgi_listener_port'
p1288
asbag56
(g77
g58
NtRp1289
(dp1290
g61
(dp1291
g88
g89
ssg70
g1280
sg63
(lp1292
S':'
asbag56
(g77
g58
NtRp1293
(dp1294
g61
(dp1295
sg70
g1280
sg63
(lp1296
g56
(g57
g58
NtRp1297
(dp1298
g61
(dp1299
g69
I4
ssg70
g1293
sg63
(lp1300
S'443'
p1301
asbasbasbag56
(g72
g58
NtRp1302
(dp1303
g61
(dp1304
sg70
g821
sg63
(lp1305
g56
(g77
g58
NtRp1306
(dp1307
g61
(dp1308
g81
g82
ssg70
g1302
sg63
(lp1309
S'mod_wsgi_process_group'
p1310
asbag56
(g77
g58
NtRp1311
(dp1312
g61
(dp1313
g88
g89
ssg70
g1302
sg63
(lp1314
S':'
asbag56
(g77
g58
NtRp1315
(dp1316
g61
(dp1317
sg70
g1302
sg63
(lp1318
g56
(g57
g58
NtRp1319
(dp1320
g61
(dp1321
g69
I4
ssg70
g1315
sg63
(lp1322
S'web2py'
p1323
asbasbasbag56
(g72
g58
NtRp1324
(dp1325
g61
(dp1326
sg70
g821
sg63
(lp1327
g56
(g77
g58
NtRp1328
(dp1329
g61
(dp1330
g81
g82
ssg70
g1324
sg63
(lp1331
S'mod_wsgi_request_handler'
p1332
asbag56
(g77
g58
NtRp1333
(dp1334
g61
(dp1335
g88
g89
ssg70
g1324
sg63
(lp1336
S':'
asbag56
(g77
g58
NtRp1337
(dp1338
g61
(dp1339
sg70
g1324
sg63
(lp1340
g56
(g57
g58
NtRp1341
(dp1342
g61
(dp1343
g69
I4
ssg70
g1337
sg63
(lp1344
S'wsgi-script'
p1345
asbasbasbag56
(g72
g58
NtRp1346
(dp1347
g61
(dp1348
sg70
g821
sg63
(lp1349
g56
(g77
g58
NtRp1350
(dp1351
g61
(dp1352
g81
g82
ssg70
g1346
sg63
(lp1353
S'mod_wsgi_script_reloading'
p1354
asbag56
(g77
g58
NtRp1355
(dp1356
g61
(dp1357
g88
g89
ssg70
g1346
sg63
(lp1358
S':'
asbag56
(g77
g58
NtRp1359
(dp1360
g61
(dp1361
sg70
g1346
sg63
(lp1362
g56
(g57
g58
NtRp1363
(dp1364
g61
(dp1365
g69
I4
ssg70
g1359
sg63
(lp1366
S'1'
asbasbasbag56
(g72
g58
NtRp1367
(dp1368
g61
(dp1369
sg70
g821
sg63
(lp1370
g56
(g77
g58
NtRp1371
(dp1372
g61
(dp1373
g81
g82
ssg70
g1367
sg63
(lp1374
S'mod_wsgi_version'
p1375
asbag56
(g77
g58
NtRp1376
(dp1377
g61
(dp1378
g88
g89
ssg70
g1367
sg63
(lp1379
S':'
asbag56
(g77
g58
NtRp1380
(dp1381
g61
(dp1382
sg70
g1367
sg63
(lp1383
g56
(g57
g58
NtRp1384
(dp1385
g61
(dp1386
g69
I4
ssg70
g1380
sg63
(lp1387
g56
(g65
g58
NtRp1388
(dp1389
g61
(dp1390
g69
I3
ssg70
Nsg63
(lp1391
g56
(g72
g58
NtRp1392
(dp1393
g61
(dp1394
sg70
g1388
sg63
(lp1395
g56
(g77
g58
NtRp1396
(dp1397
g61
(dp1398
sg70
g1392
sg63
(lp1399
g56
(g57
g58
NtRp1400
(dp1401
g61
(dp1402
g69
I3
ssg70
g1396
sg63
(lp1403
S'3'
asbasbasbag56
(g72
g58
NtRp1404
(dp1405
g61
(dp1406
sg70
g1388
sg63
(lp1407
g56
(g77
g58
NtRp1408
(dp1409
g61
(dp1410
sg70
g1404
sg63
(lp1411
g56
(g57
g58
NtRp1412
(dp1413
g61
(dp1414
g69
I3
ssg70
g1408
sg63
(lp1415
S'3'
asbasbasbasbasbasbasbag56
(g72
g58
NtRp1416
(dp1417
g61
(dp1418
sg70
g821
sg63
(lp1419
g56
(g77
g58
NtRp1420
(dp1421
g61
(dp1422
g81
g82
ssg70
g1416
sg63
(lp1423
S'path_info'
p1424
asbag56
(g77
g58
NtRp1425
(dp1426
g61
(dp1427
g88
g89
ssg70
g1416
sg63
(lp1428
S':'
asbag56
(g77
g58
NtRp1429
(dp1430
g61
(dp1431
sg70
g1416
sg63
(lp1432
g56
(g57
g58
NtRp1433
(dp1434
g61
(dp1435
g69
I4
ssg70
g1429
sg63
(lp1436
S'/scrum/ticket/index'
p1437
asbasbasbag56
(g72
g58
NtRp1438
(dp1439
g61
(dp1440
sg70
g821
sg63
(lp1441
g56
(g77
g58
NtRp1442
(dp1443
g61
(dp1444
g81
g82
ssg70
g1438
sg63
(lp1445
S'path_translated'
p1446
asbag56
(g77
g58
NtRp1447
(dp1448
g61
(dp1449
g88
g89
ssg70
g1438
sg63
(lp1450
S':'
asbag56
(g77
g58
NtRp1451
(dp1452
g61
(dp1453
sg70
g1438
sg63
(lp1454
g56
(g57
g58
NtRp1455
(dp1456
g61
(dp1457
g69
I4
ssg70
g1451
sg63
(lp1458
S'/home/www-data/web2py/wsgihandler.py/scrum/ticket/index'
p1459
asbasbasbag56
(g72
g58
NtRp1460
(dp1461
g61
(dp1462
sg70
g821
sg63
(lp1463
g56
(g77
g58
NtRp1464
(dp1465
g61
(dp1466
g81
g82
ssg70
g1460
sg63
(lp1467
S'query_string'
p1468
asbag56
(g77
g58
NtRp1469
(dp1470
g61
(dp1471
g88
g89
ssg70
g1460
sg63
(lp1472
S':'
asbag56
(g77
g58
NtRp1473
(dp1474
g61
(dp1475
sg70
g1460
sg63
(lp1476
g56
(g57
g58
NtRp1477
(dp1478
g61
(dp1479
g69
I4
ssg70
g1473
sg63
(lp1480
S''
asbasbasbag56
(g72
g58
NtRp1481
(dp1482
g61
(dp1483
sg70
g821
sg63
(lp1484
g56
(g77
g58
NtRp1485
(dp1486
g61
(dp1487
g81
g82
ssg70
g1481
sg63
(lp1488
S'remote_addr'
p1489
asbag56
(g77
g58
NtRp1490
(dp1491
g61
(dp1492
g88
g89
ssg70
g1481
sg63
(lp1493
S':'
asbag56
(g77
g58
NtRp1494
(dp1495
g61
(dp1496
sg70
g1481
sg63
(lp1497
g56
(g57
g58
NtRp1498
(dp1499
g61
(dp1500
g69
I4
ssg70
g1494
sg63
(lp1501
g189
asbasbasbag56
(g72
g58
NtRp1502
(dp1503
g61
(dp1504
sg70
g821
sg63
(lp1505
g56
(g77
g58
NtRp1506
(dp1507
g61
(dp1508
g81
g82
ssg70
g1502
sg63
(lp1509
S'remote_port'
p1510
asbag56
(g77
g58
NtRp1511
(dp1512
g61
(dp1513
g88
g89
ssg70
g1502
sg63
(lp1514
S':'
asbag56
(g77
g58
NtRp1515
(dp1516
g61
(dp1517
sg70
g1502
sg63
(lp1518
g56
(g57
g58
NtRp1519
(dp1520
g61
(dp1521
g69
I4
ssg70
g1515
sg63
(lp1522
S'56390'
p1523
asbasbasbag56
(g72
g58
NtRp1524
(dp1525
g61
(dp1526
sg70
g821
sg63
(lp1527
g56
(g77
g58
NtRp1528
(dp1529
g61
(dp1530
g81
g82
ssg70
g1524
sg63
(lp1531
S'request_method'
p1532
asbag56
(g77
g58
NtRp1533
(dp1534
g61
(dp1535
g88
g89
ssg70
g1524
sg63
(lp1536
S':'
asbag56
(g77
g58
NtRp1537
(dp1538
g61
(dp1539
sg70
g1524
sg63
(lp1540
g56
(g57
g58
NtRp1541
(dp1542
g61
(dp1543
g69
I4
ssg70
g1537
sg63
(lp1544
S'GET'
p1545
asbasbasbag56
(g72
g58
NtRp1546
(dp1547
g61
(dp1548
sg70
g821
sg63
(lp1549
g56
(g77
g58
NtRp1550
(dp1551
g61
(dp1552
g81
g82
ssg70
g1546
sg63
(lp1553
S'request_uri'
p1554
asbag56
(g77
g58
NtRp1555
(dp1556
g61
(dp1557
g88
g89
ssg70
g1546
sg63
(lp1558
S':'
asbag56
(g77
g58
NtRp1559
(dp1560
g61
(dp1561
sg70
g1546
sg63
(lp1562
g56
(g57
g58
NtRp1563
(dp1564
g61
(dp1565
g69
I4
ssg70
g1559
sg63
(lp1566
S'/scrum/ticket/index'
p1567
asbasbasbag56
(g72
g58
NtRp1568
(dp1569
g61
(dp1570
sg70
g821
sg63
(lp1571
g56
(g77
g58
NtRp1572
(dp1573
g61
(dp1574
g81
g82
ssg70
g1568
sg63
(lp1575
S'script_filename'
p1576
asbag56
(g77
g58
NtRp1577
(dp1578
g61
(dp1579
g88
g89
ssg70
g1568
sg63
(lp1580
S':'
asbag56
(g77
g58
NtRp1581
(dp1582
g61
(dp1583
sg70
g1568
sg63
(lp1584
g56
(g57
g58
NtRp1585
(dp1586
g61
(dp1587
g69
I4
ssg70
g1581
sg63
(lp1588
S'/home/www-data/web2py/wsgihandler.py'
p1589
asbasbasbag56
(g72
g58
NtRp1590
(dp1591
g61
(dp1592
sg70
g821
sg63
(lp1593
g56
(g77
g58
NtRp1594
(dp1595
g61
(dp1596
g81
g82
ssg70
g1590
sg63
(lp1597
S'script_name'
p1598
asbag56
(g77
g58
NtRp1599
(dp1600
g61
(dp1601
g88
g89
ssg70
g1590
sg63
(lp1602
S':'
asbag56
(g77
g58
NtRp1603
(dp1604
g61
(dp1605
sg70
g1590
sg63
(lp1606
g56
(g57
g58
NtRp1607
(dp1608
g61
(dp1609
g69
I4
ssg70
g1603
sg63
(lp1610
S''
asbasbasbag56
(g72
g58
NtRp1611
(dp1612
g61
(dp1613
sg70
g821
sg63
(lp1614
g56
(g77
g58
NtRp1615
(dp1616
g61
(dp1617
g81
g82
ssg70
g1611
sg63
(lp1618
S'server_addr'
p1619
asbag56
(g77
g58
NtRp1620
(dp1621
g61
(dp1622
g88
g89
ssg70
g1611
sg63
(lp1623
S':'
asbag56
(g77
g58
NtRp1624
(dp1625
g61
(dp1626
sg70
g1611
sg63
(lp1627
g56
(g57
g58
NtRp1628
(dp1629
g61
(dp1630
g69
I4
ssg70
g1624
sg63
(lp1631
S'127.0.0.1'
p1632
asbasbasbag56
(g72
g58
NtRp1633
(dp1634
g61
(dp1635
sg70
g821
sg63
(lp1636
g56
(g77
g58
NtRp1637
(dp1638
g61
(dp1639
g81
g82
ssg70
g1633
sg63
(lp1640
S'server_admin'
p1641
asbag56
(g77
g58
NtRp1642
(dp1643
g61
(dp1644
g88
g89
ssg70
g1633
sg63
(lp1645
S':'
asbag56
(g77
g58
NtRp1646
(dp1647
g61
(dp1648
sg70
g1633
sg63
(lp1649
g56
(g57
g58
NtRp1650
(dp1651
g61
(dp1652
g69
I4
ssg70
g1646
sg63
(lp1653
S'[no address given]'
p1654
asbasbasbag56
(g72
g58
NtRp1655
(dp1656
g61
(dp1657
sg70
g821
sg63
(lp1658
g56
(g77
g58
NtRp1659
(dp1660
g61
(dp1661
g81
g82
ssg70
g1655
sg63
(lp1662
S'server_name'
p1663
asbag56
(g77
g58
NtRp1664
(dp1665
g61
(dp1666
g88
g89
ssg70
g1655
sg63
(lp1667
S':'
asbag56
(g77
g58
NtRp1668
(dp1669
g61
(dp1670
sg70
g1655
sg63
(lp1671
g56
(g57
g58
NtRp1672
(dp1673
g61
(dp1674
g69
I4
ssg70
g1668
sg63
(lp1675
S'localhost'
p1676
asbasbasbag56
(g72
g58
NtRp1677
(dp1678
g61
(dp1679
sg70
g821
sg63
(lp1680
g56
(g77
g58
NtRp1681
(dp1682
g61
(dp1683
g81
g82
ssg70
g1677
sg63
(lp1684
S'server_port'
p1685
asbag56
(g77
g58
NtRp1686
(dp1687
g61
(dp1688
g88
g89
ssg70
g1677
sg63
(lp1689
S':'
asbag56
(g77
g58
NtRp1690
(dp1691
g61
(dp1692
sg70
g1677
sg63
(lp1693
g56
(g57
g58
NtRp1694
(dp1695
g61
(dp1696
g69
I4
ssg70
g1690
sg63
(lp1697
S'443'
p1698
asbasbasbag56
(g72
g58
NtRp1699
(dp1700
g61
(dp1701
sg70
g821
sg63
(lp1702
g56
(g77
g58
NtRp1703
(dp1704
g61
(dp1705
g81
g82
ssg70
g1699
sg63
(lp1706
S'server_protocol'
p1707
asbag56
(g77
g58
NtRp1708
(dp1709
g61
(dp1710
g88
g89
ssg70
g1699
sg63
(lp1711
S':'
asbag56
(g77
g58
NtRp1712
(dp1713
g61
(dp1714
sg70
g1699
sg63
(lp1715
g56
(g57
g58
NtRp1716
(dp1717
g61
(dp1718
g69
I4
ssg70
g1712
sg63
(lp1719
S'HTTP/1.1'
p1720
asbasbasbag56
(g72
g58
NtRp1721
(dp1722
g61
(dp1723
sg70
g821
sg63
(lp1724
g56
(g77
g58
NtRp1725
(dp1726
g61
(dp1727
g81
g82
ssg70
g1721
sg63
(lp1728
S'server_signature'
p1729
asbag56
(g77
g58
NtRp1730
(dp1731
g61
(dp1732
g88
g89
ssg70
g1721
sg63
(lp1733
S':'
asbag56
(g77
g58
NtRp1734
(dp1735
g61
(dp1736
sg70
g1721
sg63
(lp1737
g56
(g57
g58
NtRp1738
(dp1739
g61
(dp1740
g69
I4
ssg70
g1734
sg63
(lp1741
S'<address>Apache/2.2.17 (Ubuntu) Server at localhost Port 443</address>\n'
p1742
asbasbasbag56
(g72
g58
NtRp1743
(dp1744
g61
(dp1745
sg70
g821
sg63
(lp1746
g56
(g77
g58
NtRp1747
(dp1748
g61
(dp1749
g81
g82
ssg70
g1743
sg63
(lp1750
S'server_software'
p1751
asbag56
(g77
g58
NtRp1752
(dp1753
g61
(dp1754
g88
g89
ssg70
g1743
sg63
(lp1755
S':'
asbag56
(g77
g58
NtRp1756
(dp1757
g61
(dp1758
sg70
g1743
sg63
(lp1759
g56
(g57
g58
NtRp1760
(dp1761
g61
(dp1762
g69
I4
ssg70
g1756
sg63
(lp1763
S'Apache/2.2.17 (Ubuntu)'
p1764
asbasbasbag56
(g72
g58
NtRp1765
(dp1766
g61
(dp1767
sg70
g821
sg63
(lp1768
g56
(g77
g58
NtRp1769
(dp1770
g61
(dp1771
g81
g82
ssg70
g1765
sg63
(lp1772
S'ssl_tls_sni'
p1773
asbag56
(g77
g58
NtRp1774
(dp1775
g61
(dp1776
g88
g89
ssg70
g1765
sg63
(lp1777
S':'
asbag56
(g77
g58
NtRp1778
(dp1779
g61
(dp1780
sg70
g1765
sg63
(lp1781
g56
(g57
g58
NtRp1782
(dp1783
g61
(dp1784
g69
I4
ssg70
g1778
sg63
(lp1785
S'localhost'
p1786
asbasbasbag56
(g72
g58
NtRp1787
(dp1788
g61
(dp1789
sg70
g821
sg63
(lp1790
g56
(g77
g58
NtRp1791
(dp1792
g61
(dp1793
g81
g82
ssg70
g1787
sg63
(lp1794
S'web2py_path'
p1795
asbag56
(g77
g58
NtRp1796
(dp1797
g61
(dp1798
g88
g89
ssg70
g1787
sg63
(lp1799
S':'
asbag56
(g77
g58
NtRp1800
(dp1801
g61
(dp1802
sg70
g1787
sg63
(lp1803
g56
(g57
g58
NtRp1804
(dp1805
g61
(dp1806
g69
I4
ssg70
g1800
sg63
(lp1807
g868
asbasbasbag56
(g72
g58
NtRp1808
(dp1809
g61
(dp1810
sg70
g821
sg63
(lp1811
g56
(g77
g58
NtRp1812
(dp1813
g61
(dp1814
g81
g82
ssg70
g1808
sg63
(lp1815
S'web2py_version'
p1816
asbag56
(g77
g58
NtRp1817
(dp1818
g61
(dp1819
g88
g89
ssg70
g1808
sg63
(lp1820
S':'
asbag56
(g77
g58
NtRp1821
(dp1822
g61
(dp1823
sg70
g1808
sg63
(lp1824
g56
(g57
g58
NtRp1825
(dp1826
g61
(dp1827
g69
I4
ssg70
g1821
sg63
(lp1828
S'Version 1.98.2 (2011-08-04 00:47:09)\n'
p1829
asbasbasbag56
(g72
g58
NtRp1830
(dp1831
g61
(dp1832
sg70
g821
sg63
(lp1833
g56
(g77
g58
NtRp1834
(dp1835
g61
(dp1836
g81
g82
ssg70
g1830
sg63
(lp1837
S'wsgi_errors'
p1838
asbag56
(g77
g58
NtRp1839
(dp1840
g61
(dp1841
g88
g89
ssg70
g1830
sg63
(lp1842
S':'
asbag56
(g77
g58
NtRp1843
(dp1844
g61
(dp1845
sg70
g1830
sg63
(lp1846
g56
(g57
g58
NtRp1847
(dp1848
g61
(dp1849
g69
I4
ssg70
g1843
sg63
(lp1850
S'<mod_wsgi.Log object at 0xb9d3ad68>'
p1851
asbasbasbag56
(g72
g58
NtRp1852
(dp1853
g61
(dp1854
sg70
g821
sg63
(lp1855
g56
(g77
g58
NtRp1856
(dp1857
g61
(dp1858
g81
g82
ssg70
g1852
sg63
(lp1859
S'wsgi_file_wrapper'
p1860
asbag56
(g77
g58
NtRp1861
(dp1862
g61
(dp1863
g88
g89
ssg70
g1852
sg63
(lp1864
S':'
asbag56
(g77
g58
NtRp1865
(dp1866
g61
(dp1867
sg70
g1852
sg63
(lp1868
g56
(g57
g58
NtRp1869
(dp1870
g61
(dp1871
g69
I4
ssg70
g1865
sg63
(lp1872
S'<built-in method file_wrapper of mod_wsgi.Adapter object at 0xb98df8d8>'
p1873
asbasbasbag56
(g72
g58
NtRp1874
(dp1875
g61
(dp1876
sg70
g821
sg63
(lp1877
g56
(g77
g58
NtRp1878
(dp1879
g61
(dp1880
g81
g82
ssg70
g1874
sg63
(lp1881
S'wsgi_input'
p1882
asbag56
(g77
g58
NtRp1883
(dp1884
g61
(dp1885
g88
g89
ssg70
g1874
sg63
(lp1886
S':'
asbag56
(g77
g58
NtRp1887
(dp1888
g61
(dp1889
sg70
g1874
sg63
(lp1890
g56
(g57
g58
NtRp1891
(dp1892
g61
(dp1893
g69
I4
ssg70
g1887
sg63
(lp1894
S'<mod_wsgi.Input object at 0xb9d3a778>'
p1895
asbasbasbag56
(g72
g58
NtRp1896
(dp1897
g61
(dp1898
sg70
g821
sg63
(lp1899
g56
(g77
g58
NtRp1900
(dp1901
g61
(dp1902
g81
g82
ssg70
g1896
sg63
(lp1903
S'wsgi_multiprocess'
p1904
asbag56
(g77
g58
NtRp1905
(dp1906
g61
(dp1907
g88
g89
ssg70
g1896
sg63
(lp1908
S':'
asbag56
(g77
g58
NtRp1909
(dp1910
g61
(dp1911
sg70
g1896
sg63
(lp1912
g56
(g57
g58
NtRp1913
(dp1914
g61
(dp1915
g69
I4
ssg70
g1909
sg63
(lp1916
g99
asbasbasbag56
(g72
g58
NtRp1917
(dp1918
g61
(dp1919
sg70
g821
sg63
(lp1920
g56
(g77
g58
NtRp1921
(dp1922
g61
(dp1923
g81
g82
ssg70
g1917
sg63
(lp1924
S'wsgi_multithread'
p1925
asbag56
(g77
g58
NtRp1926
(dp1927
g61
(dp1928
g88
g89
ssg70
g1917
sg63
(lp1929
S':'
asbag56
(g77
g58
NtRp1930
(dp1931
g61
(dp1932
sg70
g1917
sg63
(lp1933
g56
(g57
g58
NtRp1934
(dp1935
g61
(dp1936
g69
I4
ssg70
g1930
sg63
(lp1937
S'True'
p1938
asbasbasbag56
(g72
g58
NtRp1939
(dp1940
g61
(dp1941
sg70
g821
sg63
(lp1942
g56
(g77
g58
NtRp1943
(dp1944
g61
(dp1945
g81
g82
ssg70
g1939
sg63
(lp1946
S'wsgi_run_once'
p1947
asbag56
(g77
g58
NtRp1948
(dp1949
g61
(dp1950
g88
g89
ssg70
g1939
sg63
(lp1951
S':'
asbag56
(g77
g58
NtRp1952
(dp1953
g61
(dp1954
sg70
g1939
sg63
(lp1955
g56
(g57
g58
NtRp1956
(dp1957
g61
(dp1958
g69
I4
ssg70
g1952
sg63
(lp1959
g99
asbasbasbag56
(g72
g58
NtRp1960
(dp1961
g61
(dp1962
sg70
g821
sg63
(lp1963
g56
(g77
g58
NtRp1964
(dp1965
g61
(dp1966
g81
g82
ssg70
g1960
sg63
(lp1967
S'wsgi_url_scheme'
p1968
asbag56
(g77
g58
NtRp1969
(dp1970
g61
(dp1971
g88
g89
ssg70
g1960
sg63
(lp1972
S':'
asbag56
(g77
g58
NtRp1973
(dp1974
g61
(dp1975
sg70
g1960
sg63
(lp1976
g56
(g57
g58
NtRp1977
(dp1978
g61
(dp1979
g69
I4
ssg70
g1973
sg63
(lp1980
S'https'
p1981
asbasbasbag56
(g72
g58
NtRp1982
(dp1983
g61
(dp1984
sg70
g821
sg63
(lp1985
g56
(g77
g58
NtRp1986
(dp1987
g61
(dp1988
g81
g82
ssg70
g1982
sg63
(lp1989
S'wsgi_version'
p1990
asbag56
(g77
g58
NtRp1991
(dp1992
g61
(dp1993
g88
g89
ssg70
g1982
sg63
(lp1994
S':'
asbag56
(g77
g58
NtRp1995
(dp1996
g61
(dp1997
sg70
g1982
sg63
(lp1998
g56
(g57
g58
NtRp1999
(dp2000
g61
(dp2001
g69
I4
ssg70
g1995
sg63
(lp2002
g56
(g65
g58
NtRp2003
(dp2004
g61
(dp2005
g69
I3
ssg70
Nsg63
(lp2006
g56
(g72
g58
NtRp2007
(dp2008
g61
(dp2009
sg70
g2003
sg63
(lp2010
g56
(g77
g58
NtRp2011
(dp2012
g61
(dp2013
sg70
g2007
sg63
(lp2014
g56
(g57
g58
NtRp2015
(dp2016
g61
(dp2017
g69
I3
ssg70
g2011
sg63
(lp2018
S'1'
asbasbasbag56
(g72
g58
NtRp2019
(dp2020
g61
(dp2021
sg70
g2003
sg63
(lp2022
g56
(g77
g58
NtRp2023
(dp2024
g61
(dp2025
sg70
g2019
sg63
(lp2026
g56
(g57
g58
NtRp2027
(dp2028
g61
(dp2029
g69
I3
ssg70
g2023
sg63
(lp2030
S'1'
asbasbasbasbasbasbasbasbasbasbasbag56
(g72
g58
NtRp2031
(dp2032
g61
(dp2033
sg70
g66
sg63
(lp2034
g56
(g77
g58
NtRp2035
(dp2036
g61
(dp2037
g81
g82
ssg70
g2031
sg63
(lp2038
S'extension'
p2039
asbag56
(g77
g58
NtRp2040
(dp2041
g61
(dp2042
g88
g89
ssg70
g2031
sg63
(lp2043
S':'
asbag56
(g77
g58
NtRp2044
(dp2045
g61
(dp2046
sg70
g2031
sg63
(lp2047
g56
(g57
g58
NtRp2048
(dp2049
g61
(dp2050
g69
I5
ssg70
g2044
sg63
(lp2051
S'html'
p2052
asbasbasbag56
(g72
g58
NtRp2053
(dp2054
g61
(dp2055
sg70
g66
sg63
(lp2056
g56
(g77
g58
NtRp2057
(dp2058
g61
(dp2059
g81
g82
ssg70
g2053
sg63
(lp2060
S'folder'
p2061
asbag56
(g77
g58
NtRp2062
(dp2063
g61
(dp2064
g88
g89
ssg70
g2053
sg63
(lp2065
S':'
asbag56
(g77
g58
NtRp2066
(dp2067
g61
(dp2068
sg70
g2053
sg63
(lp2069
g56
(g57
g58
NtRp2070
(dp2071
g61
(dp2072
g69
I5
ssg70
g2066
sg63
(lp2073
S'/home/www-data/web2py/applications/scrum/'
p2074
asbasbasbag56
(g72
g58
NtRp2075
(dp2076
g61
(dp2077
sg70
g66
sg63
(lp2078
g56
(g77
g58
NtRp2079
(dp2080
g61
(dp2081
g81
g82
ssg70
g2075
sg63
(lp2082
S'function'
p2083
asbag56
(g77
g58
NtRp2084
(dp2085
g61
(dp2086
g88
g89
ssg70
g2075
sg63
(lp2087
S':'
asbag56
(g77
g58
NtRp2088
(dp2089
g61
(dp2090
sg70
g2075
sg63
(lp2091
g56
(g57
g58
NtRp2092
(dp2093
g61
(dp2094
g69
I5
ssg70
g2088
sg63
(lp2095
S'index'
p2096
asbasbasbag56
(g72
g58
NtRp2097
(dp2098
g61
(dp2099
sg70
g66
sg63
(lp2100
g56
(g77
g58
NtRp2101
(dp2102
g61
(dp2103
g81
g82
ssg70
g2097
sg63
(lp2104
S'get_vars'
p2105
asbag56
(g77
g58
NtRp2106
(dp2107
g61
(dp2108
g88
g89
ssg70
g2097
sg63
(lp2109
S':'
asbag56
(g77
g58
NtRp2110
(dp2111
g61
(dp2112
sg70
g2097
sg63
(lp2113
g56
(g57
g58
NtRp2114
(dp2115
g61
(dp2116
g69
I5
ssg70
g2110
sg63
(lp2117
g56
(g65
g58
NtRp2118
(dp2119
g61
(dp2120
g69
I4
ssg70
Nsg63
(lp2121
sbasbasbasbag56
(g72
g58
NtRp2122
(dp2123
g61
(dp2124
sg70
g66
sg63
(lp2125
g56
(g77
g58
NtRp2126
(dp2127
g61
(dp2128
g81
g82
ssg70
g2122
sg63
(lp2129
S'is_https'
p2130
asbag56
(g77
g58
NtRp2131
(dp2132
g61
(dp2133
g88
g89
ssg70
g2122
sg63
(lp2134
S':'
asbag56
(g77
g58
NtRp2135
(dp2136
g61
(dp2137
sg70
g2122
sg63
(lp2138
g56
(g57
g58
NtRp2139
(dp2140
g61
(dp2141
g69
I5
ssg70
g2135
sg63
(lp2142
g1938
asbasbasbag56
(g72
g58
NtRp2143
(dp2144
g61
(dp2145
sg70
g66
sg63
(lp2146
g56
(g77
g58
NtRp2147
(dp2148
g61
(dp2149
g81
g82
ssg70
g2143
sg63
(lp2150
S'is_local'
p2151
asbag56
(g77
g58
NtRp2152
(dp2153
g61
(dp2154
g88
g89
ssg70
g2143
sg63
(lp2155
S':'
asbag56
(g77
g58
NtRp2156
(dp2157
g61
(dp2158
sg70
g2143
sg63
(lp2159
g56
(g57
g58
NtRp2160
(dp2161
g61
(dp2162
g69
I5
ssg70
g2156
sg63
(lp2163
g1938
asbasbasbag56
(g72
g58
NtRp2164
(dp2165
g61
(dp2166
sg70
g66
sg63
(lp2167
g56
(g77
g58
NtRp2168
(dp2169
g61
(dp2170
g81
g82
ssg70
g2164
sg63
(lp2171
S'is_restful'
p2172
asbag56
(g77
g58
NtRp2173
(dp2174
g61
(dp2175
g88
g89
ssg70
g2164
sg63
(lp2176
S':'
asbag56
(g77
g58
NtRp2177
(dp2178
g61
(dp2179
sg70
g2164
sg63
(lp2180
g56
(g57
g58
NtRp2181
(dp2182
g61
(dp2183
g69
I5
ssg70
g2177
sg63
(lp2184
g99
asbasbasbag56
(g72
g58
NtRp2185
(dp2186
g61
(dp2187
sg70
g66
sg63
(lp2188
g56
(g77
g58
NtRp2189
(dp2190
g61
(dp2191
g81
g82
ssg70
g2185
sg63
(lp2192
S'now'
p2193
asbag56
(g77
g58
NtRp2194
(dp2195
g61
(dp2196
g88
g89
ssg70
g2185
sg63
(lp2197
S':'
asbag56
(g77
g58
NtRp2198
(dp2199
g61
(dp2200
sg70
g2185
sg63
(lp2201
g56
(g57
g58
NtRp2202
(dp2203
g61
(dp2204
g69
I5
ssg70
g2198
sg63
(lp2205
S'datetime.datetime(2011, 9, 8, 16, 6, 21, 878375)'
p2206
asbasbasbag56
(g72
g58
NtRp2207
(dp2208
g61
(dp2209
sg70
g66
sg63
(lp2210
g56
(g77
g58
NtRp2211
(dp2212
g61
(dp2213
g81
g82
ssg70
g2207
sg63
(lp2214
S'post_vars'
p2215
asbag56
(g77
g58
NtRp2216
(dp2217
g61
(dp2218
g88
g89
ssg70
g2207
sg63
(lp2219
S':'
asbag56
(g77
g58
NtRp2220
(dp2221
g61
(dp2222
sg70
g2207
sg63
(lp2223
g56
(g57
g58
NtRp2224
(dp2225
g61
(dp2226
g69
I5
ssg70
g2220
sg63
(lp2227
g56
(g65
g58
NtRp2228
(dp2229
g61
(dp2230
g69
I4
ssg70
Nsg63
(lp2231
sbasbasbasbag56
(g72
g58
NtRp2232
(dp2233
g61
(dp2234
sg70
g66
sg63
(lp2235
g56
(g77
g58
NtRp2236
(dp2237
g61
(dp2238
g81
g82
ssg70
g2232
sg63
(lp2239
S'url'
p2240
asbag56
(g77
g58
NtRp2241
(dp2242
g61
(dp2243
g88
g89
ssg70
g2232
sg63
(lp2244
S':'
asbag56
(g77
g58
NtRp2245
(dp2246
g61
(dp2247
sg70
g2232
sg63
(lp2248
g56
(g57
g58
NtRp2249
(dp2250
g61
(dp2251
g69
I5
ssg70
g2245
sg63
(lp2252
S'/scrum/ticket/index'
p2253
asbasbasbag56
(g72
g58
NtRp2254
(dp2255
g61
(dp2256
sg70
g66
sg63
(lp2257
g56
(g77
g58
NtRp2258
(dp2259
g61
(dp2260
g81
g82
ssg70
g2254
sg63
(lp2261
S'uuid'
p2262
asbag56
(g77
g58
NtRp2263
(dp2264
g61
(dp2265
g88
g89
ssg70
g2254
sg63
(lp2266
S':'
asbag56
(g77
g58
NtRp2267
(dp2268
g61
(dp2269
sg70
g2254
sg63
(lp2270
g56
(g57
g58
NtRp2271
(dp2272
g61
(dp2273
g69
I5
ssg70
g2267
sg63
(lp2274
S'scrum/127.0.0.1.2011-09-08.16-06-21.0bf054da-1c84-4ecd-ba18-f7d5d1502435'
p2275
asbasbasbag56
(g72
g58
NtRp2276
(dp2277
g61
(dp2278
sg70
g66
sg63
(lp2279
g56
(g77
g58
NtRp2280
(dp2281
g61
(dp2282
g81
g82
ssg70
g2276
sg63
(lp2283
S'vars'
p2284
asbag56
(g77
g58
NtRp2285
(dp2286
g61
(dp2287
g88
g89
ssg70
g2276
sg63
(lp2288
S':'
asbag56
(g77
g58
NtRp2289
(dp2290
g61
(dp2291
sg70
g2276
sg63
(lp2292
g56
(g57
g58
NtRp2293
(dp2294
g61
(dp2295
g69
I5
ssg70
g2289
sg63
(lp2296
g56
(g65
g58
NtRp2297
(dp2298
g61
(dp2299
g69
I4
ssg70
Nsg63
(lp2300
sbasbasbasbag56
(g72
g58
NtRp2301
(dp2302
g61
(dp2303
sg70
g66
sg63
(lp2304
g56
(g77
g58
NtRp2305
(dp2306
g61
(dp2307
g81
g82
ssg70
g2301
sg63
(lp2308
S'wsgi'
p2309
asbag56
(g77
g58
NtRp2310
(dp2311
g61
(dp2312
g88
g89
ssg70
g2301
sg63
(lp2313
S':'
asbag56
(g77
g58
NtRp2314
(dp2315
g61
(dp2316
sg70
g2301
sg63
(lp2317
g56
(g57
g58
NtRp2318
(dp2319
g61
(dp2320
g69
I5
ssg70
g2314
sg63
(lp2321
g56
(g65
g58
NtRp2322
(dp2323
g61
(dp2324
g69
I4
ssg70
Nsg63
(lp2325
g56
(g72
g58
NtRp2326
(dp2327
g61
(dp2328
sg70
g2322
sg63
(lp2329
g56
(g77
g58
NtRp2330
(dp2331
g61
(dp2332
g81
g82
ssg70
g2326
sg63
(lp2333
S'environ'
p2334
asbag56
(g77
g58
NtRp2335
(dp2336
g61
(dp2337
g88
g89
ssg70
g2326
sg63
(lp2338
S':'
asbag56
(g77
g58
NtRp2339
(dp2340
g61
(dp2341
sg70
g2326
sg63
(lp2342
g56
(g57
g58
NtRp2343
(dp2344
g61
(dp2345
g69
I4
ssg70
g2339
sg63
(lp2346
g56
(g65
g58
NtRp2347
(dp2348
g61
(dp2349
g69
I3
ssg70
Nsg63
(lp2350
g56
(g72
g58
NtRp2351
(dp2352
g61
(dp2353
sg70
g2347
sg63
(lp2354
g56
(g77
g58
NtRp2355
(dp2356
g61
(dp2357
g81
g82
ssg70
g2351
sg63
(lp2358
S'DOCUMENT_ROOT'
p2359
asbag56
(g77
g58
NtRp2360
(dp2361
g61
(dp2362
g88
g89
ssg70
g2351
sg63
(lp2363
S':'
asbag56
(g77
g58
NtRp2364
(dp2365
g61
(dp2366
sg70
g2351
sg63
(lp2367
g56
(g57
g58
NtRp2368
(dp2369
g61
(dp2370
g69
I3
ssg70
g2364
sg63
(lp2371
g933
asbasbasbag56
(g72
g58
NtRp2372
(dp2373
g61
(dp2374
sg70
g2347
sg63
(lp2375
g56
(g77
g58
NtRp2376
(dp2377
g61
(dp2378
g81
g82
ssg70
g2372
sg63
(lp2379
S'GATEWAY_INTERFACE'
p2380
asbag56
(g77
g58
NtRp2381
(dp2382
g61
(dp2383
g88
g89
ssg70
g2372
sg63
(lp2384
S':'
asbag56
(g77
g58
NtRp2385
(dp2386
g61
(dp2387
sg70
g2372
sg63
(lp2388
g56
(g57
g58
NtRp2389
(dp2390
g61
(dp2391
g69
I3
ssg70
g2385
sg63
(lp2392
g955
asbasbasbag56
(g72
g58
NtRp2393
(dp2394
g61
(dp2395
sg70
g2347
sg63
(lp2396
g56
(g77
g58
NtRp2397
(dp2398
g61
(dp2399
g81
g82
ssg70
g2393
sg63
(lp2400
S'HTTPS'
p2401
asbag56
(g77
g58
NtRp2402
(dp2403
g61
(dp2404
g88
g89
ssg70
g2393
sg63
(lp2405
S':'
asbag56
(g77
g58
NtRp2406
(dp2407
g61
(dp2408
sg70
g2393
sg63
(lp2409
g56
(g57
g58
NtRp2410
(dp2411
g61
(dp2412
g69
I3
ssg70
g2406
sg63
(lp2413
S'1'
asbasbasbag56
(g72
g58
NtRp2414
(dp2415
g61
(dp2416
sg70
g2347
sg63
(lp2417
g56
(g77
g58
NtRp2418
(dp2419
g61
(dp2420
g81
g82
ssg70
g2414
sg63
(lp2421
S'HTTP_ACCEPT'
p2422
asbag56
(g77
g58
NtRp2423
(dp2424
g61
(dp2425
g88
g89
ssg70
g2414
sg63
(lp2426
S':'
asbag56
(g77
g58
NtRp2427
(dp2428
g61
(dp2429
sg70
g2414
sg63
(lp2430
g56
(g57
g58
NtRp2431
(dp2432
g61
(dp2433
g69
I3
ssg70
g2427
sg63
(lp2434
g998
asbasbasbag56
(g72
g58
NtRp2435
(dp2436
g61
(dp2437
sg70
g2347
sg63
(lp2438
g56
(g77
g58
NtRp2439
(dp2440
g61
(dp2441
g81
g82
ssg70
g2435
sg63
(lp2442
S'HTTP_ACCEPT_ENCODING'
p2443
asbag56
(g77
g58
NtRp2444
(dp2445
g61
(dp2446
g88
g89
ssg70
g2435
sg63
(lp2447
S':'
asbag56
(g77
g58
NtRp2448
(dp2449
g61
(dp2450
sg70
g2435
sg63
(lp2451
g56
(g57
g58
NtRp2452
(dp2453
g61
(dp2454
g69
I3
ssg70
g2448
sg63
(lp2455
g1020
asbasbasbag56
(g72
g58
NtRp2456
(dp2457
g61
(dp2458
sg70
g2347
sg63
(lp2459
g56
(g77
g58
NtRp2460
(dp2461
g61
(dp2462
g81
g82
ssg70
g2456
sg63
(lp2463
S'HTTP_ACCEPT_LANGUAGE'
p2464
asbag56
(g77
g58
NtRp2465
(dp2466
g61
(dp2467
g88
g89
ssg70
g2456
sg63
(lp2468
S':'
asbag56
(g77
g58
NtRp2469
(dp2470
g61
(dp2471
sg70
g2456
sg63
(lp2472
g56
(g57
g58
NtRp2473
(dp2474
g61
(dp2475
g69
I3
ssg70
g2469
sg63
(lp2476
g1042
asbasbasbag56
(g72
g58
NtRp2477
(dp2478
g61
(dp2479
sg70
g2347
sg63
(lp2480
g56
(g77
g58
NtRp2481
(dp2482
g61
(dp2483
g81
g82
ssg70
g2477
sg63
(lp2484
S'HTTP_CONNECTION'
p2485
asbag56
(g77
g58
NtRp2486
(dp2487
g61
(dp2488
g88
g89
ssg70
g2477
sg63
(lp2489
S':'
asbag56
(g77
g58
NtRp2490
(dp2491
g61
(dp2492
sg70
g2477
sg63
(lp2493
g56
(g57
g58
NtRp2494
(dp2495
g61
(dp2496
g69
I3
ssg70
g2490
sg63
(lp2497
g1064
asbasbasbag56
(g72
g58
NtRp2498
(dp2499
g61
(dp2500
sg70
g2347
sg63
(lp2501
g56
(g77
g58
NtRp2502
(dp2503
g61
(dp2504
g81
g82
ssg70
g2498
sg63
(lp2505
S'HTTP_COOKIE'
p2506
asbag56
(g77
g58
NtRp2507
(dp2508
g61
(dp2509
g88
g89
ssg70
g2498
sg63
(lp2510
S':'
asbag56
(g77
g58
NtRp2511
(dp2512
g61
(dp2513
sg70
g2498
sg63
(lp2514
g56
(g57
g58
NtRp2515
(dp2516
g61
(dp2517
g69
I3
ssg70
g2511
sg63
(lp2518
g1086
asbasbasbag56
(g72
g58
NtRp2519
(dp2520
g61
(dp2521
sg70
g2347
sg63
(lp2522
g56
(g77
g58
NtRp2523
(dp2524
g61
(dp2525
g81
g82
ssg70
g2519
sg63
(lp2526
S'HTTP_HOST'
p2527
asbag56
(g77
g58
NtRp2528
(dp2529
g61
(dp2530
g88
g89
ssg70
g2519
sg63
(lp2531
S':'
asbag56
(g77
g58
NtRp2532
(dp2533
g61
(dp2534
sg70
g2519
sg63
(lp2535
g56
(g57
g58
NtRp2536
(dp2537
g61
(dp2538
g69
I3
ssg70
g2532
sg63
(lp2539
g1108
asbasbasbag56
(g72
g58
NtRp2540
(dp2541
g61
(dp2542
sg70
g2347
sg63
(lp2543
g56
(g77
g58
NtRp2544
(dp2545
g61
(dp2546
g81
g82
ssg70
g2540
sg63
(lp2547
S'HTTP_USER_AGENT'
p2548
asbag56
(g77
g58
NtRp2549
(dp2550
g61
(dp2551
g88
g89
ssg70
g2540
sg63
(lp2552
S':'
asbag56
(g77
g58
NtRp2553
(dp2554
g61
(dp2555
sg70
g2540
sg63
(lp2556
g56
(g57
g58
NtRp2557
(dp2558
g61
(dp2559
g69
I3
ssg70
g2553
sg63
(lp2560
g1130
asbasbasbag56
(g72
g58
NtRp2561
(dp2562
g61
(dp2563
sg70
g2347
sg63
(lp2564
g56
(g77
g58
NtRp2565
(dp2566
g61
(dp2567
g81
g82
ssg70
g2561
sg63
(lp2568
S'PATH_INFO'
p2569
asbag56
(g77
g58
NtRp2570
(dp2571
g61
(dp2572
g88
g89
ssg70
g2561
sg63
(lp2573
S':'
asbag56
(g77
g58
NtRp2574
(dp2575
g61
(dp2576
sg70
g2561
sg63
(lp2577
g56
(g57
g58
NtRp2578
(dp2579
g61
(dp2580
g69
I3
ssg70
g2574
sg63
(lp2581
g1437
asbasbasbag56
(g72
g58
NtRp2582
(dp2583
g61
(dp2584
sg70
g2347
sg63
(lp2585
g56
(g77
g58
NtRp2586
(dp2587
g61
(dp2588
g81
g82
ssg70
g2582
sg63
(lp2589
S'PATH_TRANSLATED'
p2590
asbag56
(g77
g58
NtRp2591
(dp2592
g61
(dp2593
g88
g89
ssg70
g2582
sg63
(lp2594
S':'
asbag56
(g77
g58
NtRp2595
(dp2596
g61
(dp2597
sg70
g2582
sg63
(lp2598
g56
(g57
g58
NtRp2599
(dp2600
g61
(dp2601
g69
I3
ssg70
g2595
sg63
(lp2602
g1459
asbasbasbag56
(g72
g58
NtRp2603
(dp2604
g61
(dp2605
sg70
g2347
sg63
(lp2606
g56
(g77
g58
NtRp2607
(dp2608
g61
(dp2609
g81
g82
ssg70
g2603
sg63
(lp2610
S'QUERY_STRING'
p2611
asbag56
(g77
g58
NtRp2612
(dp2613
g61
(dp2614
g88
g89
ssg70
g2603
sg63
(lp2615
S':'
asbag56
(g77
g58
NtRp2616
(dp2617
g61
(dp2618
sg70
g2603
sg63
(lp2619
g56
(g57
g58
NtRp2620
(dp2621
g61
(dp2622
g69
I3
ssg70
g2616
sg63
(lp2623
S''
asbasbasbag56
(g72
g58
NtRp2624
(dp2625
g61
(dp2626
sg70
g2347
sg63
(lp2627
g56
(g77
g58
NtRp2628
(dp2629
g61
(dp2630
g81
g82
ssg70
g2624
sg63
(lp2631
S'REMOTE_ADDR'
p2632
asbag56
(g77
g58
NtRp2633
(dp2634
g61
(dp2635
g88
g89
ssg70
g2624
sg63
(lp2636
S':'
asbag56
(g77
g58
NtRp2637
(dp2638
g61
(dp2639
sg70
g2624
sg63
(lp2640
g56
(g57
g58
NtRp2641
(dp2642
g61
(dp2643
g69
I3
ssg70
g2637
sg63
(lp2644
g189
asbasbasbag56
(g72
g58
NtRp2645
(dp2646
g61
(dp2647
sg70
g2347
sg63
(lp2648
g56
(g77
g58
NtRp2649
(dp2650
g61
(dp2651
g81
g82
ssg70
g2645
sg63
(lp2652
S'REMOTE_PORT'
p2653
asbag56
(g77
g58
NtRp2654
(dp2655
g61
(dp2656
g88
g89
ssg70
g2645
sg63
(lp2657
S':'
asbag56
(g77
g58
NtRp2658
(dp2659
g61
(dp2660
sg70
g2645
sg63
(lp2661
g56
(g57
g58
NtRp2662
(dp2663
g61
(dp2664
g69
I3
ssg70
g2658
sg63
(lp2665
g1523
asbasbasbag56
(g72
g58
NtRp2666
(dp2667
g61
(dp2668
sg70
g2347
sg63
(lp2669
g56
(g77
g58
NtRp2670
(dp2671
g61
(dp2672
g81
g82
ssg70
g2666
sg63
(lp2673
S'REQUEST_METHOD'
p2674
asbag56
(g77
g58
NtRp2675
(dp2676
g61
(dp2677
g88
g89
ssg70
g2666
sg63
(lp2678
S':'
asbag56
(g77
g58
NtRp2679
(dp2680
g61
(dp2681
sg70
g2666
sg63
(lp2682
g56
(g57
g58
NtRp2683
(dp2684
g61
(dp2685
g69
I3
ssg70
g2679
sg63
(lp2686
g1545
asbasbasbag56
(g72
g58
NtRp2687
(dp2688
g61
(dp2689
sg70
g2347
sg63
(lp2690
g56
(g77
g58
NtRp2691
(dp2692
g61
(dp2693
g81
g82
ssg70
g2687
sg63
(lp2694
S'REQUEST_URI'
p2695
asbag56
(g77
g58
NtRp2696
(dp2697
g61
(dp2698
g88
g89
ssg70
g2687
sg63
(lp2699
S':'
asbag56
(g77
g58
NtRp2700
(dp2701
g61
(dp2702
sg70
g2687
sg63
(lp2703
g56
(g57
g58
NtRp2704
(dp2705
g61
(dp2706
g69
I3
ssg70
g2700
sg63
(lp2707
g1567
asbasbasbag56
(g72
g58
NtRp2708
(dp2709
g61
(dp2710
sg70
g2347
sg63
(lp2711
g56
(g77
g58
NtRp2712
(dp2713
g61
(dp2714
g81
g82
ssg70
g2708
sg63
(lp2715
S'SCRIPT_FILENAME'
p2716
asbag56
(g77
g58
NtRp2717
(dp2718
g61
(dp2719
g88
g89
ssg70
g2708
sg63
(lp2720
S':'
asbag56
(g77
g58
NtRp2721
(dp2722
g61
(dp2723
sg70
g2708
sg63
(lp2724
g56
(g57
g58
NtRp2725
(dp2726
g61
(dp2727
g69
I3
ssg70
g2721
sg63
(lp2728
g1589
asbasbasbag56
(g72
g58
NtRp2729
(dp2730
g61
(dp2731
sg70
g2347
sg63
(lp2732
g56
(g77
g58
NtRp2733
(dp2734
g61
(dp2735
g81
g82
ssg70
g2729
sg63
(lp2736
S'SCRIPT_NAME'
p2737
asbag56
(g77
g58
NtRp2738
(dp2739
g61
(dp2740
g88
g89
ssg70
g2729
sg63
(lp2741
S':'
asbag56
(g77
g58
NtRp2742
(dp2743
g61
(dp2744
sg70
g2729
sg63
(lp2745
g56
(g57
g58
NtRp2746
(dp2747
g61
(dp2748
g69
I3
ssg70
g2742
sg63
(lp2749
S''
asbasbasbag56
(g72
g58
NtRp2750
(dp2751
g61
(dp2752
sg70
g2347
sg63
(lp2753
g56
(g77
g58
NtRp2754
(dp2755
g61
(dp2756
g81
g82
ssg70
g2750
sg63
(lp2757
S'SERVER_ADDR'
p2758
asbag56
(g77
g58
NtRp2759
(dp2760
g61
(dp2761
g88
g89
ssg70
g2750
sg63
(lp2762
S':'
asbag56
(g77
g58
NtRp2763
(dp2764
g61
(dp2765
sg70
g2750
sg63
(lp2766
g56
(g57
g58
NtRp2767
(dp2768
g61
(dp2769
g69
I3
ssg70
g2763
sg63
(lp2770
g1632
asbasbasbag56
(g72
g58
NtRp2771
(dp2772
g61
(dp2773
sg70
g2347
sg63
(lp2774
g56
(g77
g58
NtRp2775
(dp2776
g61
(dp2777
g81
g82
ssg70
g2771
sg63
(lp2778
S'SERVER_ADMIN'
p2779
asbag56
(g77
g58
NtRp2780
(dp2781
g61
(dp2782
g88
g89
ssg70
g2771
sg63
(lp2783
S':'
asbag56
(g77
g58
NtRp2784
(dp2785
g61
(dp2786
sg70
g2771
sg63
(lp2787
g56
(g57
g58
NtRp2788
(dp2789
g61
(dp2790
g69
I3
ssg70
g2784
sg63
(lp2791
g1654
asbasbasbag56
(g72
g58
NtRp2792
(dp2793
g61
(dp2794
sg70
g2347
sg63
(lp2795
g56
(g77
g58
NtRp2796
(dp2797
g61
(dp2798
g81
g82
ssg70
g2792
sg63
(lp2799
S'SERVER_NAME'
p2800
asbag56
(g77
g58
NtRp2801
(dp2802
g61
(dp2803
g88
g89
ssg70
g2792
sg63
(lp2804
S':'
asbag56
(g77
g58
NtRp2805
(dp2806
g61
(dp2807
sg70
g2792
sg63
(lp2808
g56
(g57
g58
NtRp2809
(dp2810
g61
(dp2811
g69
I3
ssg70
g2805
sg63
(lp2812
g1676
asbasbasbag56
(g72
g58
NtRp2813
(dp2814
g61
(dp2815
sg70
g2347
sg63
(lp2816
g56
(g77
g58
NtRp2817
(dp2818
g61
(dp2819
g81
g82
ssg70
g2813
sg63
(lp2820
S'SERVER_PORT'
p2821
asbag56
(g77
g58
NtRp2822
(dp2823
g61
(dp2824
g88
g89
ssg70
g2813
sg63
(lp2825
S':'
asbag56
(g77
g58
NtRp2826
(dp2827
g61
(dp2828
sg70
g2813
sg63
(lp2829
g56
(g57
g58
NtRp2830
(dp2831
g61
(dp2832
g69
I3
ssg70
g2826
sg63
(lp2833
g1698
asbasbasbag56
(g72
g58
NtRp2834
(dp2835
g61
(dp2836
sg70
g2347
sg63
(lp2837
g56
(g77
g58
NtRp2838
(dp2839
g61
(dp2840
g81
g82
ssg70
g2834
sg63
(lp2841
S'SERVER_PROTOCOL'
p2842
asbag56
(g77
g58
NtRp2843
(dp2844
g61
(dp2845
g88
g89
ssg70
g2834
sg63
(lp2846
S':'
asbag56
(g77
g58
NtRp2847
(dp2848
g61
(dp2849
sg70
g2834
sg63
(lp2850
g56
(g57
g58
NtRp2851
(dp2852
g61
(dp2853
g69
I3
ssg70
g2847
sg63
(lp2854
g1720
asbasbasbag56
(g72
g58
NtRp2855
(dp2856
g61
(dp2857
sg70
g2347
sg63
(lp2858
g56
(g77
g58
NtRp2859
(dp2860
g61
(dp2861
g81
g82
ssg70
g2855
sg63
(lp2862
S'SERVER_SIGNATURE'
p2863
asbag56
(g77
g58
NtRp2864
(dp2865
g61
(dp2866
g88
g89
ssg70
g2855
sg63
(lp2867
S':'
asbag56
(g77
g58
NtRp2868
(dp2869
g61
(dp2870
sg70
g2855
sg63
(lp2871
g56
(g57
g58
NtRp2872
(dp2873
g61
(dp2874
g69
I3
ssg70
g2868
sg63
(lp2875
g1742
asbasbasbag56
(g72
g58
NtRp2876
(dp2877
g61
(dp2878
sg70
g2347
sg63
(lp2879
g56
(g77
g58
NtRp2880
(dp2881
g61
(dp2882
g81
g82
ssg70
g2876
sg63
(lp2883
S'SERVER_SOFTWARE'
p2884
asbag56
(g77
g58
NtRp2885
(dp2886
g61
(dp2887
g88
g89
ssg70
g2876
sg63
(lp2888
S':'
asbag56
(g77
g58
NtRp2889
(dp2890
g61
(dp2891
sg70
g2876
sg63
(lp2892
g56
(g57
g58
NtRp2893
(dp2894
g61
(dp2895
g69
I3
ssg70
g2889
sg63
(lp2896
g1764
asbasbasbag56
(g72
g58
NtRp2897
(dp2898
g61
(dp2899
sg70
g2347
sg63
(lp2900
g56
(g77
g58
NtRp2901
(dp2902
g61
(dp2903
g81
g82
ssg70
g2897
sg63
(lp2904
S'SSL_TLS_SNI'
p2905
asbag56
(g77
g58
NtRp2906
(dp2907
g61
(dp2908
g88
g89
ssg70
g2897
sg63
(lp2909
S':'
asbag56
(g77
g58
NtRp2910
(dp2911
g61
(dp2912
sg70
g2897
sg63
(lp2913
g56
(g57
g58
NtRp2914
(dp2915
g61
(dp2916
g69
I3
ssg70
g2910
sg63
(lp2917
g1786
asbasbasbag56
(g72
g58
NtRp2918
(dp2919
g61
(dp2920
sg70
g2347
sg63
(lp2921
g56
(g77
g58
NtRp2922
(dp2923
g61
(dp2924
g81
g82
ssg70
g2918
sg63
(lp2925
S'mod_wsgi.application_group'
p2926
asbag56
(g77
g58
NtRp2927
(dp2928
g61
(dp2929
g88
g89
ssg70
g2918
sg63
(lp2930
S':'
asbag56
(g77
g58
NtRp2931
(dp2932
g61
(dp2933
sg70
g2918
sg63
(lp2934
g56
(g57
g58
NtRp2935
(dp2936
g61
(dp2937
g69
I3
ssg70
g2931
sg63
(lp2938
g1194
asbasbasbag56
(g72
g58
NtRp2939
(dp2940
g61
(dp2941
sg70
g2347
sg63
(lp2942
g56
(g77
g58
NtRp2943
(dp2944
g61
(dp2945
g81
g82
ssg70
g2939
sg63
(lp2946
S'mod_wsgi.callable_object'
p2947
asbag56
(g77
g58
NtRp2948
(dp2949
g61
(dp2950
g88
g89
ssg70
g2939
sg63
(lp2951
S':'
asbag56
(g77
g58
NtRp2952
(dp2953
g61
(dp2954
sg70
g2939
sg63
(lp2955
g56
(g57
g58
NtRp2956
(dp2957
g61
(dp2958
g69
I3
ssg70
g2952
sg63
(lp2959
g1216
asbasbasbag56
(g72
g58
NtRp2960
(dp2961
g61
(dp2962
sg70
g2347
sg63
(lp2963
g56
(g77
g58
NtRp2964
(dp2965
g61
(dp2966
g81
g82
ssg70
g2960
sg63
(lp2967
S'mod_wsgi.handler_script'
p2968
asbag56
(g77
g58
NtRp2969
(dp2970
g61
(dp2971
g88
g89
ssg70
g2960
sg63
(lp2972
S':'
asbag56
(g77
g58
NtRp2973
(dp2974
g61
(dp2975
sg70
g2960
sg63
(lp2976
g56
(g57
g58
NtRp2977
(dp2978
g61
(dp2979
g69
I3
ssg70
g2973
sg63
(lp2980
S''
asbasbasbag56
(g72
g58
NtRp2981
(dp2982
g61
(dp2983
sg70
g2347
sg63
(lp2984
g56
(g77
g58
NtRp2985
(dp2986
g61
(dp2987
g81
g82
ssg70
g2981
sg63
(lp2988
S'mod_wsgi.input_chunked'
p2989
asbag56
(g77
g58
NtRp2990
(dp2991
g61
(dp2992
g88
g89
ssg70
g2981
sg63
(lp2993
S':'
asbag56
(g77
g58
NtRp2994
(dp2995
g61
(dp2996
sg70
g2981
sg63
(lp2997
g56
(g57
g58
NtRp2998
(dp2999
g61
(dp3000
g69
I3
ssg70
g2994
sg63
(lp3001
S'0'
asbasbasbag56
(g72
g58
NtRp3002
(dp3003
g61
(dp3004
sg70
g2347
sg63
(lp3005
g56
(g77
g58
NtRp3006
(dp3007
g61
(dp3008
g81
g82
ssg70
g3002
sg63
(lp3009
S'mod_wsgi.listener_host'
p3010
asbag56
(g77
g58
NtRp3011
(dp3012
g61
(dp3013
g88
g89
ssg70
g3002
sg63
(lp3014
S':'
asbag56
(g77
g58
NtRp3015
(dp3016
g61
(dp3017
sg70
g3002
sg63
(lp3018
g56
(g57
g58
NtRp3019
(dp3020
g61
(dp3021
g69
I3
ssg70
g3015
sg63
(lp3022
S''
asbasbasbag56
(g72
g58
NtRp3023
(dp3024
g61
(dp3025
sg70
g2347
sg63
(lp3026
g56
(g77
g58
NtRp3027
(dp3028
g61
(dp3029
g81
g82
ssg70
g3023
sg63
(lp3030
S'mod_wsgi.listener_port'
p3031
asbag56
(g77
g58
NtRp3032
(dp3033
g61
(dp3034
g88
g89
ssg70
g3023
sg63
(lp3035
S':'
asbag56
(g77
g58
NtRp3036
(dp3037
g61
(dp3038
sg70
g3023
sg63
(lp3039
g56
(g57
g58
NtRp3040
(dp3041
g61
(dp3042
g69
I3
ssg70
g3036
sg63
(lp3043
g1301
asbasbasbag56
(g72
g58
NtRp3044
(dp3045
g61
(dp3046
sg70
g2347
sg63
(lp3047
g56
(g77
g58
NtRp3048
(dp3049
g61
(dp3050
g81
g82
ssg70
g3044
sg63
(lp3051
S'mod_wsgi.process_group'
p3052
asbag56
(g77
g58
NtRp3053
(dp3054
g61
(dp3055
g88
g89
ssg70
g3044
sg63
(lp3056
S':'
asbag56
(g77
g58
NtRp3057
(dp3058
g61
(dp3059
sg70
g3044
sg63
(lp3060
g56
(g57
g58
NtRp3061
(dp3062
g61
(dp3063
g69
I3
ssg70
g3057
sg63
(lp3064
g1323
asbasbasbag56
(g72
g58
NtRp3065
(dp3066
g61
(dp3067
sg70
g2347
sg63
(lp3068
g56
(g77
g58
NtRp3069
(dp3070
g61
(dp3071
g81
g82
ssg70
g3065
sg63
(lp3072
S'mod_wsgi.request_handler'
p3073
asbag56
(g77
g58
NtRp3074
(dp3075
g61
(dp3076
g88
g89
ssg70
g3065
sg63
(lp3077
S':'
asbag56
(g77
g58
NtRp3078
(dp3079
g61
(dp3080
sg70
g3065
sg63
(lp3081
g56
(g57
g58
NtRp3082
(dp3083
g61
(dp3084
g69
I3
ssg70
g3078
sg63
(lp3085
g1345
asbasbasbag56
(g72
g58
NtRp3086
(dp3087
g61
(dp3088
sg70
g2347
sg63
(lp3089
g56
(g77
g58
NtRp3090
(dp3091
g61
(dp3092
g81
g82
ssg70
g3086
sg63
(lp3093
S'mod_wsgi.script_reloading'
p3094
asbag56
(g77
g58
NtRp3095
(dp3096
g61
(dp3097
g88
g89
ssg70
g3086
sg63
(lp3098
S':'
asbag56
(g77
g58
NtRp3099
(dp3100
g61
(dp3101
sg70
g3086
sg63
(lp3102
g56
(g57
g58
NtRp3103
(dp3104
g61
(dp3105
g69
I3
ssg70
g3099
sg63
(lp3106
S'1'
asbasbasbag56
(g72
g58
NtRp3107
(dp3108
g61
(dp3109
sg70
g2347
sg63
(lp3110
g56
(g77
g58
NtRp3111
(dp3112
g61
(dp3113
g81
g82
ssg70
g3107
sg63
(lp3114
S'mod_wsgi.version'
p3115
asbag56
(g77
g58
NtRp3116
(dp3117
g61
(dp3118
g88
g89
ssg70
g3107
sg63
(lp3119
S':'
asbag56
(g77
g58
NtRp3120
(dp3121
g61
(dp3122
sg70
g3107
sg63
(lp3123
g56
(g57
g58
NtRp3124
(dp3125
g61
(dp3126
g69
I3
ssg70
g3120
sg63
(lp3127
g56
(g65
g58
NtRp3128
(dp3129
g61
(dp3130
g69
I2
ssg70
Nsg63
(lp3131
g56
(g72
g58
NtRp3132
(dp3133
g61
(dp3134
sg70
g3128
sg63
(lp3135
g56
(g77
g58
NtRp3136
(dp3137
g61
(dp3138
sg70
g3132
sg63
(lp3139
g56
(g57
g58
NtRp3140
(dp3141
g61
(dp3142
g69
I2
ssg70
g3136
sg63
(lp3143
S'3'
asbasbasbag56
(g72
g58
NtRp3144
(dp3145
g61
(dp3146
sg70
g3128
sg63
(lp3147
g56
(g77
g58
NtRp3148
(dp3149
g61
(dp3150
sg70
g3144
sg63
(lp3151
g56
(g57
g58
NtRp3152
(dp3153
g61
(dp3154
g69
I2
ssg70
g3148
sg63
(lp3155
S'3'
asbasbasbasbasbasbasbag56
(g72
g58
NtRp3156
(dp3157
g61
(dp3158
sg70
g2347
sg63
(lp3159
g56
(g77
g58
NtRp3160
(dp3161
g61
(dp3162
g81
g82
ssg70
g3156
sg63
(lp3163
S'wsgi.errors'
p3164
asbag56
(g77
g58
NtRp3165
(dp3166
g61
(dp3167
g88
g89
ssg70
g3156
sg63
(lp3168
S':'
asbag56
(g77
g58
NtRp3169
(dp3170
g61
(dp3171
sg70
g3156
sg63
(lp3172
g56
(g57
g58
NtRp3173
(dp3174
g61
(dp3175
g69
I3
ssg70
g3169
sg63
(lp3176
S'<mod_wsgi.Log object at 0xb9d3ad68>'
p3177
asbasbasbag56
(g72
g58
NtRp3178
(dp3179
g61
(dp3180
sg70
g2347
sg63
(lp3181
g56
(g77
g58
NtRp3182
(dp3183
g61
(dp3184
g81
g82
ssg70
g3178
sg63
(lp3185
S'wsgi.file_wrapper'
p3186
asbag56
(g77
g58
NtRp3187
(dp3188
g61
(dp3189
g88
g89
ssg70
g3178
sg63
(lp3190
S':'
asbag56
(g77
g58
NtRp3191
(dp3192
g61
(dp3193
sg70
g3178
sg63
(lp3194
g56
(g57
g58
NtRp3195
(dp3196
g61
(dp3197
g69
I3
ssg70
g3191
sg63
(lp3198
S'<built-in method file_wrapper of mod_wsgi.Adapter object at 0xb98df8d8>'
p3199
asbasbasbag56
(g72
g58
NtRp3200
(dp3201
g61
(dp3202
sg70
g2347
sg63
(lp3203
g56
(g77
g58
NtRp3204
(dp3205
g61
(dp3206
g81
g82
ssg70
g3200
sg63
(lp3207
S'wsgi.input'
p3208
asbag56
(g77
g58
NtRp3209
(dp3210
g61
(dp3211
g88
g89
ssg70
g3200
sg63
(lp3212
S':'
asbag56
(g77
g58
NtRp3213
(dp3214
g61
(dp3215
sg70
g3200
sg63
(lp3216
g56
(g57
g58
NtRp3217
(dp3218
g61
(dp3219
g69
I3
ssg70
g3213
sg63
(lp3220
S'<cStringIO.StringO object at 0xb9a08900>'
p3221
asbasbasbag56
(g72
g58
NtRp3222
(dp3223
g61
(dp3224
sg70
g2347
sg63
(lp3225
g56
(g77
g58
NtRp3226
(dp3227
g61
(dp3228
g81
g82
ssg70
g3222
sg63
(lp3229
S'wsgi.multiprocess'
p3230
asbag56
(g77
g58
NtRp3231
(dp3232
g61
(dp3233
g88
g89
ssg70
g3222
sg63
(lp3234
S':'
asbag56
(g77
g58
NtRp3235
(dp3236
g61
(dp3237
sg70
g3222
sg63
(lp3238
g56
(g57
g58
NtRp3239
(dp3240
g61
(dp3241
g69
I3
ssg70
g3235
sg63
(lp3242
g99
asbasbasbag56
(g72
g58
NtRp3243
(dp3244
g61
(dp3245
sg70
g2347
sg63
(lp3246
g56
(g77
g58
NtRp3247
(dp3248
g61
(dp3249
g81
g82
ssg70
g3243
sg63
(lp3250
S'wsgi.multithread'
p3251
asbag56
(g77
g58
NtRp3252
(dp3253
g61
(dp3254
g88
g89
ssg70
g3243
sg63
(lp3255
S':'
asbag56
(g77
g58
NtRp3256
(dp3257
g61
(dp3258
sg70
g3243
sg63
(lp3259
g56
(g57
g58
NtRp3260
(dp3261
g61
(dp3262
g69
I3
ssg70
g3256
sg63
(lp3263
g1938
asbasbasbag56
(g72
g58
NtRp3264
(dp3265
g61
(dp3266
sg70
g2347
sg63
(lp3267
g56
(g77
g58
NtRp3268
(dp3269
g61
(dp3270
g81
g82
ssg70
g3264
sg63
(lp3271
S'wsgi.run_once'
p3272
asbag56
(g77
g58
NtRp3273
(dp3274
g61
(dp3275
g88
g89
ssg70
g3264
sg63
(lp3276
S':'
asbag56
(g77
g58
NtRp3277
(dp3278
g61
(dp3279
sg70
g3264
sg63
(lp3280
g56
(g57
g58
NtRp3281
(dp3282
g61
(dp3283
g69
I3
ssg70
g3277
sg63
(lp3284
g99
asbasbasbag56
(g72
g58
NtRp3285
(dp3286
g61
(dp3287
sg70
g2347
sg63
(lp3288
g56
(g77
g58
NtRp3289
(dp3290
g61
(dp3291
g81
g82
ssg70
g3285
sg63
(lp3292
S'wsgi.url_scheme'
p3293
asbag56
(g77
g58
NtRp3294
(dp3295
g61
(dp3296
g88
g89
ssg70
g3285
sg63
(lp3297
S':'
asbag56
(g77
g58
NtRp3298
(dp3299
g61
(dp3300
sg70
g3285
sg63
(lp3301
g56
(g57
g58
NtRp3302
(dp3303
g61
(dp3304
g69
I3
ssg70
g3298
sg63
(lp3305
g1981
asbasbasbag56
(g72
g58
NtRp3306
(dp3307
g61
(dp3308
sg70
g2347
sg63
(lp3309
g56
(g77
g58
NtRp3310
(dp3311
g61
(dp3312
g81
g82
ssg70
g3306
sg63
(lp3313
S'wsgi.version'
p3314
asbag56
(g77
g58
NtRp3315
(dp3316
g61
(dp3317
g88
g89
ssg70
g3306
sg63
(lp3318
S':'
asbag56
(g77
g58
NtRp3319
(dp3320
g61
(dp3321
sg70
g3306
sg63
(lp3322
g56
(g57
g58
NtRp3323
(dp3324
g61
(dp3325
g69
I3
ssg70
g3319
sg63
(lp3326
S'1'
asbasbasbasbasbasbasbasbasbasbasbasbasbsS'frames'
p3327
(lp3328
(dp3329
S'file'
p3330
S'/home/www-data/web2py/gluon/restricted.py'
p3331
sS'dump'
p3332
(dp3333
S'environment'
p3334
S"{'A': <class 'gluon.html.A'>, 'Auth': <class 'gluon.tools.Auth'>, 'B': <class 'gluon.html.B'>, 'BEAUTIFY': <class 'gluon.html.BEAUTIFY'>, 'BODY': <class 'gluon.html.BODY'>, 'BR': <class 'gluon.html.BR'>, 'BRAZILIAN_DATE': <gluon.validators.IS_DATE object>, 'BUTTON': <class 'gluon.html.BUTTON'>, 'CAT': <class 'gluon.html.CAT'>, 'CENTER': <class 'gluon.html.CENTER'>, ...}"
p3335
sS'ccode'
p3336
S'<code object <module> at 0xb9a0d0b0, file "/home...pplications/scrum/controllers/ticket.py", line 2>'
p3337
ssS'lnum'
p3338
I192
sS'lines'
p3339
(dp3340
I192
S'        exec ccode in environment'
p3341
sI193
S'    except HTTP:'
p3342
sI194
S'        raise'
p3343
sI195
S'    except Exception, error:'
p3344
sI196
S'        # XXX Show exception in Wing IDE if running in debugger'
p3345
sI187
S'    try:'
p3346
sI188
S'        if type(code) == types.CodeType:'
p3347
sI189
S'            ccode = code'
p3348
sI190
S'        else:'
p3349
sI191
S'            ccode = compile2(code,layer)'
p3350
ssS'call'
p3351
S"(code='# coding: utf8# tente algo como\\n@auth.has_member...rm=form)\\n\\nresponse._vars=response._caller(index)\\n', environment={'A': <class 'gluon.html.A'>, 'Auth': <class 'gluon.tools.Auth'>, 'B': <class 'gluon.html.B'>, 'BEAUTIFY': <class 'gluon.html.BEAUTIFY'>, 'BODY': <class 'gluon.html.BODY'>, 'BR': <class 'gluon.html.BR'>, 'BRAZILIAN_DATE': <gluon.validators.IS_DATE object>, 'BUTTON': <class 'gluon.html.BUTTON'>, 'CAT': <class 'gluon.html.CAT'>, 'CENTER': <class 'gluon.html.CENTER'>, ...}, layer='/home/www-data/web2py/applications/scrum/controllers/ticket.py')"
p3352
sS'func'
p3353
S'restricted'
p3354
sa(dp3355
g3330
S'/home/www-data/web2py/applications/scrum/controllers/ticket.py'
p3356
sg3332
(dp3357
S'auth.has_membership'
p3358
S'<bound method Auth.has_membership of <gluon.tools.Auth object>>'
p3359
sS'config.grupo_consultor'
p3360
S'3'
sS'config'
p3361
S"<Row {'grupo_desenvolvedor': 2, 'update_record':...lete_record': <function <lambda> at 0xb99ec1b4>}>"
p3362
sS'auth'
p3363
S'<gluon.tools.Auth object>'
p3364
ssg3338
I2
sg3339
(dp3365
I2
S'@auth.has_membership(config.grupo_consultor)'
p3366
sI3
S'def index():'
p3367
sI4
S'    tickets = db((db.ticket.consultor == auth.user_id) |'
p3368
sI5
S'                 (db.ticket.analista == auth.user_id)).select()'
p3369
sI6
S'    return dict(tickets=tickets)'
p3370
sI7
S''
sI8
S'@auth.requires_membership(config.grupo_consultor)'
p3371
sI9
S'def novo():'
p3372
sI10
S"    response.view = 'simple_form.html'"
p3373
sI11
S'    db.ticket.consultor.default = auth.user_id'
p3374
ssg3351
S'()'
p3375
sg3353
S'<module>'
p3376
sasS'pyver'
p3377
S'Python 2.7.1+: /usr/bin/python'
p3378
sS'session'
p3379
g56
(g57
g58
NtRp3380
(dp3381
g61
(dp3382
sg63
(lp3383
g56
(g65
g58
NtRp3384
(dp3385
g61
(dp3386
g69
I5
ssg70
Nsg63
(lp3387
g56
(g72
g58
NtRp3388
(dp3389
g61
(dp3390
sg70
g3384
sg63
(lp3391
g56
(g77
g58
NtRp3392
(dp3393
g61
(dp3394
g81
g82
ssg70
g3388
sg63
(lp3395
S'auth'
p3396
asbag56
(g77
g58
NtRp3397
(dp3398
g61
(dp3399
g88
g89
ssg70
g3388
sg63
(lp3400
S':'
asbag56
(g77
g58
NtRp3401
(dp3402
g61
(dp3403
sg70
g3388
sg63
(lp3404
g56
(g57
g58
NtRp3405
(dp3406
g61
(dp3407
g69
I5
ssg70
g3401
sg63
(lp3408
g56
(g65
g58
NtRp3409
(dp3410
g61
(dp3411
g69
I4
ssg70
Nsg63
(lp3412
g56
(g72
g58
NtRp3413
(dp3414
g61
(dp3415
sg70
g3409
sg63
(lp3416
g56
(g77
g58
NtRp3417
(dp3418
g61
(dp3419
g81
g82
ssg70
g3413
sg63
(lp3420
S'expiration'
p3421
asbag56
(g77
g58
NtRp3422
(dp3423
g61
(dp3424
g88
g89
ssg70
g3413
sg63
(lp3425
S':'
asbag56
(g77
g58
NtRp3426
(dp3427
g61
(dp3428
sg70
g3413
sg63
(lp3429
g56
(g57
g58
NtRp3430
(dp3431
g61
(dp3432
g69
I4
ssg70
g3426
sg63
(lp3433
S'3600'
p3434
asbasbasbag56
(g72
g58
NtRp3435
(dp3436
g61
(dp3437
sg70
g3409
sg63
(lp3438
g56
(g77
g58
NtRp3439
(dp3440
g61
(dp3441
g81
g82
ssg70
g3435
sg63
(lp3442
S'hmac_key'
p3443
asbag56
(g77
g58
NtRp3444
(dp3445
g61
(dp3446
g88
g89
ssg70
g3435
sg63
(lp3447
S':'
asbag56
(g77
g58
NtRp3448
(dp3449
g61
(dp3450
sg70
g3435
sg63
(lp3451
g56
(g57
g58
NtRp3452
(dp3453
g61
(dp3454
g69
I4
ssg70
g3448
sg63
(lp3455
S'c18b391f-62d1-4a51-8b2b-1e809e4c900d'
p3456
asbasbasbag56
(g72
g58
NtRp3457
(dp3458
g61
(dp3459
sg70
g3409
sg63
(lp3460
g56
(g77
g58
NtRp3461
(dp3462
g61
(dp3463
g81
g82
ssg70
g3457
sg63
(lp3464
S'last_visit'
p3465
asbag56
(g77
g58
NtRp3466
(dp3467
g61
(dp3468
g88
g89
ssg70
g3457
sg63
(lp3469
S':'
asbag56
(g77
g58
NtRp3470
(dp3471
g61
(dp3472
sg70
g3457
sg63
(lp3473
g56
(g57
g58
NtRp3474
(dp3475
g61
(dp3476
g69
I4
ssg70
g3470
sg63
(lp3477
S'datetime.datetime(2011, 9, 8, 16, 1, 27, 792101)'
p3478
asbasbasbag56
(g72
g58
NtRp3479
(dp3480
g61
(dp3481
sg70
g3409
sg63
(lp3482
g56
(g77
g58
NtRp3483
(dp3484
g61
(dp3485
g81
g82
ssg70
g3479
sg63
(lp3486
S'user'
p3487
asbag56
(g77
g58
NtRp3488
(dp3489
g61
(dp3490
g88
g89
ssg70
g3479
sg63
(lp3491
S':'
asbag56
(g77
g58
NtRp3492
(dp3493
g61
(dp3494
sg70
g3479
sg63
(lp3495
g56
(g57
g58
NtRp3496
(dp3497
g61
(dp3498
g69
I4
ssg70
g3492
sg63
(lp3499
g56
(g65
g58
NtRp3500
(dp3501
g61
(dp3502
g69
I3
ssg70
Nsg63
(lp3503
g56
(g72
g58
NtRp3504
(dp3505
g61
(dp3506
sg70
g3500
sg63
(lp3507
g56
(g77
g58
NtRp3508
(dp3509
g61
(dp3510
g81
g82
ssg70
g3504
sg63
(lp3511
S'email'
p3512
asbag56
(g77
g58
NtRp3513
(dp3514
g61
(dp3515
g88
g89
ssg70
g3504
sg63
(lp3516
S':'
asbag56
(g77
g58
NtRp3517
(dp3518
g61
(dp3519
sg70
g3504
sg63
(lp3520
g56
(g57
g58
NtRp3521
(dp3522
g61
(dp3523
g69
I3
ssg70
g3517
sg63
(lp3524
S'carlos.mg@vilesoft.com.br'
p3525
asbasbasbag56
(g72
g58
NtRp3526
(dp3527
g61
(dp3528
sg70
g3500
sg63
(lp3529
g56
(g77
g58
NtRp3530
(dp3531
g61
(dp3532
g81
g82
ssg70
g3526
sg63
(lp3533
S'first_name'
p3534
asbag56
(g77
g58
NtRp3535
(dp3536
g61
(dp3537
g88
g89
ssg70
g3526
sg63
(lp3538
S':'
asbag56
(g77
g58
NtRp3539
(dp3540
g61
(dp3541
sg70
g3526
sg63
(lp3542
g56
(g57
g58
NtRp3543
(dp3544
g61
(dp3545
g69
I3
ssg70
g3539
sg63
(lp3546
S'Carlos Jos\xc3\xa9'
p3547
asbasbasbag56
(g72
g58
NtRp3548
(dp3549
g61
(dp3550
sg70
g3500
sg63
(lp3551
g56
(g77
g58
NtRp3552
(dp3553
g61
(dp3554
g81
g82
ssg70
g3548
sg63
(lp3555
S'id'
p3556
asbag56
(g77
g58
NtRp3557
(dp3558
g61
(dp3559
g88
g89
ssg70
g3548
sg63
(lp3560
S':'
asbag56
(g77
g58
NtRp3561
(dp3562
g61
(dp3563
sg70
g3548
sg63
(lp3564
g56
(g57
g58
NtRp3565
(dp3566
g61
(dp3567
g69
I3
ssg70
g3561
sg63
(lp3568
S'1'
asbasbasbag56
(g72
g58
NtRp3569
(dp3570
g61
(dp3571
sg70
g3500
sg63
(lp3572
g56
(g77
g58
NtRp3573
(dp3574
g61
(dp3575
g81
g82
ssg70
g3569
sg63
(lp3576
S'last_name'
p3577
asbag56
(g77
g58
NtRp3578
(dp3579
g61
(dp3580
g88
g89
ssg70
g3569
sg63
(lp3581
S':'
asbag56
(g77
g58
NtRp3582
(dp3583
g61
(dp3584
sg70
g3569
sg63
(lp3585
g56
(g57
g58
NtRp3586
(dp3587
g61
(dp3588
g69
I3
ssg70
g3582
sg63
(lp3589
S'da Costa'
p3590
asbasbasbag56
(g72
g58
NtRp3591
(dp3592
g61
(dp3593
sg70
g3500
sg63
(lp3594
g56
(g77
g58
NtRp3595
(dp3596
g61
(dp3597
g81
g82
ssg70
g3591
sg63
(lp3598
S'password'
p3599
asbag56
(g77
g58
NtRp3600
(dp3601
g61
(dp3602
g88
g89
ssg70
g3591
sg63
(lp3603
S':'
asbag56
(g77
g58
NtRp3604
(dp3605
g61
(dp3606
sg70
g3591
sg63
(lp3607
g56
(g57
g58
NtRp3608
(dp3609
g61
(dp3610
g69
I3
ssg70
g3604
sg63
(lp3611
S'00a7a128f71552b063e36943370dd0944d5adb4000c6382d33eb3e1a93dc679cb99beb47e3003d318803f96ef839a18a379eae2e2bb917ca3c52c4e45231b331'
p3612
asbasbasbag56
(g72
g58
NtRp3613
(dp3614
g61
(dp3615
sg70
g3500
sg63
(lp3616
g56
(g77
g58
NtRp3617
(dp3618
g61
(dp3619
g81
g82
ssg70
g3613
sg63
(lp3620
S'registration_key'
p3621
asbag56
(g77
g58
NtRp3622
(dp3623
g61
(dp3624
g88
g89
ssg70
g3613
sg63
(lp3625
S':'
asbag56
(g77
g58
NtRp3626
(dp3627
g61
(dp3628
sg70
g3613
sg63
(lp3629
g56
(g57
g58
NtRp3630
(dp3631
g61
(dp3632
g69
I3
ssg70
g3626
sg63
(lp3633
S''
asbasbasbag56
(g72
g58
NtRp3634
(dp3635
g61
(dp3636
sg70
g3500
sg63
(lp3637
g56
(g77
g58
NtRp3638
(dp3639
g61
(dp3640
g81
g82
ssg70
g3634
sg63
(lp3641
S'reset_password_key'
p3642
asbag56
(g77
g58
NtRp3643
(dp3644
g61
(dp3645
g88
g89
ssg70
g3634
sg63
(lp3646
S':'
asbag56
(g77
g58
NtRp3647
(dp3648
g61
(dp3649
sg70
g3634
sg63
(lp3650
g56
(g57
g58
NtRp3651
(dp3652
g61
(dp3653
g69
I3
ssg70
g3647
sg63
(lp3654
S''
asbasbasbasbasbasbasbasbasbasbasbag56
(g72
g58
NtRp3655
(dp3656
g61
(dp3657
sg70
g3384
sg63
(lp3658
g56
(g77
g58
NtRp3659
(dp3660
g61
(dp3661
g81
g82
ssg70
g3655
sg63
(lp3662
S'last_query'
p3663
asbag56
(g77
g58
NtRp3664
(dp3665
g61
(dp3666
g88
g89
ssg70
g3655
sg63
(lp3667
S':'
asbag56
(g77
g58
NtRp3668
(dp3669
g61
(dp3670
sg70
g3655
sg63
(lp3671
g56
(g57
g58
NtRp3672
(dp3673
g61
(dp3674
g69
I5
ssg70
g3668
sg63
(lp3675
S'db.config.id>0'
p3676
asbasbasbasbasbsS'etype'
p3677
S"<type 'exceptions.TypeError'>"
p3678
sS'date'
p3679
S'Thu Sep  8 16:06:21 2011'
p3680
sS'response'
p3681
g56
(g57
g58
NtRp3682
(dp3683
g61
(dp3684
sg63
(lp3685
g56
(g65
g58
NtRp3686
(dp3687
g61
(dp3688
g69
I5
ssg70
Nsg63
(lp3689
g56
(g72
g58
NtRp3690
(dp3691
g61
(dp3692
sg70
g3686
sg63
(lp3693
g56
(g77
g58
NtRp3694
(dp3695
g61
(dp3696
g81
g82
ssg70
g3690
sg63
(lp3697
g154
asbag56
(g77
g58
NtRp3698
(dp3699
g61
(dp3700
g88
g89
ssg70
g3690
sg63
(lp3701
S':'
asbag56
(g77
g58
NtRp3702
(dp3703
g61
(dp3704
sg70
g3690
sg63
(lp3705
g56
(g57
g58
NtRp3706
(dp3707
g61
(dp3708
g69
I5
ssg70
g3702
sg63
(lp3709
S'<cStringIO.StringO object at 0xb9a085e0>'
p3710
asbasbasbag56
(g72
g58
NtRp3711
(dp3712
g61
(dp3713
sg70
g3686
sg63
(lp3714
g56
(g77
g58
NtRp3715
(dp3716
g61
(dp3717
g81
g82
ssg70
g3711
sg63
(lp3718
g220
asbag56
(g77
g58
NtRp3719
(dp3720
g61
(dp3721
g88
g89
ssg70
g3711
sg63
(lp3722
S':'
asbag56
(g77
g58
NtRp3723
(dp3724
g61
(dp3725
sg70
g3711
sg63
(lp3726
g56
(g57
g58
NtRp3727
(dp3728
g61
(dp3729
g69
I5
ssg70
g3723
sg63
(lp3730
g56
(g65
g58
NtRp3731
(dp3732
g61
(dp3733
g69
I4
ssg70
Nsg63
(lp3734
g56
(g72
g58
NtRp3735
(dp3736
g61
(dp3737
sg70
g3731
sg63
(lp3738
g56
(g77
g58
NtRp3739
(dp3740
g61
(dp3741
g81
g82
ssg70
g3735
sg63
(lp3742
S'session_id_scrum'
p3743
asbag56
(g77
g58
NtRp3744
(dp3745
g61
(dp3746
g88
g89
ssg70
g3735
sg63
(lp3747
S':'
asbag56
(g77
g58
NtRp3748
(dp3749
g61
(dp3750
sg70
g3735
sg63
(lp3751
g56
(g57
g58
NtRp3752
(dp3753
g61
(dp3754
g69
I4
ssg70
g3748
sg63
(lp3755
g56
(g65
g58
NtRp3756
(dp3757
g61
(dp3758
g69
I3
ssg70
Nsg63
(lp3759
g56
(g72
g58
NtRp3760
(dp3761
g61
(dp3762
sg70
g3756
sg63
(lp3763
g56
(g77
g58
NtRp3764
(dp3765
g61
(dp3766
g81
g82
ssg70
g3760
sg63
(lp3767
g270
asbag56
(g77
g58
NtRp3768
(dp3769
g61
(dp3770
g88
g89
ssg70
g3760
sg63
(lp3771
S':'
asbag56
(g77
g58
NtRp3772
(dp3773
g61
(dp3774
sg70
g3760
sg63
(lp3775
g56
(g57
g58
NtRp3776
(dp3777
g61
(dp3778
g69
I3
ssg70
g3772
sg63
(lp3779
S''
asbasbasbag56
(g72
g58
NtRp3780
(dp3781
g61
(dp3782
sg70
g3756
sg63
(lp3783
g56
(g77
g58
NtRp3784
(dp3785
g61
(dp3786
g81
g82
ssg70
g3780
sg63
(lp3787
g291
asbag56
(g77
g58
NtRp3788
(dp3789
g61
(dp3790
g88
g89
ssg70
g3780
sg63
(lp3791
S':'
asbag56
(g77
g58
NtRp3792
(dp3793
g61
(dp3794
sg70
g3780
sg63
(lp3795
g56
(g57
g58
NtRp3796
(dp3797
g61
(dp3798
g69
I3
ssg70
g3792
sg63
(lp3799
S''
asbasbasbag56
(g72
g58
NtRp3800
(dp3801
g61
(dp3802
sg70
g3756
sg63
(lp3803
g56
(g77
g58
NtRp3804
(dp3805
g61
(dp3806
g81
g82
ssg70
g3800
sg63
(lp3807
g312
asbag56
(g77
g58
NtRp3808
(dp3809
g61
(dp3810
g88
g89
ssg70
g3800
sg63
(lp3811
S':'
asbag56
(g77
g58
NtRp3812
(dp3813
g61
(dp3814
sg70
g3800
sg63
(lp3815
g56
(g57
g58
NtRp3816
(dp3817
g61
(dp3818
g69
I3
ssg70
g3812
sg63
(lp3819
S''
asbasbasbag56
(g72
g58
NtRp3820
(dp3821
g61
(dp3822
sg70
g3756
sg63
(lp3823
g56
(g77
g58
NtRp3824
(dp3825
g61
(dp3826
g81
g82
ssg70
g3820
sg63
(lp3827
g333
asbag56
(g77
g58
NtRp3828
(dp3829
g61
(dp3830
g88
g89
ssg70
g3820
sg63
(lp3831
S':'
asbag56
(g77
g58
NtRp3832
(dp3833
g61
(dp3834
sg70
g3820
sg63
(lp3835
g56
(g57
g58
NtRp3836
(dp3837
g61
(dp3838
g69
I3
ssg70
g3832
sg63
(lp3839
S''
asbasbasbag56
(g72
g58
NtRp3840
(dp3841
g61
(dp3842
sg70
g3756
sg63
(lp3843
g56
(g77
g58
NtRp3844
(dp3845
g61
(dp3846
g81
g82
ssg70
g3840
sg63
(lp3847
g354
asbag56
(g77
g58
NtRp3848
(dp3849
g61
(dp3850
g88
g89
ssg70
g3840
sg63
(lp3851
S':'
asbag56
(g77
g58
NtRp3852
(dp3853
g61
(dp3854
sg70
g3840
sg63
(lp3855
g56
(g57
g58
NtRp3856
(dp3857
g61
(dp3858
g69
I3
ssg70
g3852
sg63
(lp3859
S''
asbasbasbag56
(g72
g58
NtRp3860
(dp3861
g61
(dp3862
sg70
g3756
sg63
(lp3863
g56
(g77
g58
NtRp3864
(dp3865
g61
(dp3866
g81
g82
ssg70
g3860
sg63
(lp3867
g375
asbag56
(g77
g58
NtRp3868
(dp3869
g61
(dp3870
g88
g89
ssg70
g3860
sg63
(lp3871
S':'
asbag56
(g77
g58
NtRp3872
(dp3873
g61
(dp3874
sg70
g3860
sg63
(lp3875
g56
(g57
g58
NtRp3876
(dp3877
g61
(dp3878
g69
I3
ssg70
g3872
sg63
(lp3879
S'/'
asbasbasbag56
(g72
g58
NtRp3880
(dp3881
g61
(dp3882
sg70
g3756
sg63
(lp3883
g56
(g77
g58
NtRp3884
(dp3885
g61
(dp3886
g81
g82
ssg70
g3880
sg63
(lp3887
g396
asbag56
(g77
g58
NtRp3888
(dp3889
g61
(dp3890
g88
g89
ssg70
g3880
sg63
(lp3891
S':'
asbag56
(g77
g58
NtRp3892
(dp3893
g61
(dp3894
sg70
g3880
sg63
(lp3895
g56
(g57
g58
NtRp3896
(dp3897
g61
(dp3898
g69
I3
ssg70
g3892
sg63
(lp3899
S''
asbasbasbag56
(g72
g58
NtRp3900
(dp3901
g61
(dp3902
sg70
g3756
sg63
(lp3903
g56
(g77
g58
NtRp3904
(dp3905
g61
(dp3906
g81
g82
ssg70
g3900
sg63
(lp3907
g417
asbag56
(g77
g58
NtRp3908
(dp3909
g61
(dp3910
g88
g89
ssg70
g3900
sg63
(lp3911
S':'
asbag56
(g77
g58
NtRp3912
(dp3913
g61
(dp3914
sg70
g3900
sg63
(lp3915
g56
(g57
g58
NtRp3916
(dp3917
g61
(dp3918
g69
I3
ssg70
g3912
sg63
(lp3919
S''
asbasbasbasbasbasbasbasbasbasbasbag56
(g72
g58
NtRp3920
(dp3921
g61
(dp3922
sg70
g3686
sg63
(lp3923
g56
(g77
g58
NtRp3924
(dp3925
g61
(dp3926
g81
g82
ssg70
g3920
sg63
(lp3927
S'files'
p3928
asbag56
(g77
g58
NtRp3929
(dp3930
g61
(dp3931
g88
g89
ssg70
g3920
sg63
(lp3932
S':'
asbag56
(g77
g58
NtRp3933
(dp3934
g61
(dp3935
sg70
g3920
sg63
(lp3936
g56
(g57
g58
NtRp3937
(dp3938
g61
(dp3939
g69
I5
ssg70
g3933
sg63
(lp3940
g56
(g65
g58
NtRp3941
(dp3942
g61
(dp3943
g69
I4
ssg70
Nsg63
(lp3944
sbasbasbasbag56
(g72
g58
NtRp3945
(dp3946
g61
(dp3947
sg70
g3686
sg63
(lp3948
g56
(g77
g58
NtRp3949
(dp3950
g61
(dp3951
g81
g82
ssg70
g3945
sg63
(lp3952
S'flash'
p3953
asbag56
(g77
g58
NtRp3954
(dp3955
g61
(dp3956
g88
g89
ssg70
g3945
sg63
(lp3957
S':'
asbag56
(g77
g58
NtRp3958
(dp3959
g61
(dp3960
sg70
g3945
sg63
(lp3961
g56
(g57
g58
NtRp3962
(dp3963
g61
(dp3964
g69
I5
ssg70
g3958
sg63
(lp3965
S''
asbasbasbag56
(g72
g58
NtRp3966
(dp3967
g61
(dp3968
sg70
g3686
sg63
(lp3969
g56
(g77
g58
NtRp3970
(dp3971
g61
(dp3972
g81
g82
ssg70
g3966
sg63
(lp3973
S'generic_patterns'
p3974
asbag56
(g77
g58
NtRp3975
(dp3976
g61
(dp3977
g88
g89
ssg70
g3966
sg63
(lp3978
S':'
asbag56
(g77
g58
NtRp3979
(dp3980
g61
(dp3981
sg70
g3966
sg63
(lp3982
g56
(g57
g58
NtRp3983
(dp3984
g61
(dp3985
g69
I5
ssg70
g3979
sg63
(lp3986
g56
(g65
g58
NtRp3987
(dp3988
g61
(dp3989
g69
I4
ssg70
Nsg63
(lp3990
sbasbasbasbag56
(g72
g58
NtRp3991
(dp3992
g61
(dp3993
sg70
g3686
sg63
(lp3994
g56
(g77
g58
NtRp3995
(dp3996
g61
(dp3997
g81
g82
ssg70
g3991
sg63
(lp3998
S'headers'
p3999
asbag56
(g77
g58
NtRp4000
(dp4001
g61
(dp4002
g88
g89
ssg70
g3991
sg63
(lp4003
S':'
asbag56
(g77
g58
NtRp4004
(dp4005
g61
(dp4006
sg70
g3991
sg63
(lp4007
g56
(g57
g58
NtRp4008
(dp4009
g61
(dp4010
g69
I5
ssg70
g4004
sg63
(lp4011
g56
(g65
g58
NtRp4012
(dp4013
g61
(dp4014
g69
I4
ssg70
Nsg63
(lp4015
g56
(g72
g58
NtRp4016
(dp4017
g61
(dp4018
sg70
g4012
sg63
(lp4019
g56
(g77
g58
NtRp4020
(dp4021
g61
(dp4022
g81
g82
ssg70
g4016
sg63
(lp4023
S'Cache-Control'
p4024
asbag56
(g77
g58
NtRp4025
(dp4026
g61
(dp4027
g88
g89
ssg70
g4016
sg63
(lp4028
S':'
asbag56
(g77
g58
NtRp4029
(dp4030
g61
(dp4031
sg70
g4016
sg63
(lp4032
g56
(g57
g58
NtRp4033
(dp4034
g61
(dp4035
g69
I4
ssg70
g4029
sg63
(lp4036
S'no-store, no-cache, must-revalidate, post-check=0, pre-check=0'
p4037
asbasbasbag56
(g72
g58
NtRp4038
(dp4039
g61
(dp4040
sg70
g4012
sg63
(lp4041
g56
(g77
g58
NtRp4042
(dp4043
g61
(dp4044
g81
g82
ssg70
g4038
sg63
(lp4045
S'Content-Type'
p4046
asbag56
(g77
g58
NtRp4047
(dp4048
g61
(dp4049
g88
g89
ssg70
g4038
sg63
(lp4050
S':'
asbag56
(g77
g58
NtRp4051
(dp4052
g61
(dp4053
sg70
g4038
sg63
(lp4054
g56
(g57
g58
NtRp4055
(dp4056
g61
(dp4057
g69
I4
ssg70
g4051
sg63
(lp4058
S'text/html; charset=utf-8'
p4059
asbasbasbag56
(g72
g58
NtRp4060
(dp4061
g61
(dp4062
sg70
g4012
sg63
(lp4063
g56
(g77
g58
NtRp4064
(dp4065
g61
(dp4066
g81
g82
ssg70
g4060
sg63
(lp4067
S'Expires'
p4068
asbag56
(g77
g58
NtRp4069
(dp4070
g61
(dp4071
g88
g89
ssg70
g4060
sg63
(lp4072
S':'
asbag56
(g77
g58
NtRp4073
(dp4074
g61
(dp4075
sg70
g4060
sg63
(lp4076
g56
(g57
g58
NtRp4077
(dp4078
g61
(dp4079
g69
I4
ssg70
g4073
sg63
(lp4080
S'Thu, 08 Sep 2011 19:06:21 GMT'
p4081
asbasbasbag56
(g72
g58
NtRp4082
(dp4083
g61
(dp4084
sg70
g4012
sg63
(lp4085
g56
(g77
g58
NtRp4086
(dp4087
g61
(dp4088
g81
g82
ssg70
g4082
sg63
(lp4089
S'Pragma'
p4090
asbag56
(g77
g58
NtRp4091
(dp4092
g61
(dp4093
g88
g89
ssg70
g4082
sg63
(lp4094
S':'
asbag56
(g77
g58
NtRp4095
(dp4096
g61
(dp4097
sg70
g4082
sg63
(lp4098
g56
(g57
g58
NtRp4099
(dp4100
g61
(dp4101
g69
I4
ssg70
g4095
sg63
(lp4102
S'no-cache'
p4103
asbasbasbag56
(g72
g58
NtRp4104
(dp4105
g61
(dp4106
sg70
g4012
sg63
(lp4107
g56
(g77
g58
NtRp4108
(dp4109
g61
(dp4110
g81
g82
ssg70
g4104
sg63
(lp4111
S'X-Powered-By'
p4112
asbag56
(g77
g58
NtRp4113
(dp4114
g61
(dp4115
g88
g89
ssg70
g4104
sg63
(lp4116
S':'
asbag56
(g77
g58
NtRp4117
(dp4118
g61
(dp4119
sg70
g4104
sg63
(lp4120
g56
(g57
g58
NtRp4121
(dp4122
g61
(dp4123
g69
I4
ssg70
g4117
sg63
(lp4124
S'web2py'
p4125
asbasbasbasbasbasbasbag56
(g72
g58
NtRp4126
(dp4127
g61
(dp4128
sg70
g3686
sg63
(lp4129
g56
(g77
g58
NtRp4130
(dp4131
g61
(dp4132
g81
g82
ssg70
g4126
sg63
(lp4133
S'menu'
p4134
asbag56
(g77
g58
NtRp4135
(dp4136
g61
(dp4137
g88
g89
ssg70
g4126
sg63
(lp4138
S':'
asbag56
(g77
g58
NtRp4139
(dp4140
g61
(dp4141
sg70
g4126
sg63
(lp4142
g56
(g57
g58
NtRp4143
(dp4144
g61
(dp4145
g69
I5
ssg70
g4139
sg63
(lp4146
g56
(g65
g58
NtRp4147
(dp4148
g61
(dp4149
g69
I4
ssg70
Nsg63
(lp4150
g56
(g72
g58
NtRp4151
(dp4152
g61
(dp4153
sg70
g4147
sg63
(lp4154
g56
(g77
g58
NtRp4155
(dp4156
g61
(dp4157
sg70
g4151
sg63
(lp4158
g56
(g57
g58
NtRp4159
(dp4160
g61
(dp4161
g69
I4
ssg70
g4155
sg63
(lp4162
g56
(g65
g58
NtRp4163
(dp4164
g61
(dp4165
g69
I3
ssg70
Nsg63
(lp4166
g56
(g72
g58
NtRp4167
(dp4168
g61
(dp4169
sg70
g4163
sg63
(lp4170
g56
(g77
g58
NtRp4171
(dp4172
g61
(dp4173
sg70
g4167
sg63
(lp4174
g56
(g57
g58
NtRp4175
(dp4176
g61
(dp4177
g69
I3
ssg70
g4171
sg63
(lp4178
cgluon.languages
lazyT_unpickle
p4179
(S't\x04\x00\x00\x00Home'
tRp4180
asbasbasbag56
(g72
g58
NtRp4181
(dp4182
g61
(dp4183
sg70
g4163
sg63
(lp4184
g56
(g77
g58
NtRp4185
(dp4186
g61
(dp4187
sg70
g4181
sg63
(lp4188
g56
(g57
g58
NtRp4189
(dp4190
g61
(dp4191
g69
I3
ssg70
g4185
sg63
(lp4192
g99
asbasbasbag56
(g72
g58
NtRp4193
(dp4194
g61
(dp4195
sg70
g4163
sg63
(lp4196
g56
(g77
g58
NtRp4197
(dp4198
g61
(dp4199
sg70
g4193
sg63
(lp4200
g56
(g57
g58
NtRp4201
(dp4202
g61
(dp4203
g69
I3
ssg70
g4197
sg63
(lp4204
S'/scrum/default/index'
p4205
asbasbasbag56
(g72
g58
NtRp4206
(dp4207
g61
(dp4208
sg70
g4163
sg63
(lp4209
g56
(g77
g58
NtRp4210
(dp4211
g61
(dp4212
sg70
g4206
sg63
(lp4213
g56
(g57
g58
NtRp4214
(dp4215
g61
(dp4216
g69
I3
ssg70
g4210
sg63
(lp4217
g56
(g65
g58
NtRp4218
(dp4219
g61
(dp4220
g69
I2
ssg70
Nsg63
(lp4221
sbasbasbasbasbasbasbasbag56
(g72
g58
NtRp4222
(dp4223
g61
(dp4224
sg70
g4147
sg63
(lp4225
g56
(g77
g58
NtRp4226
(dp4227
g61
(dp4228
sg70
g4222
sg63
(lp4229
g56
(g57
g58
NtRp4230
(dp4231
g61
(dp4232
g69
I4
ssg70
g4226
sg63
(lp4233
g56
(g65
g58
NtRp4234
(dp4235
g61
(dp4236
g69
I3
ssg70
Nsg63
(lp4237
g56
(g72
g58
NtRp4238
(dp4239
g61
(dp4240
sg70
g4234
sg63
(lp4241
g56
(g77
g58
NtRp4242
(dp4243
g61
(dp4244
sg70
g4238
sg63
(lp4245
g56
(g57
g58
NtRp4246
(dp4247
g61
(dp4248
g69
I3
ssg70
g4242
sg63
(lp4249
g4179
(S't\x03\x00\x00\x00BIV'
tRp4250
asbasbasbag56
(g72
g58
NtRp4251
(dp4252
g61
(dp4253
sg70
g4234
sg63
(lp4254
g56
(g77
g58
NtRp4255
(dp4256
g61
(dp4257
sg70
g4251
sg63
(lp4258
g56
(g57
g58
NtRp4259
(dp4260
g61
(dp4261
g69
I3
ssg70
g4255
sg63
(lp4262
g99
asbasbasbag56
(g72
g58
NtRp4263
(dp4264
g61
(dp4265
sg70
g4234
sg63
(lp4266
g56
(g77
g58
NtRp4267
(dp4268
g61
(dp4269
sg70
g4263
sg63
(lp4270
g56
(g57
g58
NtRp4271
(dp4272
g61
(dp4273
g69
I3
ssg70
g4267
sg63
(lp4274
S''
asbasbasbag56
(g72
g58
NtRp4275
(dp4276
g61
(dp4277
sg70
g4234
sg63
(lp4278
g56
(g77
g58
NtRp4279
(dp4280
g61
(dp4281
sg70
g4275
sg63
(lp4282
g56
(g57
g58
NtRp4283
(dp4284
g61
(dp4285
g69
I3
ssg70
g4279
sg63
(lp4286
g56
(g65
g58
NtRp4287
(dp4288
g61
(dp4289
g69
I2
ssg70
Nsg63
(lp4290
g56
(g72
g58
NtRp4291
(dp4292
g61
(dp4293
sg70
g4287
sg63
(lp4294
g56
(g77
g58
NtRp4295
(dp4296
g61
(dp4297
sg70
g4291
sg63
(lp4298
g56
(g57
g58
NtRp4299
(dp4300
g61
(dp4301
g69
I2
ssg70
g4295
sg63
(lp4302
g56
(g65
g58
NtRp4303
(dp4304
g61
(dp4305
g69
I1
ssg70
Nsg63
(lp4306
g56
(g72
g58
NtRp4307
(dp4308
g61
(dp4309
sg70
g4303
sg63
(lp4310
g56
(g77
g58
NtRp4311
(dp4312
g61
(dp4313
sg70
g4307
sg63
(lp4314
g56
(g57
g58
NtRp4315
(dp4316
g61
(dp4317
g69
I1
ssg70
g4311
sg63
(lp4318
g4179
(S't\x04\x00\x00\x00Novo'
tRp4319
asbasbasbag56
(g72
g58
NtRp4320
(dp4321
g61
(dp4322
sg70
g4303
sg63
(lp4323
g56
(g77
g58
NtRp4324
(dp4325
g61
(dp4326
sg70
g4320
sg63
(lp4327
g56
(g57
g58
NtRp4328
(dp4329
g61
(dp4330
g69
I1
ssg70
g4324
sg63
(lp4331
I00
asbasbasbag56
(g72
g58
NtRp4332
(dp4333
g61
(dp4334
sg70
g4303
sg63
(lp4335
g56
(g77
g58
NtRp4336
(dp4337
g61
(dp4338
sg70
g4332
sg63
(lp4339
g56
(g57
g58
NtRp4340
(dp4341
g61
(dp4342
g69
I1
ssg70
g4336
sg63
(lp4343
S'/scrum/default/novo_biv'
p4344
asbasbasbag56
(g72
g58
NtRp4345
(dp4346
g61
(dp4347
sg70
g4303
sg63
(lp4348
g56
(g77
g58
NtRp4349
(dp4350
g61
(dp4351
sg70
g4345
sg63
(lp4352
g56
(g57
g58
NtRp4353
(dp4354
g61
(dp4355
g69
I1
ssg70
g4349
sg63
(lp4356
(lp4357
asbasbasbasbasbasbasbag56
(g72
g58
NtRp4358
(dp4359
g61
(dp4360
sg70
g4287
sg63
(lp4361
g56
(g77
g58
NtRp4362
(dp4363
g61
(dp4364
sg70
g4358
sg63
(lp4365
g56
(g57
g58
NtRp4366
(dp4367
g61
(dp4368
g69
I2
ssg70
g4362
sg63
(lp4369
g56
(g65
g58
NtRp4370
(dp4371
g61
(dp4372
g69
I1
ssg70
Nsg63
(lp4373
g56
(g72
g58
NtRp4374
(dp4375
g61
(dp4376
sg70
g4370
sg63
(lp4377
g56
(g77
g58
NtRp4378
(dp4379
g61
(dp4380
sg70
g4374
sg63
(lp4381
g56
(g57
g58
NtRp4382
(dp4383
g61
(dp4384
g69
I1
ssg70
g4378
sg63
(lp4385
g4179
(S't\n\x00\x00\x00Selecionar'
tRp4386
asbasbasbag56
(g72
g58
NtRp4387
(dp4388
g61
(dp4389
sg70
g4370
sg63
(lp4390
g56
(g77
g58
NtRp4391
(dp4392
g61
(dp4393
sg70
g4387
sg63
(lp4394
g56
(g57
g58
NtRp4395
(dp4396
g61
(dp4397
g69
I1
ssg70
g4391
sg63
(lp4398
I00
asbasbasbag56
(g72
g58
NtRp4399
(dp4400
g61
(dp4401
sg70
g4370
sg63
(lp4402
g56
(g77
g58
NtRp4403
(dp4404
g61
(dp4405
sg70
g4399
sg63
(lp4406
g56
(g57
g58
NtRp4407
(dp4408
g61
(dp4409
g69
I1
ssg70
g4403
sg63
(lp4410
S'/scrum/default/selecionar_biv'
p4411
asbasbasbag56
(g72
g58
NtRp4412
(dp4413
g61
(dp4414
sg70
g4370
sg63
(lp4415
g56
(g77
g58
NtRp4416
(dp4417
g61
(dp4418
sg70
g4412
sg63
(lp4419
g56
(g57
g58
NtRp4420
(dp4421
g61
(dp4422
g69
I1
ssg70
g4416
sg63
(lp4423
(lp4424
asbasbasbasbasbasbasbasbasbasbasbasbasbasbasbag56
(g72
g58
NtRp4425
(dp4426
g61
(dp4427
sg70
g4147
sg63
(lp4428
g56
(g77
g58
NtRp4429
(dp4430
g61
(dp4431
sg70
g4425
sg63
(lp4432
g56
(g57
g58
NtRp4433
(dp4434
g61
(dp4435
g69
I4
ssg70
g4429
sg63
(lp4436
g56
(g65
g58
NtRp4437
(dp4438
g61
(dp4439
g69
I3
ssg70
Nsg63
(lp4440
g56
(g72
g58
NtRp4441
(dp4442
g61
(dp4443
sg70
g4437
sg63
(lp4444
g56
(g77
g58
NtRp4445
(dp4446
g61
(dp4447
sg70
g4441
sg63
(lp4448
g56
(g57
g58
NtRp4449
(dp4450
g61
(dp4451
g69
I3
ssg70
g4445
sg63
(lp4452
g4179
(S't\x07\x00\x00\x00Tickets'
tRp4453
asbasbasbag56
(g72
g58
NtRp4454
(dp4455
g61
(dp4456
sg70
g4437
sg63
(lp4457
g56
(g77
g58
NtRp4458
(dp4459
g61
(dp4460
sg70
g4454
sg63
(lp4461
g56
(g57
g58
NtRp4462
(dp4463
g61
(dp4464
g69
I3
ssg70
g4458
sg63
(lp4465
g99
asbasbasbag56
(g72
g58
NtRp4466
(dp4467
g61
(dp4468
sg70
g4437
sg63
(lp4469
g56
(g77
g58
NtRp4470
(dp4471
g61
(dp4472
sg70
g4466
sg63
(lp4473
g56
(g57
g58
NtRp4474
(dp4475
g61
(dp4476
g69
I3
ssg70
g4470
sg63
(lp4477
S'/scrum/ticket/index'
p4478
asbasbasbag56
(g72
g58
NtRp4479
(dp4480
g61
(dp4481
sg70
g4437
sg63
(lp4482
g56
(g77
g58
NtRp4483
(dp4484
g61
(dp4485
sg70
g4479
sg63
(lp4486
g56
(g57
g58
NtRp4487
(dp4488
g61
(dp4489
g69
I3
ssg70
g4483
sg63
(lp4490
g56
(g65
g58
NtRp4491
(dp4492
g61
(dp4493
g69
I2
ssg70
Nsg63
(lp4494
g56
(g72
g58
NtRp4495
(dp4496
g61
(dp4497
sg70
g4491
sg63
(lp4498
g56
(g77
g58
NtRp4499
(dp4500
g61
(dp4501
sg70
g4495
sg63
(lp4502
g56
(g57
g58
NtRp4503
(dp4504
g61
(dp4505
g69
I2
ssg70
g4499
sg63
(lp4506
g56
(g65
g58
NtRp4507
(dp4508
g61
(dp4509
g69
I1
ssg70
Nsg63
(lp4510
g56
(g72
g58
NtRp4511
(dp4512
g61
(dp4513
sg70
g4507
sg63
(lp4514
g56
(g77
g58
NtRp4515
(dp4516
g61
(dp4517
sg70
g4511
sg63
(lp4518
g56
(g57
g58
NtRp4519
(dp4520
g61
(dp4521
g69
I1
ssg70
g4515
sg63
(lp4522
g4179
(S't\x04\x00\x00\x00Novo'
tRp4523
asbasbasbag56
(g72
g58
NtRp4524
(dp4525
g61
(dp4526
sg70
g4507
sg63
(lp4527
g56
(g77
g58
NtRp4528
(dp4529
g61
(dp4530
sg70
g4524
sg63
(lp4531
g56
(g57
g58
NtRp4532
(dp4533
g61
(dp4534
g69
I1
ssg70
g4528
sg63
(lp4535
I00
asbasbasbag56
(g72
g58
NtRp4536
(dp4537
g61
(dp4538
sg70
g4507
sg63
(lp4539
g56
(g77
g58
NtRp4540
(dp4541
g61
(dp4542
sg70
g4536
sg63
(lp4543
g56
(g57
g58
NtRp4544
(dp4545
g61
(dp4546
g69
I1
ssg70
g4540
sg63
(lp4547
S'/scrum/ticket/novo'
p4548
asbasbasbag56
(g72
g58
NtRp4549
(dp4550
g61
(dp4551
sg70
g4507
sg63
(lp4552
g56
(g77
g58
NtRp4553
(dp4554
g61
(dp4555
sg70
g4549
sg63
(lp4556
g56
(g57
g58
NtRp4557
(dp4558
g61
(dp4559
g69
I1
ssg70
g4553
sg63
(lp4560
(lp4561
asbasbasbasbasbasbasbag56
(g72
g58
NtRp4562
(dp4563
g61
(dp4564
sg70
g4491
sg63
(lp4565
g56
(g77
g58
NtRp4566
(dp4567
g61
(dp4568
sg70
g4562
sg63
(lp4569
g56
(g57
g58
NtRp4570
(dp4571
g61
(dp4572
g69
I2
ssg70
g4566
sg63
(lp4573
g56
(g65
g58
NtRp4574
(dp4575
g61
(dp4576
g69
I1
ssg70
Nsg63
(lp4577
g56
(g72
g58
NtRp4578
(dp4579
g61
(dp4580
sg70
g4574
sg63
(lp4581
g56
(g77
g58
NtRp4582
(dp4583
g61
(dp4584
sg70
g4578
sg63
(lp4585
g56
(g57
g58
NtRp4586
(dp4587
g61
(dp4588
g69
I1
ssg70
g4582
sg63
(lp4589
g4179
(S't\n\x00\x00\x00Selecionar'
tRp4590
asbasbasbag56
(g72
g58
NtRp4591
(dp4592
g61
(dp4593
sg70
g4574
sg63
(lp4594
g56
(g77
g58
NtRp4595
(dp4596
g61
(dp4597
sg70
g4591
sg63
(lp4598
g56
(g57
g58
NtRp4599
(dp4600
g61
(dp4601
g69
I1
ssg70
g4595
sg63
(lp4602
I00
asbasbasbag56
(g72
g58
NtRp4603
(dp4604
g61
(dp4605
sg70
g4574
sg63
(lp4606
g56
(g77
g58
NtRp4607
(dp4608
g61
(dp4609
sg70
g4603
sg63
(lp4610
g56
(g57
g58
NtRp4611
(dp4612
g61
(dp4613
g69
I1
ssg70
g4607
sg63
(lp4614
S'/scrum/ticket/index'
p4615
asbasbasbag56
(g72
g58
NtRp4616
(dp4617
g61
(dp4618
sg70
g4574
sg63
(lp4619
g56
(g77
g58
NtRp4620
(dp4621
g61
(dp4622
sg70
g4616
sg63
(lp4623
g56
(g57
g58
NtRp4624
(dp4625
g61
(dp4626
g69
I1
ssg70
g4620
sg63
(lp4627
(lp4628
asbasbasbasbasbasbasbasbasbasbasbasbasbasbasbag56
(g72
g58
NtRp4629
(dp4630
g61
(dp4631
sg70
g4147
sg63
(lp4632
g56
(g77
g58
NtRp4633
(dp4634
g61
(dp4635
sg70
g4629
sg63
(lp4636
g56
(g57
g58
NtRp4637
(dp4638
g61
(dp4639
g69
I4
ssg70
g4633
sg63
(lp4640
g56
(g65
g58
NtRp4641
(dp4642
g61
(dp4643
g69
I3
ssg70
Nsg63
(lp4644
g56
(g72
g58
NtRp4645
(dp4646
g61
(dp4647
sg70
g4641
sg63
(lp4648
g56
(g77
g58
NtRp4649
(dp4650
g61
(dp4651
sg70
g4645
sg63
(lp4652
g56
(g57
g58
NtRp4653
(dp4654
g61
(dp4655
g69
I3
ssg70
g4649
sg63
(lp4656
g4179
(S't\x06\x00\x00\x00Sprint'
tRp4657
asbasbasbag56
(g72
g58
NtRp4658
(dp4659
g61
(dp4660
sg70
g4641
sg63
(lp4661
g56
(g77
g58
NtRp4662
(dp4663
g61
(dp4664
sg70
g4658
sg63
(lp4665
g56
(g57
g58
NtRp4666
(dp4667
g61
(dp4668
g69
I3
ssg70
g4662
sg63
(lp4669
g99
asbasbasbag56
(g72
g58
NtRp4670
(dp4671
g61
(dp4672
sg70
g4641
sg63
(lp4673
g56
(g77
g58
NtRp4674
(dp4675
g61
(dp4676
sg70
g4670
sg63
(lp4677
g56
(g57
g58
NtRp4678
(dp4679
g61
(dp4680
g69
I3
ssg70
g4674
sg63
(lp4681
S''
asbasbasbag56
(g72
g58
NtRp4682
(dp4683
g61
(dp4684
sg70
g4641
sg63
(lp4685
g56
(g77
g58
NtRp4686
(dp4687
g61
(dp4688
sg70
g4682
sg63
(lp4689
g56
(g57
g58
NtRp4690
(dp4691
g61
(dp4692
g69
I3
ssg70
g4686
sg63
(lp4693
g56
(g65
g58
NtRp4694
(dp4695
g61
(dp4696
g69
I2
ssg70
Nsg63
(lp4697
g56
(g72
g58
NtRp4698
(dp4699
g61
(dp4700
sg70
g4694
sg63
(lp4701
g56
(g77
g58
NtRp4702
(dp4703
g61
(dp4704
sg70
g4698
sg63
(lp4705
g56
(g57
g58
NtRp4706
(dp4707
g61
(dp4708
g69
I2
ssg70
g4702
sg63
(lp4709
g56
(g65
g58
NtRp4710
(dp4711
g61
(dp4712
g69
I1
ssg70
Nsg63
(lp4713
g56
(g72
g58
NtRp4714
(dp4715
g61
(dp4716
sg70
g4710
sg63
(lp4717
g56
(g77
g58
NtRp4718
(dp4719
g61
(dp4720
sg70
g4714
sg63
(lp4721
g56
(g57
g58
NtRp4722
(dp4723
g61
(dp4724
g69
I1
ssg70
g4718
sg63
(lp4725
g4179
(S't\x04\x00\x00\x00Novo'
tRp4726
asbasbasbag56
(g72
g58
NtRp4727
(dp4728
g61
(dp4729
sg70
g4710
sg63
(lp4730
g56
(g77
g58
NtRp4731
(dp4732
g61
(dp4733
sg70
g4727
sg63
(lp4734
g56
(g57
g58
NtRp4735
(dp4736
g61
(dp4737
g69
I1
ssg70
g4731
sg63
(lp4738
I00
asbasbasbag56
(g72
g58
NtRp4739
(dp4740
g61
(dp4741
sg70
g4710
sg63
(lp4742
g56
(g77
g58
NtRp4743
(dp4744
g61
(dp4745
sg70
g4739
sg63
(lp4746
g56
(g57
g58
NtRp4747
(dp4748
g61
(dp4749
g69
I1
ssg70
g4743
sg63
(lp4750
S'/scrum/sprint/novo'
p4751
asbasbasbag56
(g72
g58
NtRp4752
(dp4753
g61
(dp4754
sg70
g4710
sg63
(lp4755
g56
(g77
g58
NtRp4756
(dp4757
g61
(dp4758
sg70
g4752
sg63
(lp4759
g56
(g57
g58
NtRp4760
(dp4761
g61
(dp4762
g69
I1
ssg70
g4756
sg63
(lp4763
(lp4764
asbasbasbasbasbasbasbag56
(g72
g58
NtRp4765
(dp4766
g61
(dp4767
sg70
g4694
sg63
(lp4768
g56
(g77
g58
NtRp4769
(dp4770
g61
(dp4771
sg70
g4765
sg63
(lp4772
g56
(g57
g58
NtRp4773
(dp4774
g61
(dp4775
g69
I2
ssg70
g4769
sg63
(lp4776
g56
(g65
g58
NtRp4777
(dp4778
g61
(dp4779
g69
I1
ssg70
Nsg63
(lp4780
g56
(g72
g58
NtRp4781
(dp4782
g61
(dp4783
sg70
g4777
sg63
(lp4784
g56
(g77
g58
NtRp4785
(dp4786
g61
(dp4787
sg70
g4781
sg63
(lp4788
g56
(g57
g58
NtRp4789
(dp4790
g61
(dp4791
g69
I1
ssg70
g4785
sg63
(lp4792
g4179
(S't\n\x00\x00\x00Selecionar'
tRp4793
asbasbasbag56
(g72
g58
NtRp4794
(dp4795
g61
(dp4796
sg70
g4777
sg63
(lp4797
g56
(g77
g58
NtRp4798
(dp4799
g61
(dp4800
sg70
g4794
sg63
(lp4801
g56
(g57
g58
NtRp4802
(dp4803
g61
(dp4804
g69
I1
ssg70
g4798
sg63
(lp4805
I00
asbasbasbag56
(g72
g58
NtRp4806
(dp4807
g61
(dp4808
sg70
g4777
sg63
(lp4809
g56
(g77
g58
NtRp4810
(dp4811
g61
(dp4812
sg70
g4806
sg63
(lp4813
g56
(g57
g58
NtRp4814
(dp4815
g61
(dp4816
g69
I1
ssg70
g4810
sg63
(lp4817
S'/scrum/sprint/index'
p4818
asbasbasbag56
(g72
g58
NtRp4819
(dp4820
g61
(dp4821
sg70
g4777
sg63
(lp4822
g56
(g77
g58
NtRp4823
(dp4824
g61
(dp4825
sg70
g4819
sg63
(lp4826
g56
(g57
g58
NtRp4827
(dp4828
g61
(dp4829
g69
I1
ssg70
g4823
sg63
(lp4830
(lp4831
asbasbasbasbasbasbasbasbasbasbasbasbasbasbasbasbasbasbasbag56
(g72
g58
NtRp4832
(dp4833
g61
(dp4834
sg70
g3686
sg63
(lp4835
g56
(g77
g58
NtRp4836
(dp4837
g61
(dp4838
g81
g82
ssg70
g4832
sg63
(lp4839
S'meta'
p4840
asbag56
(g77
g58
NtRp4841
(dp4842
g61
(dp4843
g88
g89
ssg70
g4832
sg63
(lp4844
S':'
asbag56
(g77
g58
NtRp4845
(dp4846
g61
(dp4847
sg70
g4832
sg63
(lp4848
g56
(g57
g58
NtRp4849
(dp4850
g61
(dp4851
g69
I5
ssg70
g4845
sg63
(lp4852
g56
(g65
g58
NtRp4853
(dp4854
g61
(dp4855
g69
I4
ssg70
Nsg63
(lp4856
g56
(g72
g58
NtRp4857
(dp4858
g61
(dp4859
sg70
g4853
sg63
(lp4860
g56
(g77
g58
NtRp4861
(dp4862
g61
(dp4863
g81
g82
ssg70
g4857
sg63
(lp4864
S'author'
p4865
asbag56
(g77
g58
NtRp4866
(dp4867
g61
(dp4868
g88
g89
ssg70
g4857
sg63
(lp4869
S':'
asbag56
(g77
g58
NtRp4870
(dp4871
g61
(dp4872
sg70
g4857
sg63
(lp4873
g56
(g57
g58
NtRp4874
(dp4875
g61
(dp4876
g69
I4
ssg70
g4870
sg63
(lp4877
S'Carlos J. Costa'
p4878
asbasbasbag56
(g72
g58
NtRp4879
(dp4880
g61
(dp4881
sg70
g4853
sg63
(lp4882
g56
(g77
g58
NtRp4883
(dp4884
g61
(dp4885
g81
g82
ssg70
g4879
sg63
(lp4886
S'copyright'
p4887
asbag56
(g77
g58
NtRp4888
(dp4889
g61
(dp4890
g88
g89
ssg70
g4879
sg63
(lp4891
S':'
asbag56
(g77
g58
NtRp4892
(dp4893
g61
(dp4894
sg70
g4879
sg63
(lp4895
g56
(g57
g58
NtRp4896
(dp4897
g61
(dp4898
g69
I4
ssg70
g4892
sg63
(lp4899
S'Copyright 2007-2010'
p4900
asbasbasbag56
(g72
g58
NtRp4901
(dp4902
g61
(dp4903
sg70
g4853
sg63
(lp4904
g56
(g77
g58
NtRp4905
(dp4906
g61
(dp4907
g81
g82
ssg70
g4901
sg63
(lp4908
S'description'
p4909
asbag56
(g77
g58
NtRp4910
(dp4911
g61
(dp4912
g88
g89
ssg70
g4901
sg63
(lp4913
S':'
asbag56
(g77
g58
NtRp4914
(dp4915
g61
(dp4916
sg70
g4901
sg63
(lp4917
g56
(g57
g58
NtRp4918
(dp4919
g61
(dp4920
g69
I4
ssg70
g4914
sg63
(lp4921
S'Development track'
p4922
asbasbasbag56
(g72
g58
NtRp4923
(dp4924
g61
(dp4925
sg70
g4853
sg63
(lp4926
g56
(g77
g58
NtRp4927
(dp4928
g61
(dp4929
g81
g82
ssg70
g4923
sg63
(lp4930
S'generator'
p4931
asbag56
(g77
g58
NtRp4932
(dp4933
g61
(dp4934
g88
g89
ssg70
g4923
sg63
(lp4935
S':'
asbag56
(g77
g58
NtRp4936
(dp4937
g61
(dp4938
sg70
g4923
sg63
(lp4939
g56
(g57
g58
NtRp4940
(dp4941
g61
(dp4942
g69
I4
ssg70
g4936
sg63
(lp4943
S'Web2py Enterprise Framework'
p4944
asbasbasbag56
(g72
g58
NtRp4945
(dp4946
g61
(dp4947
sg70
g4853
sg63
(lp4948
g56
(g77
g58
NtRp4949
(dp4950
g61
(dp4951
g81
g82
ssg70
g4945
sg63
(lp4952
S'keywords'
p4953
asbag56
(g77
g58
NtRp4954
(dp4955
g61
(dp4956
g88
g89
ssg70
g4945
sg63
(lp4957
S':'
asbag56
(g77
g58
NtRp4958
(dp4959
g61
(dp4960
sg70
g4945
sg63
(lp4961
g56
(g57
g58
NtRp4962
(dp4963
g61
(dp4964
g69
I4
ssg70
g4958
sg63
(lp4965
S'test, issue'
p4966
asbasbasbasbasbasbasbag56
(g72
g58
NtRp4967
(dp4968
g61
(dp4969
sg70
g3686
sg63
(lp4970
g56
(g77
g58
NtRp4971
(dp4972
g61
(dp4973
g81
g82
ssg70
g4967
sg63
(lp4974
S'postprocessing'
p4975
asbag56
(g77
g58
NtRp4976
(dp4977
g61
(dp4978
g88
g89
ssg70
g4967
sg63
(lp4979
S':'
asbag56
(g77
g58
NtRp4980
(dp4981
g61
(dp4982
sg70
g4967
sg63
(lp4983
g56
(g57
g58
NtRp4984
(dp4985
g61
(dp4986
g69
I5
ssg70
g4980
sg63
(lp4987
g56
(g65
g58
NtRp4988
(dp4989
g61
(dp4990
g69
I4
ssg70
Nsg63
(lp4991
sbasbasbasbag56
(g72
g58
NtRp4992
(dp4993
g61
(dp4994
sg70
g3686
sg63
(lp4995
g56
(g77
g58
NtRp4996
(dp4997
g61
(dp4998
g81
g82
ssg70
g4992
sg63
(lp4999
S'session_file'
p5000
asbag56
(g77
g58
NtRp5001
(dp5002
g61
(dp5003
g88
g89
ssg70
g4992
sg63
(lp5004
S':'
asbag56
(g77
g58
NtRp5005
(dp5006
g61
(dp5007
sg70
g4992
sg63
(lp5008
g56
(g57
g58
NtRp5009
(dp5010
g61
(dp5011
g69
I5
ssg70
g5005
sg63
(lp5012
S"<open file '/home/www-data/web2py/applications/scrum/sessions/127.0.0.1-f47d3ac4-8d8c-46d5-8321-f944561d518f', mode 'rb+' at 0xb99f16a8>"
p5013
asbasbasbag56
(g72
g58
NtRp5014
(dp5015
g61
(dp5016
sg70
g3686
sg63
(lp5017
g56
(g77
g58
NtRp5018
(dp5019
g61
(dp5020
g81
g82
ssg70
g5014
sg63
(lp5021
S'session_filename'
p5022
asbag56
(g77
g58
NtRp5023
(dp5024
g61
(dp5025
g88
g89
ssg70
g5014
sg63
(lp5026
S':'
asbag56
(g77
g58
NtRp5027
(dp5028
g61
(dp5029
sg70
g5014
sg63
(lp5030
g56
(g57
g58
NtRp5031
(dp5032
g61
(dp5033
g69
I5
ssg70
g5027
sg63
(lp5034
S'/home/www-data/web2py/applications/scrum/sessions/127.0.0.1-f47d3ac4-8d8c-46d5-8321-f944561d518f'
p5035
asbasbasbag56
(g72
g58
NtRp5036
(dp5037
g61
(dp5038
sg70
g3686
sg63
(lp5039
g56
(g77
g58
NtRp5040
(dp5041
g61
(dp5042
g81
g82
ssg70
g5036
sg63
(lp5043
S'session_id'
p5044
asbag56
(g77
g58
NtRp5045
(dp5046
g61
(dp5047
g88
g89
ssg70
g5036
sg63
(lp5048
S':'
asbag56
(g77
g58
NtRp5049
(dp5050
g61
(dp5051
sg70
g5036
sg63
(lp5052
g56
(g57
g58
NtRp5053
(dp5054
g61
(dp5055
g69
I5
ssg70
g5049
sg63
(lp5056
S'127.0.0.1-f47d3ac4-8d8c-46d5-8321-f944561d518f'
p5057
asbasbasbag56
(g72
g58
NtRp5058
(dp5059
g61
(dp5060
sg70
g3686
sg63
(lp5061
g56
(g77
g58
NtRp5062
(dp5063
g61
(dp5064
g81
g82
ssg70
g5058
sg63
(lp5065
S'session_id_name'
p5066
asbag56
(g77
g58
NtRp5067
(dp5068
g61
(dp5069
g88
g89
ssg70
g5058
sg63
(lp5070
S':'
asbag56
(g77
g58
NtRp5071
(dp5072
g61
(dp5073
sg70
g5058
sg63
(lp5074
g56
(g57
g58
NtRp5075
(dp5076
g61
(dp5077
g69
I5
ssg70
g5071
sg63
(lp5078
g3743
asbasbasbag56
(g72
g58
NtRp5079
(dp5080
g61
(dp5081
sg70
g3686
sg63
(lp5082
g56
(g77
g58
NtRp5083
(dp5084
g61
(dp5085
g81
g82
ssg70
g5079
sg63
(lp5086
S'session_locked'
p5087
asbag56
(g77
g58
NtRp5088
(dp5089
g61
(dp5090
g88
g89
ssg70
g5079
sg63
(lp5091
S':'
asbag56
(g77
g58
NtRp5092
(dp5093
g61
(dp5094
sg70
g5079
sg63
(lp5095
g56
(g57
g58
NtRp5096
(dp5097
g61
(dp5098
g69
I5
ssg70
g5092
sg63
(lp5099
g1938
asbasbasbag56
(g72
g58
NtRp5100
(dp5101
g61
(dp5102
sg70
g3686
sg63
(lp5103
g56
(g77
g58
NtRp5104
(dp5105
g61
(dp5106
g81
g82
ssg70
g5100
sg63
(lp5107
S'session_new'
p5108
asbag56
(g77
g58
NtRp5109
(dp5110
g61
(dp5111
g88
g89
ssg70
g5100
sg63
(lp5112
S':'
asbag56
(g77
g58
NtRp5113
(dp5114
g61
(dp5115
sg70
g5100
sg63
(lp5116
g56
(g57
g58
NtRp5117
(dp5118
g61
(dp5119
g69
I5
ssg70
g5113
sg63
(lp5120
g99
asbasbasbag56
(g72
g58
NtRp5121
(dp5122
g61
(dp5123
sg70
g3686
sg63
(lp5124
g56
(g77
g58
NtRp5125
(dp5126
g61
(dp5127
g81
g82
ssg70
g5121
sg63
(lp5128
S'status'
p5129
asbag56
(g77
g58
NtRp5130
(dp5131
g61
(dp5132
g88
g89
ssg70
g5121
sg63
(lp5133
S':'
asbag56
(g77
g58
NtRp5134
(dp5135
g61
(dp5136
sg70
g5121
sg63
(lp5137
g56
(g57
g58
NtRp5138
(dp5139
g61
(dp5140
g69
I5
ssg70
g5134
sg63
(lp5141
S'200'
p5142
asbasbasbag56
(g72
g58
NtRp5143
(dp5144
g61
(dp5145
sg70
g3686
sg63
(lp5146
g56
(g77
g58
NtRp5147
(dp5148
g61
(dp5149
g81
g82
ssg70
g5143
sg63
(lp5150
S'subtitle'
p5151
asbag56
(g77
g58
NtRp5152
(dp5153
g61
(dp5154
g88
g89
ssg70
g5143
sg63
(lp5155
S':'
asbag56
(g77
g58
NtRp5156
(dp5157
g61
(dp5158
sg70
g5143
sg63
(lp5159
g56
(g57
g58
NtRp5160
(dp5161
g61
(dp5162
g69
I5
ssg70
g5156
sg63
(lp5163
g4179
(S's\x0f\x00\x00\x00Personalize-me!'
tRp5164
asbasbasbag56
(g72
g58
NtRp5165
(dp5166
g61
(dp5167
sg70
g3686
sg63
(lp5168
g56
(g77
g58
NtRp5169
(dp5170
g61
(dp5171
g81
g82
ssg70
g5165
sg63
(lp5172
S'title'
p5173
asbag56
(g77
g58
NtRp5174
(dp5175
g61
(dp5176
g88
g89
ssg70
g5165
sg63
(lp5177
S':'
asbag56
(g77
g58
NtRp5178
(dp5179
g61
(dp5180
sg70
g5165
sg63
(lp5181
g56
(g57
g58
NtRp5182
(dp5183
g61
(dp5184
g69
I5
ssg70
g5178
sg63
(lp5185
g121
asbasbasbag56
(g72
g58
NtRp5186
(dp5187
g61
(dp5188
sg70
g3686
sg63
(lp5189
g56
(g77
g58
NtRp5190
(dp5191
g61
(dp5192
g81
g82
ssg70
g5186
sg63
(lp5193
g2262
asbag56
(g77
g58
NtRp5194
(dp5195
g61
(dp5196
g88
g89
ssg70
g5186
sg63
(lp5197
S':'
asbag56
(g77
g58
NtRp5198
(dp5199
g61
(dp5200
sg70
g5186
sg63
(lp5201
g56
(g57
g58
NtRp5202
(dp5203
g61
(dp5204
g69
I5
ssg70
g5198
sg63
(lp5205
g2275
asbasbasbag56
(g72
g58
NtRp5206
(dp5207
g61
(dp5208
sg70
g3686
sg63
(lp5209
g56
(g77
g58
NtRp5210
(dp5211
g61
(dp5212
g81
g82
ssg70
g5206
sg63
(lp5213
S'view'
p5214
asbag56
(g77
g58
NtRp5215
(dp5216
g61
(dp5217
g88
g89
ssg70
g5206
sg63
(lp5218
S':'
asbag56
(g77
g58
NtRp5219
(dp5220
g61
(dp5221
sg70
g5206
sg63
(lp5222
g56
(g57
g58
NtRp5223
(dp5224
g61
(dp5225
g69
I5
ssg70
g5219
sg63
(lp5226
S'ticket/index.html'
p5227
asbasbasbasbasbsS'locals'
p5228
(dp5229
S'insere_modulo'
p5230
S'<function insere_modulo>'
p5231
sS'OBJECT'
p5232
S"<class 'gluon.html.OBJECT'>"
p5233
sS'SQLDB'
p5234
S"<class 'gluon.dal.DAL'>"
p5235
sg3379
S"<Storage {'_formkey[biv/None]': 'dbda91fd-abf6-4.../None]': '34ce2103-fda9-4702-baa6-1008f063c2a5'}>"
p5236
sS'LINK'
p5237
S"<class 'gluon.html.LINK'>"
p5238
sS'BR'
p5239
S"<class 'gluon.html.BR'>"
p5240
sS'local_import'
p5241
S'<function <lambda>>'
p5242
sS'OPTGROUP'
p5243
S"<class 'gluon.html.OPTGROUP'>"
p5244
sS'PRE'
p5245
S"<class 'gluon.html.PRE'>"
p5246
sS'IS_INT_IN_RANGE'
p5247
S"<class 'gluon.validators.IS_INT_IN_RANGE'>"
p5248
sS'Service'
p5249
S"<class 'gluon.tools.Service'>"
p5250
sS'IS_LOWER'
p5251
S"<class 'gluon.validators.IS_LOWER'>"
p5252
sS'IS_STRONG'
p5253
S"<class 'gluon.validators.IS_STRONG'>"
p5254
sS'Recaptcha'
p5255
S"<class 'gluon.tools.Recaptcha'>"
p5256
sS'cache'
p5257
S'<gluon.cache.Cache object>'
p5258
sS'IS_IN_DB'
p5259
S"<class 'gluon.validators.IS_IN_DB'>"
p5260
sS'TAG'
p5261
S'<gluon.html.__TAG__ object>'
p5262
sS'SQLField'
p5263
S"<class 'gluon.dal.Field'>"
p5264
sS'mail'
p5265
S'<gluon.tools.Mail object>'
p5266
sS'BODY'
p5267
S"<class 'gluon.html.BODY'>"
p5268
sS'IS_DATE_IN_RANGE'
p5269
S"<class 'gluon.validators.IS_DATE_IN_RANGE'>"
p5270
sS'IFRAME'
p5271
S"<class 'gluon.html.IFRAME'>"
p5272
sS'URL'
p5273
S'<function URL>'
p5274
sS'__file__'
p5275
S"'/home/www-data/web2py/applications/scrum/controllers/ticket.py'"
p5276
sS'db'
p5277
S"<DAL {'auth_event': <Table {'origin': <gluon.dal... 'id': <gluon.dal.Field object at 0xb9617bcc>}>}>"
p5278
sS'auth'
p5279
S'<gluon.tools.Auth object>'
p5280
sS'P'
S"<class 'gluon.html.P'>"
p5281
sS'TFOOT'
p5282
S"<class 'gluon.html.TFOOT'>"
p5283
sS'XHTML'
p5284
S"<class 'gluon.html.XHTML'>"
p5285
sS'ON'
p5286
g1938
sS'OL'
p5287
S"<class 'gluon.html.OL'>"
p5288
sS'TEXTAREA'
p5289
S"<class 'gluon.html.TEXTAREA'>"
p5290
sS'codepoint2name'
p5291
S"{34: 'quot', 38: 'amp', 60: 'lt', 62: 'gt', 160: 'nbsp', 161: 'iexcl', 162: 'cent', 163: 'pound', 164: 'curren', 165: 'yen', ...}"
p5292
sS'MENU'
p5293
S"<class 'gluon.html.MENU'>"
p5294
sS'EM'
p5295
S"<class 'gluon.html.EM'>"
p5296
sS'CODE'
p5297
S"<class 'gluon.html.CODE'>"
p5298
sS'HTTP'
p5299
S"<class 'gluon.http.HTTP'>"
p5300
sS'HR'
p5301
S"<class 'gluon.html.HR'>"
p5302
sS'IS_DATETIME'
p5303
S"<class 'gluon.validators.IS_DATETIME'>"
p5304
sS'STYLE'
p5305
S"<class 'gluon.html.STYLE'>"
p5306
sS'LABEL'
p5307
S"<class 'gluon.html.LABEL'>"
p5308
sS'META'
p5309
S"<class 'gluon.html.META'>"
p5310
sS'plugins'
p5311
S'<gluon.tools.PluginManager object>'
p5312
sS'SELECT'
p5313
S"<class 'gluon.html.SELECT'>"
p5314
sS'CENTER'
p5315
S"<class 'gluon.html.CENTER'>"
p5316
sS'prettydate'
p5317
S'<function prettydate>'
p5318
sS'Crud'
p5319
S"<class 'gluon.tools.Crud'>"
p5320
sS'Auth'
p5321
S"<class 'gluon.tools.Auth'>"
p5322
sS'IS_EQUAL_TO'
p5323
S"<class 'gluon.validators.IS_EQUAL_TO'>"
p5324
sS'insere_menu'
p5325
S'<function insere_menu>'
p5326
sS'SQLFORM'
p5327
S"<class 'gluon.sqlhtml.SQLFORM'>"
p5328
sS'LOAD'
p5329
S'<gluon.compileapp.LoadFactory object>'
p5330
sS'redirect'
p5331
S'<function redirect>'
p5332
sS'FIELDSET'
p5333
S"<class 'gluon.html.FIELDSET'>"
p5334
sS'__builtins__'
p5335
S"{'ArithmeticError': <type 'exceptions.ArithmeticError'>, 'AssertionError': <type 'exceptions.AssertionError'>, 'AttributeError': <type 'exceptions.AttributeError'>, 'BaseException': <type 'exceptions.BaseException'>, 'BufferError': <type 'exceptions.BufferError'>, 'BytesWarning': <type 'exceptions.BytesWarning'>, 'DeprecationWarning': <type 'exceptions.DeprecationWarning'>, 'EOFError': <type 'exceptions.EOFError'>, 'Ellipsis': Ellipsis, 'EnvironmentError': <type 'exceptions.EnvironmentError'>, ...}"
p5336
sS'embed64'
p5337
S'<function embed64>'
p5338
sS'IS_LIST_OF'
p5339
S"<class 'gluon.validators.IS_LIST_OF'>"
p5340
sS'INPUT'
p5341
S"<class 'gluon.html.INPUT'>"
p5342
sS'EMBED'
p5343
S"<class 'gluon.html.EMBED'>"
p5344
sS'FORM'
p5345
S"<class 'gluon.html.FORM'>"
p5346
sS'H2'
p5347
S"<class 'gluon.html.H2'>"
p5348
sS'H3'
p5349
S"<class 'gluon.html.H3'>"
p5350
sS'BUTTON'
p5351
S"<class 'gluon.html.BUTTON'>"
p5352
sS'H1'
p5353
S"<class 'gluon.html.H1'>"
p5354
sS'H6'
p5355
S"<class 'gluon.html.H6'>"
p5356
sS'H4'
p5357
S"<class 'gluon.html.H4'>"
p5358
sS'H5'
p5359
S"<class 'gluon.html.H5'>"
p5360
sS'UL'
p5361
S"<class 'gluon.html.UL'>"
p5362
sS'IS_UPPER'
p5363
S"<class 'gluon.validators.IS_UPPER'>"
p5364
sS'xmlescape'
p5365
S'<function xmlescape>'
p5366
sS'IS_TIME'
p5367
S"<class 'gluon.validators.IS_TIME'>"
p5368
sS'OPTION'
p5369
S"<class 'gluon.html.OPTION'>"
p5370
sS'TITLE'
p5371
S"<class 'gluon.html.TITLE'>"
p5372
sS'CRYPT'
p5373
S"<class 'gluon.validators.CRYPT'>"
p5374
sS'IS_EMPTY_OR'
p5375
S"<class 'gluon.validators.IS_EMPTY_OR'>"
p5376
sS'MARKMIN'
p5377
S"<class 'gluon.html.MARKMIN'>"
p5378
sS'BRAZILIAN_DATE'
p5379
S'<gluon.validators.IS_DATE object>'
p5380
sS'service'
p5381
S'<gluon.tools.Service object>'
p5382
sS'SCRIPT'
p5383
S"<class 'gluon.html.SCRIPT'>"
p5384
sS'geocode'
p5385
S'<function geocode>'
p5386
sS'TABLE'
p5387
S"<class 'gluon.html.TABLE'>"
p5388
sS'IS_IPV4'
p5389
S"<class 'gluon.validators.IS_IPV4'>"
p5390
sS'IS_LENGTH'
p5391
S"<class 'gluon.validators.IS_LENGTH'>"
p5392
sS'XML'
p5393
S"<class 'gluon.html.XML'>"
p5394
sS'B'
S"<class 'gluon.html.B'>"
p5395
sS'IMG'
p5396
S"<class 'gluon.html.IMG'>"
p5397
sS'SQLTABLE'
p5398
S"<class 'gluon.sqlhtml.SQLTABLE'>"
p5399
sS'IS_MATCH'
p5400
S"<class 'gluon.validators.IS_MATCH'>"
p5401
sS'IS_ALPHANUMERIC'
p5402
S"<class 'gluon.validators.IS_ALPHANUMERIC'>"
p5403
sS'unicode2htmlentities'
p5404
S'<function unicode2htmlentities>'
p5405
sS'SPAN'
p5406
S"<class 'gluon.html.SPAN'>"
p5407
sS'IS_SLUG'
p5408
S"<class 'gluon.validators.IS_SLUG'>"
p5409
sS'CLEANUP'
p5410
S"<class 'gluon.validators.CLEANUP'>"
p5411
sS'IS_URL'
p5412
S"<class 'gluon.validators.IS_URL'>"
p5413
sS'fetch'
p5414
S'<function fetch>'
p5415
sS'IS_DATE'
p5416
S"<class 'gluon.validators.IS_DATE'>"
p5417
sS'IS_EMAIL'
p5418
S"<class 'gluon.validators.IS_EMAIL'>"
p5419
sS'IS_NOT_EMPTY'
p5420
S"<class 'gluon.validators.IS_NOT_EMPTY'>"
p5421
sS'IS_FLOAT_IN_RANGE'
p5422
S"<class 'gluon.validators.IS_FLOAT_IN_RANGE'>"
p5423
sS'BEAUTIFY'
p5424
S"<class 'gluon.html.BEAUTIFY'>"
p5425
sS'TBODY'
p5426
S"<class 'gluon.html.TBODY'>"
p5427
sS'CAT'
p5428
S"<class 'gluon.html.CAT'>"
p5429
sS'Field'
p5430
S"<class 'gluon.dal.Field'>"
p5431
sS'Mail'
p5432
S"<class 'gluon.tools.Mail'>"
p5433
sS'DIV'
p5434
S"<class 'gluon.html.DIV'>"
p5435
sS'LEGEND'
p5436
S"<class 'gluon.html.LEGEND'>"
p5437
sS'DAL'
p5438
S"<class 'gluon.dal.DAL'>"
p5439
sS'TT'
p5440
S"<class 'gluon.html.TT'>"
p5441
sS'TR'
p5442
S"<class 'gluon.html.TR'>"
p5443
sS'LI'
p5444
S"<class 'gluon.html.LI'>"
p5445
sS'TH'
p5446
S"<class 'gluon.html.TH'>"
p5447
sS'TD'
p5448
S"<class 'gluon.html.TD'>"
p5449
sS'PluginManager'
p5450
S"<class 'gluon.tools.PluginManager'>"
p5451
sS'config'
p5452
S"<Row {'grupo_desenvolvedor': 2, 'update_record':...lete_record': <function <lambda> at 0xb99ec1b4>}>"
p5453
sS'A'
S"<class 'gluon.html.A'>"
p5454
sS'HEAD'
p5455
S"<class 'gluon.html.HEAD'>"
p5456
sS'IS_DATETIME_IN_RANGE'
p5457
S"<class 'gluon.validators.IS_DATETIME_IN_RANGE'>"
p5458
sS'HTML'
p5459
S"<class 'gluon.html.HTML'>"
p5460
sS'IS_IMAGE'
p5461
S"<class 'gluon.validators.IS_IMAGE'>"
p5462
sS'I'
S"<class 'gluon.html.I'>"
p5463
sS'crud'
p5464
S'<gluon.tools.Crud object>'
p5465
sS'IS_NOT_IN_DB'
p5466
S"<class 'gluon.validators.IS_NOT_IN_DB'>"
p5467
sg3681
S"<Storage {'body': <cStringIO.StringO object at 0...da> at 0xb9be3fb4>, 'view': 'ticket/index.html'}>"
p5468
sS'THEAD'
p5469
S"<class 'gluon.html.THEAD'>"
p5470
sS'IS_NULL_OR'
p5471
S"<class 'gluon.validators.IS_EMPTY_OR'>"
p5472
sg55
S"<Storage {'is_local': True, 'function': 'index',....16-06-21.0bf054da-1c84-4ecd-ba18-f7d5d1502435'}>"
p5473
sS'IS_EXPR'
p5474
S"<class 'gluon.validators.IS_EXPR'>"
p5475
sS'IS_IN_SET'
p5476
S"<class 'gluon.validators.IS_IN_SET'>"
p5477
sS'IS_UPLOAD_FILENAME'
p5478
S"<class 'gluon.validators.IS_UPLOAD_FILENAME'>"
p5479
sS'IS_DECIMAL_IN_RANGE'
p5480
S"<class 'gluon.validators.IS_DECIMAL_IN_RANGE'>"
p5481
sS'T'
S'<gluon.languages.translator object>'
p5482
sssS'traceback'
p5483
S'Traceback (most recent call last):\n  File "/home/www-data/web2py/gluon/restricted.py", line 192, in restricted\n    exec ccode in environment\n  File "/home/www-data/web2py/applications/scrum/controllers/ticket.py", line 2, in <module>\n    @auth.has_membership(config.grupo_consultor)\nTypeError: \'bool\' object is not callable\n'
p5484
s.