(dp1
S'output'
p2
S''
sS'layer'
p3
S'/home/www-data/web2py/applications/scrum/controllers/ticket.py'
p4
sS'code'
p5
S'# coding: utf8\n# tente algo como\ndef index():\n    tickets = db(db.ticket.consultor == auth.user.id | db.ticket.analista.id == auth.user.id)\n    return dict(message="hello from ticket.py")\n\nresponse._vars=response._caller(index)\n'
p6
sS'snapshot'
p7
(dp8
S'exception'
p9
(dp10
S'__hash__'
p11
S"<method-wrapper '__hash__' of exceptions.AttributeError object>"
p12
sS'__setattr__'
p13
S"<method-wrapper '__setattr__' of exceptions.AttributeError object>"
p14
sS'__reduce_ex__'
p15
S'<built-in method __reduce_ex__ of exceptions.AttributeError object>'
p16
sS'__getslice__'
p17
S"<method-wrapper '__getslice__' of exceptions.AttributeError object>"
p18
sS'__getitem__'
p19
S"<method-wrapper '__getitem__' of exceptions.AttributeError object>"
p20
sS'__setstate__'
p21
S'<built-in method __setstate__ of exceptions.AttributeError object>'
p22
sS'__reduce__'
p23
S'<built-in method __reduce__ of exceptions.AttributeError object>'
p24
sS'__str__'
p25
S"<method-wrapper '__str__' of exceptions.AttributeError object>"
p26
sS'__format__'
p27
S'<built-in method __format__ of exceptions.AttributeError object>'
p28
sS'__getattribute__'
p29
S"<method-wrapper '__getattribute__' of exceptions.AttributeError object>"
p30
sS'__class__'
p31
S"<type 'exceptions.AttributeError'>"
p32
sS'__unicode__'
p33
S'<built-in method __unicode__ of exceptions.AttributeError object>'
p34
sS'__delattr__'
p35
S"<method-wrapper '__delattr__' of exceptions.AttributeError object>"
p36
sS'__subclasshook__'
p37
S'<built-in method __subclasshook__ of type object>'
p38
sS'__repr__'
p39
S"<method-wrapper '__repr__' of exceptions.AttributeError object>"
p40
sS'args'
p41
S'("\'NoneType\' object has no attribute \'id\'",)'
p42
sS'__dict__'
p43
S'{}'
p44
sS'__sizeof__'
p45
S'<built-in method __sizeof__ of exceptions.AttributeError object>'
p46
sS'__doc__'
p47
S"'Attribute not found.'"
p48
sS'__init__'
p49
S"<method-wrapper '__init__' of exceptions.AttributeError object>"
p50
sS'__new__'
p51
S'<built-in method __new__ of type object>'
p52
ssS'evalue'
p53
S"'NoneType' object has no attribute 'id'"
p54
sS'request'
p55
ccopy_reg
_reconstructor
p56
(cgluon.html
BEAUTIFY
p57
c__builtin__
object
p58
NtRp59
(dp60
S'attributes'
p61
(dp62
sS'components'
p63
(lp64
g56
(cgluon.html
TABLE
p65
g58
NtRp66
(dp67
g61
(dp68
S'level'
p69
I5
ssS'parent'
p70
Nsg63
(lp71
g56
(cgluon.html
TR
p72
g58
NtRp73
(dp74
g61
(dp75
sg70
g66
sg63
(lp76
g56
(cgluon.html
TD
p77
g58
NtRp78
(dp79
g61
(dp80
S'_style'
p81
S'font-weight:bold;'
p82
ssg70
g73
sg63
(lp83
S'ajax'
p84
asbag56
(g77
g58
NtRp85
(dp86
g61
(dp87
S'_valign'
p88
S'top'
p89
ssg70
g73
sg63
(lp90
S':'
asbag56
(g77
g58
NtRp91
(dp92
g61
(dp93
sg70
g73
sg63
(lp94
g56
(g57
g58
NtRp95
(dp96
g61
(dp97
g69
I5
ssg70
g91
sg63
(lp98
S'False'
p99
asbasbasbag56
(g72
g58
NtRp100
(dp101
g61
(dp102
sg70
g66
sg63
(lp103
g56
(g77
g58
NtRp104
(dp105
g61
(dp106
g81
g82
ssg70
g100
sg63
(lp107
S'application'
p108
asbag56
(g77
g58
NtRp109
(dp110
g61
(dp111
g88
g89
ssg70
g100
sg63
(lp112
S':'
asbag56
(g77
g58
NtRp113
(dp114
g61
(dp115
sg70
g100
sg63
(lp116
g56
(g57
g58
NtRp117
(dp118
g61
(dp119
g69
I5
ssg70
g113
sg63
(lp120
S'scrum'
p121
asbasbasbag56
(g72
g58
NtRp122
(dp123
g61
(dp124
sg70
g66
sg63
(lp125
g56
(g77
g58
NtRp126
(dp127
g61
(dp128
g81
g82
ssg70
g122
sg63
(lp129
g41
asbag56
(g77
g58
NtRp130
(dp131
g61
(dp132
g88
g89
ssg70
g122
sg63
(lp133
S':'
asbag56
(g77
g58
NtRp134
(dp135
g61
(dp136
sg70
g122
sg63
(lp137
g56
(g57
g58
NtRp138
(dp139
g61
(dp140
g69
I5
ssg70
g134
sg63
(lp141
g56
(g65
g58
NtRp142
(dp143
g61
(dp144
g69
I4
ssg70
Nsg63
(lp145
sbasbasbasbag56
(g72
g58
NtRp146
(dp147
g61
(dp148
sg70
g66
sg63
(lp149
g56
(g77
g58
NtRp150
(dp151
g61
(dp152
g81
g82
ssg70
g146
sg63
(lp153
S'body'
p154
asbag56
(g77
g58
NtRp155
(dp156
g61
(dp157
g88
g89
ssg70
g146
sg63
(lp158
S':'
asbag56
(g77
g58
NtRp159
(dp160
g61
(dp161
sg70
g146
sg63
(lp162
g56
(g57
g58
NtRp163
(dp164
g61
(dp165
g69
I5
ssg70
g159
sg63
(lp166
S'<cStringIO.StringO object at 0xb97d8fa0>'
p167
asbasbasbag56
(g72
g58
NtRp168
(dp169
g61
(dp170
sg70
g66
sg63
(lp171
g56
(g77
g58
NtRp172
(dp173
g61
(dp174
g81
g82
ssg70
g168
sg63
(lp175
S'client'
p176
asbag56
(g77
g58
NtRp177
(dp178
g61
(dp179
g88
g89
ssg70
g168
sg63
(lp180
S':'
asbag56
(g77
g58
NtRp181
(dp182
g61
(dp183
sg70
g168
sg63
(lp184
g56
(g57
g58
NtRp185
(dp186
g61
(dp187
g69
I5
ssg70
g181
sg63
(lp188
S'127.0.0.1'
p189
asbasbasbag56
(g72
g58
NtRp190
(dp191
g61
(dp192
sg70
g66
sg63
(lp193
g56
(g77
g58
NtRp194
(dp195
g61
(dp196
g81
g82
ssg70
g190
sg63
(lp197
S'controller'
p198
asbag56
(g77
g58
NtRp199
(dp200
g61
(dp201
g88
g89
ssg70
g190
sg63
(lp202
S':'
asbag56
(g77
g58
NtRp203
(dp204
g61
(dp205
sg70
g190
sg63
(lp206
g56
(g57
g58
NtRp207
(dp208
g61
(dp209
g69
I5
ssg70
g203
sg63
(lp210
S'ticket'
p211
asbasbasbag56
(g72
g58
NtRp212
(dp213
g61
(dp214
sg70
g66
sg63
(lp215
g56
(g77
g58
NtRp216
(dp217
g61
(dp218
g81
g82
ssg70
g212
sg63
(lp219
S'cookies'
p220
asbag56
(g77
g58
NtRp221
(dp222
g61
(dp223
g88
g89
ssg70
g212
sg63
(lp224
S':'
asbag56
(g77
g58
NtRp225
(dp226
g61
(dp227
sg70
g212
sg63
(lp228
g56
(g57
g58
NtRp229
(dp230
g61
(dp231
g69
I5
ssg70
g225
sg63
(lp232
g56
(g65
g58
NtRp233
(dp234
g61
(dp235
g69
I4
ssg70
Nsg63
(lp236
g56
(g72
g58
NtRp237
(dp238
g61
(dp239
sg70
g233
sg63
(lp240
g56
(g77
g58
NtRp241
(dp242
g61
(dp243
g81
g82
ssg70
g237
sg63
(lp244
S'session_id_admin'
p245
asbag56
(g77
g58
NtRp246
(dp247
g61
(dp248
g88
g89
ssg70
g237
sg63
(lp249
S':'
asbag56
(g77
g58
NtRp250
(dp251
g61
(dp252
sg70
g237
sg63
(lp253
g56
(g57
g58
NtRp254
(dp255
g61
(dp256
g69
I4
ssg70
g250
sg63
(lp257
g56
(g65
g58
NtRp258
(dp259
g61
(dp260
g69
I3
ssg70
Nsg63
(lp261
g56
(g72
g58
NtRp262
(dp263
g61
(dp264
sg70
g258
sg63
(lp265
g56
(g77
g58
NtRp266
(dp267
g61
(dp268
g81
g82
ssg70
g262
sg63
(lp269
S'comment'
p270
asbag56
(g77
g58
NtRp271
(dp272
g61
(dp273
g88
g89
ssg70
g262
sg63
(lp274
S':'
asbag56
(g77
g58
NtRp275
(dp276
g61
(dp277
sg70
g262
sg63
(lp278
g56
(g57
g58
NtRp279
(dp280
g61
(dp281
g69
I3
ssg70
g275
sg63
(lp282
S''
asbasbasbag56
(g72
g58
NtRp283
(dp284
g61
(dp285
sg70
g258
sg63
(lp286
g56
(g77
g58
NtRp287
(dp288
g61
(dp289
g81
g82
ssg70
g283
sg63
(lp290
S'domain'
p291
asbag56
(g77
g58
NtRp292
(dp293
g61
(dp294
g88
g89
ssg70
g283
sg63
(lp295
S':'
asbag56
(g77
g58
NtRp296
(dp297
g61
(dp298
sg70
g283
sg63
(lp299
g56
(g57
g58
NtRp300
(dp301
g61
(dp302
g69
I3
ssg70
g296
sg63
(lp303
S''
asbasbasbag56
(g72
g58
NtRp304
(dp305
g61
(dp306
sg70
g258
sg63
(lp307
g56
(g77
g58
NtRp308
(dp309
g61
(dp310
g81
g82
ssg70
g304
sg63
(lp311
S'expires'
p312
asbag56
(g77
g58
NtRp313
(dp314
g61
(dp315
g88
g89
ssg70
g304
sg63
(lp316
S':'
asbag56
(g77
g58
NtRp317
(dp318
g61
(dp319
sg70
g304
sg63
(lp320
g56
(g57
g58
NtRp321
(dp322
g61
(dp323
g69
I3
ssg70
g317
sg63
(lp324
S''
asbasbasbag56
(g72
g58
NtRp325
(dp326
g61
(dp327
sg70
g258
sg63
(lp328
g56
(g77
g58
NtRp329
(dp330
g61
(dp331
g81
g82
ssg70
g325
sg63
(lp332
S'httponly'
p333
asbag56
(g77
g58
NtRp334
(dp335
g61
(dp336
g88
g89
ssg70
g325
sg63
(lp337
S':'
asbag56
(g77
g58
NtRp338
(dp339
g61
(dp340
sg70
g325
sg63
(lp341
g56
(g57
g58
NtRp342
(dp343
g61
(dp344
g69
I3
ssg70
g338
sg63
(lp345
S''
asbasbasbag56
(g72
g58
NtRp346
(dp347
g61
(dp348
sg70
g258
sg63
(lp349
g56
(g77
g58
NtRp350
(dp351
g61
(dp352
g81
g82
ssg70
g346
sg63
(lp353
S'max-age'
p354
asbag56
(g77
g58
NtRp355
(dp356
g61
(dp357
g88
g89
ssg70
g346
sg63
(lp358
S':'
asbag56
(g77
g58
NtRp359
(dp360
g61
(dp361
sg70
g346
sg63
(lp362
g56
(g57
g58
NtRp363
(dp364
g61
(dp365
g69
I3
ssg70
g359
sg63
(lp366
S''
asbasbasbag56
(g72
g58
NtRp367
(dp368
g61
(dp369
sg70
g258
sg63
(lp370
g56
(g77
g58
NtRp371
(dp372
g61
(dp373
g81
g82
ssg70
g367
sg63
(lp374
S'path'
p375
asbag56
(g77
g58
NtRp376
(dp377
g61
(dp378
g88
g89
ssg70
g367
sg63
(lp379
S':'
asbag56
(g77
g58
NtRp380
(dp381
g61
(dp382
sg70
g367
sg63
(lp383
g56
(g57
g58
NtRp384
(dp385
g61
(dp386
g69
I3
ssg70
g380
sg63
(lp387
S''
asbasbasbag56
(g72
g58
NtRp388
(dp389
g61
(dp390
sg70
g258
sg63
(lp391
g56
(g77
g58
NtRp392
(dp393
g61
(dp394
g81
g82
ssg70
g388
sg63
(lp395
S'secure'
p396
asbag56
(g77
g58
NtRp397
(dp398
g61
(dp399
g88
g89
ssg70
g388
sg63
(lp400
S':'
asbag56
(g77
g58
NtRp401
(dp402
g61
(dp403
sg70
g388
sg63
(lp404
g56
(g57
g58
NtRp405
(dp406
g61
(dp407
g69
I3
ssg70
g401
sg63
(lp408
S''
asbasbasbag56
(g72
g58
NtRp409
(dp410
g61
(dp411
sg70
g258
sg63
(lp412
g56
(g77
g58
NtRp413
(dp414
g61
(dp415
g81
g82
ssg70
g409
sg63
(lp416
S'version'
p417
asbag56
(g77
g58
NtRp418
(dp419
g61
(dp420
g88
g89
ssg70
g409
sg63
(lp421
S':'
asbag56
(g77
g58
NtRp422
(dp423
g61
(dp424
sg70
g409
sg63
(lp425
g56
(g57
g58
NtRp426
(dp427
g61
(dp428
g69
I3
ssg70
g422
sg63
(lp429
S''
asbasbasbasbasbasbasbasbasbasbasbag56
(g72
g58
NtRp430
(dp431
g61
(dp432
sg70
g66
sg63
(lp433
g56
(g77
g58
NtRp434
(dp435
g61
(dp436
g81
g82
ssg70
g430
sg63
(lp437
S'env'
p438
asbag56
(g77
g58
NtRp439
(dp440
g61
(dp441
g88
g89
ssg70
g430
sg63
(lp442
S':'
asbag56
(g77
g58
NtRp443
(dp444
g61
(dp445
sg70
g430
sg63
(lp446
g56
(g57
g58
NtRp447
(dp448
g61
(dp449
g69
I5
ssg70
g443
sg63
(lp450
g56
(g65
g58
NtRp451
(dp452
g61
(dp453
g69
I4
ssg70
Nsg63
(lp454
g56
(g72
g58
NtRp455
(dp456
g61
(dp457
sg70
g451
sg63
(lp458
g56
(g77
g58
NtRp459
(dp460
g61
(dp461
g81
g82
ssg70
g455
sg63
(lp462
S'app_folders'
p463
asbag56
(g77
g58
NtRp464
(dp465
g61
(dp466
g88
g89
ssg70
g455
sg63
(lp467
S':'
asbag56
(g77
g58
NtRp468
(dp469
g61
(dp470
sg70
g455
sg63
(lp471
g56
(g57
g58
NtRp472
(dp473
g61
(dp474
g69
I4
ssg70
g468
sg63
(lp475
S"set(['/home/www-data/web2py/applications/scrum/', '/home/www-data/web2py/applications/admin/'])"
p476
asbasbasbag56
(g72
g58
NtRp477
(dp478
g61
(dp479
sg70
g451
sg63
(lp480
g56
(g77
g58
NtRp481
(dp482
g61
(dp483
g81
g82
ssg70
g477
sg63
(lp484
S'applications_parent'
p485
asbag56
(g77
g58
NtRp486
(dp487
g61
(dp488
g88
g89
ssg70
g477
sg63
(lp489
S':'
asbag56
(g77
g58
NtRp490
(dp491
g61
(dp492
sg70
g477
sg63
(lp493
g56
(g57
g58
NtRp494
(dp495
g61
(dp496
g69
I4
ssg70
g490
sg63
(lp497
S'/home/www-data/web2py'
p498
asbasbasbag56
(g72
g58
NtRp499
(dp500
g61
(dp501
sg70
g451
sg63
(lp502
g56
(g77
g58
NtRp503
(dp504
g61
(dp505
g81
g82
ssg70
g499
sg63
(lp506
S'db_sessions'
p507
asbag56
(g77
g58
NtRp508
(dp509
g61
(dp510
g88
g89
ssg70
g499
sg63
(lp511
S':'
asbag56
(g77
g58
NtRp512
(dp513
g61
(dp514
sg70
g499
sg63
(lp515
g56
(g57
g58
NtRp516
(dp517
g61
(dp518
g69
I4
ssg70
g512
sg63
(lp519
S'set([])'
p520
asbasbasbag56
(g72
g58
NtRp521
(dp522
g61
(dp523
sg70
g451
sg63
(lp524
g56
(g77
g58
NtRp525
(dp526
g61
(dp527
g81
g82
ssg70
g521
sg63
(lp528
S'debugging'
p529
asbag56
(g77
g58
NtRp530
(dp531
g61
(dp532
g88
g89
ssg70
g521
sg63
(lp533
S':'
asbag56
(g77
g58
NtRp534
(dp535
g61
(dp536
sg70
g521
sg63
(lp537
g56
(g57
g58
NtRp538
(dp539
g61
(dp540
g69
I4
ssg70
g534
sg63
(lp541
g99
asbasbasbag56
(g72
g58
NtRp542
(dp543
g61
(dp544
sg70
g451
sg63
(lp545
g56
(g77
g58
NtRp546
(dp547
g61
(dp548
g81
g82
ssg70
g542
sg63
(lp549
S'document_root'
p550
asbag56
(g77
g58
NtRp551
(dp552
g61
(dp553
g88
g89
ssg70
g542
sg63
(lp554
S':'
asbag56
(g77
g58
NtRp555
(dp556
g61
(dp557
sg70
g542
sg63
(lp558
g56
(g57
g58
NtRp559
(dp560
g61
(dp561
g69
I4
ssg70
g555
sg63
(lp562
S'/etc/apache2/htdocs'
p563
asbasbasbag56
(g72
g58
NtRp564
(dp565
g61
(dp566
sg70
g451
sg63
(lp567
g56
(g77
g58
NtRp568
(dp569
g61
(dp570
g81
g82
ssg70
g564
sg63
(lp571
S'gateway_interface'
p572
asbag56
(g77
g58
NtRp573
(dp574
g61
(dp575
g88
g89
ssg70
g564
sg63
(lp576
S':'
asbag56
(g77
g58
NtRp577
(dp578
g61
(dp579
sg70
g564
sg63
(lp580
g56
(g57
g58
NtRp581
(dp582
g61
(dp583
g69
I4
ssg70
g577
sg63
(lp584
S'CGI/1.1'
p585
asbasbasbag56
(g72
g58
NtRp586
(dp587
g61
(dp588
sg70
g451
sg63
(lp589
g56
(g77
g58
NtRp590
(dp591
g61
(dp592
g81
g82
ssg70
g586
sg63
(lp593
S'gluon_parent'
p594
asbag56
(g77
g58
NtRp595
(dp596
g61
(dp597
g88
g89
ssg70
g586
sg63
(lp598
S':'
asbag56
(g77
g58
NtRp599
(dp600
g61
(dp601
sg70
g586
sg63
(lp602
g56
(g57
g58
NtRp603
(dp604
g61
(dp605
g69
I4
ssg70
g599
sg63
(lp606
g498
asbasbasbag56
(g72
g58
NtRp607
(dp608
g61
(dp609
sg70
g451
sg63
(lp610
g56
(g77
g58
NtRp611
(dp612
g61
(dp613
g81
g82
ssg70
g607
sg63
(lp614
S'http_accept'
p615
asbag56
(g77
g58
NtRp616
(dp617
g61
(dp618
g88
g89
ssg70
g607
sg63
(lp619
S':'
asbag56
(g77
g58
NtRp620
(dp621
g61
(dp622
sg70
g607
sg63
(lp623
g56
(g57
g58
NtRp624
(dp625
g61
(dp626
g69
I4
ssg70
g620
sg63
(lp627
S'text/html, application/xml;q=0.9, application/xhtml+xml, image/png, image/webp, image/jpeg, image/gif, image/x-xbitmap, */*;q=0.1'
p628
asbasbasbag56
(g72
g58
NtRp629
(dp630
g61
(dp631
sg70
g451
sg63
(lp632
g56
(g77
g58
NtRp633
(dp634
g61
(dp635
g81
g82
ssg70
g629
sg63
(lp636
S'http_accept_encoding'
p637
asbag56
(g77
g58
NtRp638
(dp639
g61
(dp640
g88
g89
ssg70
g629
sg63
(lp641
S':'
asbag56
(g77
g58
NtRp642
(dp643
g61
(dp644
sg70
g629
sg63
(lp645
g56
(g57
g58
NtRp646
(dp647
g61
(dp648
g69
I4
ssg70
g642
sg63
(lp649
S'gzip, deflate'
p650
asbasbasbag56
(g72
g58
NtRp651
(dp652
g61
(dp653
sg70
g451
sg63
(lp654
g56
(g77
g58
NtRp655
(dp656
g61
(dp657
g81
g82
ssg70
g651
sg63
(lp658
S'http_accept_language'
p659
asbag56
(g77
g58
NtRp660
(dp661
g61
(dp662
g88
g89
ssg70
g651
sg63
(lp663
S':'
asbag56
(g77
g58
NtRp664
(dp665
g61
(dp666
sg70
g651
sg63
(lp667
g56
(g57
g58
NtRp668
(dp669
g61
(dp670
g69
I4
ssg70
g664
sg63
(lp671
S'pt-BR,pt;q=0.9,en;q=0.8'
p672
asbasbasbag56
(g72
g58
NtRp673
(dp674
g61
(dp675
sg70
g451
sg63
(lp676
g56
(g77
g58
NtRp677
(dp678
g61
(dp679
g81
g82
ssg70
g673
sg63
(lp680
S'http_cache_control'
p681
asbag56
(g77
g58
NtRp682
(dp683
g61
(dp684
g88
g89
ssg70
g673
sg63
(lp685
S':'
asbag56
(g77
g58
NtRp686
(dp687
g61
(dp688
sg70
g673
sg63
(lp689
g56
(g57
g58
NtRp690
(dp691
g61
(dp692
g69
I4
ssg70
g686
sg63
(lp693
S'no-cache'
p694
asbasbasbag56
(g72
g58
NtRp695
(dp696
g61
(dp697
sg70
g451
sg63
(lp698
g56
(g77
g58
NtRp699
(dp700
g61
(dp701
g81
g82
ssg70
g695
sg63
(lp702
S'http_connection'
p703
asbag56
(g77
g58
NtRp704
(dp705
g61
(dp706
g88
g89
ssg70
g695
sg63
(lp707
S':'
asbag56
(g77
g58
NtRp708
(dp709
g61
(dp710
sg70
g695
sg63
(lp711
g56
(g57
g58
NtRp712
(dp713
g61
(dp714
g69
I4
ssg70
g708
sg63
(lp715
S'Keep-Alive'
p716
asbasbasbag56
(g72
g58
NtRp717
(dp718
g61
(dp719
sg70
g451
sg63
(lp720
g56
(g77
g58
NtRp721
(dp722
g61
(dp723
g81
g82
ssg70
g717
sg63
(lp724
S'http_cookie'
p725
asbag56
(g77
g58
NtRp726
(dp727
g61
(dp728
g88
g89
ssg70
g717
sg63
(lp729
S':'
asbag56
(g77
g58
NtRp730
(dp731
g61
(dp732
sg70
g717
sg63
(lp733
g56
(g57
g58
NtRp734
(dp735
g61
(dp736
g69
I4
ssg70
g730
sg63
(lp737
S'session_id_admin=127.0.0.1-ce034cfe-dc55-49ae-8249-b059df779a22'
p738
asbasbasbag56
(g72
g58
NtRp739
(dp740
g61
(dp741
sg70
g451
sg63
(lp742
g56
(g77
g58
NtRp743
(dp744
g61
(dp745
g81
g82
ssg70
g739
sg63
(lp746
S'http_host'
p747
asbag56
(g77
g58
NtRp748
(dp749
g61
(dp750
g88
g89
ssg70
g739
sg63
(lp751
S':'
asbag56
(g77
g58
NtRp752
(dp753
g61
(dp754
sg70
g739
sg63
(lp755
g56
(g57
g58
NtRp756
(dp757
g61
(dp758
g69
I4
ssg70
g752
sg63
(lp759
S'localhost'
p760
asbasbasbag56
(g72
g58
NtRp761
(dp762
g61
(dp763
sg70
g451
sg63
(lp764
g56
(g77
g58
NtRp765
(dp766
g61
(dp767
g81
g82
ssg70
g761
sg63
(lp768
S'http_referer'
p769
asbag56
(g77
g58
NtRp770
(dp771
g61
(dp772
g88
g89
ssg70
g761
sg63
(lp773
S':'
asbag56
(g77
g58
NtRp774
(dp775
g61
(dp776
sg70
g761
sg63
(lp777
g56
(g57
g58
NtRp778
(dp779
g61
(dp780
g69
I4
ssg70
g774
sg63
(lp781
S'https://localhost/admin/default/edit/scrum/controllers/ticket.py'
p782
asbasbasbag56
(g72
g58
NtRp783
(dp784
g61
(dp785
sg70
g451
sg63
(lp786
g56
(g77
g58
NtRp787
(dp788
g61
(dp789
g81
g82
ssg70
g783
sg63
(lp790
S'http_user_agent'
p791
asbag56
(g77
g58
NtRp792
(dp793
g61
(dp794
g88
g89
ssg70
g783
sg63
(lp795
S':'
asbag56
(g77
g58
NtRp796
(dp797
g61
(dp798
sg70
g783
sg63
(lp799
g56
(g57
g58
NtRp800
(dp801
g61
(dp802
g69
I4
ssg70
g796
sg63
(lp803
S'Opera/9.80 (X11; Linux i686; U; pt-BR) Presto/2.9.168 Version/11.51'
p804
asbasbasbag56
(g72
g58
NtRp805
(dp806
g61
(dp807
sg70
g451
sg63
(lp808
g56
(g77
g58
NtRp809
(dp810
g61
(dp811
g81
g82
ssg70
g805
sg63
(lp812
S'https'
p813
asbag56
(g77
g58
NtRp814
(dp815
g61
(dp816
g88
g89
ssg70
g805
sg63
(lp817
S':'
asbag56
(g77
g58
NtRp818
(dp819
g61
(dp820
sg70
g805
sg63
(lp821
g56
(g57
g58
NtRp822
(dp823
g61
(dp824
g69
I4
ssg70
g818
sg63
(lp825
S'1'
asbasbasbag56
(g72
g58
NtRp826
(dp827
g61
(dp828
sg70
g451
sg63
(lp829
g56
(g77
g58
NtRp830
(dp831
g61
(dp832
g81
g82
ssg70
g826
sg63
(lp833
S'is_jython'
p834
asbag56
(g77
g58
NtRp835
(dp836
g61
(dp837
g88
g89
ssg70
g826
sg63
(lp838
S':'
asbag56
(g77
g58
NtRp839
(dp840
g61
(dp841
sg70
g826
sg63
(lp842
g56
(g57
g58
NtRp843
(dp844
g61
(dp845
g69
I4
ssg70
g839
sg63
(lp846
g99
asbasbasbag56
(g72
g58
NtRp847
(dp848
g61
(dp849
sg70
g451
sg63
(lp850
g56
(g77
g58
NtRp851
(dp852
g61
(dp853
g81
g82
ssg70
g847
sg63
(lp854
S'mod_wsgi_application_group'
p855
asbag56
(g77
g58
NtRp856
(dp857
g61
(dp858
g88
g89
ssg70
g847
sg63
(lp859
S':'
asbag56
(g77
g58
NtRp860
(dp861
g61
(dp862
sg70
g847
sg63
(lp863
g56
(g57
g58
NtRp864
(dp865
g61
(dp866
g69
I4
ssg70
g860
sg63
(lp867
S'localhost.localdomain|'
p868
asbasbasbag56
(g72
g58
NtRp869
(dp870
g61
(dp871
sg70
g451
sg63
(lp872
g56
(g77
g58
NtRp873
(dp874
g61
(dp875
g81
g82
ssg70
g869
sg63
(lp876
S'mod_wsgi_callable_object'
p877
asbag56
(g77
g58
NtRp878
(dp879
g61
(dp880
g88
g89
ssg70
g869
sg63
(lp881
S':'
asbag56
(g77
g58
NtRp882
(dp883
g61
(dp884
sg70
g869
sg63
(lp885
g56
(g57
g58
NtRp886
(dp887
g61
(dp888
g69
I4
ssg70
g882
sg63
(lp889
S'application'
p890
asbasbasbag56
(g72
g58
NtRp891
(dp892
g61
(dp893
sg70
g451
sg63
(lp894
g56
(g77
g58
NtRp895
(dp896
g61
(dp897
g81
g82
ssg70
g891
sg63
(lp898
S'mod_wsgi_handler_script'
p899
asbag56
(g77
g58
NtRp900
(dp901
g61
(dp902
g88
g89
ssg70
g891
sg63
(lp903
S':'
asbag56
(g77
g58
NtRp904
(dp905
g61
(dp906
sg70
g891
sg63
(lp907
g56
(g57
g58
NtRp908
(dp909
g61
(dp910
g69
I4
ssg70
g904
sg63
(lp911
S''
asbasbasbag56
(g72
g58
NtRp912
(dp913
g61
(dp914
sg70
g451
sg63
(lp915
g56
(g77
g58
NtRp916
(dp917
g61
(dp918
g81
g82
ssg70
g912
sg63
(lp919
S'mod_wsgi_input_chunked'
p920
asbag56
(g77
g58
NtRp921
(dp922
g61
(dp923
g88
g89
ssg70
g912
sg63
(lp924
S':'
asbag56
(g77
g58
NtRp925
(dp926
g61
(dp927
sg70
g912
sg63
(lp928
g56
(g57
g58
NtRp929
(dp930
g61
(dp931
g69
I4
ssg70
g925
sg63
(lp932
S'0'
asbasbasbag56
(g72
g58
NtRp933
(dp934
g61
(dp935
sg70
g451
sg63
(lp936
g56
(g77
g58
NtRp937
(dp938
g61
(dp939
g81
g82
ssg70
g933
sg63
(lp940
S'mod_wsgi_listener_host'
p941
asbag56
(g77
g58
NtRp942
(dp943
g61
(dp944
g88
g89
ssg70
g933
sg63
(lp945
S':'
asbag56
(g77
g58
NtRp946
(dp947
g61
(dp948
sg70
g933
sg63
(lp949
g56
(g57
g58
NtRp950
(dp951
g61
(dp952
g69
I4
ssg70
g946
sg63
(lp953
S''
asbasbasbag56
(g72
g58
NtRp954
(dp955
g61
(dp956
sg70
g451
sg63
(lp957
g56
(g77
g58
NtRp958
(dp959
g61
(dp960
g81
g82
ssg70
g954
sg63
(lp961
S'mod_wsgi_listener_port'
p962
asbag56
(g77
g58
NtRp963
(dp964
g61
(dp965
g88
g89
ssg70
g954
sg63
(lp966
S':'
asbag56
(g77
g58
NtRp967
(dp968
g61
(dp969
sg70
g954
sg63
(lp970
g56
(g57
g58
NtRp971
(dp972
g61
(dp973
g69
I4
ssg70
g967
sg63
(lp974
S'443'
p975
asbasbasbag56
(g72
g58
NtRp976
(dp977
g61
(dp978
sg70
g451
sg63
(lp979
g56
(g77
g58
NtRp980
(dp981
g61
(dp982
g81
g82
ssg70
g976
sg63
(lp983
S'mod_wsgi_process_group'
p984
asbag56
(g77
g58
NtRp985
(dp986
g61
(dp987
g88
g89
ssg70
g976
sg63
(lp988
S':'
asbag56
(g77
g58
NtRp989
(dp990
g61
(dp991
sg70
g976
sg63
(lp992
g56
(g57
g58
NtRp993
(dp994
g61
(dp995
g69
I4
ssg70
g989
sg63
(lp996
S'web2py'
p997
asbasbasbag56
(g72
g58
NtRp998
(dp999
g61
(dp1000
sg70
g451
sg63
(lp1001
g56
(g77
g58
NtRp1002
(dp1003
g61
(dp1004
g81
g82
ssg70
g998
sg63
(lp1005
S'mod_wsgi_request_handler'
p1006
asbag56
(g77
g58
NtRp1007
(dp1008
g61
(dp1009
g88
g89
ssg70
g998
sg63
(lp1010
S':'
asbag56
(g77
g58
NtRp1011
(dp1012
g61
(dp1013
sg70
g998
sg63
(lp1014
g56
(g57
g58
NtRp1015
(dp1016
g61
(dp1017
g69
I4
ssg70
g1011
sg63
(lp1018
S'wsgi-script'
p1019
asbasbasbag56
(g72
g58
NtRp1020
(dp1021
g61
(dp1022
sg70
g451
sg63
(lp1023
g56
(g77
g58
NtRp1024
(dp1025
g61
(dp1026
g81
g82
ssg70
g1020
sg63
(lp1027
S'mod_wsgi_script_reloading'
p1028
asbag56
(g77
g58
NtRp1029
(dp1030
g61
(dp1031
g88
g89
ssg70
g1020
sg63
(lp1032
S':'
asbag56
(g77
g58
NtRp1033
(dp1034
g61
(dp1035
sg70
g1020
sg63
(lp1036
g56
(g57
g58
NtRp1037
(dp1038
g61
(dp1039
g69
I4
ssg70
g1033
sg63
(lp1040
S'1'
asbasbasbag56
(g72
g58
NtRp1041
(dp1042
g61
(dp1043
sg70
g451
sg63
(lp1044
g56
(g77
g58
NtRp1045
(dp1046
g61
(dp1047
g81
g82
ssg70
g1041
sg63
(lp1048
S'mod_wsgi_version'
p1049
asbag56
(g77
g58
NtRp1050
(dp1051
g61
(dp1052
g88
g89
ssg70
g1041
sg63
(lp1053
S':'
asbag56
(g77
g58
NtRp1054
(dp1055
g61
(dp1056
sg70
g1041
sg63
(lp1057
g56
(g57
g58
NtRp1058
(dp1059
g61
(dp1060
g69
I4
ssg70
g1054
sg63
(lp1061
g56
(g65
g58
NtRp1062
(dp1063
g61
(dp1064
g69
I3
ssg70
Nsg63
(lp1065
g56
(g72
g58
NtRp1066
(dp1067
g61
(dp1068
sg70
g1062
sg63
(lp1069
g56
(g77
g58
NtRp1070
(dp1071
g61
(dp1072
sg70
g1066
sg63
(lp1073
g56
(g57
g58
NtRp1074
(dp1075
g61
(dp1076
g69
I3
ssg70
g1070
sg63
(lp1077
S'3'
asbasbasbag56
(g72
g58
NtRp1078
(dp1079
g61
(dp1080
sg70
g1062
sg63
(lp1081
g56
(g77
g58
NtRp1082
(dp1083
g61
(dp1084
sg70
g1078
sg63
(lp1085
g56
(g57
g58
NtRp1086
(dp1087
g61
(dp1088
g69
I3
ssg70
g1082
sg63
(lp1089
S'3'
asbasbasbasbasbasbasbag56
(g72
g58
NtRp1090
(dp1091
g61
(dp1092
sg70
g451
sg63
(lp1093
g56
(g77
g58
NtRp1094
(dp1095
g61
(dp1096
g81
g82
ssg70
g1090
sg63
(lp1097
S'path_info'
p1098
asbag56
(g77
g58
NtRp1099
(dp1100
g61
(dp1101
g88
g89
ssg70
g1090
sg63
(lp1102
S':'
asbag56
(g77
g58
NtRp1103
(dp1104
g61
(dp1105
sg70
g1090
sg63
(lp1106
g56
(g57
g58
NtRp1107
(dp1108
g61
(dp1109
g69
I4
ssg70
g1103
sg63
(lp1110
S'/scrum/ticket/index'
p1111
asbasbasbag56
(g72
g58
NtRp1112
(dp1113
g61
(dp1114
sg70
g451
sg63
(lp1115
g56
(g77
g58
NtRp1116
(dp1117
g61
(dp1118
g81
g82
ssg70
g1112
sg63
(lp1119
S'path_translated'
p1120
asbag56
(g77
g58
NtRp1121
(dp1122
g61
(dp1123
g88
g89
ssg70
g1112
sg63
(lp1124
S':'
asbag56
(g77
g58
NtRp1125
(dp1126
g61
(dp1127
sg70
g1112
sg63
(lp1128
g56
(g57
g58
NtRp1129
(dp1130
g61
(dp1131
g69
I4
ssg70
g1125
sg63
(lp1132
S'/home/www-data/web2py/wsgihandler.py/scrum/ticket/index'
p1133
asbasbasbag56
(g72
g58
NtRp1134
(dp1135
g61
(dp1136
sg70
g451
sg63
(lp1137
g56
(g77
g58
NtRp1138
(dp1139
g61
(dp1140
g81
g82
ssg70
g1134
sg63
(lp1141
S'query_string'
p1142
asbag56
(g77
g58
NtRp1143
(dp1144
g61
(dp1145
g88
g89
ssg70
g1134
sg63
(lp1146
S':'
asbag56
(g77
g58
NtRp1147
(dp1148
g61
(dp1149
sg70
g1134
sg63
(lp1150
g56
(g57
g58
NtRp1151
(dp1152
g61
(dp1153
g69
I4
ssg70
g1147
sg63
(lp1154
S''
asbasbasbag56
(g72
g58
NtRp1155
(dp1156
g61
(dp1157
sg70
g451
sg63
(lp1158
g56
(g77
g58
NtRp1159
(dp1160
g61
(dp1161
g81
g82
ssg70
g1155
sg63
(lp1162
S'remote_addr'
p1163
asbag56
(g77
g58
NtRp1164
(dp1165
g61
(dp1166
g88
g89
ssg70
g1155
sg63
(lp1167
S':'
asbag56
(g77
g58
NtRp1168
(dp1169
g61
(dp1170
sg70
g1155
sg63
(lp1171
g56
(g57
g58
NtRp1172
(dp1173
g61
(dp1174
g69
I4
ssg70
g1168
sg63
(lp1175
g189
asbasbasbag56
(g72
g58
NtRp1176
(dp1177
g61
(dp1178
sg70
g451
sg63
(lp1179
g56
(g77
g58
NtRp1180
(dp1181
g61
(dp1182
g81
g82
ssg70
g1176
sg63
(lp1183
S'remote_port'
p1184
asbag56
(g77
g58
NtRp1185
(dp1186
g61
(dp1187
g88
g89
ssg70
g1176
sg63
(lp1188
S':'
asbag56
(g77
g58
NtRp1189
(dp1190
g61
(dp1191
sg70
g1176
sg63
(lp1192
g56
(g57
g58
NtRp1193
(dp1194
g61
(dp1195
g69
I4
ssg70
g1189
sg63
(lp1196
S'57346'
p1197
asbasbasbag56
(g72
g58
NtRp1198
(dp1199
g61
(dp1200
sg70
g451
sg63
(lp1201
g56
(g77
g58
NtRp1202
(dp1203
g61
(dp1204
g81
g82
ssg70
g1198
sg63
(lp1205
S'request_method'
p1206
asbag56
(g77
g58
NtRp1207
(dp1208
g61
(dp1209
g88
g89
ssg70
g1198
sg63
(lp1210
S':'
asbag56
(g77
g58
NtRp1211
(dp1212
g61
(dp1213
sg70
g1198
sg63
(lp1214
g56
(g57
g58
NtRp1215
(dp1216
g61
(dp1217
g69
I4
ssg70
g1211
sg63
(lp1218
S'GET'
p1219
asbasbasbag56
(g72
g58
NtRp1220
(dp1221
g61
(dp1222
sg70
g451
sg63
(lp1223
g56
(g77
g58
NtRp1224
(dp1225
g61
(dp1226
g81
g82
ssg70
g1220
sg63
(lp1227
S'request_uri'
p1228
asbag56
(g77
g58
NtRp1229
(dp1230
g61
(dp1231
g88
g89
ssg70
g1220
sg63
(lp1232
S':'
asbag56
(g77
g58
NtRp1233
(dp1234
g61
(dp1235
sg70
g1220
sg63
(lp1236
g56
(g57
g58
NtRp1237
(dp1238
g61
(dp1239
g69
I4
ssg70
g1233
sg63
(lp1240
S'/scrum/ticket/index'
p1241
asbasbasbag56
(g72
g58
NtRp1242
(dp1243
g61
(dp1244
sg70
g451
sg63
(lp1245
g56
(g77
g58
NtRp1246
(dp1247
g61
(dp1248
g81
g82
ssg70
g1242
sg63
(lp1249
S'script_filename'
p1250
asbag56
(g77
g58
NtRp1251
(dp1252
g61
(dp1253
g88
g89
ssg70
g1242
sg63
(lp1254
S':'
asbag56
(g77
g58
NtRp1255
(dp1256
g61
(dp1257
sg70
g1242
sg63
(lp1258
g56
(g57
g58
NtRp1259
(dp1260
g61
(dp1261
g69
I4
ssg70
g1255
sg63
(lp1262
S'/home/www-data/web2py/wsgihandler.py'
p1263
asbasbasbag56
(g72
g58
NtRp1264
(dp1265
g61
(dp1266
sg70
g451
sg63
(lp1267
g56
(g77
g58
NtRp1268
(dp1269
g61
(dp1270
g81
g82
ssg70
g1264
sg63
(lp1271
S'script_name'
p1272
asbag56
(g77
g58
NtRp1273
(dp1274
g61
(dp1275
g88
g89
ssg70
g1264
sg63
(lp1276
S':'
asbag56
(g77
g58
NtRp1277
(dp1278
g61
(dp1279
sg70
g1264
sg63
(lp1280
g56
(g57
g58
NtRp1281
(dp1282
g61
(dp1283
g69
I4
ssg70
g1277
sg63
(lp1284
S''
asbasbasbag56
(g72
g58
NtRp1285
(dp1286
g61
(dp1287
sg70
g451
sg63
(lp1288
g56
(g77
g58
NtRp1289
(dp1290
g61
(dp1291
g81
g82
ssg70
g1285
sg63
(lp1292
S'server_addr'
p1293
asbag56
(g77
g58
NtRp1294
(dp1295
g61
(dp1296
g88
g89
ssg70
g1285
sg63
(lp1297
S':'
asbag56
(g77
g58
NtRp1298
(dp1299
g61
(dp1300
sg70
g1285
sg63
(lp1301
g56
(g57
g58
NtRp1302
(dp1303
g61
(dp1304
g69
I4
ssg70
g1298
sg63
(lp1305
S'127.0.0.1'
p1306
asbasbasbag56
(g72
g58
NtRp1307
(dp1308
g61
(dp1309
sg70
g451
sg63
(lp1310
g56
(g77
g58
NtRp1311
(dp1312
g61
(dp1313
g81
g82
ssg70
g1307
sg63
(lp1314
S'server_admin'
p1315
asbag56
(g77
g58
NtRp1316
(dp1317
g61
(dp1318
g88
g89
ssg70
g1307
sg63
(lp1319
S':'
asbag56
(g77
g58
NtRp1320
(dp1321
g61
(dp1322
sg70
g1307
sg63
(lp1323
g56
(g57
g58
NtRp1324
(dp1325
g61
(dp1326
g69
I4
ssg70
g1320
sg63
(lp1327
S'[no address given]'
p1328
asbasbasbag56
(g72
g58
NtRp1329
(dp1330
g61
(dp1331
sg70
g451
sg63
(lp1332
g56
(g77
g58
NtRp1333
(dp1334
g61
(dp1335
g81
g82
ssg70
g1329
sg63
(lp1336
S'server_name'
p1337
asbag56
(g77
g58
NtRp1338
(dp1339
g61
(dp1340
g88
g89
ssg70
g1329
sg63
(lp1341
S':'
asbag56
(g77
g58
NtRp1342
(dp1343
g61
(dp1344
sg70
g1329
sg63
(lp1345
g56
(g57
g58
NtRp1346
(dp1347
g61
(dp1348
g69
I4
ssg70
g1342
sg63
(lp1349
S'localhost'
p1350
asbasbasbag56
(g72
g58
NtRp1351
(dp1352
g61
(dp1353
sg70
g451
sg63
(lp1354
g56
(g77
g58
NtRp1355
(dp1356
g61
(dp1357
g81
g82
ssg70
g1351
sg63
(lp1358
S'server_port'
p1359
asbag56
(g77
g58
NtRp1360
(dp1361
g61
(dp1362
g88
g89
ssg70
g1351
sg63
(lp1363
S':'
asbag56
(g77
g58
NtRp1364
(dp1365
g61
(dp1366
sg70
g1351
sg63
(lp1367
g56
(g57
g58
NtRp1368
(dp1369
g61
(dp1370
g69
I4
ssg70
g1364
sg63
(lp1371
S'443'
p1372
asbasbasbag56
(g72
g58
NtRp1373
(dp1374
g61
(dp1375
sg70
g451
sg63
(lp1376
g56
(g77
g58
NtRp1377
(dp1378
g61
(dp1379
g81
g82
ssg70
g1373
sg63
(lp1380
S'server_protocol'
p1381
asbag56
(g77
g58
NtRp1382
(dp1383
g61
(dp1384
g88
g89
ssg70
g1373
sg63
(lp1385
S':'
asbag56
(g77
g58
NtRp1386
(dp1387
g61
(dp1388
sg70
g1373
sg63
(lp1389
g56
(g57
g58
NtRp1390
(dp1391
g61
(dp1392
g69
I4
ssg70
g1386
sg63
(lp1393
S'HTTP/1.1'
p1394
asbasbasbag56
(g72
g58
NtRp1395
(dp1396
g61
(dp1397
sg70
g451
sg63
(lp1398
g56
(g77
g58
NtRp1399
(dp1400
g61
(dp1401
g81
g82
ssg70
g1395
sg63
(lp1402
S'server_signature'
p1403
asbag56
(g77
g58
NtRp1404
(dp1405
g61
(dp1406
g88
g89
ssg70
g1395
sg63
(lp1407
S':'
asbag56
(g77
g58
NtRp1408
(dp1409
g61
(dp1410
sg70
g1395
sg63
(lp1411
g56
(g57
g58
NtRp1412
(dp1413
g61
(dp1414
g69
I4
ssg70
g1408
sg63
(lp1415
S'<address>Apache/2.2.17 (Ubuntu) Server at localhost Port 443</address>\n'
p1416
asbasbasbag56
(g72
g58
NtRp1417
(dp1418
g61
(dp1419
sg70
g451
sg63
(lp1420
g56
(g77
g58
NtRp1421
(dp1422
g61
(dp1423
g81
g82
ssg70
g1417
sg63
(lp1424
S'server_software'
p1425
asbag56
(g77
g58
NtRp1426
(dp1427
g61
(dp1428
g88
g89
ssg70
g1417
sg63
(lp1429
S':'
asbag56
(g77
g58
NtRp1430
(dp1431
g61
(dp1432
sg70
g1417
sg63
(lp1433
g56
(g57
g58
NtRp1434
(dp1435
g61
(dp1436
g69
I4
ssg70
g1430
sg63
(lp1437
S'Apache/2.2.17 (Ubuntu)'
p1438
asbasbasbag56
(g72
g58
NtRp1439
(dp1440
g61
(dp1441
sg70
g451
sg63
(lp1442
g56
(g77
g58
NtRp1443
(dp1444
g61
(dp1445
g81
g82
ssg70
g1439
sg63
(lp1446
S'ssl_tls_sni'
p1447
asbag56
(g77
g58
NtRp1448
(dp1449
g61
(dp1450
g88
g89
ssg70
g1439
sg63
(lp1451
S':'
asbag56
(g77
g58
NtRp1452
(dp1453
g61
(dp1454
sg70
g1439
sg63
(lp1455
g56
(g57
g58
NtRp1456
(dp1457
g61
(dp1458
g69
I4
ssg70
g1452
sg63
(lp1459
S'localhost'
p1460
asbasbasbag56
(g72
g58
NtRp1461
(dp1462
g61
(dp1463
sg70
g451
sg63
(lp1464
g56
(g77
g58
NtRp1465
(dp1466
g61
(dp1467
g81
g82
ssg70
g1461
sg63
(lp1468
S'web2py_path'
p1469
asbag56
(g77
g58
NtRp1470
(dp1471
g61
(dp1472
g88
g89
ssg70
g1461
sg63
(lp1473
S':'
asbag56
(g77
g58
NtRp1474
(dp1475
g61
(dp1476
sg70
g1461
sg63
(lp1477
g56
(g57
g58
NtRp1478
(dp1479
g61
(dp1480
g69
I4
ssg70
g1474
sg63
(lp1481
g498
asbasbasbag56
(g72
g58
NtRp1482
(dp1483
g61
(dp1484
sg70
g451
sg63
(lp1485
g56
(g77
g58
NtRp1486
(dp1487
g61
(dp1488
g81
g82
ssg70
g1482
sg63
(lp1489
S'web2py_version'
p1490
asbag56
(g77
g58
NtRp1491
(dp1492
g61
(dp1493
g88
g89
ssg70
g1482
sg63
(lp1494
S':'
asbag56
(g77
g58
NtRp1495
(dp1496
g61
(dp1497
sg70
g1482
sg63
(lp1498
g56
(g57
g58
NtRp1499
(dp1500
g61
(dp1501
g69
I4
ssg70
g1495
sg63
(lp1502
S'Version 1.98.2 (2011-08-04 00:47:09)\n'
p1503
asbasbasbag56
(g72
g58
NtRp1504
(dp1505
g61
(dp1506
sg70
g451
sg63
(lp1507
g56
(g77
g58
NtRp1508
(dp1509
g61
(dp1510
g81
g82
ssg70
g1504
sg63
(lp1511
S'wsgi_errors'
p1512
asbag56
(g77
g58
NtRp1513
(dp1514
g61
(dp1515
g88
g89
ssg70
g1504
sg63
(lp1516
S':'
asbag56
(g77
g58
NtRp1517
(dp1518
g61
(dp1519
sg70
g1504
sg63
(lp1520
g56
(g57
g58
NtRp1521
(dp1522
g61
(dp1523
g69
I4
ssg70
g1517
sg63
(lp1524
S'<mod_wsgi.Log object at 0xb962d7c8>'
p1525
asbasbasbag56
(g72
g58
NtRp1526
(dp1527
g61
(dp1528
sg70
g451
sg63
(lp1529
g56
(g77
g58
NtRp1530
(dp1531
g61
(dp1532
g81
g82
ssg70
g1526
sg63
(lp1533
S'wsgi_file_wrapper'
p1534
asbag56
(g77
g58
NtRp1535
(dp1536
g61
(dp1537
g88
g89
ssg70
g1526
sg63
(lp1538
S':'
asbag56
(g77
g58
NtRp1539
(dp1540
g61
(dp1541
sg70
g1526
sg63
(lp1542
g56
(g57
g58
NtRp1543
(dp1544
g61
(dp1545
g69
I4
ssg70
g1539
sg63
(lp1546
S'<built-in method file_wrapper of mod_wsgi.Adapter object at 0xb9821260>'
p1547
asbasbasbag56
(g72
g58
NtRp1548
(dp1549
g61
(dp1550
sg70
g451
sg63
(lp1551
g56
(g77
g58
NtRp1552
(dp1553
g61
(dp1554
g81
g82
ssg70
g1548
sg63
(lp1555
S'wsgi_input'
p1556
asbag56
(g77
g58
NtRp1557
(dp1558
g61
(dp1559
g88
g89
ssg70
g1548
sg63
(lp1560
S':'
asbag56
(g77
g58
NtRp1561
(dp1562
g61
(dp1563
sg70
g1548
sg63
(lp1564
g56
(g57
g58
NtRp1565
(dp1566
g61
(dp1567
g69
I4
ssg70
g1561
sg63
(lp1568
S'<mod_wsgi.Input object at 0xb962d9a8>'
p1569
asbasbasbag56
(g72
g58
NtRp1570
(dp1571
g61
(dp1572
sg70
g451
sg63
(lp1573
g56
(g77
g58
NtRp1574
(dp1575
g61
(dp1576
g81
g82
ssg70
g1570
sg63
(lp1577
S'wsgi_multiprocess'
p1578
asbag56
(g77
g58
NtRp1579
(dp1580
g61
(dp1581
g88
g89
ssg70
g1570
sg63
(lp1582
S':'
asbag56
(g77
g58
NtRp1583
(dp1584
g61
(dp1585
sg70
g1570
sg63
(lp1586
g56
(g57
g58
NtRp1587
(dp1588
g61
(dp1589
g69
I4
ssg70
g1583
sg63
(lp1590
g99
asbasbasbag56
(g72
g58
NtRp1591
(dp1592
g61
(dp1593
sg70
g451
sg63
(lp1594
g56
(g77
g58
NtRp1595
(dp1596
g61
(dp1597
g81
g82
ssg70
g1591
sg63
(lp1598
S'wsgi_multithread'
p1599
asbag56
(g77
g58
NtRp1600
(dp1601
g61
(dp1602
g88
g89
ssg70
g1591
sg63
(lp1603
S':'
asbag56
(g77
g58
NtRp1604
(dp1605
g61
(dp1606
sg70
g1591
sg63
(lp1607
g56
(g57
g58
NtRp1608
(dp1609
g61
(dp1610
g69
I4
ssg70
g1604
sg63
(lp1611
S'True'
p1612
asbasbasbag56
(g72
g58
NtRp1613
(dp1614
g61
(dp1615
sg70
g451
sg63
(lp1616
g56
(g77
g58
NtRp1617
(dp1618
g61
(dp1619
g81
g82
ssg70
g1613
sg63
(lp1620
S'wsgi_run_once'
p1621
asbag56
(g77
g58
NtRp1622
(dp1623
g61
(dp1624
g88
g89
ssg70
g1613
sg63
(lp1625
S':'
asbag56
(g77
g58
NtRp1626
(dp1627
g61
(dp1628
sg70
g1613
sg63
(lp1629
g56
(g57
g58
NtRp1630
(dp1631
g61
(dp1632
g69
I4
ssg70
g1626
sg63
(lp1633
g99
asbasbasbag56
(g72
g58
NtRp1634
(dp1635
g61
(dp1636
sg70
g451
sg63
(lp1637
g56
(g77
g58
NtRp1638
(dp1639
g61
(dp1640
g81
g82
ssg70
g1634
sg63
(lp1641
S'wsgi_url_scheme'
p1642
asbag56
(g77
g58
NtRp1643
(dp1644
g61
(dp1645
g88
g89
ssg70
g1634
sg63
(lp1646
S':'
asbag56
(g77
g58
NtRp1647
(dp1648
g61
(dp1649
sg70
g1634
sg63
(lp1650
g56
(g57
g58
NtRp1651
(dp1652
g61
(dp1653
g69
I4
ssg70
g1647
sg63
(lp1654
S'https'
p1655
asbasbasbag56
(g72
g58
NtRp1656
(dp1657
g61
(dp1658
sg70
g451
sg63
(lp1659
g56
(g77
g58
NtRp1660
(dp1661
g61
(dp1662
g81
g82
ssg70
g1656
sg63
(lp1663
S'wsgi_version'
p1664
asbag56
(g77
g58
NtRp1665
(dp1666
g61
(dp1667
g88
g89
ssg70
g1656
sg63
(lp1668
S':'
asbag56
(g77
g58
NtRp1669
(dp1670
g61
(dp1671
sg70
g1656
sg63
(lp1672
g56
(g57
g58
NtRp1673
(dp1674
g61
(dp1675
g69
I4
ssg70
g1669
sg63
(lp1676
g56
(g65
g58
NtRp1677
(dp1678
g61
(dp1679
g69
I3
ssg70
Nsg63
(lp1680
g56
(g72
g58
NtRp1681
(dp1682
g61
(dp1683
sg70
g1677
sg63
(lp1684
g56
(g77
g58
NtRp1685
(dp1686
g61
(dp1687
sg70
g1681
sg63
(lp1688
g56
(g57
g58
NtRp1689
(dp1690
g61
(dp1691
g69
I3
ssg70
g1685
sg63
(lp1692
S'1'
asbasbasbag56
(g72
g58
NtRp1693
(dp1694
g61
(dp1695
sg70
g1677
sg63
(lp1696
g56
(g77
g58
NtRp1697
(dp1698
g61
(dp1699
sg70
g1693
sg63
(lp1700
g56
(g57
g58
NtRp1701
(dp1702
g61
(dp1703
g69
I3
ssg70
g1697
sg63
(lp1704
S'1'
asbasbasbasbasbasbasbasbasbasbasbag56
(g72
g58
NtRp1705
(dp1706
g61
(dp1707
sg70
g66
sg63
(lp1708
g56
(g77
g58
NtRp1709
(dp1710
g61
(dp1711
g81
g82
ssg70
g1705
sg63
(lp1712
S'extension'
p1713
asbag56
(g77
g58
NtRp1714
(dp1715
g61
(dp1716
g88
g89
ssg70
g1705
sg63
(lp1717
S':'
asbag56
(g77
g58
NtRp1718
(dp1719
g61
(dp1720
sg70
g1705
sg63
(lp1721
g56
(g57
g58
NtRp1722
(dp1723
g61
(dp1724
g69
I5
ssg70
g1718
sg63
(lp1725
S'html'
p1726
asbasbasbag56
(g72
g58
NtRp1727
(dp1728
g61
(dp1729
sg70
g66
sg63
(lp1730
g56
(g77
g58
NtRp1731
(dp1732
g61
(dp1733
g81
g82
ssg70
g1727
sg63
(lp1734
S'folder'
p1735
asbag56
(g77
g58
NtRp1736
(dp1737
g61
(dp1738
g88
g89
ssg70
g1727
sg63
(lp1739
S':'
asbag56
(g77
g58
NtRp1740
(dp1741
g61
(dp1742
sg70
g1727
sg63
(lp1743
g56
(g57
g58
NtRp1744
(dp1745
g61
(dp1746
g69
I5
ssg70
g1740
sg63
(lp1747
S'/home/www-data/web2py/applications/scrum/'
p1748
asbasbasbag56
(g72
g58
NtRp1749
(dp1750
g61
(dp1751
sg70
g66
sg63
(lp1752
g56
(g77
g58
NtRp1753
(dp1754
g61
(dp1755
g81
g82
ssg70
g1749
sg63
(lp1756
S'function'
p1757
asbag56
(g77
g58
NtRp1758
(dp1759
g61
(dp1760
g88
g89
ssg70
g1749
sg63
(lp1761
S':'
asbag56
(g77
g58
NtRp1762
(dp1763
g61
(dp1764
sg70
g1749
sg63
(lp1765
g56
(g57
g58
NtRp1766
(dp1767
g61
(dp1768
g69
I5
ssg70
g1762
sg63
(lp1769
S'index'
p1770
asbasbasbag56
(g72
g58
NtRp1771
(dp1772
g61
(dp1773
sg70
g66
sg63
(lp1774
g56
(g77
g58
NtRp1775
(dp1776
g61
(dp1777
g81
g82
ssg70
g1771
sg63
(lp1778
S'get_vars'
p1779
asbag56
(g77
g58
NtRp1780
(dp1781
g61
(dp1782
g88
g89
ssg70
g1771
sg63
(lp1783
S':'
asbag56
(g77
g58
NtRp1784
(dp1785
g61
(dp1786
sg70
g1771
sg63
(lp1787
g56
(g57
g58
NtRp1788
(dp1789
g61
(dp1790
g69
I5
ssg70
g1784
sg63
(lp1791
g56
(g65
g58
NtRp1792
(dp1793
g61
(dp1794
g69
I4
ssg70
Nsg63
(lp1795
sbasbasbasbag56
(g72
g58
NtRp1796
(dp1797
g61
(dp1798
sg70
g66
sg63
(lp1799
g56
(g77
g58
NtRp1800
(dp1801
g61
(dp1802
g81
g82
ssg70
g1796
sg63
(lp1803
S'is_https'
p1804
asbag56
(g77
g58
NtRp1805
(dp1806
g61
(dp1807
g88
g89
ssg70
g1796
sg63
(lp1808
S':'
asbag56
(g77
g58
NtRp1809
(dp1810
g61
(dp1811
sg70
g1796
sg63
(lp1812
g56
(g57
g58
NtRp1813
(dp1814
g61
(dp1815
g69
I5
ssg70
g1809
sg63
(lp1816
g1612
asbasbasbag56
(g72
g58
NtRp1817
(dp1818
g61
(dp1819
sg70
g66
sg63
(lp1820
g56
(g77
g58
NtRp1821
(dp1822
g61
(dp1823
g81
g82
ssg70
g1817
sg63
(lp1824
S'is_local'
p1825
asbag56
(g77
g58
NtRp1826
(dp1827
g61
(dp1828
g88
g89
ssg70
g1817
sg63
(lp1829
S':'
asbag56
(g77
g58
NtRp1830
(dp1831
g61
(dp1832
sg70
g1817
sg63
(lp1833
g56
(g57
g58
NtRp1834
(dp1835
g61
(dp1836
g69
I5
ssg70
g1830
sg63
(lp1837
g1612
asbasbasbag56
(g72
g58
NtRp1838
(dp1839
g61
(dp1840
sg70
g66
sg63
(lp1841
g56
(g77
g58
NtRp1842
(dp1843
g61
(dp1844
g81
g82
ssg70
g1838
sg63
(lp1845
S'is_restful'
p1846
asbag56
(g77
g58
NtRp1847
(dp1848
g61
(dp1849
g88
g89
ssg70
g1838
sg63
(lp1850
S':'
asbag56
(g77
g58
NtRp1851
(dp1852
g61
(dp1853
sg70
g1838
sg63
(lp1854
g56
(g57
g58
NtRp1855
(dp1856
g61
(dp1857
g69
I5
ssg70
g1851
sg63
(lp1858
g99
asbasbasbag56
(g72
g58
NtRp1859
(dp1860
g61
(dp1861
sg70
g66
sg63
(lp1862
g56
(g77
g58
NtRp1863
(dp1864
g61
(dp1865
g81
g82
ssg70
g1859
sg63
(lp1866
S'now'
p1867
asbag56
(g77
g58
NtRp1868
(dp1869
g61
(dp1870
g88
g89
ssg70
g1859
sg63
(lp1871
S':'
asbag56
(g77
g58
NtRp1872
(dp1873
g61
(dp1874
sg70
g1859
sg63
(lp1875
g56
(g57
g58
NtRp1876
(dp1877
g61
(dp1878
g69
I5
ssg70
g1872
sg63
(lp1879
S'datetime.datetime(2011, 9, 8, 13, 38, 24, 29790)'
p1880
asbasbasbag56
(g72
g58
NtRp1881
(dp1882
g61
(dp1883
sg70
g66
sg63
(lp1884
g56
(g77
g58
NtRp1885
(dp1886
g61
(dp1887
g81
g82
ssg70
g1881
sg63
(lp1888
S'post_vars'
p1889
asbag56
(g77
g58
NtRp1890
(dp1891
g61
(dp1892
g88
g89
ssg70
g1881
sg63
(lp1893
S':'
asbag56
(g77
g58
NtRp1894
(dp1895
g61
(dp1896
sg70
g1881
sg63
(lp1897
g56
(g57
g58
NtRp1898
(dp1899
g61
(dp1900
g69
I5
ssg70
g1894
sg63
(lp1901
g56
(g65
g58
NtRp1902
(dp1903
g61
(dp1904
g69
I4
ssg70
Nsg63
(lp1905
sbasbasbasbag56
(g72
g58
NtRp1906
(dp1907
g61
(dp1908
sg70
g66
sg63
(lp1909
g56
(g77
g58
NtRp1910
(dp1911
g61
(dp1912
g81
g82
ssg70
g1906
sg63
(lp1913
S'url'
p1914
asbag56
(g77
g58
NtRp1915
(dp1916
g61
(dp1917
g88
g89
ssg70
g1906
sg63
(lp1918
S':'
asbag56
(g77
g58
NtRp1919
(dp1920
g61
(dp1921
sg70
g1906
sg63
(lp1922
g56
(g57
g58
NtRp1923
(dp1924
g61
(dp1925
g69
I5
ssg70
g1919
sg63
(lp1926
S'/scrum/ticket/index'
p1927
asbasbasbag56
(g72
g58
NtRp1928
(dp1929
g61
(dp1930
sg70
g66
sg63
(lp1931
g56
(g77
g58
NtRp1932
(dp1933
g61
(dp1934
g81
g82
ssg70
g1928
sg63
(lp1935
S'uuid'
p1936
asbag56
(g77
g58
NtRp1937
(dp1938
g61
(dp1939
g88
g89
ssg70
g1928
sg63
(lp1940
S':'
asbag56
(g77
g58
NtRp1941
(dp1942
g61
(dp1943
sg70
g1928
sg63
(lp1944
g56
(g57
g58
NtRp1945
(dp1946
g61
(dp1947
g69
I5
ssg70
g1941
sg63
(lp1948
S'scrum/127.0.0.1.2011-09-08.13-38-24.f7f5ab38-f549-46cc-ab77-3c6f45f7b3ec'
p1949
asbasbasbag56
(g72
g58
NtRp1950
(dp1951
g61
(dp1952
sg70
g66
sg63
(lp1953
g56
(g77
g58
NtRp1954
(dp1955
g61
(dp1956
g81
g82
ssg70
g1950
sg63
(lp1957
S'vars'
p1958
asbag56
(g77
g58
NtRp1959
(dp1960
g61
(dp1961
g88
g89
ssg70
g1950
sg63
(lp1962
S':'
asbag56
(g77
g58
NtRp1963
(dp1964
g61
(dp1965
sg70
g1950
sg63
(lp1966
g56
(g57
g58
NtRp1967
(dp1968
g61
(dp1969
g69
I5
ssg70
g1963
sg63
(lp1970
g56
(g65
g58
NtRp1971
(dp1972
g61
(dp1973
g69
I4
ssg70
Nsg63
(lp1974
sbasbasbasbag56
(g72
g58
NtRp1975
(dp1976
g61
(dp1977
sg70
g66
sg63
(lp1978
g56
(g77
g58
NtRp1979
(dp1980
g61
(dp1981
g81
g82
ssg70
g1975
sg63
(lp1982
S'wsgi'
p1983
asbag56
(g77
g58
NtRp1984
(dp1985
g61
(dp1986
g88
g89
ssg70
g1975
sg63
(lp1987
S':'
asbag56
(g77
g58
NtRp1988
(dp1989
g61
(dp1990
sg70
g1975
sg63
(lp1991
g56
(g57
g58
NtRp1992
(dp1993
g61
(dp1994
g69
I5
ssg70
g1988
sg63
(lp1995
g56
(g65
g58
NtRp1996
(dp1997
g61
(dp1998
g69
I4
ssg70
Nsg63
(lp1999
g56
(g72
g58
NtRp2000
(dp2001
g61
(dp2002
sg70
g1996
sg63
(lp2003
g56
(g77
g58
NtRp2004
(dp2005
g61
(dp2006
g81
g82
ssg70
g2000
sg63
(lp2007
S'environ'
p2008
asbag56
(g77
g58
NtRp2009
(dp2010
g61
(dp2011
g88
g89
ssg70
g2000
sg63
(lp2012
S':'
asbag56
(g77
g58
NtRp2013
(dp2014
g61
(dp2015
sg70
g2000
sg63
(lp2016
g56
(g57
g58
NtRp2017
(dp2018
g61
(dp2019
g69
I4
ssg70
g2013
sg63
(lp2020
g56
(g65
g58
NtRp2021
(dp2022
g61
(dp2023
g69
I3
ssg70
Nsg63
(lp2024
g56
(g72
g58
NtRp2025
(dp2026
g61
(dp2027
sg70
g2021
sg63
(lp2028
g56
(g77
g58
NtRp2029
(dp2030
g61
(dp2031
g81
g82
ssg70
g2025
sg63
(lp2032
S'DOCUMENT_ROOT'
p2033
asbag56
(g77
g58
NtRp2034
(dp2035
g61
(dp2036
g88
g89
ssg70
g2025
sg63
(lp2037
S':'
asbag56
(g77
g58
NtRp2038
(dp2039
g61
(dp2040
sg70
g2025
sg63
(lp2041
g56
(g57
g58
NtRp2042
(dp2043
g61
(dp2044
g69
I3
ssg70
g2038
sg63
(lp2045
g563
asbasbasbag56
(g72
g58
NtRp2046
(dp2047
g61
(dp2048
sg70
g2021
sg63
(lp2049
g56
(g77
g58
NtRp2050
(dp2051
g61
(dp2052
g81
g82
ssg70
g2046
sg63
(lp2053
S'GATEWAY_INTERFACE'
p2054
asbag56
(g77
g58
NtRp2055
(dp2056
g61
(dp2057
g88
g89
ssg70
g2046
sg63
(lp2058
S':'
asbag56
(g77
g58
NtRp2059
(dp2060
g61
(dp2061
sg70
g2046
sg63
(lp2062
g56
(g57
g58
NtRp2063
(dp2064
g61
(dp2065
g69
I3
ssg70
g2059
sg63
(lp2066
g585
asbasbasbag56
(g72
g58
NtRp2067
(dp2068
g61
(dp2069
sg70
g2021
sg63
(lp2070
g56
(g77
g58
NtRp2071
(dp2072
g61
(dp2073
g81
g82
ssg70
g2067
sg63
(lp2074
S'HTTPS'
p2075
asbag56
(g77
g58
NtRp2076
(dp2077
g61
(dp2078
g88
g89
ssg70
g2067
sg63
(lp2079
S':'
asbag56
(g77
g58
NtRp2080
(dp2081
g61
(dp2082
sg70
g2067
sg63
(lp2083
g56
(g57
g58
NtRp2084
(dp2085
g61
(dp2086
g69
I3
ssg70
g2080
sg63
(lp2087
S'1'
asbasbasbag56
(g72
g58
NtRp2088
(dp2089
g61
(dp2090
sg70
g2021
sg63
(lp2091
g56
(g77
g58
NtRp2092
(dp2093
g61
(dp2094
g81
g82
ssg70
g2088
sg63
(lp2095
S'HTTP_ACCEPT'
p2096
asbag56
(g77
g58
NtRp2097
(dp2098
g61
(dp2099
g88
g89
ssg70
g2088
sg63
(lp2100
S':'
asbag56
(g77
g58
NtRp2101
(dp2102
g61
(dp2103
sg70
g2088
sg63
(lp2104
g56
(g57
g58
NtRp2105
(dp2106
g61
(dp2107
g69
I3
ssg70
g2101
sg63
(lp2108
g628
asbasbasbag56
(g72
g58
NtRp2109
(dp2110
g61
(dp2111
sg70
g2021
sg63
(lp2112
g56
(g77
g58
NtRp2113
(dp2114
g61
(dp2115
g81
g82
ssg70
g2109
sg63
(lp2116
S'HTTP_ACCEPT_ENCODING'
p2117
asbag56
(g77
g58
NtRp2118
(dp2119
g61
(dp2120
g88
g89
ssg70
g2109
sg63
(lp2121
S':'
asbag56
(g77
g58
NtRp2122
(dp2123
g61
(dp2124
sg70
g2109
sg63
(lp2125
g56
(g57
g58
NtRp2126
(dp2127
g61
(dp2128
g69
I3
ssg70
g2122
sg63
(lp2129
g650
asbasbasbag56
(g72
g58
NtRp2130
(dp2131
g61
(dp2132
sg70
g2021
sg63
(lp2133
g56
(g77
g58
NtRp2134
(dp2135
g61
(dp2136
g81
g82
ssg70
g2130
sg63
(lp2137
S'HTTP_ACCEPT_LANGUAGE'
p2138
asbag56
(g77
g58
NtRp2139
(dp2140
g61
(dp2141
g88
g89
ssg70
g2130
sg63
(lp2142
S':'
asbag56
(g77
g58
NtRp2143
(dp2144
g61
(dp2145
sg70
g2130
sg63
(lp2146
g56
(g57
g58
NtRp2147
(dp2148
g61
(dp2149
g69
I3
ssg70
g2143
sg63
(lp2150
g672
asbasbasbag56
(g72
g58
NtRp2151
(dp2152
g61
(dp2153
sg70
g2021
sg63
(lp2154
g56
(g77
g58
NtRp2155
(dp2156
g61
(dp2157
g81
g82
ssg70
g2151
sg63
(lp2158
S'HTTP_CACHE_CONTROL'
p2159
asbag56
(g77
g58
NtRp2160
(dp2161
g61
(dp2162
g88
g89
ssg70
g2151
sg63
(lp2163
S':'
asbag56
(g77
g58
NtRp2164
(dp2165
g61
(dp2166
sg70
g2151
sg63
(lp2167
g56
(g57
g58
NtRp2168
(dp2169
g61
(dp2170
g69
I3
ssg70
g2164
sg63
(lp2171
g694
asbasbasbag56
(g72
g58
NtRp2172
(dp2173
g61
(dp2174
sg70
g2021
sg63
(lp2175
g56
(g77
g58
NtRp2176
(dp2177
g61
(dp2178
g81
g82
ssg70
g2172
sg63
(lp2179
S'HTTP_CONNECTION'
p2180
asbag56
(g77
g58
NtRp2181
(dp2182
g61
(dp2183
g88
g89
ssg70
g2172
sg63
(lp2184
S':'
asbag56
(g77
g58
NtRp2185
(dp2186
g61
(dp2187
sg70
g2172
sg63
(lp2188
g56
(g57
g58
NtRp2189
(dp2190
g61
(dp2191
g69
I3
ssg70
g2185
sg63
(lp2192
g716
asbasbasbag56
(g72
g58
NtRp2193
(dp2194
g61
(dp2195
sg70
g2021
sg63
(lp2196
g56
(g77
g58
NtRp2197
(dp2198
g61
(dp2199
g81
g82
ssg70
g2193
sg63
(lp2200
S'HTTP_COOKIE'
p2201
asbag56
(g77
g58
NtRp2202
(dp2203
g61
(dp2204
g88
g89
ssg70
g2193
sg63
(lp2205
S':'
asbag56
(g77
g58
NtRp2206
(dp2207
g61
(dp2208
sg70
g2193
sg63
(lp2209
g56
(g57
g58
NtRp2210
(dp2211
g61
(dp2212
g69
I3
ssg70
g2206
sg63
(lp2213
g738
asbasbasbag56
(g72
g58
NtRp2214
(dp2215
g61
(dp2216
sg70
g2021
sg63
(lp2217
g56
(g77
g58
NtRp2218
(dp2219
g61
(dp2220
g81
g82
ssg70
g2214
sg63
(lp2221
S'HTTP_HOST'
p2222
asbag56
(g77
g58
NtRp2223
(dp2224
g61
(dp2225
g88
g89
ssg70
g2214
sg63
(lp2226
S':'
asbag56
(g77
g58
NtRp2227
(dp2228
g61
(dp2229
sg70
g2214
sg63
(lp2230
g56
(g57
g58
NtRp2231
(dp2232
g61
(dp2233
g69
I3
ssg70
g2227
sg63
(lp2234
g760
asbasbasbag56
(g72
g58
NtRp2235
(dp2236
g61
(dp2237
sg70
g2021
sg63
(lp2238
g56
(g77
g58
NtRp2239
(dp2240
g61
(dp2241
g81
g82
ssg70
g2235
sg63
(lp2242
S'HTTP_REFERER'
p2243
asbag56
(g77
g58
NtRp2244
(dp2245
g61
(dp2246
g88
g89
ssg70
g2235
sg63
(lp2247
S':'
asbag56
(g77
g58
NtRp2248
(dp2249
g61
(dp2250
sg70
g2235
sg63
(lp2251
g56
(g57
g58
NtRp2252
(dp2253
g61
(dp2254
g69
I3
ssg70
g2248
sg63
(lp2255
g782
asbasbasbag56
(g72
g58
NtRp2256
(dp2257
g61
(dp2258
sg70
g2021
sg63
(lp2259
g56
(g77
g58
NtRp2260
(dp2261
g61
(dp2262
g81
g82
ssg70
g2256
sg63
(lp2263
S'HTTP_USER_AGENT'
p2264
asbag56
(g77
g58
NtRp2265
(dp2266
g61
(dp2267
g88
g89
ssg70
g2256
sg63
(lp2268
S':'
asbag56
(g77
g58
NtRp2269
(dp2270
g61
(dp2271
sg70
g2256
sg63
(lp2272
g56
(g57
g58
NtRp2273
(dp2274
g61
(dp2275
g69
I3
ssg70
g2269
sg63
(lp2276
g804
asbasbasbag56
(g72
g58
NtRp2277
(dp2278
g61
(dp2279
sg70
g2021
sg63
(lp2280
g56
(g77
g58
NtRp2281
(dp2282
g61
(dp2283
g81
g82
ssg70
g2277
sg63
(lp2284
S'PATH_INFO'
p2285
asbag56
(g77
g58
NtRp2286
(dp2287
g61
(dp2288
g88
g89
ssg70
g2277
sg63
(lp2289
S':'
asbag56
(g77
g58
NtRp2290
(dp2291
g61
(dp2292
sg70
g2277
sg63
(lp2293
g56
(g57
g58
NtRp2294
(dp2295
g61
(dp2296
g69
I3
ssg70
g2290
sg63
(lp2297
g1111
asbasbasbag56
(g72
g58
NtRp2298
(dp2299
g61
(dp2300
sg70
g2021
sg63
(lp2301
g56
(g77
g58
NtRp2302
(dp2303
g61
(dp2304
g81
g82
ssg70
g2298
sg63
(lp2305
S'PATH_TRANSLATED'
p2306
asbag56
(g77
g58
NtRp2307
(dp2308
g61
(dp2309
g88
g89
ssg70
g2298
sg63
(lp2310
S':'
asbag56
(g77
g58
NtRp2311
(dp2312
g61
(dp2313
sg70
g2298
sg63
(lp2314
g56
(g57
g58
NtRp2315
(dp2316
g61
(dp2317
g69
I3
ssg70
g2311
sg63
(lp2318
g1133
asbasbasbag56
(g72
g58
NtRp2319
(dp2320
g61
(dp2321
sg70
g2021
sg63
(lp2322
g56
(g77
g58
NtRp2323
(dp2324
g61
(dp2325
g81
g82
ssg70
g2319
sg63
(lp2326
S'QUERY_STRING'
p2327
asbag56
(g77
g58
NtRp2328
(dp2329
g61
(dp2330
g88
g89
ssg70
g2319
sg63
(lp2331
S':'
asbag56
(g77
g58
NtRp2332
(dp2333
g61
(dp2334
sg70
g2319
sg63
(lp2335
g56
(g57
g58
NtRp2336
(dp2337
g61
(dp2338
g69
I3
ssg70
g2332
sg63
(lp2339
S''
asbasbasbag56
(g72
g58
NtRp2340
(dp2341
g61
(dp2342
sg70
g2021
sg63
(lp2343
g56
(g77
g58
NtRp2344
(dp2345
g61
(dp2346
g81
g82
ssg70
g2340
sg63
(lp2347
S'REMOTE_ADDR'
p2348
asbag56
(g77
g58
NtRp2349
(dp2350
g61
(dp2351
g88
g89
ssg70
g2340
sg63
(lp2352
S':'
asbag56
(g77
g58
NtRp2353
(dp2354
g61
(dp2355
sg70
g2340
sg63
(lp2356
g56
(g57
g58
NtRp2357
(dp2358
g61
(dp2359
g69
I3
ssg70
g2353
sg63
(lp2360
g189
asbasbasbag56
(g72
g58
NtRp2361
(dp2362
g61
(dp2363
sg70
g2021
sg63
(lp2364
g56
(g77
g58
NtRp2365
(dp2366
g61
(dp2367
g81
g82
ssg70
g2361
sg63
(lp2368
S'REMOTE_PORT'
p2369
asbag56
(g77
g58
NtRp2370
(dp2371
g61
(dp2372
g88
g89
ssg70
g2361
sg63
(lp2373
S':'
asbag56
(g77
g58
NtRp2374
(dp2375
g61
(dp2376
sg70
g2361
sg63
(lp2377
g56
(g57
g58
NtRp2378
(dp2379
g61
(dp2380
g69
I3
ssg70
g2374
sg63
(lp2381
g1197
asbasbasbag56
(g72
g58
NtRp2382
(dp2383
g61
(dp2384
sg70
g2021
sg63
(lp2385
g56
(g77
g58
NtRp2386
(dp2387
g61
(dp2388
g81
g82
ssg70
g2382
sg63
(lp2389
S'REQUEST_METHOD'
p2390
asbag56
(g77
g58
NtRp2391
(dp2392
g61
(dp2393
g88
g89
ssg70
g2382
sg63
(lp2394
S':'
asbag56
(g77
g58
NtRp2395
(dp2396
g61
(dp2397
sg70
g2382
sg63
(lp2398
g56
(g57
g58
NtRp2399
(dp2400
g61
(dp2401
g69
I3
ssg70
g2395
sg63
(lp2402
g1219
asbasbasbag56
(g72
g58
NtRp2403
(dp2404
g61
(dp2405
sg70
g2021
sg63
(lp2406
g56
(g77
g58
NtRp2407
(dp2408
g61
(dp2409
g81
g82
ssg70
g2403
sg63
(lp2410
S'REQUEST_URI'
p2411
asbag56
(g77
g58
NtRp2412
(dp2413
g61
(dp2414
g88
g89
ssg70
g2403
sg63
(lp2415
S':'
asbag56
(g77
g58
NtRp2416
(dp2417
g61
(dp2418
sg70
g2403
sg63
(lp2419
g56
(g57
g58
NtRp2420
(dp2421
g61
(dp2422
g69
I3
ssg70
g2416
sg63
(lp2423
g1241
asbasbasbag56
(g72
g58
NtRp2424
(dp2425
g61
(dp2426
sg70
g2021
sg63
(lp2427
g56
(g77
g58
NtRp2428
(dp2429
g61
(dp2430
g81
g82
ssg70
g2424
sg63
(lp2431
S'SCRIPT_FILENAME'
p2432
asbag56
(g77
g58
NtRp2433
(dp2434
g61
(dp2435
g88
g89
ssg70
g2424
sg63
(lp2436
S':'
asbag56
(g77
g58
NtRp2437
(dp2438
g61
(dp2439
sg70
g2424
sg63
(lp2440
g56
(g57
g58
NtRp2441
(dp2442
g61
(dp2443
g69
I3
ssg70
g2437
sg63
(lp2444
g1263
asbasbasbag56
(g72
g58
NtRp2445
(dp2446
g61
(dp2447
sg70
g2021
sg63
(lp2448
g56
(g77
g58
NtRp2449
(dp2450
g61
(dp2451
g81
g82
ssg70
g2445
sg63
(lp2452
S'SCRIPT_NAME'
p2453
asbag56
(g77
g58
NtRp2454
(dp2455
g61
(dp2456
g88
g89
ssg70
g2445
sg63
(lp2457
S':'
asbag56
(g77
g58
NtRp2458
(dp2459
g61
(dp2460
sg70
g2445
sg63
(lp2461
g56
(g57
g58
NtRp2462
(dp2463
g61
(dp2464
g69
I3
ssg70
g2458
sg63
(lp2465
S''
asbasbasbag56
(g72
g58
NtRp2466
(dp2467
g61
(dp2468
sg70
g2021
sg63
(lp2469
g56
(g77
g58
NtRp2470
(dp2471
g61
(dp2472
g81
g82
ssg70
g2466
sg63
(lp2473
S'SERVER_ADDR'
p2474
asbag56
(g77
g58
NtRp2475
(dp2476
g61
(dp2477
g88
g89
ssg70
g2466
sg63
(lp2478
S':'
asbag56
(g77
g58
NtRp2479
(dp2480
g61
(dp2481
sg70
g2466
sg63
(lp2482
g56
(g57
g58
NtRp2483
(dp2484
g61
(dp2485
g69
I3
ssg70
g2479
sg63
(lp2486
g1306
asbasbasbag56
(g72
g58
NtRp2487
(dp2488
g61
(dp2489
sg70
g2021
sg63
(lp2490
g56
(g77
g58
NtRp2491
(dp2492
g61
(dp2493
g81
g82
ssg70
g2487
sg63
(lp2494
S'SERVER_ADMIN'
p2495
asbag56
(g77
g58
NtRp2496
(dp2497
g61
(dp2498
g88
g89
ssg70
g2487
sg63
(lp2499
S':'
asbag56
(g77
g58
NtRp2500
(dp2501
g61
(dp2502
sg70
g2487
sg63
(lp2503
g56
(g57
g58
NtRp2504
(dp2505
g61
(dp2506
g69
I3
ssg70
g2500
sg63
(lp2507
g1328
asbasbasbag56
(g72
g58
NtRp2508
(dp2509
g61
(dp2510
sg70
g2021
sg63
(lp2511
g56
(g77
g58
NtRp2512
(dp2513
g61
(dp2514
g81
g82
ssg70
g2508
sg63
(lp2515
S'SERVER_NAME'
p2516
asbag56
(g77
g58
NtRp2517
(dp2518
g61
(dp2519
g88
g89
ssg70
g2508
sg63
(lp2520
S':'
asbag56
(g77
g58
NtRp2521
(dp2522
g61
(dp2523
sg70
g2508
sg63
(lp2524
g56
(g57
g58
NtRp2525
(dp2526
g61
(dp2527
g69
I3
ssg70
g2521
sg63
(lp2528
g1350
asbasbasbag56
(g72
g58
NtRp2529
(dp2530
g61
(dp2531
sg70
g2021
sg63
(lp2532
g56
(g77
g58
NtRp2533
(dp2534
g61
(dp2535
g81
g82
ssg70
g2529
sg63
(lp2536
S'SERVER_PORT'
p2537
asbag56
(g77
g58
NtRp2538
(dp2539
g61
(dp2540
g88
g89
ssg70
g2529
sg63
(lp2541
S':'
asbag56
(g77
g58
NtRp2542
(dp2543
g61
(dp2544
sg70
g2529
sg63
(lp2545
g56
(g57
g58
NtRp2546
(dp2547
g61
(dp2548
g69
I3
ssg70
g2542
sg63
(lp2549
g1372
asbasbasbag56
(g72
g58
NtRp2550
(dp2551
g61
(dp2552
sg70
g2021
sg63
(lp2553
g56
(g77
g58
NtRp2554
(dp2555
g61
(dp2556
g81
g82
ssg70
g2550
sg63
(lp2557
S'SERVER_PROTOCOL'
p2558
asbag56
(g77
g58
NtRp2559
(dp2560
g61
(dp2561
g88
g89
ssg70
g2550
sg63
(lp2562
S':'
asbag56
(g77
g58
NtRp2563
(dp2564
g61
(dp2565
sg70
g2550
sg63
(lp2566
g56
(g57
g58
NtRp2567
(dp2568
g61
(dp2569
g69
I3
ssg70
g2563
sg63
(lp2570
g1394
asbasbasbag56
(g72
g58
NtRp2571
(dp2572
g61
(dp2573
sg70
g2021
sg63
(lp2574
g56
(g77
g58
NtRp2575
(dp2576
g61
(dp2577
g81
g82
ssg70
g2571
sg63
(lp2578
S'SERVER_SIGNATURE'
p2579
asbag56
(g77
g58
NtRp2580
(dp2581
g61
(dp2582
g88
g89
ssg70
g2571
sg63
(lp2583
S':'
asbag56
(g77
g58
NtRp2584
(dp2585
g61
(dp2586
sg70
g2571
sg63
(lp2587
g56
(g57
g58
NtRp2588
(dp2589
g61
(dp2590
g69
I3
ssg70
g2584
sg63
(lp2591
g1416
asbasbasbag56
(g72
g58
NtRp2592
(dp2593
g61
(dp2594
sg70
g2021
sg63
(lp2595
g56
(g77
g58
NtRp2596
(dp2597
g61
(dp2598
g81
g82
ssg70
g2592
sg63
(lp2599
S'SERVER_SOFTWARE'
p2600
asbag56
(g77
g58
NtRp2601
(dp2602
g61
(dp2603
g88
g89
ssg70
g2592
sg63
(lp2604
S':'
asbag56
(g77
g58
NtRp2605
(dp2606
g61
(dp2607
sg70
g2592
sg63
(lp2608
g56
(g57
g58
NtRp2609
(dp2610
g61
(dp2611
g69
I3
ssg70
g2605
sg63
(lp2612
g1438
asbasbasbag56
(g72
g58
NtRp2613
(dp2614
g61
(dp2615
sg70
g2021
sg63
(lp2616
g56
(g77
g58
NtRp2617
(dp2618
g61
(dp2619
g81
g82
ssg70
g2613
sg63
(lp2620
S'SSL_TLS_SNI'
p2621
asbag56
(g77
g58
NtRp2622
(dp2623
g61
(dp2624
g88
g89
ssg70
g2613
sg63
(lp2625
S':'
asbag56
(g77
g58
NtRp2626
(dp2627
g61
(dp2628
sg70
g2613
sg63
(lp2629
g56
(g57
g58
NtRp2630
(dp2631
g61
(dp2632
g69
I3
ssg70
g2626
sg63
(lp2633
g1460
asbasbasbag56
(g72
g58
NtRp2634
(dp2635
g61
(dp2636
sg70
g2021
sg63
(lp2637
g56
(g77
g58
NtRp2638
(dp2639
g61
(dp2640
g81
g82
ssg70
g2634
sg63
(lp2641
S'mod_wsgi.application_group'
p2642
asbag56
(g77
g58
NtRp2643
(dp2644
g61
(dp2645
g88
g89
ssg70
g2634
sg63
(lp2646
S':'
asbag56
(g77
g58
NtRp2647
(dp2648
g61
(dp2649
sg70
g2634
sg63
(lp2650
g56
(g57
g58
NtRp2651
(dp2652
g61
(dp2653
g69
I3
ssg70
g2647
sg63
(lp2654
g868
asbasbasbag56
(g72
g58
NtRp2655
(dp2656
g61
(dp2657
sg70
g2021
sg63
(lp2658
g56
(g77
g58
NtRp2659
(dp2660
g61
(dp2661
g81
g82
ssg70
g2655
sg63
(lp2662
S'mod_wsgi.callable_object'
p2663
asbag56
(g77
g58
NtRp2664
(dp2665
g61
(dp2666
g88
g89
ssg70
g2655
sg63
(lp2667
S':'
asbag56
(g77
g58
NtRp2668
(dp2669
g61
(dp2670
sg70
g2655
sg63
(lp2671
g56
(g57
g58
NtRp2672
(dp2673
g61
(dp2674
g69
I3
ssg70
g2668
sg63
(lp2675
g890
asbasbasbag56
(g72
g58
NtRp2676
(dp2677
g61
(dp2678
sg70
g2021
sg63
(lp2679
g56
(g77
g58
NtRp2680
(dp2681
g61
(dp2682
g81
g82
ssg70
g2676
sg63
(lp2683
S'mod_wsgi.handler_script'
p2684
asbag56
(g77
g58
NtRp2685
(dp2686
g61
(dp2687
g88
g89
ssg70
g2676
sg63
(lp2688
S':'
asbag56
(g77
g58
NtRp2689
(dp2690
g61
(dp2691
sg70
g2676
sg63
(lp2692
g56
(g57
g58
NtRp2693
(dp2694
g61
(dp2695
g69
I3
ssg70
g2689
sg63
(lp2696
S''
asbasbasbag56
(g72
g58
NtRp2697
(dp2698
g61
(dp2699
sg70
g2021
sg63
(lp2700
g56
(g77
g58
NtRp2701
(dp2702
g61
(dp2703
g81
g82
ssg70
g2697
sg63
(lp2704
S'mod_wsgi.input_chunked'
p2705
asbag56
(g77
g58
NtRp2706
(dp2707
g61
(dp2708
g88
g89
ssg70
g2697
sg63
(lp2709
S':'
asbag56
(g77
g58
NtRp2710
(dp2711
g61
(dp2712
sg70
g2697
sg63
(lp2713
g56
(g57
g58
NtRp2714
(dp2715
g61
(dp2716
g69
I3
ssg70
g2710
sg63
(lp2717
S'0'
asbasbasbag56
(g72
g58
NtRp2718
(dp2719
g61
(dp2720
sg70
g2021
sg63
(lp2721
g56
(g77
g58
NtRp2722
(dp2723
g61
(dp2724
g81
g82
ssg70
g2718
sg63
(lp2725
S'mod_wsgi.listener_host'
p2726
asbag56
(g77
g58
NtRp2727
(dp2728
g61
(dp2729
g88
g89
ssg70
g2718
sg63
(lp2730
S':'
asbag56
(g77
g58
NtRp2731
(dp2732
g61
(dp2733
sg70
g2718
sg63
(lp2734
g56
(g57
g58
NtRp2735
(dp2736
g61
(dp2737
g69
I3
ssg70
g2731
sg63
(lp2738
S''
asbasbasbag56
(g72
g58
NtRp2739
(dp2740
g61
(dp2741
sg70
g2021
sg63
(lp2742
g56
(g77
g58
NtRp2743
(dp2744
g61
(dp2745
g81
g82
ssg70
g2739
sg63
(lp2746
S'mod_wsgi.listener_port'
p2747
asbag56
(g77
g58
NtRp2748
(dp2749
g61
(dp2750
g88
g89
ssg70
g2739
sg63
(lp2751
S':'
asbag56
(g77
g58
NtRp2752
(dp2753
g61
(dp2754
sg70
g2739
sg63
(lp2755
g56
(g57
g58
NtRp2756
(dp2757
g61
(dp2758
g69
I3
ssg70
g2752
sg63
(lp2759
g975
asbasbasbag56
(g72
g58
NtRp2760
(dp2761
g61
(dp2762
sg70
g2021
sg63
(lp2763
g56
(g77
g58
NtRp2764
(dp2765
g61
(dp2766
g81
g82
ssg70
g2760
sg63
(lp2767
S'mod_wsgi.process_group'
p2768
asbag56
(g77
g58
NtRp2769
(dp2770
g61
(dp2771
g88
g89
ssg70
g2760
sg63
(lp2772
S':'
asbag56
(g77
g58
NtRp2773
(dp2774
g61
(dp2775
sg70
g2760
sg63
(lp2776
g56
(g57
g58
NtRp2777
(dp2778
g61
(dp2779
g69
I3
ssg70
g2773
sg63
(lp2780
g997
asbasbasbag56
(g72
g58
NtRp2781
(dp2782
g61
(dp2783
sg70
g2021
sg63
(lp2784
g56
(g77
g58
NtRp2785
(dp2786
g61
(dp2787
g81
g82
ssg70
g2781
sg63
(lp2788
S'mod_wsgi.request_handler'
p2789
asbag56
(g77
g58
NtRp2790
(dp2791
g61
(dp2792
g88
g89
ssg70
g2781
sg63
(lp2793
S':'
asbag56
(g77
g58
NtRp2794
(dp2795
g61
(dp2796
sg70
g2781
sg63
(lp2797
g56
(g57
g58
NtRp2798
(dp2799
g61
(dp2800
g69
I3
ssg70
g2794
sg63
(lp2801
g1019
asbasbasbag56
(g72
g58
NtRp2802
(dp2803
g61
(dp2804
sg70
g2021
sg63
(lp2805
g56
(g77
g58
NtRp2806
(dp2807
g61
(dp2808
g81
g82
ssg70
g2802
sg63
(lp2809
S'mod_wsgi.script_reloading'
p2810
asbag56
(g77
g58
NtRp2811
(dp2812
g61
(dp2813
g88
g89
ssg70
g2802
sg63
(lp2814
S':'
asbag56
(g77
g58
NtRp2815
(dp2816
g61
(dp2817
sg70
g2802
sg63
(lp2818
g56
(g57
g58
NtRp2819
(dp2820
g61
(dp2821
g69
I3
ssg70
g2815
sg63
(lp2822
S'1'
asbasbasbag56
(g72
g58
NtRp2823
(dp2824
g61
(dp2825
sg70
g2021
sg63
(lp2826
g56
(g77
g58
NtRp2827
(dp2828
g61
(dp2829
g81
g82
ssg70
g2823
sg63
(lp2830
S'mod_wsgi.version'
p2831
asbag56
(g77
g58
NtRp2832
(dp2833
g61
(dp2834
g88
g89
ssg70
g2823
sg63
(lp2835
S':'
asbag56
(g77
g58
NtRp2836
(dp2837
g61
(dp2838
sg70
g2823
sg63
(lp2839
g56
(g57
g58
NtRp2840
(dp2841
g61
(dp2842
g69
I3
ssg70
g2836
sg63
(lp2843
g56
(g65
g58
NtRp2844
(dp2845
g61
(dp2846
g69
I2
ssg70
Nsg63
(lp2847
g56
(g72
g58
NtRp2848
(dp2849
g61
(dp2850
sg70
g2844
sg63
(lp2851
g56
(g77
g58
NtRp2852
(dp2853
g61
(dp2854
sg70
g2848
sg63
(lp2855
g56
(g57
g58
NtRp2856
(dp2857
g61
(dp2858
g69
I2
ssg70
g2852
sg63
(lp2859
S'3'
asbasbasbag56
(g72
g58
NtRp2860
(dp2861
g61
(dp2862
sg70
g2844
sg63
(lp2863
g56
(g77
g58
NtRp2864
(dp2865
g61
(dp2866
sg70
g2860
sg63
(lp2867
g56
(g57
g58
NtRp2868
(dp2869
g61
(dp2870
g69
I2
ssg70
g2864
sg63
(lp2871
S'3'
asbasbasbasbasbasbasbag56
(g72
g58
NtRp2872
(dp2873
g61
(dp2874
sg70
g2021
sg63
(lp2875
g56
(g77
g58
NtRp2876
(dp2877
g61
(dp2878
g81
g82
ssg70
g2872
sg63
(lp2879
S'wsgi.errors'
p2880
asbag56
(g77
g58
NtRp2881
(dp2882
g61
(dp2883
g88
g89
ssg70
g2872
sg63
(lp2884
S':'
asbag56
(g77
g58
NtRp2885
(dp2886
g61
(dp2887
sg70
g2872
sg63
(lp2888
g56
(g57
g58
NtRp2889
(dp2890
g61
(dp2891
g69
I3
ssg70
g2885
sg63
(lp2892
S'<mod_wsgi.Log object at 0xb962d7c8>'
p2893
asbasbasbag56
(g72
g58
NtRp2894
(dp2895
g61
(dp2896
sg70
g2021
sg63
(lp2897
g56
(g77
g58
NtRp2898
(dp2899
g61
(dp2900
g81
g82
ssg70
g2894
sg63
(lp2901
S'wsgi.file_wrapper'
p2902
asbag56
(g77
g58
NtRp2903
(dp2904
g61
(dp2905
g88
g89
ssg70
g2894
sg63
(lp2906
S':'
asbag56
(g77
g58
NtRp2907
(dp2908
g61
(dp2909
sg70
g2894
sg63
(lp2910
g56
(g57
g58
NtRp2911
(dp2912
g61
(dp2913
g69
I3
ssg70
g2907
sg63
(lp2914
S'<built-in method file_wrapper of mod_wsgi.Adapter object at 0xb9821260>'
p2915
asbasbasbag56
(g72
g58
NtRp2916
(dp2917
g61
(dp2918
sg70
g2021
sg63
(lp2919
g56
(g77
g58
NtRp2920
(dp2921
g61
(dp2922
g81
g82
ssg70
g2916
sg63
(lp2923
S'wsgi.input'
p2924
asbag56
(g77
g58
NtRp2925
(dp2926
g61
(dp2927
g88
g89
ssg70
g2916
sg63
(lp2928
S':'
asbag56
(g77
g58
NtRp2929
(dp2930
g61
(dp2931
sg70
g2916
sg63
(lp2932
g56
(g57
g58
NtRp2933
(dp2934
g61
(dp2935
g69
I3
ssg70
g2929
sg63
(lp2936
S'<cStringIO.StringO object at 0xb97d8fa0>'
p2937
asbasbasbag56
(g72
g58
NtRp2938
(dp2939
g61
(dp2940
sg70
g2021
sg63
(lp2941
g56
(g77
g58
NtRp2942
(dp2943
g61
(dp2944
g81
g82
ssg70
g2938
sg63
(lp2945
S'wsgi.multiprocess'
p2946
asbag56
(g77
g58
NtRp2947
(dp2948
g61
(dp2949
g88
g89
ssg70
g2938
sg63
(lp2950
S':'
asbag56
(g77
g58
NtRp2951
(dp2952
g61
(dp2953
sg70
g2938
sg63
(lp2954
g56
(g57
g58
NtRp2955
(dp2956
g61
(dp2957
g69
I3
ssg70
g2951
sg63
(lp2958
g99
asbasbasbag56
(g72
g58
NtRp2959
(dp2960
g61
(dp2961
sg70
g2021
sg63
(lp2962
g56
(g77
g58
NtRp2963
(dp2964
g61
(dp2965
g81
g82
ssg70
g2959
sg63
(lp2966
S'wsgi.multithread'
p2967
asbag56
(g77
g58
NtRp2968
(dp2969
g61
(dp2970
g88
g89
ssg70
g2959
sg63
(lp2971
S':'
asbag56
(g77
g58
NtRp2972
(dp2973
g61
(dp2974
sg70
g2959
sg63
(lp2975
g56
(g57
g58
NtRp2976
(dp2977
g61
(dp2978
g69
I3
ssg70
g2972
sg63
(lp2979
g1612
asbasbasbag56
(g72
g58
NtRp2980
(dp2981
g61
(dp2982
sg70
g2021
sg63
(lp2983
g56
(g77
g58
NtRp2984
(dp2985
g61
(dp2986
g81
g82
ssg70
g2980
sg63
(lp2987
S'wsgi.run_once'
p2988
asbag56
(g77
g58
NtRp2989
(dp2990
g61
(dp2991
g88
g89
ssg70
g2980
sg63
(lp2992
S':'
asbag56
(g77
g58
NtRp2993
(dp2994
g61
(dp2995
sg70
g2980
sg63
(lp2996
g56
(g57
g58
NtRp2997
(dp2998
g61
(dp2999
g69
I3
ssg70
g2993
sg63
(lp3000
g99
asbasbasbag56
(g72
g58
NtRp3001
(dp3002
g61
(dp3003
sg70
g2021
sg63
(lp3004
g56
(g77
g58
NtRp3005
(dp3006
g61
(dp3007
g81
g82
ssg70
g3001
sg63
(lp3008
S'wsgi.url_scheme'
p3009
asbag56
(g77
g58
NtRp3010
(dp3011
g61
(dp3012
g88
g89
ssg70
g3001
sg63
(lp3013
S':'
asbag56
(g77
g58
NtRp3014
(dp3015
g61
(dp3016
sg70
g3001
sg63
(lp3017
g56
(g57
g58
NtRp3018
(dp3019
g61
(dp3020
g69
I3
ssg70
g3014
sg63
(lp3021
g1655
asbasbasbag56
(g72
g58
NtRp3022
(dp3023
g61
(dp3024
sg70
g2021
sg63
(lp3025
g56
(g77
g58
NtRp3026
(dp3027
g61
(dp3028
g81
g82
ssg70
g3022
sg63
(lp3029
S'wsgi.version'
p3030
asbag56
(g77
g58
NtRp3031
(dp3032
g61
(dp3033
g88
g89
ssg70
g3022
sg63
(lp3034
S':'
asbag56
(g77
g58
NtRp3035
(dp3036
g61
(dp3037
sg70
g3022
sg63
(lp3038
g56
(g57
g58
NtRp3039
(dp3040
g61
(dp3041
g69
I3
ssg70
g3035
sg63
(lp3042
S'1'
asbasbasbasbasbasbasbasbasbasbasbasbasbsS'frames'
p3043
(lp3044
(dp3045
S'file'
p3046
S'/home/www-data/web2py/gluon/restricted.py'
p3047
sS'dump'
p3048
(dp3049
S'environment'
p3050
S"{'A': <class 'gluon.html.A'>, 'Auth': <class 'gluon.tools.Auth'>, 'B': <class 'gluon.html.B'>, 'BEAUTIFY': <class 'gluon.html.BEAUTIFY'>, 'BODY': <class 'gluon.html.BODY'>, 'BR': <class 'gluon.html.BR'>, 'BUTTON': <class 'gluon.html.BUTTON'>, 'CAT': <class 'gluon.html.CAT'>, 'CENTER': <class 'gluon.html.CENTER'>, 'CLEANUP': <class 'gluon.validators.CLEANUP'>, ...}"
p3051
sS'ccode'
p3052
S'<code object <module> at 0xb9813410, file "/home...pplications/scrum/controllers/ticket.py", line 3>'
p3053
ssS'lnum'
p3054
I192
sS'lines'
p3055
(dp3056
I192
S'        exec ccode in environment'
p3057
sI193
S'    except HTTP:'
p3058
sI194
S'        raise'
p3059
sI195
S'    except Exception, error:'
p3060
sI196
S'        # XXX Show exception in Wing IDE if running in debugger'
p3061
sI187
S'    try:'
p3062
sI188
S'        if type(code) == types.CodeType:'
p3063
sI189
S'            ccode = code'
p3064
sI190
S'        else:'
p3065
sI191
S'            ccode = compile2(code,layer)'
p3066
ssS'call'
p3067
S'(code=\'# coding: utf8\\n# tente algo como\\ndef index():\\n  ...ket.py")\\n\\nresponse._vars=response._caller(index)\\n\', environment={\'A\': <class \'gluon.html.A\'>, \'Auth\': <class \'gluon.tools.Auth\'>, \'B\': <class \'gluon.html.B\'>, \'BEAUTIFY\': <class \'gluon.html.BEAUTIFY\'>, \'BODY\': <class \'gluon.html.BODY\'>, \'BR\': <class \'gluon.html.BR\'>, \'BUTTON\': <class \'gluon.html.BUTTON\'>, \'CAT\': <class \'gluon.html.CAT\'>, \'CENTER\': <class \'gluon.html.CENTER\'>, \'CLEANUP\': <class \'gluon.validators.CLEANUP\'>, ...}, layer=\'/home/www-data/web2py/applications/scrum/controllers/ticket.py\')'
p3068
sS'func'
p3069
S'restricted'
p3070
sa(dp3071
g3046
S'/home/www-data/web2py/applications/scrum/controllers/ticket.py'
p3072
sg3048
(dp3073
sg3054
I7
sg3055
(dp3074
I1
S'# coding: utf8'
p3075
sI2
S'# tente algo como'
p3076
sI3
S'def index():'
p3077
sI4
S'    tickets = db(db.ticket.consultor == auth.user.id | db.ticket.analista.id == auth.user.id)'
p3078
sI5
S'    return dict(message="hello from ticket.py")'
p3079
ssg3067
S'()'
p3080
sg3069
S'<module>'
p3081
sa(dp3082
g3046
S'/home/www-data/web2py/gluon/globals.py'
p3083
sg3048
(dp3084
S'self'
p3085
S'undefined'
p3086
sS'f'
S'<function index>'
p3087
ssg3054
I145
sg3055
(dp3088
I140
S'        self.meta = Storage()      # used by web2py_ajax.html'
p3089
sI141
S'        self.menu = []             # used by the default view layout'
p3090
sI142
S'        self.files = []            # used by web2py_ajax.html'
p3091
sI143
S'        self.generic_patterns = [] # patterns to allow generic views'
p3092
sI144
S'        self._vars = None'
p3093
sI145
S'        self._caller = lambda f: f()'
p3094
sI146
S'        self._view_environment = None'
p3095
sI147
S'        self._custom_commit = None'
p3096
sI148
S'        self._custom_rollback = None'
p3097
sI149
S''
ssg3067
S'(f=<function index>)'
p3098
sg3069
S'<lambda>'
p3099
sa(dp3100
g3046
S'/home/www-data/web2py/applications/scrum/controllers/ticket.py'
p3101
sg3048
(dp3102
S'tickets'
p3103
g3086
sS'auth.user.id'
p3104
g3086
sS'auth.user'
p3105
S'None'
p3106
sS'global auth'
p3107
S'<gluon.tools.Auth object>'
p3108
sS'db.ticket.analista.id'
p3109
g3086
sS'db.ticket'
p3110
S"<Table {'ALL': <gluon.dal.SQLALL object at 0xb96...>, 'id': <gluon.dal.Field object at 0xb961892c>}>"
p3111
sS'db.ticket.consultor'
p3112
S'<gluon.dal.Field object>'
p3113
sS'db.ticket.analista'
p3114
S'<gluon.dal.Field object>'
p3115
sS'global db'
p3116
S"<DAL {'auth_event': <Table {'origin': <gluon.dal... 'id': <gluon.dal.Field object at 0xb97d08ec>}>}>"
p3117
ssg3054
I4
sg3055
(dp3118
I1
S'# coding: utf8'
p3119
sI2
S'# tente algo como'
p3120
sI3
S'def index():'
p3121
sI4
S'    tickets = db(db.ticket.consultor == auth.user.id | db.ticket.analista.id == auth.user.id)'
p3122
sI5
S'    return dict(message="hello from ticket.py")'
p3123
ssg3067
S'()'
p3124
sg3069
S'index'
p3125
sasS'pyver'
p3126
S'Python 2.7.1+: /usr/bin/python'
p3127
sS'session'
p3128
g56
(g57
g58
NtRp3129
(dp3130
g61
(dp3131
sg63
(lp3132
g56
(g65
g58
NtRp3133
(dp3134
g61
(dp3135
g69
I5
ssg70
Nsg63
(lp3136
sbasbsS'etype'
p3137
S"<type 'exceptions.AttributeError'>"
p3138
sS'date'
p3139
S'Thu Sep  8 13:38:24 2011'
p3140
sS'response'
p3141
g56
(g57
g58
NtRp3142
(dp3143
g61
(dp3144
sg63
(lp3145
g56
(g65
g58
NtRp3146
(dp3147
g61
(dp3148
g69
I5
ssg70
Nsg63
(lp3149
g56
(g72
g58
NtRp3150
(dp3151
g61
(dp3152
sg70
g3146
sg63
(lp3153
g56
(g77
g58
NtRp3154
(dp3155
g61
(dp3156
g81
g82
ssg70
g3150
sg63
(lp3157
g154
asbag56
(g77
g58
NtRp3158
(dp3159
g61
(dp3160
g88
g89
ssg70
g3150
sg63
(lp3161
S':'
asbag56
(g77
g58
NtRp3162
(dp3163
g61
(dp3164
sg70
g3150
sg63
(lp3165
g56
(g57
g58
NtRp3166
(dp3167
g61
(dp3168
g69
I5
ssg70
g3162
sg63
(lp3169
S'<cStringIO.StringO object at 0xb9609da0>'
p3170
asbasbasbag56
(g72
g58
NtRp3171
(dp3172
g61
(dp3173
sg70
g3146
sg63
(lp3174
g56
(g77
g58
NtRp3175
(dp3176
g61
(dp3177
g81
g82
ssg70
g3171
sg63
(lp3178
g220
asbag56
(g77
g58
NtRp3179
(dp3180
g61
(dp3181
g88
g89
ssg70
g3171
sg63
(lp3182
S':'
asbag56
(g77
g58
NtRp3183
(dp3184
g61
(dp3185
sg70
g3171
sg63
(lp3186
g56
(g57
g58
NtRp3187
(dp3188
g61
(dp3189
g69
I5
ssg70
g3183
sg63
(lp3190
g56
(g65
g58
NtRp3191
(dp3192
g61
(dp3193
g69
I4
ssg70
Nsg63
(lp3194
g56
(g72
g58
NtRp3195
(dp3196
g61
(dp3197
sg70
g3191
sg63
(lp3198
g56
(g77
g58
NtRp3199
(dp3200
g61
(dp3201
g81
g82
ssg70
g3195
sg63
(lp3202
S'session_id_scrum'
p3203
asbag56
(g77
g58
NtRp3204
(dp3205
g61
(dp3206
g88
g89
ssg70
g3195
sg63
(lp3207
S':'
asbag56
(g77
g58
NtRp3208
(dp3209
g61
(dp3210
sg70
g3195
sg63
(lp3211
g56
(g57
g58
NtRp3212
(dp3213
g61
(dp3214
g69
I4
ssg70
g3208
sg63
(lp3215
g56
(g65
g58
NtRp3216
(dp3217
g61
(dp3218
g69
I3
ssg70
Nsg63
(lp3219
g56
(g72
g58
NtRp3220
(dp3221
g61
(dp3222
sg70
g3216
sg63
(lp3223
g56
(g77
g58
NtRp3224
(dp3225
g61
(dp3226
g81
g82
ssg70
g3220
sg63
(lp3227
g270
asbag56
(g77
g58
NtRp3228
(dp3229
g61
(dp3230
g88
g89
ssg70
g3220
sg63
(lp3231
S':'
asbag56
(g77
g58
NtRp3232
(dp3233
g61
(dp3234
sg70
g3220
sg63
(lp3235
g56
(g57
g58
NtRp3236
(dp3237
g61
(dp3238
g69
I3
ssg70
g3232
sg63
(lp3239
S''
asbasbasbag56
(g72
g58
NtRp3240
(dp3241
g61
(dp3242
sg70
g3216
sg63
(lp3243
g56
(g77
g58
NtRp3244
(dp3245
g61
(dp3246
g81
g82
ssg70
g3240
sg63
(lp3247
g291
asbag56
(g77
g58
NtRp3248
(dp3249
g61
(dp3250
g88
g89
ssg70
g3240
sg63
(lp3251
S':'
asbag56
(g77
g58
NtRp3252
(dp3253
g61
(dp3254
sg70
g3240
sg63
(lp3255
g56
(g57
g58
NtRp3256
(dp3257
g61
(dp3258
g69
I3
ssg70
g3252
sg63
(lp3259
S''
asbasbasbag56
(g72
g58
NtRp3260
(dp3261
g61
(dp3262
sg70
g3216
sg63
(lp3263
g56
(g77
g58
NtRp3264
(dp3265
g61
(dp3266
g81
g82
ssg70
g3260
sg63
(lp3267
g312
asbag56
(g77
g58
NtRp3268
(dp3269
g61
(dp3270
g88
g89
ssg70
g3260
sg63
(lp3271
S':'
asbag56
(g77
g58
NtRp3272
(dp3273
g61
(dp3274
sg70
g3260
sg63
(lp3275
g56
(g57
g58
NtRp3276
(dp3277
g61
(dp3278
g69
I3
ssg70
g3272
sg63
(lp3279
S''
asbasbasbag56
(g72
g58
NtRp3280
(dp3281
g61
(dp3282
sg70
g3216
sg63
(lp3283
g56
(g77
g58
NtRp3284
(dp3285
g61
(dp3286
g81
g82
ssg70
g3280
sg63
(lp3287
g333
asbag56
(g77
g58
NtRp3288
(dp3289
g61
(dp3290
g88
g89
ssg70
g3280
sg63
(lp3291
S':'
asbag56
(g77
g58
NtRp3292
(dp3293
g61
(dp3294
sg70
g3280
sg63
(lp3295
g56
(g57
g58
NtRp3296
(dp3297
g61
(dp3298
g69
I3
ssg70
g3292
sg63
(lp3299
S''
asbasbasbag56
(g72
g58
NtRp3300
(dp3301
g61
(dp3302
sg70
g3216
sg63
(lp3303
g56
(g77
g58
NtRp3304
(dp3305
g61
(dp3306
g81
g82
ssg70
g3300
sg63
(lp3307
g354
asbag56
(g77
g58
NtRp3308
(dp3309
g61
(dp3310
g88
g89
ssg70
g3300
sg63
(lp3311
S':'
asbag56
(g77
g58
NtRp3312
(dp3313
g61
(dp3314
sg70
g3300
sg63
(lp3315
g56
(g57
g58
NtRp3316
(dp3317
g61
(dp3318
g69
I3
ssg70
g3312
sg63
(lp3319
S''
asbasbasbag56
(g72
g58
NtRp3320
(dp3321
g61
(dp3322
sg70
g3216
sg63
(lp3323
g56
(g77
g58
NtRp3324
(dp3325
g61
(dp3326
g81
g82
ssg70
g3320
sg63
(lp3327
g375
asbag56
(g77
g58
NtRp3328
(dp3329
g61
(dp3330
g88
g89
ssg70
g3320
sg63
(lp3331
S':'
asbag56
(g77
g58
NtRp3332
(dp3333
g61
(dp3334
sg70
g3320
sg63
(lp3335
g56
(g57
g58
NtRp3336
(dp3337
g61
(dp3338
g69
I3
ssg70
g3332
sg63
(lp3339
S'/'
asbasbasbag56
(g72
g58
NtRp3340
(dp3341
g61
(dp3342
sg70
g3216
sg63
(lp3343
g56
(g77
g58
NtRp3344
(dp3345
g61
(dp3346
g81
g82
ssg70
g3340
sg63
(lp3347
g396
asbag56
(g77
g58
NtRp3348
(dp3349
g61
(dp3350
g88
g89
ssg70
g3340
sg63
(lp3351
S':'
asbag56
(g77
g58
NtRp3352
(dp3353
g61
(dp3354
sg70
g3340
sg63
(lp3355
g56
(g57
g58
NtRp3356
(dp3357
g61
(dp3358
g69
I3
ssg70
g3352
sg63
(lp3359
S''
asbasbasbag56
(g72
g58
NtRp3360
(dp3361
g61
(dp3362
sg70
g3216
sg63
(lp3363
g56
(g77
g58
NtRp3364
(dp3365
g61
(dp3366
g81
g82
ssg70
g3360
sg63
(lp3367
g417
asbag56
(g77
g58
NtRp3368
(dp3369
g61
(dp3370
g88
g89
ssg70
g3360
sg63
(lp3371
S':'
asbag56
(g77
g58
NtRp3372
(dp3373
g61
(dp3374
sg70
g3360
sg63
(lp3375
g56
(g57
g58
NtRp3376
(dp3377
g61
(dp3378
g69
I3
ssg70
g3372
sg63
(lp3379
S''
asbasbasbasbasbasbasbasbasbasbasbag56
(g72
g58
NtRp3380
(dp3381
g61
(dp3382
sg70
g3146
sg63
(lp3383
g56
(g77
g58
NtRp3384
(dp3385
g61
(dp3386
g81
g82
ssg70
g3380
sg63
(lp3387
S'files'
p3388
asbag56
(g77
g58
NtRp3389
(dp3390
g61
(dp3391
g88
g89
ssg70
g3380
sg63
(lp3392
S':'
asbag56
(g77
g58
NtRp3393
(dp3394
g61
(dp3395
sg70
g3380
sg63
(lp3396
g56
(g57
g58
NtRp3397
(dp3398
g61
(dp3399
g69
I5
ssg70
g3393
sg63
(lp3400
g56
(g65
g58
NtRp3401
(dp3402
g61
(dp3403
g69
I4
ssg70
Nsg63
(lp3404
sbasbasbasbag56
(g72
g58
NtRp3405
(dp3406
g61
(dp3407
sg70
g3146
sg63
(lp3408
g56
(g77
g58
NtRp3409
(dp3410
g61
(dp3411
g81
g82
ssg70
g3405
sg63
(lp3412
S'flash'
p3413
asbag56
(g77
g58
NtRp3414
(dp3415
g61
(dp3416
g88
g89
ssg70
g3405
sg63
(lp3417
S':'
asbag56
(g77
g58
NtRp3418
(dp3419
g61
(dp3420
sg70
g3405
sg63
(lp3421
g56
(g57
g58
NtRp3422
(dp3423
g61
(dp3424
g69
I5
ssg70
g3418
sg63
(lp3425
S''
asbasbasbag56
(g72
g58
NtRp3426
(dp3427
g61
(dp3428
sg70
g3146
sg63
(lp3429
g56
(g77
g58
NtRp3430
(dp3431
g61
(dp3432
g81
g82
ssg70
g3426
sg63
(lp3433
S'generic_patterns'
p3434
asbag56
(g77
g58
NtRp3435
(dp3436
g61
(dp3437
g88
g89
ssg70
g3426
sg63
(lp3438
S':'
asbag56
(g77
g58
NtRp3439
(dp3440
g61
(dp3441
sg70
g3426
sg63
(lp3442
g56
(g57
g58
NtRp3443
(dp3444
g61
(dp3445
g69
I5
ssg70
g3439
sg63
(lp3446
g56
(g65
g58
NtRp3447
(dp3448
g61
(dp3449
g69
I4
ssg70
Nsg63
(lp3450
sbasbasbasbag56
(g72
g58
NtRp3451
(dp3452
g61
(dp3453
sg70
g3146
sg63
(lp3454
g56
(g77
g58
NtRp3455
(dp3456
g61
(dp3457
g81
g82
ssg70
g3451
sg63
(lp3458
S'headers'
p3459
asbag56
(g77
g58
NtRp3460
(dp3461
g61
(dp3462
g88
g89
ssg70
g3451
sg63
(lp3463
S':'
asbag56
(g77
g58
NtRp3464
(dp3465
g61
(dp3466
sg70
g3451
sg63
(lp3467
g56
(g57
g58
NtRp3468
(dp3469
g61
(dp3470
g69
I5
ssg70
g3464
sg63
(lp3471
g56
(g65
g58
NtRp3472
(dp3473
g61
(dp3474
g69
I4
ssg70
Nsg63
(lp3475
g56
(g72
g58
NtRp3476
(dp3477
g61
(dp3478
sg70
g3472
sg63
(lp3479
g56
(g77
g58
NtRp3480
(dp3481
g61
(dp3482
g81
g82
ssg70
g3476
sg63
(lp3483
S'Cache-Control'
p3484
asbag56
(g77
g58
NtRp3485
(dp3486
g61
(dp3487
g88
g89
ssg70
g3476
sg63
(lp3488
S':'
asbag56
(g77
g58
NtRp3489
(dp3490
g61
(dp3491
sg70
g3476
sg63
(lp3492
g56
(g57
g58
NtRp3493
(dp3494
g61
(dp3495
g69
I4
ssg70
g3489
sg63
(lp3496
S'no-store, no-cache, must-revalidate, post-check=0, pre-check=0'
p3497
asbasbasbag56
(g72
g58
NtRp3498
(dp3499
g61
(dp3500
sg70
g3472
sg63
(lp3501
g56
(g77
g58
NtRp3502
(dp3503
g61
(dp3504
g81
g82
ssg70
g3498
sg63
(lp3505
S'Content-Type'
p3506
asbag56
(g77
g58
NtRp3507
(dp3508
g61
(dp3509
g88
g89
ssg70
g3498
sg63
(lp3510
S':'
asbag56
(g77
g58
NtRp3511
(dp3512
g61
(dp3513
sg70
g3498
sg63
(lp3514
g56
(g57
g58
NtRp3515
(dp3516
g61
(dp3517
g69
I4
ssg70
g3511
sg63
(lp3518
S'text/html; charset=utf-8'
p3519
asbasbasbag56
(g72
g58
NtRp3520
(dp3521
g61
(dp3522
sg70
g3472
sg63
(lp3523
g56
(g77
g58
NtRp3524
(dp3525
g61
(dp3526
g81
g82
ssg70
g3520
sg63
(lp3527
S'Expires'
p3528
asbag56
(g77
g58
NtRp3529
(dp3530
g61
(dp3531
g88
g89
ssg70
g3520
sg63
(lp3532
S':'
asbag56
(g77
g58
NtRp3533
(dp3534
g61
(dp3535
sg70
g3520
sg63
(lp3536
g56
(g57
g58
NtRp3537
(dp3538
g61
(dp3539
g69
I4
ssg70
g3533
sg63
(lp3540
S'Thu, 08 Sep 2011 16:38:24 GMT'
p3541
asbasbasbag56
(g72
g58
NtRp3542
(dp3543
g61
(dp3544
sg70
g3472
sg63
(lp3545
g56
(g77
g58
NtRp3546
(dp3547
g61
(dp3548
g81
g82
ssg70
g3542
sg63
(lp3549
S'Pragma'
p3550
asbag56
(g77
g58
NtRp3551
(dp3552
g61
(dp3553
g88
g89
ssg70
g3542
sg63
(lp3554
S':'
asbag56
(g77
g58
NtRp3555
(dp3556
g61
(dp3557
sg70
g3542
sg63
(lp3558
g56
(g57
g58
NtRp3559
(dp3560
g61
(dp3561
g69
I4
ssg70
g3555
sg63
(lp3562
S'no-cache'
p3563
asbasbasbag56
(g72
g58
NtRp3564
(dp3565
g61
(dp3566
sg70
g3472
sg63
(lp3567
g56
(g77
g58
NtRp3568
(dp3569
g61
(dp3570
g81
g82
ssg70
g3564
sg63
(lp3571
S'X-Powered-By'
p3572
asbag56
(g77
g58
NtRp3573
(dp3574
g61
(dp3575
g88
g89
ssg70
g3564
sg63
(lp3576
S':'
asbag56
(g77
g58
NtRp3577
(dp3578
g61
(dp3579
sg70
g3564
sg63
(lp3580
g56
(g57
g58
NtRp3581
(dp3582
g61
(dp3583
g69
I4
ssg70
g3577
sg63
(lp3584
S'web2py'
p3585
asbasbasbasbasbasbasbag56
(g72
g58
NtRp3586
(dp3587
g61
(dp3588
sg70
g3146
sg63
(lp3589
g56
(g77
g58
NtRp3590
(dp3591
g61
(dp3592
g81
g82
ssg70
g3586
sg63
(lp3593
S'menu'
p3594
asbag56
(g77
g58
NtRp3595
(dp3596
g61
(dp3597
g88
g89
ssg70
g3586
sg63
(lp3598
S':'
asbag56
(g77
g58
NtRp3599
(dp3600
g61
(dp3601
sg70
g3586
sg63
(lp3602
g56
(g57
g58
NtRp3603
(dp3604
g61
(dp3605
g69
I5
ssg70
g3599
sg63
(lp3606
g56
(g65
g58
NtRp3607
(dp3608
g61
(dp3609
g69
I4
ssg70
Nsg63
(lp3610
g56
(g72
g58
NtRp3611
(dp3612
g61
(dp3613
sg70
g3607
sg63
(lp3614
g56
(g77
g58
NtRp3615
(dp3616
g61
(dp3617
sg70
g3611
sg63
(lp3618
g56
(g57
g58
NtRp3619
(dp3620
g61
(dp3621
g69
I4
ssg70
g3615
sg63
(lp3622
g56
(g65
g58
NtRp3623
(dp3624
g61
(dp3625
g69
I3
ssg70
Nsg63
(lp3626
g56
(g72
g58
NtRp3627
(dp3628
g61
(dp3629
sg70
g3623
sg63
(lp3630
g56
(g77
g58
NtRp3631
(dp3632
g61
(dp3633
sg70
g3627
sg63
(lp3634
g56
(g57
g58
NtRp3635
(dp3636
g61
(dp3637
g69
I3
ssg70
g3631
sg63
(lp3638
cgluon.languages
lazyT_unpickle
p3639
(S't\x04\x00\x00\x00Home'
tRp3640
asbasbasbag56
(g72
g58
NtRp3641
(dp3642
g61
(dp3643
sg70
g3623
sg63
(lp3644
g56
(g77
g58
NtRp3645
(dp3646
g61
(dp3647
sg70
g3641
sg63
(lp3648
g56
(g57
g58
NtRp3649
(dp3650
g61
(dp3651
g69
I3
ssg70
g3645
sg63
(lp3652
g99
asbasbasbag56
(g72
g58
NtRp3653
(dp3654
g61
(dp3655
sg70
g3623
sg63
(lp3656
g56
(g77
g58
NtRp3657
(dp3658
g61
(dp3659
sg70
g3653
sg63
(lp3660
g56
(g57
g58
NtRp3661
(dp3662
g61
(dp3663
g69
I3
ssg70
g3657
sg63
(lp3664
S'/scrum/default/index'
p3665
asbasbasbag56
(g72
g58
NtRp3666
(dp3667
g61
(dp3668
sg70
g3623
sg63
(lp3669
g56
(g77
g58
NtRp3670
(dp3671
g61
(dp3672
sg70
g3666
sg63
(lp3673
g56
(g57
g58
NtRp3674
(dp3675
g61
(dp3676
g69
I3
ssg70
g3670
sg63
(lp3677
g56
(g65
g58
NtRp3678
(dp3679
g61
(dp3680
g69
I2
ssg70
Nsg63
(lp3681
sbasbasbasbasbasbasbasbag56
(g72
g58
NtRp3682
(dp3683
g61
(dp3684
sg70
g3607
sg63
(lp3685
g56
(g77
g58
NtRp3686
(dp3687
g61
(dp3688
sg70
g3682
sg63
(lp3689
g56
(g57
g58
NtRp3690
(dp3691
g61
(dp3692
g69
I4
ssg70
g3686
sg63
(lp3693
g56
(g65
g58
NtRp3694
(dp3695
g61
(dp3696
g69
I3
ssg70
Nsg63
(lp3697
g56
(g72
g58
NtRp3698
(dp3699
g61
(dp3700
sg70
g3694
sg63
(lp3701
g56
(g77
g58
NtRp3702
(dp3703
g61
(dp3704
sg70
g3698
sg63
(lp3705
g56
(g57
g58
NtRp3706
(dp3707
g61
(dp3708
g69
I3
ssg70
g3702
sg63
(lp3709
g3639
(S't\x03\x00\x00\x00BIV'
tRp3710
asbasbasbag56
(g72
g58
NtRp3711
(dp3712
g61
(dp3713
sg70
g3694
sg63
(lp3714
g56
(g77
g58
NtRp3715
(dp3716
g61
(dp3717
sg70
g3711
sg63
(lp3718
g56
(g57
g58
NtRp3719
(dp3720
g61
(dp3721
g69
I3
ssg70
g3715
sg63
(lp3722
g99
asbasbasbag56
(g72
g58
NtRp3723
(dp3724
g61
(dp3725
sg70
g3694
sg63
(lp3726
g56
(g77
g58
NtRp3727
(dp3728
g61
(dp3729
sg70
g3723
sg63
(lp3730
g56
(g57
g58
NtRp3731
(dp3732
g61
(dp3733
g69
I3
ssg70
g3727
sg63
(lp3734
S''
asbasbasbag56
(g72
g58
NtRp3735
(dp3736
g61
(dp3737
sg70
g3694
sg63
(lp3738
g56
(g77
g58
NtRp3739
(dp3740
g61
(dp3741
sg70
g3735
sg63
(lp3742
g56
(g57
g58
NtRp3743
(dp3744
g61
(dp3745
g69
I3
ssg70
g3739
sg63
(lp3746
g56
(g65
g58
NtRp3747
(dp3748
g61
(dp3749
g69
I2
ssg70
Nsg63
(lp3750
g56
(g72
g58
NtRp3751
(dp3752
g61
(dp3753
sg70
g3747
sg63
(lp3754
g56
(g77
g58
NtRp3755
(dp3756
g61
(dp3757
sg70
g3751
sg63
(lp3758
g56
(g57
g58
NtRp3759
(dp3760
g61
(dp3761
g69
I2
ssg70
g3755
sg63
(lp3762
g56
(g65
g58
NtRp3763
(dp3764
g61
(dp3765
g69
I1
ssg70
Nsg63
(lp3766
g56
(g72
g58
NtRp3767
(dp3768
g61
(dp3769
sg70
g3763
sg63
(lp3770
g56
(g77
g58
NtRp3771
(dp3772
g61
(dp3773
sg70
g3767
sg63
(lp3774
g56
(g57
g58
NtRp3775
(dp3776
g61
(dp3777
g69
I1
ssg70
g3771
sg63
(lp3778
g3639
(S't\x04\x00\x00\x00Novo'
tRp3779
asbasbasbag56
(g72
g58
NtRp3780
(dp3781
g61
(dp3782
sg70
g3763
sg63
(lp3783
g56
(g77
g58
NtRp3784
(dp3785
g61
(dp3786
sg70
g3780
sg63
(lp3787
g56
(g57
g58
NtRp3788
(dp3789
g61
(dp3790
g69
I1
ssg70
g3784
sg63
(lp3791
I00
asbasbasbag56
(g72
g58
NtRp3792
(dp3793
g61
(dp3794
sg70
g3763
sg63
(lp3795
g56
(g77
g58
NtRp3796
(dp3797
g61
(dp3798
sg70
g3792
sg63
(lp3799
g56
(g57
g58
NtRp3800
(dp3801
g61
(dp3802
g69
I1
ssg70
g3796
sg63
(lp3803
S'/scrum/default/novo_biv'
p3804
asbasbasbag56
(g72
g58
NtRp3805
(dp3806
g61
(dp3807
sg70
g3763
sg63
(lp3808
g56
(g77
g58
NtRp3809
(dp3810
g61
(dp3811
sg70
g3805
sg63
(lp3812
g56
(g57
g58
NtRp3813
(dp3814
g61
(dp3815
g69
I1
ssg70
g3809
sg63
(lp3816
(lp3817
asbasbasbasbasbasbasbag56
(g72
g58
NtRp3818
(dp3819
g61
(dp3820
sg70
g3747
sg63
(lp3821
g56
(g77
g58
NtRp3822
(dp3823
g61
(dp3824
sg70
g3818
sg63
(lp3825
g56
(g57
g58
NtRp3826
(dp3827
g61
(dp3828
g69
I2
ssg70
g3822
sg63
(lp3829
g56
(g65
g58
NtRp3830
(dp3831
g61
(dp3832
g69
I1
ssg70
Nsg63
(lp3833
g56
(g72
g58
NtRp3834
(dp3835
g61
(dp3836
sg70
g3830
sg63
(lp3837
g56
(g77
g58
NtRp3838
(dp3839
g61
(dp3840
sg70
g3834
sg63
(lp3841
g56
(g57
g58
NtRp3842
(dp3843
g61
(dp3844
g69
I1
ssg70
g3838
sg63
(lp3845
g3639
(S't\n\x00\x00\x00Selecionar'
tRp3846
asbasbasbag56
(g72
g58
NtRp3847
(dp3848
g61
(dp3849
sg70
g3830
sg63
(lp3850
g56
(g77
g58
NtRp3851
(dp3852
g61
(dp3853
sg70
g3847
sg63
(lp3854
g56
(g57
g58
NtRp3855
(dp3856
g61
(dp3857
g69
I1
ssg70
g3851
sg63
(lp3858
I00
asbasbasbag56
(g72
g58
NtRp3859
(dp3860
g61
(dp3861
sg70
g3830
sg63
(lp3862
g56
(g77
g58
NtRp3863
(dp3864
g61
(dp3865
sg70
g3859
sg63
(lp3866
g56
(g57
g58
NtRp3867
(dp3868
g61
(dp3869
g69
I1
ssg70
g3863
sg63
(lp3870
S'/scrum/default/selecionar_biv'
p3871
asbasbasbag56
(g72
g58
NtRp3872
(dp3873
g61
(dp3874
sg70
g3830
sg63
(lp3875
g56
(g77
g58
NtRp3876
(dp3877
g61
(dp3878
sg70
g3872
sg63
(lp3879
g56
(g57
g58
NtRp3880
(dp3881
g61
(dp3882
g69
I1
ssg70
g3876
sg63
(lp3883
(lp3884
asbasbasbasbasbasbasbasbasbasbasbasbasbasbasbasbasbasbasbag56
(g72
g58
NtRp3885
(dp3886
g61
(dp3887
sg70
g3146
sg63
(lp3888
g56
(g77
g58
NtRp3889
(dp3890
g61
(dp3891
g81
g82
ssg70
g3885
sg63
(lp3892
S'meta'
p3893
asbag56
(g77
g58
NtRp3894
(dp3895
g61
(dp3896
g88
g89
ssg70
g3885
sg63
(lp3897
S':'
asbag56
(g77
g58
NtRp3898
(dp3899
g61
(dp3900
sg70
g3885
sg63
(lp3901
g56
(g57
g58
NtRp3902
(dp3903
g61
(dp3904
g69
I5
ssg70
g3898
sg63
(lp3905
g56
(g65
g58
NtRp3906
(dp3907
g61
(dp3908
g69
I4
ssg70
Nsg63
(lp3909
g56
(g72
g58
NtRp3910
(dp3911
g61
(dp3912
sg70
g3906
sg63
(lp3913
g56
(g77
g58
NtRp3914
(dp3915
g61
(dp3916
g81
g82
ssg70
g3910
sg63
(lp3917
S'author'
p3918
asbag56
(g77
g58
NtRp3919
(dp3920
g61
(dp3921
g88
g89
ssg70
g3910
sg63
(lp3922
S':'
asbag56
(g77
g58
NtRp3923
(dp3924
g61
(dp3925
sg70
g3910
sg63
(lp3926
g56
(g57
g58
NtRp3927
(dp3928
g61
(dp3929
g69
I4
ssg70
g3923
sg63
(lp3930
S'you'
p3931
asbasbasbag56
(g72
g58
NtRp3932
(dp3933
g61
(dp3934
sg70
g3906
sg63
(lp3935
g56
(g77
g58
NtRp3936
(dp3937
g61
(dp3938
g81
g82
ssg70
g3932
sg63
(lp3939
S'copyright'
p3940
asbag56
(g77
g58
NtRp3941
(dp3942
g61
(dp3943
g88
g89
ssg70
g3932
sg63
(lp3944
S':'
asbag56
(g77
g58
NtRp3945
(dp3946
g61
(dp3947
sg70
g3932
sg63
(lp3948
g56
(g57
g58
NtRp3949
(dp3950
g61
(dp3951
g69
I4
ssg70
g3945
sg63
(lp3952
S'Copyright 2007-2010'
p3953
asbasbasbag56
(g72
g58
NtRp3954
(dp3955
g61
(dp3956
sg70
g3906
sg63
(lp3957
g56
(g77
g58
NtRp3958
(dp3959
g61
(dp3960
g81
g82
ssg70
g3954
sg63
(lp3961
S'description'
p3962
asbag56
(g77
g58
NtRp3963
(dp3964
g61
(dp3965
g88
g89
ssg70
g3954
sg63
(lp3966
S':'
asbag56
(g77
g58
NtRp3967
(dp3968
g61
(dp3969
sg70
g3954
sg63
(lp3970
g56
(g57
g58
NtRp3971
(dp3972
g61
(dp3973
g69
I4
ssg70
g3967
sg63
(lp3974
S'Free and open source full-stack enterprise framework for agile development of fast, scalable, secure and portable database-driven web-based applications. Written and programmable in Python'
p3975
asbasbasbag56
(g72
g58
NtRp3976
(dp3977
g61
(dp3978
sg70
g3906
sg63
(lp3979
g56
(g77
g58
NtRp3980
(dp3981
g61
(dp3982
g81
g82
ssg70
g3976
sg63
(lp3983
S'generator'
p3984
asbag56
(g77
g58
NtRp3985
(dp3986
g61
(dp3987
g88
g89
ssg70
g3976
sg63
(lp3988
S':'
asbag56
(g77
g58
NtRp3989
(dp3990
g61
(dp3991
sg70
g3976
sg63
(lp3992
g56
(g57
g58
NtRp3993
(dp3994
g61
(dp3995
g69
I4
ssg70
g3989
sg63
(lp3996
S'Web2py Enterprise Framework'
p3997
asbasbasbag56
(g72
g58
NtRp3998
(dp3999
g61
(dp4000
sg70
g3906
sg63
(lp4001
g56
(g77
g58
NtRp4002
(dp4003
g61
(dp4004
g81
g82
ssg70
g3998
sg63
(lp4005
S'keywords'
p4006
asbag56
(g77
g58
NtRp4007
(dp4008
g61
(dp4009
g88
g89
ssg70
g3998
sg63
(lp4010
S':'
asbag56
(g77
g58
NtRp4011
(dp4012
g61
(dp4013
sg70
g3998
sg63
(lp4014
g56
(g57
g58
NtRp4015
(dp4016
g61
(dp4017
g69
I4
ssg70
g4011
sg63
(lp4018
S'web2py, python, framework'
p4019
asbasbasbasbasbasbasbag56
(g72
g58
NtRp4020
(dp4021
g61
(dp4022
sg70
g3146
sg63
(lp4023
g56
(g77
g58
NtRp4024
(dp4025
g61
(dp4026
g81
g82
ssg70
g4020
sg63
(lp4027
S'postprocessing'
p4028
asbag56
(g77
g58
NtRp4029
(dp4030
g61
(dp4031
g88
g89
ssg70
g4020
sg63
(lp4032
S':'
asbag56
(g77
g58
NtRp4033
(dp4034
g61
(dp4035
sg70
g4020
sg63
(lp4036
g56
(g57
g58
NtRp4037
(dp4038
g61
(dp4039
g69
I5
ssg70
g4033
sg63
(lp4040
g56
(g65
g58
NtRp4041
(dp4042
g61
(dp4043
g69
I4
ssg70
Nsg63
(lp4044
sbasbasbasbag56
(g72
g58
NtRp4045
(dp4046
g61
(dp4047
sg70
g3146
sg63
(lp4048
g56
(g77
g58
NtRp4049
(dp4050
g61
(dp4051
g81
g82
ssg70
g4045
sg63
(lp4052
S'session_filename'
p4053
asbag56
(g77
g58
NtRp4054
(dp4055
g61
(dp4056
g88
g89
ssg70
g4045
sg63
(lp4057
S':'
asbag56
(g77
g58
NtRp4058
(dp4059
g61
(dp4060
sg70
g4045
sg63
(lp4061
g56
(g57
g58
NtRp4062
(dp4063
g61
(dp4064
g69
I5
ssg70
g4058
sg63
(lp4065
S'/home/www-data/web2py/applications/scrum/sessions/127.0.0.1-4783b46d-b0b5-4c61-9d67-89f8c1af56d6'
p4066
asbasbasbag56
(g72
g58
NtRp4067
(dp4068
g61
(dp4069
sg70
g3146
sg63
(lp4070
g56
(g77
g58
NtRp4071
(dp4072
g61
(dp4073
g81
g82
ssg70
g4067
sg63
(lp4074
S'session_id'
p4075
asbag56
(g77
g58
NtRp4076
(dp4077
g61
(dp4078
g88
g89
ssg70
g4067
sg63
(lp4079
S':'
asbag56
(g77
g58
NtRp4080
(dp4081
g61
(dp4082
sg70
g4067
sg63
(lp4083
g56
(g57
g58
NtRp4084
(dp4085
g61
(dp4086
g69
I5
ssg70
g4080
sg63
(lp4087
S'127.0.0.1-4783b46d-b0b5-4c61-9d67-89f8c1af56d6'
p4088
asbasbasbag56
(g72
g58
NtRp4089
(dp4090
g61
(dp4091
sg70
g3146
sg63
(lp4092
g56
(g77
g58
NtRp4093
(dp4094
g61
(dp4095
g81
g82
ssg70
g4089
sg63
(lp4096
S'session_id_name'
p4097
asbag56
(g77
g58
NtRp4098
(dp4099
g61
(dp4100
g88
g89
ssg70
g4089
sg63
(lp4101
S':'
asbag56
(g77
g58
NtRp4102
(dp4103
g61
(dp4104
sg70
g4089
sg63
(lp4105
g56
(g57
g58
NtRp4106
(dp4107
g61
(dp4108
g69
I5
ssg70
g4102
sg63
(lp4109
g3203
asbasbasbag56
(g72
g58
NtRp4110
(dp4111
g61
(dp4112
sg70
g3146
sg63
(lp4113
g56
(g77
g58
NtRp4114
(dp4115
g61
(dp4116
g81
g82
ssg70
g4110
sg63
(lp4117
S'session_new'
p4118
asbag56
(g77
g58
NtRp4119
(dp4120
g61
(dp4121
g88
g89
ssg70
g4110
sg63
(lp4122
S':'
asbag56
(g77
g58
NtRp4123
(dp4124
g61
(dp4125
sg70
g4110
sg63
(lp4126
g56
(g57
g58
NtRp4127
(dp4128
g61
(dp4129
g69
I5
ssg70
g4123
sg63
(lp4130
g1612
asbasbasbag56
(g72
g58
NtRp4131
(dp4132
g61
(dp4133
sg70
g3146
sg63
(lp4134
g56
(g77
g58
NtRp4135
(dp4136
g61
(dp4137
g81
g82
ssg70
g4131
sg63
(lp4138
S'status'
p4139
asbag56
(g77
g58
NtRp4140
(dp4141
g61
(dp4142
g88
g89
ssg70
g4131
sg63
(lp4143
S':'
asbag56
(g77
g58
NtRp4144
(dp4145
g61
(dp4146
sg70
g4131
sg63
(lp4147
g56
(g57
g58
NtRp4148
(dp4149
g61
(dp4150
g69
I5
ssg70
g4144
sg63
(lp4151
S'200'
p4152
asbasbasbag56
(g72
g58
NtRp4153
(dp4154
g61
(dp4155
sg70
g3146
sg63
(lp4156
g56
(g77
g58
NtRp4157
(dp4158
g61
(dp4159
g81
g82
ssg70
g4153
sg63
(lp4160
S'subtitle'
p4161
asbag56
(g77
g58
NtRp4162
(dp4163
g61
(dp4164
g88
g89
ssg70
g4153
sg63
(lp4165
S':'
asbag56
(g77
g58
NtRp4166
(dp4167
g61
(dp4168
sg70
g4153
sg63
(lp4169
g56
(g57
g58
NtRp4170
(dp4171
g61
(dp4172
g69
I5
ssg70
g4166
sg63
(lp4173
g3639
(S's\x0f\x00\x00\x00Personalize-me!'
tRp4174
asbasbasbag56
(g72
g58
NtRp4175
(dp4176
g61
(dp4177
sg70
g3146
sg63
(lp4178
g56
(g77
g58
NtRp4179
(dp4180
g61
(dp4181
g81
g82
ssg70
g4175
sg63
(lp4182
S'title'
p4183
asbag56
(g77
g58
NtRp4184
(dp4185
g61
(dp4186
g88
g89
ssg70
g4175
sg63
(lp4187
S':'
asbag56
(g77
g58
NtRp4188
(dp4189
g61
(dp4190
sg70
g4175
sg63
(lp4191
g56
(g57
g58
NtRp4192
(dp4193
g61
(dp4194
g69
I5
ssg70
g4188
sg63
(lp4195
g121
asbasbasbag56
(g72
g58
NtRp4196
(dp4197
g61
(dp4198
sg70
g3146
sg63
(lp4199
g56
(g77
g58
NtRp4200
(dp4201
g61
(dp4202
g81
g82
ssg70
g4196
sg63
(lp4203
g1936
asbag56
(g77
g58
NtRp4204
(dp4205
g61
(dp4206
g88
g89
ssg70
g4196
sg63
(lp4207
S':'
asbag56
(g77
g58
NtRp4208
(dp4209
g61
(dp4210
sg70
g4196
sg63
(lp4211
g56
(g57
g58
NtRp4212
(dp4213
g61
(dp4214
g69
I5
ssg70
g4208
sg63
(lp4215
g1949
asbasbasbag56
(g72
g58
NtRp4216
(dp4217
g61
(dp4218
sg70
g3146
sg63
(lp4219
g56
(g77
g58
NtRp4220
(dp4221
g61
(dp4222
g81
g82
ssg70
g4216
sg63
(lp4223
S'view'
p4224
asbag56
(g77
g58
NtRp4225
(dp4226
g61
(dp4227
g88
g89
ssg70
g4216
sg63
(lp4228
S':'
asbag56
(g77
g58
NtRp4229
(dp4230
g61
(dp4231
sg70
g4216
sg63
(lp4232
g56
(g57
g58
NtRp4233
(dp4234
g61
(dp4235
g69
I5
ssg70
g4229
sg63
(lp4236
S'ticket/index.html'
p4237
asbasbasbasbasbsS'locals'
p4238
(dp4239
ssS'traceback'
p4240
S'Traceback (most recent call last):\n  File "/home/www-data/web2py/gluon/restricted.py", line 192, in restricted\n    exec ccode in environment\n  File "/home/www-data/web2py/applications/scrum/controllers/ticket.py", line 7, in <module>\n  File "/home/www-data/web2py/gluon/globals.py", line 145, in <lambda>\n    self._caller = lambda f: f()\n  File "/home/www-data/web2py/applications/scrum/controllers/ticket.py", line 4, in index\n    tickets = db(db.ticket.consultor == auth.user.id | db.ticket.analista.id == auth.user.id)\nAttributeError: \'NoneType\' object has no attribute \'id\'\n'
p4241
s.