(dp1
S'output'
p2
S''
sS'layer'
p3
S'/home/www-data/web2py/applications/scrum/views/ticket/form_teste.html'
p4
sS'code'
p5
S'response.write(\'<TABLE WIDTH=696 CELLPADDING=0 CELLSPACING=0 STYLE="page-break-before: always">\\n\\t<TR>\\n\\t\\t<TD COLSPAN=14 WIDTH=694 VALIGN=TOP STYLE="; border: 1px solid #000000; padding: 0cm">\\n\\t\\t\\t<P CLASS="table-contents-western" ALIGN=CENTER STYLE="margin-top: 0.1cm; background: #e6e6e6">\\n\\t\\t\\t<FONT FACE="Trebuchet MS, sans-serif"><FONT SIZE=2><B>FORMUL\\xc3\\x81RIO\\n\\t\\t\\tDE TESTE</B></FONT></FONT></P>\\n\\t\\t</TD>\\n\\t</TR>\\n\\t<TR>\\n\\t\\t<TD COLSPAN=2 WIDTH=74 HEIGHT=14 STYLE="; border-top: 1px solid #000000; border-bottom: 1px solid #000000; border-left: 1px solid #000000; border-right: none; padding: 0cm">\\n\\t\\t\\t<P CLASS="western" STYLE="widows: 2; orphans: 2"><FONT FACE="Trebuchet MS, sans-serif"><FONT SIZE=1 STYLE="font-size: 8pt"><B>SPRINT: \', escape=False)\nresponse.write(ticket.sprint.numero)\nresponse.write(\'</B>\\n\\t\\t\\t</FONT></FONT>\\n\\t\\t\\t</P>\\n\\t\\t</TD>\\n\\t\\t<TD COLSPAN=6 WIDTH=254 STYLE="; border-top: 1px solid #000000; border-bottom: 1px solid #000000; border-left: 1px solid #000000; border-right: none; padding: 0cm">\\n\\t\\t\\t<P CLASS="western" STYLE="widows: 2; orphans: 2"><FONT face="Trebuchet MS, sans-serif"><FONT size=1 style="font-size: 8pt">Tipo:\\n\\t\\t\\t</FONT></FONT><FONT face="Trebuchet MS, sans-serif"><FONT SIZE=1 STYLE="font-size: 8pt"></FONT></FONT><FONT FACE="Trebuchet MS, sans-serif"></FONT></P>\\n\\t\\t</TD>\\n\\t\\t<TD COLSPAN=4 WIDTH=206 STYLE="; border-top: 1px solid #000000; border-bottom: 1px solid #000000; border-left: 1px solid #000000; border-right: none; padding: 0cm">\\n\\t\\t\\t<P CLASS="western" STYLE="widows: 2; orphans: 2"><FONT FACE="Trebuchet MS, sans-serif"><FONT SIZE=1 STYLE="font-size: 8pt">Cliente:\\n\\t\\t\\t </FONT></FONT></P>\\n\\t\\t</TD>\\n\\t\\t<TD COLSPAN=2 WIDTH=161 STYLE="; border: 1px solid #000000; padding: 0cm">\\n\\t\\t\\t<P CLASS="western" STYLE="widows: 2; orphans: 2"><FONT FACE="Trebuchet MS, sans-serif"><FONT SIZE=2><B>CHAMADO:\', escape=False)\nresponse.write(ticket.chamado)\nresponse.write(\'</B></FONT></FONT>\\n\\t\\t\\t</P>\\n\\t\\t</TD>\\n\\t</TR>\\n\\t<TR>\\n\\t\\t<TD COLSPAN=11 WIDTH=423 HEIGHT=19 STYLE="; border-top: 1px solid #000000; border-bottom: 1px solid #000000; border-left: 1px solid #000000; border-right: none; padding: 0cm">\\n\\t\\t\\t\\n      \', escape=False)\nresponse.write(ticket.estado.descricao)\nresponse.write(\'\\n      <P CLASS="western" ALIGN=CENTER STYLE="widows: 2; orphans: 2">\\n        <FONT face="Trebuchet MS, sans-serif"><FONT size=1 style="font-size: 8pt"></FONT></FONT><FONT face="Trebuchet MS, sans-serif"><FONT SIZE=1 STYLE="font-size: 8pt"></FONT></FONT><FONT FACE="Trebuchet MS, sans-serif"></FONT></P>\\n\\t\\t</TD>\\n\\t\\t<TD COLSPAN=3 WIDTH=271 STYLE="; border: 1px solid #000000; padding: 0cm">\\n\\t\\t\\t<P CLASS="western" ALIGN=CENTER STYLE="widows: 2; orphans: 2"><FONT FACE="Trebuchet MS, sans-serif">Sistema:<FONT SIZE=1 STYLE="font-size: 8pt"></FONT></FONT></P>\\n\\t\\t</TD>\\n\\t</TR>\\n\\t<TR>\\n\\t\\t<TD ROWSPAN=8 WIDTH=35 STYLE="; border-top: 1px solid #000000; border-bottom: 1px solid #000000; border-left: 1px solid #000000; border-right: none; padding: 0cm">\\n\\t\\t\\t<P CLASS="table-contents-western" ALIGN=CENTER STYLE="margin-left: 0.2cm; margin-right: 0.2cm">\\n\\t\\t\\t<FONT FACE="Tahoma, sans-serif"><FONT SIZE=4><B>D<br>E<br>S<br>E<br>N<br>V<br>O<br>L<br>V<br>I<br>M<br>E<br>N<br>T<br>O</B></FONT></FONT></P>\\n\\t\\t</TD>\\n\\t\\t<TD COLSPAN=13 WIDTH=659 VALIGN=TOP STYLE="; border: 1px solid #000000; padding: 0cm">\\n\\t\\t\\t<P CLASS="western" STYLE="widows: 2; orphans: 2"><FONT FACE="Trebuchet MS, sans-serif"><FONT SIZE=1 STYLE="font-size: 8pt">Nome do analista:\', escape=False)\nresponse.write(ticket.analista.first_name)\nresponse.write(\' <B> </B></FONT></FONT></P>\\n\\t\\t</TD>\\n\\t</TR>\\n\\t<TR>\\n\\t\\t<TD COLSPAN=4 WIDTH=172 VALIGN=TOP STYLE="; border-top: 1px solid #000000; border-bottom: 1px solid #000000; border-left: 1px solid #000000; border-right: none; padding: 0cm">\\n\\t\\t\\t<P CLASS="western" STYLE="widows: 2; orphans: 2"><FONT FACE="Trebuchet MS, sans-serif"><FONT SIZE=1 STYLE="font-size: 8pt">Data In\\xc3\\xadcio:\', escape=False)\nresponse.write(ticket.inicio)\nresponse.write(\'</FONT></FONT>\\n\\t\\t\\t</P>\\n\\t\\t</TD>\\n\\t\\t<TD COLSPAN=5 WIDTH=168 VALIGN=TOP STYLE="; border-top: 1px solid #000000; border-bottom: 1px solid #000000; border-left: 1px solid #000000; border-right: none; padding: 0cm">\\n\\t\\t\\t<P CLASS="western" STYLE="widows: 2; orphans: 2"><FONT FACE="Trebuchet MS, sans-serif"><FONT SIZE=1 STYLE="font-size: 8pt">Hora\\n\\t\\t\\tIn\\xc3\\xadcio: </FONT></FONT>\\n\\t\\t\\t</P>\\n\\t\\t</TD>\\n\\t\\t<TD COLSPAN=2 WIDTH=158 VALIGN=TOP STYLE="; border-top: 1px solid #000000; border-bottom: 1px solid #000000; border-left: 1px solid #000000; border-right: none; padding: 0cm">\\n\\t\\t\\t<P CLASS="western" STYLE="widows: 2; orphans: 2"><FONT FACE="Trebuchet MS, sans-serif"><FONT SIZE=1 STYLE="font-size: 8pt">Data Fim:\', escape=False)\nresponse.write(ticket.fim)\nresponse.write(\' </FONT></FONT><FONT FACE="Trebuchet MS, sans-serif"><FONT SIZE=1 STYLE="font-size: 8pt"><SDFIELD TYPE=DATETIME SDVAL="40795,7223842593" SDNUM="1046;1046;DD/MM/AAAA">09/09/2011</SDFIELD></FONT></FONT></P>\\n\\t\\t</TD>\\n\\t\\t<TD COLSPAN=2 WIDTH=161 VALIGN=TOP STYLE="; border: 1px solid #000000; padding: 0cm">\\n\\t\\t\\t<P CLASS="western" STYLE="widows: 2; orphans: 2"><FONT FACE="Trebuchet MS, sans-serif"><FONT SIZE=1 STYLE="font-size: 8pt">Hora\\n\\t\\t\\tFim: <SDFIELD TYPE=DATETIME SDVAL="40795,7223842593" SDNUM="1046;1046;HH:MM">17:20</SDFIELD></FONT></FONT></P>\\n\\t\\t</TD>\\n\\t</TR>\\n\\t<TR>\\n\\t\\t<TD COLSPAN=13 WIDTH=659 VALIGN=TOP STYLE="; border: 1px solid #000000; padding: 0cm">\\n\\t\\t\\t<P CLASS="western" STYLE="widows: 2; orphans: 2"><FONT FACE="Trebuchet MS, sans-serif"><FONT SIZE=1 STYLE="font-size: 8pt">Descri\\xc3\\xa7\\xc3\\xa3o\\n\\t\\t\\tanalista: </FONT></FONT>\\n\\t\\t\\t</P>\\n\\t\\t</TD>\\n\\t</TR>\\n\\t<TR>\\n\\t\\t<TD COLSPAN=13 WIDTH=659 VALIGN=TOP STYLE="; border: 1px solid #000000; padding: 0cm">\\n\\t\\t\\t<P CLASS="table-contents-western" STYLE="margin-bottom: 0.11cm"><BR><BR>\\n\\t\\t\\t</P>\\n\\t\\t\\t<TABLE WIDTH=656 CELLPADDING=0 CELLSPACING=0>\\n\\t\\t\\t\\t<COL WIDTH=86>\\n\\t\\t\\t\\t<COL WIDTH=213>\\n\\t\\t\\t\\t<COL WIDTH=354>\\n\\t\\t\\t\\t<TR VALIGN=TOP>\\n\\t\\t\\t\\t\\t<TD WIDTH=86 BGCOLOR="#e6e6e6" STYLE="border-top: 1px solid #000000; border-bottom: 1px solid #000000; border-left: 1px solid #000000; border-right: none; padding: 0cm">\\n\\t\\t\\t\\t\\t\\t<P CLASS="western" STYLE="widows: 2; orphans: 2"><FONT FACE="Trebuchet MS, sans-serif"><FONT SIZE=1 STYLE="font-size: 8pt">M\\xc3\\xb3dulo</FONT></FONT></P>\\n\\t\\t\\t\\t\\t</TD>\\n\\t\\t\\t\\t\\t<TD WIDTH=213 BGCOLOR="#e6e6e6" STYLE="border-top: 1px solid #000000; border-bottom: 1px solid #000000; border-left: 1px solid #000000; border-right: none; padding: 0cm">\\n\\t\\t\\t\\t\\t\\t<P CLASS="western" STYLE="widows: 2; orphans: 2"><FONT FACE="Trebuchet MS, sans-serif"><FONT SIZE=1 STYLE="font-size: 8pt">Nome\\n\\t\\t\\t\\t\\t\\tda Rotina:</FONT></FONT></P>\\n\\t\\t\\t\\t\\t</TD>\\n\\t\\t\\t\\t\\t<TD WIDTH=354 BGCOLOR="#e6e6e6" STYLE="border: 1px solid #000000; padding: 0cm">\\n\\t\\t\\t\\t\\t\\t<P CLASS="western" STYLE="widows: 2; orphans: 2"><FONT FACE="Trebuchet MS, sans-serif"><FONT SIZE=1 STYLE="font-size: 8pt">Menu\\n\\t\\t\\t\\t\\t\\tda Rotina:</FONT></FONT></P>\\n\\t\\t\\t\\t\\t</TD>\\n\\t\\t\\t\\t</TR>\\n\\t\\t\\t\\t<TR VALIGN=TOP>\\n\\t\\t\\t\\t\\t<TD WIDTH=86 STYLE="; border-top: none; border-bottom: 1px solid #000000; border-left: 1px solid #000000; border-right: none; padding: 0cm">\\n\\t\\t\\t\\t\\t\\t<P CLASS="western" STYLE="widows: 2; orphans: 2">\\n              \\n            </P>\\n\\t\\t\\t\\t\\t</TD>\\n\\t\\t\\t\\t\\t<TD WIDTH=213 STYLE="; border-top: none; border-bottom: 1px solid #000000; border-left: 1px solid #000000; border-right: none; padding: 0cm">\\n\\t\\t\\t\\t\\t\\t<P CLASS="western" STYLE="widows: 2; orphans: 2"><BR>\\n\\t\\t\\t\\t\\t\\t</P>\\n\\t\\t\\t\\t\\t</TD>\\n\\t\\t\\t\\t\\t<TD WIDTH=354 STYLE="; border-top: none; border-bottom: 1px solid #000000; border-left: 1px solid #000000; border-right: 1px solid #000000; padding: 0cm">\\n\\t\\t\\t\\t\\t\\t<P CLASS="western" STYLE="widows: 2; orphans: 2"><BR>\\n\\t\\t\\t\\t\\t\\t</P>\\n\\t\\t\\t\\t\\t</TD>\\n\\t\\t\\t\\t</TR>\\n\\t\\t\\t</TABLE>\\n\\t\\t\\t<P CLASS="table-contents-western"><BR><BR>\\n\\t\\t\\t</P>\\n\\t\\t</TD>\\n\\t</TR>\\n\\t<TR>\\n\\t\\t<TD COLSPAN=13 WIDTH=659 VALIGN=TOP STYLE="border: 1px solid #000000; padding: 0cm">\\n\\t\\t\\t<P CLASS="table-contents-western" STYLE="margin-bottom: 0.11cm"><BR><BR>\\n\\t\\t\\t</P>\\n\\t\\t\\t<TABLE WIDTH=656 CELLPADDING=0 CELLSPACING=0>\\n\\t\\t\\t\\t<COL WIDTH=91>\\n\\t\\t\\t\\t<COL WIDTH=434>\\n\\t\\t\\t\\t<COL WIDTH=74>\\n\\t\\t\\t\\t<COL WIDTH=54>\\n\\t\\t\\t\\t<TR VALIGN=TOP>\\n\\t\\t\\t\\t\\t<TD WIDTH=91 BGCOLOR="#e6e6e6" STYLE="border-top: 1px solid #000000; border-bottom: 1px solid #000000; border-left: 1px solid #000000; border-right: none; padding: 0cm">\\n\\t\\t\\t\\t\\t\\t<P CLASS="western" STYLE="widows: 2; orphans: 2"><FONT FACE="Trebuchet MS, sans-serif"><FONT SIZE=1 STYLE="font-size: 8pt">Pasta\\n\\t\\t\\t\\t\\t\\tRaiz:</FONT></FONT></P>\\n\\t\\t\\t\\t\\t</TD>\\n\\t\\t\\t\\t\\t<TD WIDTH=434 BGCOLOR="#e6e6e6" STYLE="border-top: 1px solid #000000; border-bottom: 1px solid #000000; border-left: 1px solid #000000; border-right: none; padding: 0cm">\\n\\t\\t\\t\\t\\t\\t<P CLASS="western" STYLE="widows: 2; orphans: 2"><FONT FACE="Trebuchet MS, sans-serif"><FONT SIZE=1 STYLE="font-size: 8pt">Formul\\xc3\\xa1rio\\n\\t\\t\\t\\t\\t\\tou Relat\\xc3\\xb3rio Alterado:</FONT></FONT></P>\\n\\t\\t\\t\\t\\t</TD>\\n\\t\\t\\t\\t\\t<TD WIDTH=74 BGCOLOR="#e6e6e6" STYLE="border-top: 1px solid #000000; border-bottom: 1px solid #000000; border-left: 1px solid #000000; border-right: none; padding: 0cm">\\n\\t\\t\\t\\t\\t\\t<P CLASS="western" ALIGN=CENTER STYLE="widows: 2; orphans: 2"><FONT FACE="Trebuchet MS, sans-serif"><FONT SIZE=1 STYLE="font-size: 8pt">Data\\n\\t\\t\\t\\t\\t\\tCommit:</FONT></FONT></P>\\n\\t\\t\\t\\t\\t</TD>\\n\\t\\t\\t\\t\\t<TD WIDTH=54 BGCOLOR="#e6e6e6" STYLE="border: 1px solid #000000; padding: 0cm">\\n\\t\\t\\t\\t\\t\\t<P CLASS="western" ALIGN=CENTER STYLE="widows: 2; orphans: 2"><FONT FACE="Trebuchet MS, sans-serif"><FONT SIZE=1 STYLE="font-size: 8pt">Form.WIKI:</FONT></FONT></P>\\n\\t\\t\\t\\t\\t</TD>\\n\\t\\t\\t\\t</TR>\\n\\t\\t\\t\\t<TR VALIGN=TOP>\\n\\t\\t\\t\\t\\t<TD WIDTH=91 STYLE="; border-top: none; border-bottom: 1px solid #000000; border-left: 1px solid #000000; border-right: none; padding: 0cm">\\n\\t\\t\\t\\t\\t\\t<P CLASS="western" STYLE="widows: 2; orphans: 2"><BR>\\n\\t\\t\\t\\t\\t\\t</P>\\n\\t\\t\\t\\t\\t</TD>\\n\\t\\t\\t\\t\\t<TD WIDTH=434 STYLE="; border-top: none; border-bottom: 1px solid #000000; border-left: 1px solid #000000; border-right: none; padding: 0cm">\\n\\t\\t\\t\\t\\t\\t<P CLASS="western" STYLE="widows: 2; orphans: 2"><BR>\\n\\t\\t\\t\\t\\t\\t</P>\\n\\t\\t\\t\\t\\t</TD>\\n\\t\\t\\t\\t\\t<TD WIDTH=74 STYLE="; border-top: none; border-bottom: 1px solid #000000; border-left: 1px solid #000000; border-right: none; padding: 0cm">\\n\\t\\t\\t\\t\\t\\t<P CLASS="western" STYLE="widows: 2; orphans: 2"><BR>\\n\\t\\t\\t\\t\\t\\t</P>\\n\\t\\t\\t\\t\\t</TD>\\n\\t\\t\\t\\t\\t<TD WIDTH=54 STYLE="; border-top: none; border-bottom: 1px solid #000000; border-left: 1px solid #000000; border-right: 1px solid #000000; padding: 0cm">\\n\\t\\t\\t\\t\\t\\t<P CLASS="western" STYLE="widows: 2; orphans: 2"><BR>\\n\\t\\t\\t\\t\\t\\t</P>\\n\\t\\t\\t\\t\\t</TD>\\n\\t\\t\\t\\t</TR>\\n\\t\\t\\t</TABLE>\\n\\t\\t\\t<P CLASS="table-contents-western"><BR><BR>\\n\\t\\t\\t</P>\\n\\t\\t</TD>\\n\\t</TR>\\n\\t<TR>\\n\\t\\t<TD COLSPAN=2 WIDTH=106 VALIGN=TOP STYLE="border-top: 1px solid #000000; border-bottom: 1px solid #000000; border-left: 1px solid #000000; border-right: none; padding: 0cm">\\n\\t\\t\\t<P CLASS="western" STYLE="margin-bottom: 0cm; widows: 2; orphans: 2">\\n        <FONT face="Trebuchet MS, sans-serif"><FONT size=1 style="font-size: 8pt"><B>TEM PATCH? \', escape=False)\nresponse.write(ticket.patch)\nresponse.write(\' </B></FONT></FONT><FONT face="Trebuchet MS, sans-serif"><FONT size=1 style="font-size: 8pt"><B><FONT SIZE=2 STYLE="font-size: 9pt"></FONT></B></FONT></FONT><FONT FACE="Trebuchet MS, sans-serif"><FONT SIZE=1 STYLE="font-size: 8pt"><B></B></FONT></FONT></P>\\n\\t\\t</TD>\\n\\t\\t<TD COLSPAN=4 WIDTH=105 VALIGN=TOP STYLE="; border-top: 1px solid #000000; border-bottom: 1px solid #000000; border-left: 1px solid #000000; border-right: none; padding: 0cm">\\n\\t\\t\\t<P CLASS="western" STYLE="margin-bottom: 0cm; widows: 2; orphans: 2">\\n        <FONT face="Trebuchet MS, sans-serif"><FONT size=1 style="font-size: 8pt"><B>MENU NOVO? </B></FONT></FONT><FONT face="Trebuchet MS, sans-serif"><FONT size=1 style="font-size: 8pt"><B><FONT SIZE=2 STYLE="font-size: 9pt"></FONT></B></FONT></FONT><FONT FACE="Trebuchet MS, sans-serif"><FONT SIZE=1 STYLE="font-size: 8pt"><B></B></FONT></FONT></P>\\n\\t\\t</TD>\\n\\t\\t<TD COLSPAN=7 WIDTH=448 VALIGN=TOP STYLE="; border: 1px solid #000000; padding: 0cm">\\n\\t\\t\\t<P CLASS="western" STYLE="margin-bottom: 0cm; widows: 2; orphans: 2">\\n        <FONT face="Trebuchet MS, sans-serif"><FONT size=1 style="font-size: 8pt">Local dos arquivos para teste: \', escape=False)\nresponse.write(ticket.local_teste)\nresponse.write(\'</FONT></FONT><FONT face="Trebuchet MS, sans-serif"><FONT size=1 style="font-size: 8pt"><B></B></FONT></FONT><FONT FACE="Trebuchet MS, sans-serif"><FONT SIZE=1 STYLE="font-size: 8pt"></FONT></FONT></P>\\n\\t\\t</TD>\\n\\t</TR>\\n\\t<TR>\\n\\t\\t<TD COLSPAN=13 WIDTH=659 VALIGN=TOP STYLE="; border: 1px solid #000000; padding: 0cm">\\n\\t\\t\\t<P CLASS="western" STYLE="margin-bottom: 0cm; widows: 2; orphans: 2">\\n\\t\\t\\t<FONT FACE="Trebuchet MS, sans-serif"><FONT SIZE=1 STYLE="font-size: 8pt">Documenta\\xc3\\xa7\\xc3\\xa3o\\n\\t\\t\\tda Rotina: </FONT></FONT>\\n\\t\\t\\t</P>\\n\\t\\t</TD>\\n\\t</TR>\\n\\t<TR>\\n\\t\\t<TD COLSPAN=13 WIDTH=659 VALIGN=TOP STYLE="; border: 1px solid #000000; padding: 0cm">\\n\\t\\t\\t<P CLASS="western" STYLE="margin-bottom: 0cm; widows: 2; orphans: 2">\\n\\t\\t\\t<FONT FACE="Trebuchet MS, sans-serif"><FONT SIZE=1 STYLE="font-size: 8pt">Descri\\xc3\\xa7\\xc3\\xa3o\\n\\t\\t\\tboletim: </FONT></FONT>\\n\\t\\t\\t</P>\\n\\t\\t</TD>\\n\\t</TR>\\n\\t<TR>\\n\\t\\t<TD COLSPAN=14 WIDTH=694 HEIGHT=15 VALIGN=TOP STYLE="; border-top: none; border-bottom: 1px solid #000000; border-left: 1px solid #000000; border-right: 1px solid #000000; padding: 0cm">\\n\\t\\t\\t<P CLASS="table-contents-western" STYLE="margin-bottom: 0.11cm; background: transparent">\\n\\t\\t\\t<BR><BR>\\n\\t\\t\\t</P>\\n\\t\\t</TD>\\n\\t</TR>\\n\\t<TR>\\n\\t\\t<TD ROWSPAN=16 WIDTH=35 STYLE="; border-top: 1px solid #000000; border-bottom: 1px solid #000000; border-left: 1px solid #000000; border-right: none; padding: 0cm">\\n\\t\\t\\t<P CLASS="table-contents-western" ALIGN=CENTER STYLE="margin-left: 0.2cm; margin-right: 0.2cm; margin-bottom: 0.11cm">\\n\\t\\t\\t<FONT FACE="Tahoma, sans-serif"><FONT SIZE=4><B>S<br>U<br>P<br>O<br>R<br>T<br>E</B></FONT></FONT></P>\\n\\t\\t</TD>\\n\\t\\t<TD COLSPAN=13 WIDTH=659 VALIGN=TOP STYLE="; border: 1px solid #000000; padding: 0cm">\\n\\t\\t\\t<P CLASS="western" STYLE="margin-bottom: 0cm; widows: 2; orphans: 2">\\n\\t\\t\\t<FONT FACE="Trebuchet MS, sans-serif"><FONT SIZE=1 STYLE="font-size: 8pt">Nome\\n\\t\\t\\tdo Consultor do TESTE: </FONT></FONT>\\n\\t\\t\\t</P>\\n\\t\\t</TD>\\n\\t</TR>\\n\\t<TR>\\n\\t\\t<TD COLSPAN=4 WIDTH=172 VALIGN=TOP STYLE="; border-top: none; border-bottom: 1px solid #000000; border-left: 1px solid #000000; border-right: none; padding: 0cm">\\n\\t\\t\\t<P CLASS="western" STYLE="margin-bottom: 0cm; widows: 2; orphans: 2">\\n\\t\\t\\t<FONT FACE="Trebuchet MS, sans-serif"><FONT SIZE=1 STYLE="font-size: 8pt">Data\\n\\t\\t\\tIn\\xc3\\xadcio: </FONT></FONT>\\n\\t\\t\\t</P>\\n\\t\\t</TD>\\n\\t\\t<TD COLSPAN=5 WIDTH=168 VALIGN=TOP STYLE="; border-top: none; border-bottom: 1px solid #000000; border-left: 1px solid #000000; border-right: none; padding: 0cm">\\n\\t\\t\\t<P CLASS="western" STYLE="margin-bottom: 0cm; widows: 2; orphans: 2">\\n\\t\\t\\t<FONT FACE="Trebuchet MS, sans-serif"><FONT SIZE=1 STYLE="font-size: 8pt">Hora\\n\\t\\t\\tIn\\xc3\\xadcio: </FONT></FONT>\\n\\t\\t\\t</P>\\n\\t\\t</TD>\\n\\t\\t<TD COLSPAN=2 WIDTH=158 VALIGN=TOP STYLE="; border-top: none; border-bottom: 1px solid #000000; border-left: 1px solid #000000; border-right: none; padding: 0cm">\\n\\t\\t\\t<P CLASS="western" STYLE="margin-bottom: 0cm; widows: 2; orphans: 2">\\n\\t\\t\\t<FONT FACE="Trebuchet MS, sans-serif"><FONT SIZE=1 STYLE="font-size: 8pt">Data\\n\\t\\t\\tFim: </FONT></FONT>\\n\\t\\t\\t</P>\\n\\t\\t</TD>\\n\\t\\t<TD COLSPAN=2 WIDTH=161 VALIGN=TOP STYLE="; border-top: none; border-bottom: 1px solid #000000; border-left: 1px solid #000000; border-right: 1px solid #000000; padding: 0cm">\\n\\t\\t\\t<P CLASS="western" STYLE="margin-bottom: 0cm; widows: 2; orphans: 2">\\n\\t\\t\\t<FONT FACE="Trebuchet MS, sans-serif"><FONT SIZE=1 STYLE="font-size: 8pt">Hora\\n\\t\\t\\tFim: </FONT></FONT>\\n\\t\\t\\t</P>\\n\\t\\t</TD>\\n\\t</TR>\\n\\t<TR>\\n\\t\\t<TD COLSPAN=11 WIDTH=498 VALIGN=TOP BGCOLOR="#e5e5e5" STYLE="border-top: 1px solid #000000; border-bottom: 1px solid #000000; border-left: 1px solid #000000; border-right: none; padding: 0cm">\\n\\t\\t\\t<P CLASS="western" STYLE="margin-bottom: 0cm; widows: 2; orphans: 2">\\n\\t\\t\\t<FONT FACE="Trebuchet MS, sans-serif"><FONT SIZE=1 STYLE="font-size: 8pt"><SPAN LANG="en-US">Check</SPAN><SPAN LANG="en-US">\\n\\t\\t\\tlist</SPAN></FONT></FONT></P>\\n\\t\\t</TD>\\n\\t\\t<TD WIDTH=85 VALIGN=TOP BGCOLOR="#e5e5e5" STYLE="border-top: 1px solid #000000; border-bottom: 1px solid #000000; border-left: 1px solid #000000; border-right: none; padding: 0cm">\\n\\t\\t\\t<P CLASS="western" ALIGN=CENTER STYLE="margin-bottom: 0cm; widows: 2; orphans: 2">\\n\\t\\t\\t<FONT FACE="Trebuchet MS, sans-serif"><FONT SIZE=1 STYLE="font-size: 8pt">SIM</FONT></FONT></P>\\n\\t\\t</TD>\\n\\t\\t<TD WIDTH=75 VALIGN=TOP BGCOLOR="#e5e5e5" STYLE="border: 1px solid #000000; padding: 0cm">\\n\\t\\t\\t<P CLASS="western" ALIGN=CENTER STYLE="margin-bottom: 0cm; widows: 2; orphans: 2">\\n\\t\\t\\t<FONT FACE="Trebuchet MS, sans-serif"><FONT SIZE=1 STYLE="font-size: 8pt">N\\xc3\\x83O</FONT></FONT></P>\\n\\t\\t</TD>\\n\\t</TR>\\n\\t<TR>\\n\\t\\t<TD COLSPAN=11 WIDTH=498 STYLE="; border-top: none; border-bottom: 1px solid #000000; border-left: 1px solid #000000; border-right: none; padding: 0cm">\\n\\t\\t\\t<P CLASS="western" STYLE="margin-bottom: 0cm; widows: 2; orphans: 2">\\n\\t\\t\\t<FONT FACE="Trebuchet MS, sans-serif"><FONT SIZE=1 STYLE="font-size: 8pt">1-\\n\\t\\t\\tTeste de interface j\\xc3\\xa1 est\\xc3\\xa1 conclu\\xc3\\xaddo?</FONT></FONT></P>\\n\\t\\t</TD>\\n\\t\\t<TD WIDTH=85 VALIGN=TOP STYLE="; border-top: none; border-bottom: 1px solid #000000; border-left: 1px solid #000000; border-right: none; padding: 0cm">\\n\\t\\t\\t<P CLASS="western" STYLE="margin-bottom: 0cm; widows: 2; orphans: 2">\\n\\t\\t\\t<BR>\\n\\t\\t\\t</P>\\n\\t\\t</TD>\\n\\t\\t<TD WIDTH=75 VALIGN=TOP STYLE="; border-top: none; border-bottom: 1px solid #000000; border-left: 1px solid #000000; border-right: 1px solid #000000; padding: 0cm">\\n\\t\\t\\t<P CLASS="western" STYLE="margin-bottom: 0cm; widows: 2; orphans: 2">\\n\\t\\t\\t<BR>\\n\\t\\t\\t</P>\\n\\t\\t</TD>\\n\\t</TR>\\n\\t<TR>\\n\\t\\t<TD COLSPAN=11 WIDTH=498 STYLE="; border-top: none; border-bottom: 1px solid #000000; border-left: 1px solid #000000; border-right: none; padding: 0cm">\\n\\t\\t\\t<P CLASS="western" STYLE="margin-bottom: 0cm; widows: 2; orphans: 2">\\n\\t\\t\\t<FONT FACE="Trebuchet MS, sans-serif"><FONT SIZE=1 STYLE="font-size: 8pt">2\\n\\t\\t\\t- Utilizado o banco de dados que simula a situa\\xc3\\xa7\\xc3\\xa3o do cliente?</FONT></FONT></P>\\n\\t\\t</TD>\\n\\t\\t<TD WIDTH=85 VALIGN=TOP STYLE="; border-top: none; border-bottom: 1px solid #000000; border-left: 1px solid #000000; border-right: none; padding: 0cm">\\n\\t\\t\\t<P CLASS="western" STYLE="margin-bottom: 0cm; widows: 2; orphans: 2">\\n\\t\\t\\t<BR>\\n\\t\\t\\t</P>\\n\\t\\t</TD>\\n\\t\\t<TD WIDTH=75 VALIGN=TOP STYLE="; border-top: none; border-bottom: 1px solid #000000; border-left: 1px solid #000000; border-right: 1px solid #000000; padding: 0cm">\\n\\t\\t\\t<P CLASS="western" STYLE="margin-bottom: 0cm; widows: 2; orphans: 2">\\n\\t\\t\\t<BR>\\n\\t\\t\\t</P>\\n\\t\\t</TD>\\n\\t</TR>\\n\\t<TR>\\n\\t\\t<TD COLSPAN=11 WIDTH=498 STYLE="; border-top: none; border-bottom: 1px solid #000000; border-left: 1px solid #000000; border-right: none; padding: 0cm">\\n\\t\\t\\t<P CLASS="western" STYLE="margin-bottom: 0cm; widows: 2; orphans: 2">\\n\\t\\t\\t<FONT FACE="Trebuchet MS, sans-serif"><FONT SIZE=1 STYLE="font-size: 8pt">3\\n\\t\\t\\t- Desenvolvedor especificou as principais rotinas a serem\\n\\t\\t\\ttestadas?</FONT></FONT></P>\\n\\t\\t</TD>\\n\\t\\t<TD WIDTH=85 VALIGN=TOP STYLE="; border-top: none; border-bottom: 1px solid #000000; border-left: 1px solid #000000; border-right: none; padding: 0cm">\\n\\t\\t\\t<P CLASS="western" STYLE="margin-bottom: 0cm; widows: 2; orphans: 2">\\n\\t\\t\\t<BR>\\n\\t\\t\\t</P>\\n\\t\\t</TD>\\n\\t\\t<TD WIDTH=75 VALIGN=TOP STYLE="; border-top: none; border-bottom: 1px solid #000000; border-left: 1px solid #000000; border-right: 1px solid #000000; padding: 0cm">\\n\\t\\t\\t<P CLASS="western" STYLE="margin-bottom: 0cm; widows: 2; orphans: 2">\\n\\t\\t\\t<BR>\\n\\t\\t\\t</P>\\n\\t\\t</TD>\\n\\t</TR>\\n\\t<TR>\\n\\t\\t<TD COLSPAN=11 WIDTH=498 STYLE="; border-top: none; border-bottom: 1px solid #000000; border-left: 1px solid #000000; border-right: none; padding: 0cm">\\n\\t\\t\\t<P CLASS="western" STYLE="margin-bottom: 0cm; widows: 2; orphans: 2">\\n\\t\\t\\t<FONT FACE="Trebuchet MS, sans-serif"><FONT SIZE=1 STYLE="font-size: 8pt">4\\n\\t\\t\\t- Desenvolvedor orientou quais outras fun\\xc3\\xa7\\xc3\\xb5es dever\\xc3\\xa3o ser\\n\\t\\t\\tverificadas?</FONT></FONT></P>\\n\\t\\t</TD>\\n\\t\\t<TD WIDTH=85 VALIGN=TOP STYLE="; border-top: none; border-bottom: 1px solid #000000; border-left: 1px solid #000000; border-right: none; padding: 0cm">\\n\\t\\t\\t<P CLASS="western" STYLE="margin-bottom: 0cm; widows: 2; orphans: 2">\\n\\t\\t\\t<BR>\\n\\t\\t\\t</P>\\n\\t\\t</TD>\\n\\t\\t<TD WIDTH=75 VALIGN=TOP STYLE="; border-top: none; border-bottom: 1px solid #000000; border-left: 1px solid #000000; border-right: 1px solid #000000; padding: 0cm">\\n\\t\\t\\t<P CLASS="western" STYLE="margin-bottom: 0cm; widows: 2; orphans: 2">\\n\\t\\t\\t<BR>\\n\\t\\t\\t</P>\\n\\t\\t</TD>\\n\\t</TR>\\n\\t<TR>\\n\\t\\t<TD COLSPAN=11 WIDTH=498 STYLE="; border-top: none; border-bottom: 1px solid #000000; border-left: 1px solid #000000; border-right: none; padding: 0cm">\\n\\t\\t\\t<P CLASS="western" STYLE="margin-bottom: 0cm; widows: 2; orphans: 2">\\n\\t\\t\\t<FONT FACE="Trebuchet MS, sans-serif"><FONT SIZE=1 STYLE="font-size: 8pt">5\\n\\t\\t\\t- Existe um relat\\xc3\\xb3rio que trabalha os dados cuja entrada \\xc3\\xa9 esta\\n\\t\\t\\tfun\\xc3\\xa7\\xc3\\xa3o?</FONT></FONT></P>\\n\\t\\t</TD>\\n\\t\\t<TD WIDTH=85 VALIGN=TOP STYLE="; border-top: none; border-bottom: 1px solid #000000; border-left: 1px solid #000000; border-right: none; padding: 0cm">\\n\\t\\t\\t<P CLASS="western" STYLE="margin-bottom: 0cm; widows: 2; orphans: 2">\\n\\t\\t\\t<BR>\\n\\t\\t\\t</P>\\n\\t\\t</TD>\\n\\t\\t<TD WIDTH=75 VALIGN=TOP STYLE="; border-top: none; border-bottom: 1px solid #000000; border-left: 1px solid #000000; border-right: 1px solid #000000; padding: 0cm">\\n\\t\\t\\t<P CLASS="western" STYLE="margin-bottom: 0cm; widows: 2; orphans: 2">\\n\\t\\t\\t<BR>\\n\\t\\t\\t</P>\\n\\t\\t</TD>\\n\\t</TR>\\n\\t<TR>\\n\\t\\t<TD COLSPAN=11 WIDTH=498 STYLE="; border-top: none; border-bottom: 1px solid #000000; border-left: 1px solid #000000; border-right: none; padding: 0cm">\\n\\t\\t\\t<P CLASS="western" STYLE="margin-bottom: 0cm; widows: 2; orphans: 2">\\n\\t\\t\\t<FONT FACE="Trebuchet MS, sans-serif"><FONT SIZE=1 STYLE="font-size: 8pt">6\\n\\t\\t\\t- Houve tempo h\\xc3\\xa1bil para o teste acontecer de forma segura?</FONT></FONT></P>\\n\\t\\t</TD>\\n\\t\\t<TD WIDTH=85 VALIGN=TOP STYLE="; border-top: none; border-bottom: 1px solid #000000; border-left: 1px solid #000000; border-right: none; padding: 0cm">\\n\\t\\t\\t<P CLASS="western" STYLE="margin-bottom: 0cm; widows: 2; orphans: 2">\\n\\t\\t\\t<BR>\\n\\t\\t\\t</P>\\n\\t\\t</TD>\\n\\t\\t<TD WIDTH=75 VALIGN=TOP STYLE="; border-top: none; border-bottom: 1px solid #000000; border-left: 1px solid #000000; border-right: 1px solid #000000; padding: 0cm">\\n\\t\\t\\t<P CLASS="western" STYLE="margin-bottom: 0cm; widows: 2; orphans: 2">\\n\\t\\t\\t<BR>\\n\\t\\t\\t</P>\\n\\t\\t</TD>\\n\\t</TR>\\n\\t<TR>\\n\\t\\t<TD COLSPAN=13 WIDTH=659 VALIGN=TOP STYLE="; border: 1px solid #000000; padding: 0cm">\\n\\t\\t\\t<P CLASS="western" STYLE="margin-bottom: 0cm; widows: 2; orphans: 2">\\n\\t\\t\\t<FONT FACE="Trebuchet MS, sans-serif"><FONT SIZE=1 STYLE="font-size: 8pt">Documenta\\xc3\\xa7\\xc3\\xa3o\\n\\t\\t\\tdo teste: </FONT></FONT>\\n\\t\\t\\t</P>\\n\\t\\t</TD>\\n\\t</TR>\\n\\t<TR>\\n\\t\\t<TD COLSPAN=3 WIDTH=156 STYLE="; border-top: 1px solid #000000; border-bottom: 1px solid #000000; border-left: 1px solid #000000; border-right: none; padding: 0cm">\\n\\t\\t\\t<P CLASS="western" STYLE="margin-bottom: 0cm; widows: 2; orphans: 2">\\n\\t\\t\\t<FONT FACE="Trebuchet MS, sans-serif"><FONT SIZE=2 STYLE="font-size: 9pt">PARECER\\n\\t\\t\\tTESTE:</FONT></FONT></P>\\n\\t\\t</TD>\\n\\t\\t<TD COLSPAN=5 WIDTH=174 STYLE="; border-top: 1px solid #000000; border-bottom: 1px solid #000000; border-left: 1px solid #000000; border-right: none; padding: 0cm">\\n\\t\\t\\t<P CLASS="western" STYLE="margin-bottom: 0cm; widows: 2; orphans: 2">\\n\\t\\t\\t<FONT FACE="Trebuchet MS, sans-serif"><FONT SIZE=2 STYLE="font-size: 9pt">[\\n\\t\\t\\t]Conclu\\xc3\\xaddo com sucesso</FONT></FONT></P>\\n\\t\\t</TD>\\n\\t\\t<TD COLSPAN=3 WIDTH=168 STYLE="; border-top: 1px solid #000000; border-bottom: 1px solid #000000; border-left: 1px solid #000000; border-right: none; padding: 0cm">\\n\\t\\t\\t<P CLASS="western" STYLE="margin-bottom: 0cm; widows: 2; orphans: 2">\\n\\t\\t\\t<FONT FACE="Trebuchet MS, sans-serif"><FONT SIZE=2 STYLE="font-size: 9pt">[\\n\\t\\t\\t]Atendido parcialmente</FONT></FONT></P>\\n\\t\\t</TD>\\n\\t\\t<TD COLSPAN=2 WIDTH=161 STYLE="; border: 1px solid #000000; padding: 0cm">\\n\\t\\t\\t<P CLASS="western" STYLE="margin-bottom: 0cm; widows: 2; orphans: 2">\\n\\t\\t\\t<FONT FACE="Trebuchet MS, sans-serif"><FONT SIZE=2 STYLE="font-size: 9pt">[\\n\\t\\t\\t]N\\xc3\\xa3o est\\xc3\\xa1 conforme</FONT></FONT></P>\\n\\t\\t</TD>\\n\\t</TR>\\n\\t<TR>\\n\\t\\t<TD COLSPAN=13 WIDTH=659 STYLE="; border-top: none; border-bottom: 1px solid #000000; border-left: 1px solid #000000; border-right: 1px solid #000000; padding: 0cm">\\n\\t\\t\\t<P CLASS="western" STYLE="margin-bottom: 0cm; widows: 2; orphans: 2">\\n\\t\\t\\t<BR>\\n\\t\\t\\t</P>\\n\\t\\t</TD>\\n\\t</TR>\\n\\t<TR>\\n\\t\\t<TD COLSPAN=13 WIDTH=659 BGCOLOR="#c0c0c0" STYLE="border-top: none; border-bottom: 1px solid #000000; border-left: 1px solid #000000; border-right: 1px solid #000000; padding: 0cm">\\n\\t\\t\\t<P CLASS="western" STYLE="margin-bottom: 0cm; widows: 2; orphans: 2">\\n\\t\\t\\t<FONT FACE="Trebuchet MS, sans-serif"><FONT SIZE=2 STYLE="font-size: 9pt"><B>RE-TESTE\\n\\t\\t\\tDE VERS\\xc3\\x83O:</B></FONT></FONT></P>\\n\\t\\t</TD>\\n\\t</TR>\\n\\t<TR>\\n\\t\\t<TD COLSPAN=13 WIDTH=659 STYLE="; border-top: none; border-bottom: 1px solid #000000; border-left: 1px solid #000000; border-right: 1px solid #000000; padding: 0cm">\\n\\t\\t\\t<P CLASS="western" STYLE="margin-bottom: 0cm; widows: 2; orphans: 2">\\n\\t\\t\\t<FONT FACE="Trebuchet MS, sans-serif"><FONT SIZE=2 STYLE="font-size: 9pt">Nome\\n\\t\\t\\tdo Consultor: </FONT></FONT>\\n\\t\\t\\t</P>\\n\\t\\t</TD>\\n\\t</TR>\\n\\t<TR>\\n\\t\\t<TD COLSPAN=3 WIDTH=156 STYLE="; border-top: none; border-bottom: 1px solid #000000; border-left: 1px solid #000000; border-right: none; padding: 0cm">\\n\\t\\t\\t<P CLASS="western" STYLE="margin-bottom: 0cm; widows: 2; orphans: 2">\\n\\t\\t\\t<FONT FACE="Trebuchet MS, sans-serif"><FONT SIZE=2 STYLE="font-size: 9pt">Data\\n\\t\\t\\tIn\\xc3\\xadcio: </FONT></FONT>\\n\\t\\t\\t</P>\\n\\t\\t</TD>\\n\\t\\t<TD COLSPAN=5 WIDTH=174 STYLE="; border-top: none; border-bottom: 1px solid #000000; border-left: 1px solid #000000; border-right: none; padding: 0cm">\\n\\t\\t\\t<P CLASS="western" STYLE="margin-bottom: 0cm; widows: 2; orphans: 2">\\n\\t\\t\\t<FONT FACE="Trebuchet MS, sans-serif"><FONT SIZE=2 STYLE="font-size: 9pt">Hora\\n\\t\\t\\tIn\\xc3\\xadcio:</FONT></FONT></P>\\n\\t\\t</TD>\\n\\t\\t<TD COLSPAN=3 WIDTH=168 STYLE="; border-top: none; border-bottom: 1px solid #000000; border-left: 1px solid #000000; border-right: none; padding: 0cm">\\n\\t\\t\\t<P CLASS="western" STYLE="margin-bottom: 0cm; widows: 2; orphans: 2">\\n\\t\\t\\t<FONT FACE="Trebuchet MS, sans-serif"><FONT SIZE=2 STYLE="font-size: 9pt">Data\\n\\t\\t\\tFim: </FONT></FONT>\\n\\t\\t\\t</P>\\n\\t\\t</TD>\\n\\t\\t<TD COLSPAN=2 WIDTH=161 STYLE="; border-top: none; border-bottom: 1px solid #000000; border-left: 1px solid #000000; border-right: 1px solid #000000; padding: 0cm">\\n\\t\\t\\t<P CLASS="western" STYLE="margin-bottom: 0cm; widows: 2; orphans: 2">\\n\\t\\t\\t<FONT FACE="Trebuchet MS, sans-serif"><FONT SIZE=2 STYLE="font-size: 9pt">Hora\\n\\t\\t\\tFim: </FONT></FONT>\\n\\t\\t\\t</P>\\n\\t\\t</TD>\\n\\t</TR>\\n\\t<TR>\\n\\t\\t<TD COLSPAN=3 WIDTH=156 STYLE="; border-top: none; border-bottom: 1px solid #000000; border-left: 1px solid #000000; border-right: none; padding: 0cm">\\n\\t\\t\\t<P CLASS="western" STYLE="margin-bottom: 0cm; widows: 2; orphans: 2">\\n\\t\\t\\t<FONT FACE="Trebuchet MS, sans-serif"><FONT SIZE=2 STYLE="font-size: 9pt">PARECER\\n\\t\\t\\tRE-TESTE:</FONT></FONT></P>\\n\\t\\t</TD>\\n\\t\\t<TD COLSPAN=5 WIDTH=174 STYLE="; border-top: none; border-bottom: 1px solid #000000; border-left: 1px solid #000000; border-right: none; padding: 0cm">\\n\\t\\t\\t<P CLASS="western" STYLE="margin-bottom: 0cm; widows: 2; orphans: 2">\\n\\t\\t\\t<FONT FACE="Trebuchet MS, sans-serif"><FONT SIZE=2 STYLE="font-size: 9pt">[\\n\\t\\t\\t]Conclu\\xc3\\xaddo com sucesso</FONT></FONT></P>\\n\\t\\t</TD>\\n\\t\\t<TD COLSPAN=3 WIDTH=168 STYLE="; border-top: none; border-bottom: 1px solid #000000; border-left: 1px solid #000000; border-right: none; padding: 0cm">\\n\\t\\t\\t<P CLASS="western" STYLE="margin-bottom: 0cm; widows: 2; orphans: 2">\\n\\t\\t\\t<FONT FACE="Trebuchet MS, sans-serif"><FONT SIZE=2 STYLE="font-size: 9pt">[\\n\\t\\t\\t]Atendido parcialmente</FONT></FONT></P>\\n\\t\\t</TD>\\n\\t\\t<TD COLSPAN=2 WIDTH=161 STYLE="; border-top: none; border-bottom: 1px solid #000000; border-left: 1px solid #000000; border-right: 1px solid #000000; padding: 0cm">\\n\\t\\t\\t<P CLASS="western" STYLE="margin-bottom: 0cm; widows: 2; orphans: 2">\\n\\t\\t\\t<FONT FACE="Trebuchet MS, sans-serif"><FONT SIZE=2 STYLE="font-size: 9pt">[\\n\\t\\t\\t]N\\xc3\\xa3o est\\xc3\\xa1 conforme</FONT></FONT></P>\\n\\t\\t</TD>\\n\\t</TR>\\n\\t<TR>\\n\\t\\t<TD COLSPAN=14 WIDTH=694 HEIGHT=15 VALIGN=TOP STYLE="; border: 1px solid #000000; padding: 0cm">\\n\\t\\t\\t<P CLASS="western" STYLE="margin-bottom: 0cm; widows: 2; orphans: 2">\\n\\t\\t\\t<BR>\\n\\t\\t\\t</P>\\n\\t\\t</TD>\\n\\t</TR>\\n\\t<TR VALIGN=TOP>\\n\\t\\t<TD COLSPAN=6 WIDTH=227 STYLE="; border-top: 1px solid #000000; border-bottom: 1px solid #000000; border-left: 1px solid #000000; border-right: none; padding: 0cm">\\n\\t\\t\\t<P CLASS="western" STYLE="margin-bottom: 0cm; widows: 2; orphans: 2">\\n\\t\\t\\t<FONT FACE="Trebuchet MS, sans-serif"><FONT SIZE=1 STYLE="font-size: 8pt">Corrigido\\n\\t\\t\\tna vers\\xc3\\xa3o:</FONT></FONT></P>\\n\\t\\t</TD>\\n\\t\\t<TD COLSPAN=3 WIDTH=138 STYLE="; border-top: 1px solid #000000; border-bottom: 1px solid #000000; border-left: 1px solid #000000; border-right: none; padding: 0cm">\\n\\t\\t\\t<P CLASS="western" STYLE="margin-bottom: 0cm; widows: 2; orphans: 2">\\n\\t\\t\\t<FONT FACE="Trebuchet MS, sans-serif"><FONT SIZE=1 STYLE="font-size: 8pt">PLS:</FONT></FONT></P>\\n\\t\\t</TD>\\n\\t\\t<TD COLSPAN=3 WIDTH=168 STYLE="; border-top: 1px solid #000000; border-bottom: 1px solid #000000; border-left: 1px solid #000000; border-right: none; padding: 0cm">\\n\\t\\t\\t<P CLASS="western" STYLE="margin-bottom: 0cm; widows: 2; orphans: 2">\\n\\t\\t\\t<FONT FACE="Trebuchet MS, sans-serif"><FONT SIZE=1 STYLE="font-size: 8pt">Data\\n\\t\\t\\tT\\xc3\\xa9rmino:</FONT></FONT></P>\\n\\t\\t</TD>\\n\\t\\t<TD COLSPAN=2 WIDTH=161 STYLE="; border: 1px solid #000000; padding: 0cm">\\n\\t\\t\\t<P CLASS="western" STYLE="margin-bottom: 0cm; widows: 2; orphans: 2">\\n\\t\\t\\t<FONT FACE="Trebuchet MS, sans-serif"><FONT SIZE=1 STYLE="font-size: 8pt">Chamado\\n\\t\\t\\tfinalizado no SITE:</FONT></FONT></P>\\n\\t\\t</TD>\\n\\t</TR>\\n</TABLE>\\n\', escape=False)'
p6
sS'snapshot'
p7
(dp8
S'exception'
p9
(dp10
S'__hash__'
p11
S"<method-wrapper '__hash__' of exceptions.AttributeError object>"
p12
sS'__setattr__'
p13
S"<method-wrapper '__setattr__' of exceptions.AttributeError object>"
p14
sS'__reduce_ex__'
p15
S'<built-in method __reduce_ex__ of exceptions.AttributeError object>'
p16
sS'__getslice__'
p17
S"<method-wrapper '__getslice__' of exceptions.AttributeError object>"
p18
sS'__getitem__'
p19
S"<method-wrapper '__getitem__' of exceptions.AttributeError object>"
p20
sS'__setstate__'
p21
S'<built-in method __setstate__ of exceptions.AttributeError object>'
p22
sS'__reduce__'
p23
S'<built-in method __reduce__ of exceptions.AttributeError object>'
p24
sS'__str__'
p25
S"<method-wrapper '__str__' of exceptions.AttributeError object>"
p26
sS'__format__'
p27
S'<built-in method __format__ of exceptions.AttributeError object>'
p28
sS'__getattribute__'
p29
S"<method-wrapper '__getattribute__' of exceptions.AttributeError object>"
p30
sS'__class__'
p31
S"<type 'exceptions.AttributeError'>"
p32
sS'__unicode__'
p33
S'<built-in method __unicode__ of exceptions.AttributeError object>'
p34
sS'__delattr__'
p35
S"<method-wrapper '__delattr__' of exceptions.AttributeError object>"
p36
sS'__subclasshook__'
p37
S'<built-in method __subclasshook__ of type object>'
p38
sS'__repr__'
p39
S"<method-wrapper '__repr__' of exceptions.AttributeError object>"
p40
sS'args'
p41
S'("\'str\' object has no attribute \'descricao\'",)'
p42
sS'__dict__'
p43
S'{}'
p44
sS'__sizeof__'
p45
S'<built-in method __sizeof__ of exceptions.AttributeError object>'
p46
sS'__doc__'
p47
S"'Attribute not found.'"
p48
sS'__init__'
p49
S"<method-wrapper '__init__' of exceptions.AttributeError object>"
p50
sS'__new__'
p51
S'<built-in method __new__ of type object>'
p52
ssS'evalue'
p53
S"'str' object has no attribute 'descricao'"
p54
sS'request'
p55
ccopy_reg
_reconstructor
p56
(cgluon.html
BEAUTIFY
p57
c__builtin__
object
p58
NtRp59
(dp60
S'attributes'
p61
(dp62
sS'components'
p63
(lp64
g56
(cgluon.html
TABLE
p65
g58
NtRp66
(dp67
g61
(dp68
S'level'
p69
I5
ssS'parent'
p70
Nsg63
(lp71
g56
(cgluon.html
TR
p72
g58
NtRp73
(dp74
g61
(dp75
sg70
g66
sg63
(lp76
g56
(cgluon.html
TD
p77
g58
NtRp78
(dp79
g61
(dp80
S'_style'
p81
S'font-weight:bold;'
p82
ssg70
g73
sg63
(lp83
S'ajax'
p84
asbag56
(g77
g58
NtRp85
(dp86
g61
(dp87
S'_valign'
p88
S'top'
p89
ssg70
g73
sg63
(lp90
S':'
asbag56
(g77
g58
NtRp91
(dp92
g61
(dp93
sg70
g73
sg63
(lp94
g56
(g57
g58
NtRp95
(dp96
g61
(dp97
g69
I5
ssg70
g91
sg63
(lp98
S'False'
p99
asbasbasbag56
(g72
g58
NtRp100
(dp101
g61
(dp102
sg70
g66
sg63
(lp103
g56
(g77
g58
NtRp104
(dp105
g61
(dp106
g81
g82
ssg70
g100
sg63
(lp107
S'application'
p108
asbag56
(g77
g58
NtRp109
(dp110
g61
(dp111
g88
g89
ssg70
g100
sg63
(lp112
S':'
asbag56
(g77
g58
NtRp113
(dp114
g61
(dp115
sg70
g100
sg63
(lp116
g56
(g57
g58
NtRp117
(dp118
g61
(dp119
g69
I5
ssg70
g113
sg63
(lp120
S'scrum'
p121
asbasbasbag56
(g72
g58
NtRp122
(dp123
g61
(dp124
sg70
g66
sg63
(lp125
g56
(g77
g58
NtRp126
(dp127
g61
(dp128
g81
g82
ssg70
g122
sg63
(lp129
g41
asbag56
(g77
g58
NtRp130
(dp131
g61
(dp132
g88
g89
ssg70
g122
sg63
(lp133
S':'
asbag56
(g77
g58
NtRp134
(dp135
g61
(dp136
sg70
g122
sg63
(lp137
g56
(g57
g58
NtRp138
(dp139
g61
(dp140
g69
I5
ssg70
g134
sg63
(lp141
g56
(g65
g58
NtRp142
(dp143
g61
(dp144
g69
I4
ssg70
Nsg63
(lp145
g56
(g72
g58
NtRp146
(dp147
g61
(dp148
sg70
g142
sg63
(lp149
g56
(g77
g58
NtRp150
(dp151
g61
(dp152
sg70
g146
sg63
(lp153
g56
(g57
g58
NtRp154
(dp155
g61
(dp156
g69
I4
ssg70
g150
sg63
(lp157
S'1'
asbasbasbasbasbasbasbag56
(g72
g58
NtRp158
(dp159
g61
(dp160
sg70
g66
sg63
(lp161
g56
(g77
g58
NtRp162
(dp163
g61
(dp164
g81
g82
ssg70
g158
sg63
(lp165
S'body'
p166
asbag56
(g77
g58
NtRp167
(dp168
g61
(dp169
g88
g89
ssg70
g158
sg63
(lp170
S':'
asbag56
(g77
g58
NtRp171
(dp172
g61
(dp173
sg70
g158
sg63
(lp174
g56
(g57
g58
NtRp175
(dp176
g61
(dp177
g69
I5
ssg70
g171
sg63
(lp178
S'<cStringIO.StringO object at 0xb9096ba0>'
p179
asbasbasbag56
(g72
g58
NtRp180
(dp181
g61
(dp182
sg70
g66
sg63
(lp183
g56
(g77
g58
NtRp184
(dp185
g61
(dp186
g81
g82
ssg70
g180
sg63
(lp187
S'client'
p188
asbag56
(g77
g58
NtRp189
(dp190
g61
(dp191
g88
g89
ssg70
g180
sg63
(lp192
S':'
asbag56
(g77
g58
NtRp193
(dp194
g61
(dp195
sg70
g180
sg63
(lp196
g56
(g57
g58
NtRp197
(dp198
g61
(dp199
g69
I5
ssg70
g193
sg63
(lp200
S'127.0.0.1'
p201
asbasbasbag56
(g72
g58
NtRp202
(dp203
g61
(dp204
sg70
g66
sg63
(lp205
g56
(g77
g58
NtRp206
(dp207
g61
(dp208
g81
g82
ssg70
g202
sg63
(lp209
S'controller'
p210
asbag56
(g77
g58
NtRp211
(dp212
g61
(dp213
g88
g89
ssg70
g202
sg63
(lp214
S':'
asbag56
(g77
g58
NtRp215
(dp216
g61
(dp217
sg70
g202
sg63
(lp218
g56
(g57
g58
NtRp219
(dp220
g61
(dp221
g69
I5
ssg70
g215
sg63
(lp222
S'ticket'
p223
asbasbasbag56
(g72
g58
NtRp224
(dp225
g61
(dp226
sg70
g66
sg63
(lp227
g56
(g77
g58
NtRp228
(dp229
g61
(dp230
g81
g82
ssg70
g224
sg63
(lp231
S'cookies'
p232
asbag56
(g77
g58
NtRp233
(dp234
g61
(dp235
g88
g89
ssg70
g224
sg63
(lp236
S':'
asbag56
(g77
g58
NtRp237
(dp238
g61
(dp239
sg70
g224
sg63
(lp240
g56
(g57
g58
NtRp241
(dp242
g61
(dp243
g69
I5
ssg70
g237
sg63
(lp244
g56
(g65
g58
NtRp245
(dp246
g61
(dp247
g69
I4
ssg70
Nsg63
(lp248
g56
(g72
g58
NtRp249
(dp250
g61
(dp251
sg70
g245
sg63
(lp252
g56
(g77
g58
NtRp253
(dp254
g61
(dp255
g81
g82
ssg70
g249
sg63
(lp256
S'session_id_admin'
p257
asbag56
(g77
g58
NtRp258
(dp259
g61
(dp260
g88
g89
ssg70
g249
sg63
(lp261
S':'
asbag56
(g77
g58
NtRp262
(dp263
g61
(dp264
sg70
g249
sg63
(lp265
g56
(g57
g58
NtRp266
(dp267
g61
(dp268
g69
I4
ssg70
g262
sg63
(lp269
g56
(g65
g58
NtRp270
(dp271
g61
(dp272
g69
I3
ssg70
Nsg63
(lp273
g56
(g72
g58
NtRp274
(dp275
g61
(dp276
sg70
g270
sg63
(lp277
g56
(g77
g58
NtRp278
(dp279
g61
(dp280
g81
g82
ssg70
g274
sg63
(lp281
S'comment'
p282
asbag56
(g77
g58
NtRp283
(dp284
g61
(dp285
g88
g89
ssg70
g274
sg63
(lp286
S':'
asbag56
(g77
g58
NtRp287
(dp288
g61
(dp289
sg70
g274
sg63
(lp290
g56
(g57
g58
NtRp291
(dp292
g61
(dp293
g69
I3
ssg70
g287
sg63
(lp294
S''
asbasbasbag56
(g72
g58
NtRp295
(dp296
g61
(dp297
sg70
g270
sg63
(lp298
g56
(g77
g58
NtRp299
(dp300
g61
(dp301
g81
g82
ssg70
g295
sg63
(lp302
S'domain'
p303
asbag56
(g77
g58
NtRp304
(dp305
g61
(dp306
g88
g89
ssg70
g295
sg63
(lp307
S':'
asbag56
(g77
g58
NtRp308
(dp309
g61
(dp310
sg70
g295
sg63
(lp311
g56
(g57
g58
NtRp312
(dp313
g61
(dp314
g69
I3
ssg70
g308
sg63
(lp315
S''
asbasbasbag56
(g72
g58
NtRp316
(dp317
g61
(dp318
sg70
g270
sg63
(lp319
g56
(g77
g58
NtRp320
(dp321
g61
(dp322
g81
g82
ssg70
g316
sg63
(lp323
S'expires'
p324
asbag56
(g77
g58
NtRp325
(dp326
g61
(dp327
g88
g89
ssg70
g316
sg63
(lp328
S':'
asbag56
(g77
g58
NtRp329
(dp330
g61
(dp331
sg70
g316
sg63
(lp332
g56
(g57
g58
NtRp333
(dp334
g61
(dp335
g69
I3
ssg70
g329
sg63
(lp336
S''
asbasbasbag56
(g72
g58
NtRp337
(dp338
g61
(dp339
sg70
g270
sg63
(lp340
g56
(g77
g58
NtRp341
(dp342
g61
(dp343
g81
g82
ssg70
g337
sg63
(lp344
S'httponly'
p345
asbag56
(g77
g58
NtRp346
(dp347
g61
(dp348
g88
g89
ssg70
g337
sg63
(lp349
S':'
asbag56
(g77
g58
NtRp350
(dp351
g61
(dp352
sg70
g337
sg63
(lp353
g56
(g57
g58
NtRp354
(dp355
g61
(dp356
g69
I3
ssg70
g350
sg63
(lp357
S''
asbasbasbag56
(g72
g58
NtRp358
(dp359
g61
(dp360
sg70
g270
sg63
(lp361
g56
(g77
g58
NtRp362
(dp363
g61
(dp364
g81
g82
ssg70
g358
sg63
(lp365
S'max-age'
p366
asbag56
(g77
g58
NtRp367
(dp368
g61
(dp369
g88
g89
ssg70
g358
sg63
(lp370
S':'
asbag56
(g77
g58
NtRp371
(dp372
g61
(dp373
sg70
g358
sg63
(lp374
g56
(g57
g58
NtRp375
(dp376
g61
(dp377
g69
I3
ssg70
g371
sg63
(lp378
S''
asbasbasbag56
(g72
g58
NtRp379
(dp380
g61
(dp381
sg70
g270
sg63
(lp382
g56
(g77
g58
NtRp383
(dp384
g61
(dp385
g81
g82
ssg70
g379
sg63
(lp386
S'path'
p387
asbag56
(g77
g58
NtRp388
(dp389
g61
(dp390
g88
g89
ssg70
g379
sg63
(lp391
S':'
asbag56
(g77
g58
NtRp392
(dp393
g61
(dp394
sg70
g379
sg63
(lp395
g56
(g57
g58
NtRp396
(dp397
g61
(dp398
g69
I3
ssg70
g392
sg63
(lp399
S''
asbasbasbag56
(g72
g58
NtRp400
(dp401
g61
(dp402
sg70
g270
sg63
(lp403
g56
(g77
g58
NtRp404
(dp405
g61
(dp406
g81
g82
ssg70
g400
sg63
(lp407
S'secure'
p408
asbag56
(g77
g58
NtRp409
(dp410
g61
(dp411
g88
g89
ssg70
g400
sg63
(lp412
S':'
asbag56
(g77
g58
NtRp413
(dp414
g61
(dp415
sg70
g400
sg63
(lp416
g56
(g57
g58
NtRp417
(dp418
g61
(dp419
g69
I3
ssg70
g413
sg63
(lp420
S''
asbasbasbag56
(g72
g58
NtRp421
(dp422
g61
(dp423
sg70
g270
sg63
(lp424
g56
(g77
g58
NtRp425
(dp426
g61
(dp427
g81
g82
ssg70
g421
sg63
(lp428
S'version'
p429
asbag56
(g77
g58
NtRp430
(dp431
g61
(dp432
g88
g89
ssg70
g421
sg63
(lp433
S':'
asbag56
(g77
g58
NtRp434
(dp435
g61
(dp436
sg70
g421
sg63
(lp437
g56
(g57
g58
NtRp438
(dp439
g61
(dp440
g69
I3
ssg70
g434
sg63
(lp441
S''
asbasbasbasbasbasbasbag56
(g72
g58
NtRp442
(dp443
g61
(dp444
sg70
g245
sg63
(lp445
g56
(g77
g58
NtRp446
(dp447
g61
(dp448
g81
g82
ssg70
g442
sg63
(lp449
S'session_id_scrum'
p450
asbag56
(g77
g58
NtRp451
(dp452
g61
(dp453
g88
g89
ssg70
g442
sg63
(lp454
S':'
asbag56
(g77
g58
NtRp455
(dp456
g61
(dp457
sg70
g442
sg63
(lp458
g56
(g57
g58
NtRp459
(dp460
g61
(dp461
g69
I4
ssg70
g455
sg63
(lp462
g56
(g65
g58
NtRp463
(dp464
g61
(dp465
g69
I3
ssg70
Nsg63
(lp466
g56
(g72
g58
NtRp467
(dp468
g61
(dp469
sg70
g463
sg63
(lp470
g56
(g77
g58
NtRp471
(dp472
g61
(dp473
g81
g82
ssg70
g467
sg63
(lp474
g282
asbag56
(g77
g58
NtRp475
(dp476
g61
(dp477
g88
g89
ssg70
g467
sg63
(lp478
S':'
asbag56
(g77
g58
NtRp479
(dp480
g61
(dp481
sg70
g467
sg63
(lp482
g56
(g57
g58
NtRp483
(dp484
g61
(dp485
g69
I3
ssg70
g479
sg63
(lp486
S''
asbasbasbag56
(g72
g58
NtRp487
(dp488
g61
(dp489
sg70
g463
sg63
(lp490
g56
(g77
g58
NtRp491
(dp492
g61
(dp493
g81
g82
ssg70
g487
sg63
(lp494
g303
asbag56
(g77
g58
NtRp495
(dp496
g61
(dp497
g88
g89
ssg70
g487
sg63
(lp498
S':'
asbag56
(g77
g58
NtRp499
(dp500
g61
(dp501
sg70
g487
sg63
(lp502
g56
(g57
g58
NtRp503
(dp504
g61
(dp505
g69
I3
ssg70
g499
sg63
(lp506
S''
asbasbasbag56
(g72
g58
NtRp507
(dp508
g61
(dp509
sg70
g463
sg63
(lp510
g56
(g77
g58
NtRp511
(dp512
g61
(dp513
g81
g82
ssg70
g507
sg63
(lp514
g324
asbag56
(g77
g58
NtRp515
(dp516
g61
(dp517
g88
g89
ssg70
g507
sg63
(lp518
S':'
asbag56
(g77
g58
NtRp519
(dp520
g61
(dp521
sg70
g507
sg63
(lp522
g56
(g57
g58
NtRp523
(dp524
g61
(dp525
g69
I3
ssg70
g519
sg63
(lp526
S''
asbasbasbag56
(g72
g58
NtRp527
(dp528
g61
(dp529
sg70
g463
sg63
(lp530
g56
(g77
g58
NtRp531
(dp532
g61
(dp533
g81
g82
ssg70
g527
sg63
(lp534
g345
asbag56
(g77
g58
NtRp535
(dp536
g61
(dp537
g88
g89
ssg70
g527
sg63
(lp538
S':'
asbag56
(g77
g58
NtRp539
(dp540
g61
(dp541
sg70
g527
sg63
(lp542
g56
(g57
g58
NtRp543
(dp544
g61
(dp545
g69
I3
ssg70
g539
sg63
(lp546
S''
asbasbasbag56
(g72
g58
NtRp547
(dp548
g61
(dp549
sg70
g463
sg63
(lp550
g56
(g77
g58
NtRp551
(dp552
g61
(dp553
g81
g82
ssg70
g547
sg63
(lp554
g366
asbag56
(g77
g58
NtRp555
(dp556
g61
(dp557
g88
g89
ssg70
g547
sg63
(lp558
S':'
asbag56
(g77
g58
NtRp559
(dp560
g61
(dp561
sg70
g547
sg63
(lp562
g56
(g57
g58
NtRp563
(dp564
g61
(dp565
g69
I3
ssg70
g559
sg63
(lp566
S''
asbasbasbag56
(g72
g58
NtRp567
(dp568
g61
(dp569
sg70
g463
sg63
(lp570
g56
(g77
g58
NtRp571
(dp572
g61
(dp573
g81
g82
ssg70
g567
sg63
(lp574
g387
asbag56
(g77
g58
NtRp575
(dp576
g61
(dp577
g88
g89
ssg70
g567
sg63
(lp578
S':'
asbag56
(g77
g58
NtRp579
(dp580
g61
(dp581
sg70
g567
sg63
(lp582
g56
(g57
g58
NtRp583
(dp584
g61
(dp585
g69
I3
ssg70
g579
sg63
(lp586
S''
asbasbasbag56
(g72
g58
NtRp587
(dp588
g61
(dp589
sg70
g463
sg63
(lp590
g56
(g77
g58
NtRp591
(dp592
g61
(dp593
g81
g82
ssg70
g587
sg63
(lp594
g408
asbag56
(g77
g58
NtRp595
(dp596
g61
(dp597
g88
g89
ssg70
g587
sg63
(lp598
S':'
asbag56
(g77
g58
NtRp599
(dp600
g61
(dp601
sg70
g587
sg63
(lp602
g56
(g57
g58
NtRp603
(dp604
g61
(dp605
g69
I3
ssg70
g599
sg63
(lp606
S''
asbasbasbag56
(g72
g58
NtRp607
(dp608
g61
(dp609
sg70
g463
sg63
(lp610
g56
(g77
g58
NtRp611
(dp612
g61
(dp613
g81
g82
ssg70
g607
sg63
(lp614
g429
asbag56
(g77
g58
NtRp615
(dp616
g61
(dp617
g88
g89
ssg70
g607
sg63
(lp618
S':'
asbag56
(g77
g58
NtRp619
(dp620
g61
(dp621
sg70
g607
sg63
(lp622
g56
(g57
g58
NtRp623
(dp624
g61
(dp625
g69
I3
ssg70
g619
sg63
(lp626
S''
asbasbasbasbasbasbasbasbasbasbasbag56
(g72
g58
NtRp627
(dp628
g61
(dp629
sg70
g66
sg63
(lp630
g56
(g77
g58
NtRp631
(dp632
g61
(dp633
g81
g82
ssg70
g627
sg63
(lp634
S'env'
p635
asbag56
(g77
g58
NtRp636
(dp637
g61
(dp638
g88
g89
ssg70
g627
sg63
(lp639
S':'
asbag56
(g77
g58
NtRp640
(dp641
g61
(dp642
sg70
g627
sg63
(lp643
g56
(g57
g58
NtRp644
(dp645
g61
(dp646
g69
I5
ssg70
g640
sg63
(lp647
g56
(g65
g58
NtRp648
(dp649
g61
(dp650
g69
I4
ssg70
Nsg63
(lp651
g56
(g72
g58
NtRp652
(dp653
g61
(dp654
sg70
g648
sg63
(lp655
g56
(g77
g58
NtRp656
(dp657
g61
(dp658
g81
g82
ssg70
g652
sg63
(lp659
S'app_folders'
p660
asbag56
(g77
g58
NtRp661
(dp662
g61
(dp663
g88
g89
ssg70
g652
sg63
(lp664
S':'
asbag56
(g77
g58
NtRp665
(dp666
g61
(dp667
sg70
g652
sg63
(lp668
g56
(g57
g58
NtRp669
(dp670
g61
(dp671
g69
I4
ssg70
g665
sg63
(lp672
S"set(['/home/www-data/web2py/applications/scrum/', '/home/www-data/web2py/applications/admin/'])"
p673
asbasbasbag56
(g72
g58
NtRp674
(dp675
g61
(dp676
sg70
g648
sg63
(lp677
g56
(g77
g58
NtRp678
(dp679
g61
(dp680
g81
g82
ssg70
g674
sg63
(lp681
S'applications_parent'
p682
asbag56
(g77
g58
NtRp683
(dp684
g61
(dp685
g88
g89
ssg70
g674
sg63
(lp686
S':'
asbag56
(g77
g58
NtRp687
(dp688
g61
(dp689
sg70
g674
sg63
(lp690
g56
(g57
g58
NtRp691
(dp692
g61
(dp693
g69
I4
ssg70
g687
sg63
(lp694
S'/home/www-data/web2py'
p695
asbasbasbag56
(g72
g58
NtRp696
(dp697
g61
(dp698
sg70
g648
sg63
(lp699
g56
(g77
g58
NtRp700
(dp701
g61
(dp702
g81
g82
ssg70
g696
sg63
(lp703
S'db_sessions'
p704
asbag56
(g77
g58
NtRp705
(dp706
g61
(dp707
g88
g89
ssg70
g696
sg63
(lp708
S':'
asbag56
(g77
g58
NtRp709
(dp710
g61
(dp711
sg70
g696
sg63
(lp712
g56
(g57
g58
NtRp713
(dp714
g61
(dp715
g69
I4
ssg70
g709
sg63
(lp716
S'set([])'
p717
asbasbasbag56
(g72
g58
NtRp718
(dp719
g61
(dp720
sg70
g648
sg63
(lp721
g56
(g77
g58
NtRp722
(dp723
g61
(dp724
g81
g82
ssg70
g718
sg63
(lp725
S'debugging'
p726
asbag56
(g77
g58
NtRp727
(dp728
g61
(dp729
g88
g89
ssg70
g718
sg63
(lp730
S':'
asbag56
(g77
g58
NtRp731
(dp732
g61
(dp733
sg70
g718
sg63
(lp734
g56
(g57
g58
NtRp735
(dp736
g61
(dp737
g69
I4
ssg70
g731
sg63
(lp738
g99
asbasbasbag56
(g72
g58
NtRp739
(dp740
g61
(dp741
sg70
g648
sg63
(lp742
g56
(g77
g58
NtRp743
(dp744
g61
(dp745
g81
g82
ssg70
g739
sg63
(lp746
S'document_root'
p747
asbag56
(g77
g58
NtRp748
(dp749
g61
(dp750
g88
g89
ssg70
g739
sg63
(lp751
S':'
asbag56
(g77
g58
NtRp752
(dp753
g61
(dp754
sg70
g739
sg63
(lp755
g56
(g57
g58
NtRp756
(dp757
g61
(dp758
g69
I4
ssg70
g752
sg63
(lp759
S'/etc/apache2/htdocs'
p760
asbasbasbag56
(g72
g58
NtRp761
(dp762
g61
(dp763
sg70
g648
sg63
(lp764
g56
(g77
g58
NtRp765
(dp766
g61
(dp767
g81
g82
ssg70
g761
sg63
(lp768
S'gateway_interface'
p769
asbag56
(g77
g58
NtRp770
(dp771
g61
(dp772
g88
g89
ssg70
g761
sg63
(lp773
S':'
asbag56
(g77
g58
NtRp774
(dp775
g61
(dp776
sg70
g761
sg63
(lp777
g56
(g57
g58
NtRp778
(dp779
g61
(dp780
g69
I4
ssg70
g774
sg63
(lp781
S'CGI/1.1'
p782
asbasbasbag56
(g72
g58
NtRp783
(dp784
g61
(dp785
sg70
g648
sg63
(lp786
g56
(g77
g58
NtRp787
(dp788
g61
(dp789
g81
g82
ssg70
g783
sg63
(lp790
S'gluon_parent'
p791
asbag56
(g77
g58
NtRp792
(dp793
g61
(dp794
g88
g89
ssg70
g783
sg63
(lp795
S':'
asbag56
(g77
g58
NtRp796
(dp797
g61
(dp798
sg70
g783
sg63
(lp799
g56
(g57
g58
NtRp800
(dp801
g61
(dp802
g69
I4
ssg70
g796
sg63
(lp803
g695
asbasbasbag56
(g72
g58
NtRp804
(dp805
g61
(dp806
sg70
g648
sg63
(lp807
g56
(g77
g58
NtRp808
(dp809
g61
(dp810
g81
g82
ssg70
g804
sg63
(lp811
S'http_accept'
p812
asbag56
(g77
g58
NtRp813
(dp814
g61
(dp815
g88
g89
ssg70
g804
sg63
(lp816
S':'
asbag56
(g77
g58
NtRp817
(dp818
g61
(dp819
sg70
g804
sg63
(lp820
g56
(g57
g58
NtRp821
(dp822
g61
(dp823
g69
I4
ssg70
g817
sg63
(lp824
S'text/html, application/xml;q=0.9, application/xhtml+xml, image/png, image/webp, image/jpeg, image/gif, image/x-xbitmap, */*;q=0.1'
p825
asbasbasbag56
(g72
g58
NtRp826
(dp827
g61
(dp828
sg70
g648
sg63
(lp829
g56
(g77
g58
NtRp830
(dp831
g61
(dp832
g81
g82
ssg70
g826
sg63
(lp833
S'http_accept_encoding'
p834
asbag56
(g77
g58
NtRp835
(dp836
g61
(dp837
g88
g89
ssg70
g826
sg63
(lp838
S':'
asbag56
(g77
g58
NtRp839
(dp840
g61
(dp841
sg70
g826
sg63
(lp842
g56
(g57
g58
NtRp843
(dp844
g61
(dp845
g69
I4
ssg70
g839
sg63
(lp846
S'gzip, deflate'
p847
asbasbasbag56
(g72
g58
NtRp848
(dp849
g61
(dp850
sg70
g648
sg63
(lp851
g56
(g77
g58
NtRp852
(dp853
g61
(dp854
g81
g82
ssg70
g848
sg63
(lp855
S'http_accept_language'
p856
asbag56
(g77
g58
NtRp857
(dp858
g61
(dp859
g88
g89
ssg70
g848
sg63
(lp860
S':'
asbag56
(g77
g58
NtRp861
(dp862
g61
(dp863
sg70
g848
sg63
(lp864
g56
(g57
g58
NtRp865
(dp866
g61
(dp867
g69
I4
ssg70
g861
sg63
(lp868
S'pt-BR,pt;q=0.9,en;q=0.8'
p869
asbasbasbag56
(g72
g58
NtRp870
(dp871
g61
(dp872
sg70
g648
sg63
(lp873
g56
(g77
g58
NtRp874
(dp875
g61
(dp876
g81
g82
ssg70
g870
sg63
(lp877
S'http_cache_control'
p878
asbag56
(g77
g58
NtRp879
(dp880
g61
(dp881
g88
g89
ssg70
g870
sg63
(lp882
S':'
asbag56
(g77
g58
NtRp883
(dp884
g61
(dp885
sg70
g870
sg63
(lp886
g56
(g57
g58
NtRp887
(dp888
g61
(dp889
g69
I4
ssg70
g883
sg63
(lp890
S'no-cache'
p891
asbasbasbag56
(g72
g58
NtRp892
(dp893
g61
(dp894
sg70
g648
sg63
(lp895
g56
(g77
g58
NtRp896
(dp897
g61
(dp898
g81
g82
ssg70
g892
sg63
(lp899
S'http_connection'
p900
asbag56
(g77
g58
NtRp901
(dp902
g61
(dp903
g88
g89
ssg70
g892
sg63
(lp904
S':'
asbag56
(g77
g58
NtRp905
(dp906
g61
(dp907
sg70
g892
sg63
(lp908
g56
(g57
g58
NtRp909
(dp910
g61
(dp911
g69
I4
ssg70
g905
sg63
(lp912
S'Keep-Alive'
p913
asbasbasbag56
(g72
g58
NtRp914
(dp915
g61
(dp916
sg70
g648
sg63
(lp917
g56
(g77
g58
NtRp918
(dp919
g61
(dp920
g81
g82
ssg70
g914
sg63
(lp921
S'http_cookie'
p922
asbag56
(g77
g58
NtRp923
(dp924
g61
(dp925
g88
g89
ssg70
g914
sg63
(lp926
S':'
asbag56
(g77
g58
NtRp927
(dp928
g61
(dp929
sg70
g914
sg63
(lp930
g56
(g57
g58
NtRp931
(dp932
g61
(dp933
g69
I4
ssg70
g927
sg63
(lp934
S'session_id_admin=127.0.0.1-6552ad61-7c7d-407f-a261-3c718136950f; session_id_scrum=127.0.0.1-acc155dc-1d39-4558-b401-1701a16e3472'
p935
asbasbasbag56
(g72
g58
NtRp936
(dp937
g61
(dp938
sg70
g648
sg63
(lp939
g56
(g77
g58
NtRp940
(dp941
g61
(dp942
g81
g82
ssg70
g936
sg63
(lp943
S'http_host'
p944
asbag56
(g77
g58
NtRp945
(dp946
g61
(dp947
g88
g89
ssg70
g936
sg63
(lp948
S':'
asbag56
(g77
g58
NtRp949
(dp950
g61
(dp951
sg70
g936
sg63
(lp952
g56
(g57
g58
NtRp953
(dp954
g61
(dp955
g69
I4
ssg70
g949
sg63
(lp956
S'localhost'
p957
asbasbasbag56
(g72
g58
NtRp958
(dp959
g61
(dp960
sg70
g648
sg63
(lp961
g56
(g77
g58
NtRp962
(dp963
g61
(dp964
g81
g82
ssg70
g958
sg63
(lp965
S'http_referer'
p966
asbag56
(g77
g58
NtRp967
(dp968
g61
(dp969
g88
g89
ssg70
g958
sg63
(lp970
S':'
asbag56
(g77
g58
NtRp971
(dp972
g61
(dp973
sg70
g958
sg63
(lp974
g56
(g57
g58
NtRp975
(dp976
g61
(dp977
g69
I4
ssg70
g971
sg63
(lp978
S'https://localhost/scrum/ticket/editar/1'
p979
asbasbasbag56
(g72
g58
NtRp980
(dp981
g61
(dp982
sg70
g648
sg63
(lp983
g56
(g77
g58
NtRp984
(dp985
g61
(dp986
g81
g82
ssg70
g980
sg63
(lp987
S'http_user_agent'
p988
asbag56
(g77
g58
NtRp989
(dp990
g61
(dp991
g88
g89
ssg70
g980
sg63
(lp992
S':'
asbag56
(g77
g58
NtRp993
(dp994
g61
(dp995
sg70
g980
sg63
(lp996
g56
(g57
g58
NtRp997
(dp998
g61
(dp999
g69
I4
ssg70
g993
sg63
(lp1000
S'Opera/9.80 (X11; Linux i686; U; pt-BR) Presto/2.9.168 Version/11.51'
p1001
asbasbasbag56
(g72
g58
NtRp1002
(dp1003
g61
(dp1004
sg70
g648
sg63
(lp1005
g56
(g77
g58
NtRp1006
(dp1007
g61
(dp1008
g81
g82
ssg70
g1002
sg63
(lp1009
S'https'
p1010
asbag56
(g77
g58
NtRp1011
(dp1012
g61
(dp1013
g88
g89
ssg70
g1002
sg63
(lp1014
S':'
asbag56
(g77
g58
NtRp1015
(dp1016
g61
(dp1017
sg70
g1002
sg63
(lp1018
g56
(g57
g58
NtRp1019
(dp1020
g61
(dp1021
g69
I4
ssg70
g1015
sg63
(lp1022
S'1'
asbasbasbag56
(g72
g58
NtRp1023
(dp1024
g61
(dp1025
sg70
g648
sg63
(lp1026
g56
(g77
g58
NtRp1027
(dp1028
g61
(dp1029
g81
g82
ssg70
g1023
sg63
(lp1030
S'is_jython'
p1031
asbag56
(g77
g58
NtRp1032
(dp1033
g61
(dp1034
g88
g89
ssg70
g1023
sg63
(lp1035
S':'
asbag56
(g77
g58
NtRp1036
(dp1037
g61
(dp1038
sg70
g1023
sg63
(lp1039
g56
(g57
g58
NtRp1040
(dp1041
g61
(dp1042
g69
I4
ssg70
g1036
sg63
(lp1043
g99
asbasbasbag56
(g72
g58
NtRp1044
(dp1045
g61
(dp1046
sg70
g648
sg63
(lp1047
g56
(g77
g58
NtRp1048
(dp1049
g61
(dp1050
g81
g82
ssg70
g1044
sg63
(lp1051
S'mod_wsgi_application_group'
p1052
asbag56
(g77
g58
NtRp1053
(dp1054
g61
(dp1055
g88
g89
ssg70
g1044
sg63
(lp1056
S':'
asbag56
(g77
g58
NtRp1057
(dp1058
g61
(dp1059
sg70
g1044
sg63
(lp1060
g56
(g57
g58
NtRp1061
(dp1062
g61
(dp1063
g69
I4
ssg70
g1057
sg63
(lp1064
S'localhost.localdomain|'
p1065
asbasbasbag56
(g72
g58
NtRp1066
(dp1067
g61
(dp1068
sg70
g648
sg63
(lp1069
g56
(g77
g58
NtRp1070
(dp1071
g61
(dp1072
g81
g82
ssg70
g1066
sg63
(lp1073
S'mod_wsgi_callable_object'
p1074
asbag56
(g77
g58
NtRp1075
(dp1076
g61
(dp1077
g88
g89
ssg70
g1066
sg63
(lp1078
S':'
asbag56
(g77
g58
NtRp1079
(dp1080
g61
(dp1081
sg70
g1066
sg63
(lp1082
g56
(g57
g58
NtRp1083
(dp1084
g61
(dp1085
g69
I4
ssg70
g1079
sg63
(lp1086
S'application'
p1087
asbasbasbag56
(g72
g58
NtRp1088
(dp1089
g61
(dp1090
sg70
g648
sg63
(lp1091
g56
(g77
g58
NtRp1092
(dp1093
g61
(dp1094
g81
g82
ssg70
g1088
sg63
(lp1095
S'mod_wsgi_handler_script'
p1096
asbag56
(g77
g58
NtRp1097
(dp1098
g61
(dp1099
g88
g89
ssg70
g1088
sg63
(lp1100
S':'
asbag56
(g77
g58
NtRp1101
(dp1102
g61
(dp1103
sg70
g1088
sg63
(lp1104
g56
(g57
g58
NtRp1105
(dp1106
g61
(dp1107
g69
I4
ssg70
g1101
sg63
(lp1108
S''
asbasbasbag56
(g72
g58
NtRp1109
(dp1110
g61
(dp1111
sg70
g648
sg63
(lp1112
g56
(g77
g58
NtRp1113
(dp1114
g61
(dp1115
g81
g82
ssg70
g1109
sg63
(lp1116
S'mod_wsgi_input_chunked'
p1117
asbag56
(g77
g58
NtRp1118
(dp1119
g61
(dp1120
g88
g89
ssg70
g1109
sg63
(lp1121
S':'
asbag56
(g77
g58
NtRp1122
(dp1123
g61
(dp1124
sg70
g1109
sg63
(lp1125
g56
(g57
g58
NtRp1126
(dp1127
g61
(dp1128
g69
I4
ssg70
g1122
sg63
(lp1129
S'0'
asbasbasbag56
(g72
g58
NtRp1130
(dp1131
g61
(dp1132
sg70
g648
sg63
(lp1133
g56
(g77
g58
NtRp1134
(dp1135
g61
(dp1136
g81
g82
ssg70
g1130
sg63
(lp1137
S'mod_wsgi_listener_host'
p1138
asbag56
(g77
g58
NtRp1139
(dp1140
g61
(dp1141
g88
g89
ssg70
g1130
sg63
(lp1142
S':'
asbag56
(g77
g58
NtRp1143
(dp1144
g61
(dp1145
sg70
g1130
sg63
(lp1146
g56
(g57
g58
NtRp1147
(dp1148
g61
(dp1149
g69
I4
ssg70
g1143
sg63
(lp1150
S''
asbasbasbag56
(g72
g58
NtRp1151
(dp1152
g61
(dp1153
sg70
g648
sg63
(lp1154
g56
(g77
g58
NtRp1155
(dp1156
g61
(dp1157
g81
g82
ssg70
g1151
sg63
(lp1158
S'mod_wsgi_listener_port'
p1159
asbag56
(g77
g58
NtRp1160
(dp1161
g61
(dp1162
g88
g89
ssg70
g1151
sg63
(lp1163
S':'
asbag56
(g77
g58
NtRp1164
(dp1165
g61
(dp1166
sg70
g1151
sg63
(lp1167
g56
(g57
g58
NtRp1168
(dp1169
g61
(dp1170
g69
I4
ssg70
g1164
sg63
(lp1171
S'443'
p1172
asbasbasbag56
(g72
g58
NtRp1173
(dp1174
g61
(dp1175
sg70
g648
sg63
(lp1176
g56
(g77
g58
NtRp1177
(dp1178
g61
(dp1179
g81
g82
ssg70
g1173
sg63
(lp1180
S'mod_wsgi_process_group'
p1181
asbag56
(g77
g58
NtRp1182
(dp1183
g61
(dp1184
g88
g89
ssg70
g1173
sg63
(lp1185
S':'
asbag56
(g77
g58
NtRp1186
(dp1187
g61
(dp1188
sg70
g1173
sg63
(lp1189
g56
(g57
g58
NtRp1190
(dp1191
g61
(dp1192
g69
I4
ssg70
g1186
sg63
(lp1193
S'web2py'
p1194
asbasbasbag56
(g72
g58
NtRp1195
(dp1196
g61
(dp1197
sg70
g648
sg63
(lp1198
g56
(g77
g58
NtRp1199
(dp1200
g61
(dp1201
g81
g82
ssg70
g1195
sg63
(lp1202
S'mod_wsgi_request_handler'
p1203
asbag56
(g77
g58
NtRp1204
(dp1205
g61
(dp1206
g88
g89
ssg70
g1195
sg63
(lp1207
S':'
asbag56
(g77
g58
NtRp1208
(dp1209
g61
(dp1210
sg70
g1195
sg63
(lp1211
g56
(g57
g58
NtRp1212
(dp1213
g61
(dp1214
g69
I4
ssg70
g1208
sg63
(lp1215
S'wsgi-script'
p1216
asbasbasbag56
(g72
g58
NtRp1217
(dp1218
g61
(dp1219
sg70
g648
sg63
(lp1220
g56
(g77
g58
NtRp1221
(dp1222
g61
(dp1223
g81
g82
ssg70
g1217
sg63
(lp1224
S'mod_wsgi_script_reloading'
p1225
asbag56
(g77
g58
NtRp1226
(dp1227
g61
(dp1228
g88
g89
ssg70
g1217
sg63
(lp1229
S':'
asbag56
(g77
g58
NtRp1230
(dp1231
g61
(dp1232
sg70
g1217
sg63
(lp1233
g56
(g57
g58
NtRp1234
(dp1235
g61
(dp1236
g69
I4
ssg70
g1230
sg63
(lp1237
S'1'
asbasbasbag56
(g72
g58
NtRp1238
(dp1239
g61
(dp1240
sg70
g648
sg63
(lp1241
g56
(g77
g58
NtRp1242
(dp1243
g61
(dp1244
g81
g82
ssg70
g1238
sg63
(lp1245
S'mod_wsgi_version'
p1246
asbag56
(g77
g58
NtRp1247
(dp1248
g61
(dp1249
g88
g89
ssg70
g1238
sg63
(lp1250
S':'
asbag56
(g77
g58
NtRp1251
(dp1252
g61
(dp1253
sg70
g1238
sg63
(lp1254
g56
(g57
g58
NtRp1255
(dp1256
g61
(dp1257
g69
I4
ssg70
g1251
sg63
(lp1258
g56
(g65
g58
NtRp1259
(dp1260
g61
(dp1261
g69
I3
ssg70
Nsg63
(lp1262
g56
(g72
g58
NtRp1263
(dp1264
g61
(dp1265
sg70
g1259
sg63
(lp1266
g56
(g77
g58
NtRp1267
(dp1268
g61
(dp1269
sg70
g1263
sg63
(lp1270
g56
(g57
g58
NtRp1271
(dp1272
g61
(dp1273
g69
I3
ssg70
g1267
sg63
(lp1274
S'3'
asbasbasbag56
(g72
g58
NtRp1275
(dp1276
g61
(dp1277
sg70
g1259
sg63
(lp1278
g56
(g77
g58
NtRp1279
(dp1280
g61
(dp1281
sg70
g1275
sg63
(lp1282
g56
(g57
g58
NtRp1283
(dp1284
g61
(dp1285
g69
I3
ssg70
g1279
sg63
(lp1286
S'3'
asbasbasbasbasbasbasbag56
(g72
g58
NtRp1287
(dp1288
g61
(dp1289
sg70
g648
sg63
(lp1290
g56
(g77
g58
NtRp1291
(dp1292
g61
(dp1293
g81
g82
ssg70
g1287
sg63
(lp1294
S'path_info'
p1295
asbag56
(g77
g58
NtRp1296
(dp1297
g61
(dp1298
g88
g89
ssg70
g1287
sg63
(lp1299
S':'
asbag56
(g77
g58
NtRp1300
(dp1301
g61
(dp1302
sg70
g1287
sg63
(lp1303
g56
(g57
g58
NtRp1304
(dp1305
g61
(dp1306
g69
I4
ssg70
g1300
sg63
(lp1307
S'/scrum/ticket/imprimir/1'
p1308
asbasbasbag56
(g72
g58
NtRp1309
(dp1310
g61
(dp1311
sg70
g648
sg63
(lp1312
g56
(g77
g58
NtRp1313
(dp1314
g61
(dp1315
g81
g82
ssg70
g1309
sg63
(lp1316
S'path_translated'
p1317
asbag56
(g77
g58
NtRp1318
(dp1319
g61
(dp1320
g88
g89
ssg70
g1309
sg63
(lp1321
S':'
asbag56
(g77
g58
NtRp1322
(dp1323
g61
(dp1324
sg70
g1309
sg63
(lp1325
g56
(g57
g58
NtRp1326
(dp1327
g61
(dp1328
g69
I4
ssg70
g1322
sg63
(lp1329
S'/home/www-data/web2py/wsgihandler.py/scrum/ticket/imprimir/1'
p1330
asbasbasbag56
(g72
g58
NtRp1331
(dp1332
g61
(dp1333
sg70
g648
sg63
(lp1334
g56
(g77
g58
NtRp1335
(dp1336
g61
(dp1337
g81
g82
ssg70
g1331
sg63
(lp1338
S'query_string'
p1339
asbag56
(g77
g58
NtRp1340
(dp1341
g61
(dp1342
g88
g89
ssg70
g1331
sg63
(lp1343
S':'
asbag56
(g77
g58
NtRp1344
(dp1345
g61
(dp1346
sg70
g1331
sg63
(lp1347
g56
(g57
g58
NtRp1348
(dp1349
g61
(dp1350
g69
I4
ssg70
g1344
sg63
(lp1351
S''
asbasbasbag56
(g72
g58
NtRp1352
(dp1353
g61
(dp1354
sg70
g648
sg63
(lp1355
g56
(g77
g58
NtRp1356
(dp1357
g61
(dp1358
g81
g82
ssg70
g1352
sg63
(lp1359
S'remote_addr'
p1360
asbag56
(g77
g58
NtRp1361
(dp1362
g61
(dp1363
g88
g89
ssg70
g1352
sg63
(lp1364
S':'
asbag56
(g77
g58
NtRp1365
(dp1366
g61
(dp1367
sg70
g1352
sg63
(lp1368
g56
(g57
g58
NtRp1369
(dp1370
g61
(dp1371
g69
I4
ssg70
g1365
sg63
(lp1372
g201
asbasbasbag56
(g72
g58
NtRp1373
(dp1374
g61
(dp1375
sg70
g648
sg63
(lp1376
g56
(g77
g58
NtRp1377
(dp1378
g61
(dp1379
g81
g82
ssg70
g1373
sg63
(lp1380
S'remote_port'
p1381
asbag56
(g77
g58
NtRp1382
(dp1383
g61
(dp1384
g88
g89
ssg70
g1373
sg63
(lp1385
S':'
asbag56
(g77
g58
NtRp1386
(dp1387
g61
(dp1388
sg70
g1373
sg63
(lp1389
g56
(g57
g58
NtRp1390
(dp1391
g61
(dp1392
g69
I4
ssg70
g1386
sg63
(lp1393
S'59803'
p1394
asbasbasbag56
(g72
g58
NtRp1395
(dp1396
g61
(dp1397
sg70
g648
sg63
(lp1398
g56
(g77
g58
NtRp1399
(dp1400
g61
(dp1401
g81
g82
ssg70
g1395
sg63
(lp1402
S'request_method'
p1403
asbag56
(g77
g58
NtRp1404
(dp1405
g61
(dp1406
g88
g89
ssg70
g1395
sg63
(lp1407
S':'
asbag56
(g77
g58
NtRp1408
(dp1409
g61
(dp1410
sg70
g1395
sg63
(lp1411
g56
(g57
g58
NtRp1412
(dp1413
g61
(dp1414
g69
I4
ssg70
g1408
sg63
(lp1415
S'GET'
p1416
asbasbasbag56
(g72
g58
NtRp1417
(dp1418
g61
(dp1419
sg70
g648
sg63
(lp1420
g56
(g77
g58
NtRp1421
(dp1422
g61
(dp1423
g81
g82
ssg70
g1417
sg63
(lp1424
S'request_uri'
p1425
asbag56
(g77
g58
NtRp1426
(dp1427
g61
(dp1428
g88
g89
ssg70
g1417
sg63
(lp1429
S':'
asbag56
(g77
g58
NtRp1430
(dp1431
g61
(dp1432
sg70
g1417
sg63
(lp1433
g56
(g57
g58
NtRp1434
(dp1435
g61
(dp1436
g69
I4
ssg70
g1430
sg63
(lp1437
S'/scrum/ticket/imprimir/1'
p1438
asbasbasbag56
(g72
g58
NtRp1439
(dp1440
g61
(dp1441
sg70
g648
sg63
(lp1442
g56
(g77
g58
NtRp1443
(dp1444
g61
(dp1445
g81
g82
ssg70
g1439
sg63
(lp1446
S'script_filename'
p1447
asbag56
(g77
g58
NtRp1448
(dp1449
g61
(dp1450
g88
g89
ssg70
g1439
sg63
(lp1451
S':'
asbag56
(g77
g58
NtRp1452
(dp1453
g61
(dp1454
sg70
g1439
sg63
(lp1455
g56
(g57
g58
NtRp1456
(dp1457
g61
(dp1458
g69
I4
ssg70
g1452
sg63
(lp1459
S'/home/www-data/web2py/wsgihandler.py'
p1460
asbasbasbag56
(g72
g58
NtRp1461
(dp1462
g61
(dp1463
sg70
g648
sg63
(lp1464
g56
(g77
g58
NtRp1465
(dp1466
g61
(dp1467
g81
g82
ssg70
g1461
sg63
(lp1468
S'script_name'
p1469
asbag56
(g77
g58
NtRp1470
(dp1471
g61
(dp1472
g88
g89
ssg70
g1461
sg63
(lp1473
S':'
asbag56
(g77
g58
NtRp1474
(dp1475
g61
(dp1476
sg70
g1461
sg63
(lp1477
g56
(g57
g58
NtRp1478
(dp1479
g61
(dp1480
g69
I4
ssg70
g1474
sg63
(lp1481
S''
asbasbasbag56
(g72
g58
NtRp1482
(dp1483
g61
(dp1484
sg70
g648
sg63
(lp1485
g56
(g77
g58
NtRp1486
(dp1487
g61
(dp1488
g81
g82
ssg70
g1482
sg63
(lp1489
S'server_addr'
p1490
asbag56
(g77
g58
NtRp1491
(dp1492
g61
(dp1493
g88
g89
ssg70
g1482
sg63
(lp1494
S':'
asbag56
(g77
g58
NtRp1495
(dp1496
g61
(dp1497
sg70
g1482
sg63
(lp1498
g56
(g57
g58
NtRp1499
(dp1500
g61
(dp1501
g69
I4
ssg70
g1495
sg63
(lp1502
S'127.0.0.1'
p1503
asbasbasbag56
(g72
g58
NtRp1504
(dp1505
g61
(dp1506
sg70
g648
sg63
(lp1507
g56
(g77
g58
NtRp1508
(dp1509
g61
(dp1510
g81
g82
ssg70
g1504
sg63
(lp1511
S'server_admin'
p1512
asbag56
(g77
g58
NtRp1513
(dp1514
g61
(dp1515
g88
g89
ssg70
g1504
sg63
(lp1516
S':'
asbag56
(g77
g58
NtRp1517
(dp1518
g61
(dp1519
sg70
g1504
sg63
(lp1520
g56
(g57
g58
NtRp1521
(dp1522
g61
(dp1523
g69
I4
ssg70
g1517
sg63
(lp1524
S'[no address given]'
p1525
asbasbasbag56
(g72
g58
NtRp1526
(dp1527
g61
(dp1528
sg70
g648
sg63
(lp1529
g56
(g77
g58
NtRp1530
(dp1531
g61
(dp1532
g81
g82
ssg70
g1526
sg63
(lp1533
S'server_name'
p1534
asbag56
(g77
g58
NtRp1535
(dp1536
g61
(dp1537
g88
g89
ssg70
g1526
sg63
(lp1538
S':'
asbag56
(g77
g58
NtRp1539
(dp1540
g61
(dp1541
sg70
g1526
sg63
(lp1542
g56
(g57
g58
NtRp1543
(dp1544
g61
(dp1545
g69
I4
ssg70
g1539
sg63
(lp1546
S'localhost'
p1547
asbasbasbag56
(g72
g58
NtRp1548
(dp1549
g61
(dp1550
sg70
g648
sg63
(lp1551
g56
(g77
g58
NtRp1552
(dp1553
g61
(dp1554
g81
g82
ssg70
g1548
sg63
(lp1555
S'server_port'
p1556
asbag56
(g77
g58
NtRp1557
(dp1558
g61
(dp1559
g88
g89
ssg70
g1548
sg63
(lp1560
S':'
asbag56
(g77
g58
NtRp1561
(dp1562
g61
(dp1563
sg70
g1548
sg63
(lp1564
g56
(g57
g58
NtRp1565
(dp1566
g61
(dp1567
g69
I4
ssg70
g1561
sg63
(lp1568
S'443'
p1569
asbasbasbag56
(g72
g58
NtRp1570
(dp1571
g61
(dp1572
sg70
g648
sg63
(lp1573
g56
(g77
g58
NtRp1574
(dp1575
g61
(dp1576
g81
g82
ssg70
g1570
sg63
(lp1577
S'server_protocol'
p1578
asbag56
(g77
g58
NtRp1579
(dp1580
g61
(dp1581
g88
g89
ssg70
g1570
sg63
(lp1582
S':'
asbag56
(g77
g58
NtRp1583
(dp1584
g61
(dp1585
sg70
g1570
sg63
(lp1586
g56
(g57
g58
NtRp1587
(dp1588
g61
(dp1589
g69
I4
ssg70
g1583
sg63
(lp1590
S'HTTP/1.1'
p1591
asbasbasbag56
(g72
g58
NtRp1592
(dp1593
g61
(dp1594
sg70
g648
sg63
(lp1595
g56
(g77
g58
NtRp1596
(dp1597
g61
(dp1598
g81
g82
ssg70
g1592
sg63
(lp1599
S'server_signature'
p1600
asbag56
(g77
g58
NtRp1601
(dp1602
g61
(dp1603
g88
g89
ssg70
g1592
sg63
(lp1604
S':'
asbag56
(g77
g58
NtRp1605
(dp1606
g61
(dp1607
sg70
g1592
sg63
(lp1608
g56
(g57
g58
NtRp1609
(dp1610
g61
(dp1611
g69
I4
ssg70
g1605
sg63
(lp1612
S'<address>Apache/2.2.17 (Ubuntu) Server at localhost Port 443</address>\n'
p1613
asbasbasbag56
(g72
g58
NtRp1614
(dp1615
g61
(dp1616
sg70
g648
sg63
(lp1617
g56
(g77
g58
NtRp1618
(dp1619
g61
(dp1620
g81
g82
ssg70
g1614
sg63
(lp1621
S'server_software'
p1622
asbag56
(g77
g58
NtRp1623
(dp1624
g61
(dp1625
g88
g89
ssg70
g1614
sg63
(lp1626
S':'
asbag56
(g77
g58
NtRp1627
(dp1628
g61
(dp1629
sg70
g1614
sg63
(lp1630
g56
(g57
g58
NtRp1631
(dp1632
g61
(dp1633
g69
I4
ssg70
g1627
sg63
(lp1634
S'Apache/2.2.17 (Ubuntu)'
p1635
asbasbasbag56
(g72
g58
NtRp1636
(dp1637
g61
(dp1638
sg70
g648
sg63
(lp1639
g56
(g77
g58
NtRp1640
(dp1641
g61
(dp1642
g81
g82
ssg70
g1636
sg63
(lp1643
S'ssl_tls_sni'
p1644
asbag56
(g77
g58
NtRp1645
(dp1646
g61
(dp1647
g88
g89
ssg70
g1636
sg63
(lp1648
S':'
asbag56
(g77
g58
NtRp1649
(dp1650
g61
(dp1651
sg70
g1636
sg63
(lp1652
g56
(g57
g58
NtRp1653
(dp1654
g61
(dp1655
g69
I4
ssg70
g1649
sg63
(lp1656
S'localhost'
p1657
asbasbasbag56
(g72
g58
NtRp1658
(dp1659
g61
(dp1660
sg70
g648
sg63
(lp1661
g56
(g77
g58
NtRp1662
(dp1663
g61
(dp1664
g81
g82
ssg70
g1658
sg63
(lp1665
S'web2py_path'
p1666
asbag56
(g77
g58
NtRp1667
(dp1668
g61
(dp1669
g88
g89
ssg70
g1658
sg63
(lp1670
S':'
asbag56
(g77
g58
NtRp1671
(dp1672
g61
(dp1673
sg70
g1658
sg63
(lp1674
g56
(g57
g58
NtRp1675
(dp1676
g61
(dp1677
g69
I4
ssg70
g1671
sg63
(lp1678
g695
asbasbasbag56
(g72
g58
NtRp1679
(dp1680
g61
(dp1681
sg70
g648
sg63
(lp1682
g56
(g77
g58
NtRp1683
(dp1684
g61
(dp1685
g81
g82
ssg70
g1679
sg63
(lp1686
S'web2py_version'
p1687
asbag56
(g77
g58
NtRp1688
(dp1689
g61
(dp1690
g88
g89
ssg70
g1679
sg63
(lp1691
S':'
asbag56
(g77
g58
NtRp1692
(dp1693
g61
(dp1694
sg70
g1679
sg63
(lp1695
g56
(g57
g58
NtRp1696
(dp1697
g61
(dp1698
g69
I4
ssg70
g1692
sg63
(lp1699
S'Version 1.98.2 (2011-08-04 00:47:09)\n'
p1700
asbasbasbag56
(g72
g58
NtRp1701
(dp1702
g61
(dp1703
sg70
g648
sg63
(lp1704
g56
(g77
g58
NtRp1705
(dp1706
g61
(dp1707
g81
g82
ssg70
g1701
sg63
(lp1708
S'wsgi_errors'
p1709
asbag56
(g77
g58
NtRp1710
(dp1711
g61
(dp1712
g88
g89
ssg70
g1701
sg63
(lp1713
S':'
asbag56
(g77
g58
NtRp1714
(dp1715
g61
(dp1716
sg70
g1701
sg63
(lp1717
g56
(g57
g58
NtRp1718
(dp1719
g61
(dp1720
g69
I4
ssg70
g1714
sg63
(lp1721
S'<mod_wsgi.Log object at 0xb90742a0>'
p1722
asbasbasbag56
(g72
g58
NtRp1723
(dp1724
g61
(dp1725
sg70
g648
sg63
(lp1726
g56
(g77
g58
NtRp1727
(dp1728
g61
(dp1729
g81
g82
ssg70
g1723
sg63
(lp1730
S'wsgi_file_wrapper'
p1731
asbag56
(g77
g58
NtRp1732
(dp1733
g61
(dp1734
g88
g89
ssg70
g1723
sg63
(lp1735
S':'
asbag56
(g77
g58
NtRp1736
(dp1737
g61
(dp1738
sg70
g1723
sg63
(lp1739
g56
(g57
g58
NtRp1740
(dp1741
g61
(dp1742
g69
I4
ssg70
g1736
sg63
(lp1743
S'<built-in method file_wrapper of mod_wsgi.Adapter object at 0xb9033188>'
p1744
asbasbasbag56
(g72
g58
NtRp1745
(dp1746
g61
(dp1747
sg70
g648
sg63
(lp1748
g56
(g77
g58
NtRp1749
(dp1750
g61
(dp1751
g81
g82
ssg70
g1745
sg63
(lp1752
S'wsgi_input'
p1753
asbag56
(g77
g58
NtRp1754
(dp1755
g61
(dp1756
g88
g89
ssg70
g1745
sg63
(lp1757
S':'
asbag56
(g77
g58
NtRp1758
(dp1759
g61
(dp1760
sg70
g1745
sg63
(lp1761
g56
(g57
g58
NtRp1762
(dp1763
g61
(dp1764
g69
I4
ssg70
g1758
sg63
(lp1765
S'<mod_wsgi.Input object at 0xb9086228>'
p1766
asbasbasbag56
(g72
g58
NtRp1767
(dp1768
g61
(dp1769
sg70
g648
sg63
(lp1770
g56
(g77
g58
NtRp1771
(dp1772
g61
(dp1773
g81
g82
ssg70
g1767
sg63
(lp1774
S'wsgi_multiprocess'
p1775
asbag56
(g77
g58
NtRp1776
(dp1777
g61
(dp1778
g88
g89
ssg70
g1767
sg63
(lp1779
S':'
asbag56
(g77
g58
NtRp1780
(dp1781
g61
(dp1782
sg70
g1767
sg63
(lp1783
g56
(g57
g58
NtRp1784
(dp1785
g61
(dp1786
g69
I4
ssg70
g1780
sg63
(lp1787
g99
asbasbasbag56
(g72
g58
NtRp1788
(dp1789
g61
(dp1790
sg70
g648
sg63
(lp1791
g56
(g77
g58
NtRp1792
(dp1793
g61
(dp1794
g81
g82
ssg70
g1788
sg63
(lp1795
S'wsgi_multithread'
p1796
asbag56
(g77
g58
NtRp1797
(dp1798
g61
(dp1799
g88
g89
ssg70
g1788
sg63
(lp1800
S':'
asbag56
(g77
g58
NtRp1801
(dp1802
g61
(dp1803
sg70
g1788
sg63
(lp1804
g56
(g57
g58
NtRp1805
(dp1806
g61
(dp1807
g69
I4
ssg70
g1801
sg63
(lp1808
S'True'
p1809
asbasbasbag56
(g72
g58
NtRp1810
(dp1811
g61
(dp1812
sg70
g648
sg63
(lp1813
g56
(g77
g58
NtRp1814
(dp1815
g61
(dp1816
g81
g82
ssg70
g1810
sg63
(lp1817
S'wsgi_run_once'
p1818
asbag56
(g77
g58
NtRp1819
(dp1820
g61
(dp1821
g88
g89
ssg70
g1810
sg63
(lp1822
S':'
asbag56
(g77
g58
NtRp1823
(dp1824
g61
(dp1825
sg70
g1810
sg63
(lp1826
g56
(g57
g58
NtRp1827
(dp1828
g61
(dp1829
g69
I4
ssg70
g1823
sg63
(lp1830
g99
asbasbasbag56
(g72
g58
NtRp1831
(dp1832
g61
(dp1833
sg70
g648
sg63
(lp1834
g56
(g77
g58
NtRp1835
(dp1836
g61
(dp1837
g81
g82
ssg70
g1831
sg63
(lp1838
S'wsgi_url_scheme'
p1839
asbag56
(g77
g58
NtRp1840
(dp1841
g61
(dp1842
g88
g89
ssg70
g1831
sg63
(lp1843
S':'
asbag56
(g77
g58
NtRp1844
(dp1845
g61
(dp1846
sg70
g1831
sg63
(lp1847
g56
(g57
g58
NtRp1848
(dp1849
g61
(dp1850
g69
I4
ssg70
g1844
sg63
(lp1851
S'https'
p1852
asbasbasbag56
(g72
g58
NtRp1853
(dp1854
g61
(dp1855
sg70
g648
sg63
(lp1856
g56
(g77
g58
NtRp1857
(dp1858
g61
(dp1859
g81
g82
ssg70
g1853
sg63
(lp1860
S'wsgi_version'
p1861
asbag56
(g77
g58
NtRp1862
(dp1863
g61
(dp1864
g88
g89
ssg70
g1853
sg63
(lp1865
S':'
asbag56
(g77
g58
NtRp1866
(dp1867
g61
(dp1868
sg70
g1853
sg63
(lp1869
g56
(g57
g58
NtRp1870
(dp1871
g61
(dp1872
g69
I4
ssg70
g1866
sg63
(lp1873
g56
(g65
g58
NtRp1874
(dp1875
g61
(dp1876
g69
I3
ssg70
Nsg63
(lp1877
g56
(g72
g58
NtRp1878
(dp1879
g61
(dp1880
sg70
g1874
sg63
(lp1881
g56
(g77
g58
NtRp1882
(dp1883
g61
(dp1884
sg70
g1878
sg63
(lp1885
g56
(g57
g58
NtRp1886
(dp1887
g61
(dp1888
g69
I3
ssg70
g1882
sg63
(lp1889
S'1'
asbasbasbag56
(g72
g58
NtRp1890
(dp1891
g61
(dp1892
sg70
g1874
sg63
(lp1893
g56
(g77
g58
NtRp1894
(dp1895
g61
(dp1896
sg70
g1890
sg63
(lp1897
g56
(g57
g58
NtRp1898
(dp1899
g61
(dp1900
g69
I3
ssg70
g1894
sg63
(lp1901
S'1'
asbasbasbasbasbasbasbasbasbasbasbag56
(g72
g58
NtRp1902
(dp1903
g61
(dp1904
sg70
g66
sg63
(lp1905
g56
(g77
g58
NtRp1906
(dp1907
g61
(dp1908
g81
g82
ssg70
g1902
sg63
(lp1909
S'extension'
p1910
asbag56
(g77
g58
NtRp1911
(dp1912
g61
(dp1913
g88
g89
ssg70
g1902
sg63
(lp1914
S':'
asbag56
(g77
g58
NtRp1915
(dp1916
g61
(dp1917
sg70
g1902
sg63
(lp1918
g56
(g57
g58
NtRp1919
(dp1920
g61
(dp1921
g69
I5
ssg70
g1915
sg63
(lp1922
S'html'
p1923
asbasbasbag56
(g72
g58
NtRp1924
(dp1925
g61
(dp1926
sg70
g66
sg63
(lp1927
g56
(g77
g58
NtRp1928
(dp1929
g61
(dp1930
g81
g82
ssg70
g1924
sg63
(lp1931
S'folder'
p1932
asbag56
(g77
g58
NtRp1933
(dp1934
g61
(dp1935
g88
g89
ssg70
g1924
sg63
(lp1936
S':'
asbag56
(g77
g58
NtRp1937
(dp1938
g61
(dp1939
sg70
g1924
sg63
(lp1940
g56
(g57
g58
NtRp1941
(dp1942
g61
(dp1943
g69
I5
ssg70
g1937
sg63
(lp1944
S'/home/www-data/web2py/applications/scrum/'
p1945
asbasbasbag56
(g72
g58
NtRp1946
(dp1947
g61
(dp1948
sg70
g66
sg63
(lp1949
g56
(g77
g58
NtRp1950
(dp1951
g61
(dp1952
g81
g82
ssg70
g1946
sg63
(lp1953
S'function'
p1954
asbag56
(g77
g58
NtRp1955
(dp1956
g61
(dp1957
g88
g89
ssg70
g1946
sg63
(lp1958
S':'
asbag56
(g77
g58
NtRp1959
(dp1960
g61
(dp1961
sg70
g1946
sg63
(lp1962
g56
(g57
g58
NtRp1963
(dp1964
g61
(dp1965
g69
I5
ssg70
g1959
sg63
(lp1966
S'imprimir'
p1967
asbasbasbag56
(g72
g58
NtRp1968
(dp1969
g61
(dp1970
sg70
g66
sg63
(lp1971
g56
(g77
g58
NtRp1972
(dp1973
g61
(dp1974
g81
g82
ssg70
g1968
sg63
(lp1975
S'get_vars'
p1976
asbag56
(g77
g58
NtRp1977
(dp1978
g61
(dp1979
g88
g89
ssg70
g1968
sg63
(lp1980
S':'
asbag56
(g77
g58
NtRp1981
(dp1982
g61
(dp1983
sg70
g1968
sg63
(lp1984
g56
(g57
g58
NtRp1985
(dp1986
g61
(dp1987
g69
I5
ssg70
g1981
sg63
(lp1988
g56
(g65
g58
NtRp1989
(dp1990
g61
(dp1991
g69
I4
ssg70
Nsg63
(lp1992
sbasbasbasbag56
(g72
g58
NtRp1993
(dp1994
g61
(dp1995
sg70
g66
sg63
(lp1996
g56
(g77
g58
NtRp1997
(dp1998
g61
(dp1999
g81
g82
ssg70
g1993
sg63
(lp2000
S'is_https'
p2001
asbag56
(g77
g58
NtRp2002
(dp2003
g61
(dp2004
g88
g89
ssg70
g1993
sg63
(lp2005
S':'
asbag56
(g77
g58
NtRp2006
(dp2007
g61
(dp2008
sg70
g1993
sg63
(lp2009
g56
(g57
g58
NtRp2010
(dp2011
g61
(dp2012
g69
I5
ssg70
g2006
sg63
(lp2013
g1809
asbasbasbag56
(g72
g58
NtRp2014
(dp2015
g61
(dp2016
sg70
g66
sg63
(lp2017
g56
(g77
g58
NtRp2018
(dp2019
g61
(dp2020
g81
g82
ssg70
g2014
sg63
(lp2021
S'is_local'
p2022
asbag56
(g77
g58
NtRp2023
(dp2024
g61
(dp2025
g88
g89
ssg70
g2014
sg63
(lp2026
S':'
asbag56
(g77
g58
NtRp2027
(dp2028
g61
(dp2029
sg70
g2014
sg63
(lp2030
g56
(g57
g58
NtRp2031
(dp2032
g61
(dp2033
g69
I5
ssg70
g2027
sg63
(lp2034
g1809
asbasbasbag56
(g72
g58
NtRp2035
(dp2036
g61
(dp2037
sg70
g66
sg63
(lp2038
g56
(g77
g58
NtRp2039
(dp2040
g61
(dp2041
g81
g82
ssg70
g2035
sg63
(lp2042
S'is_restful'
p2043
asbag56
(g77
g58
NtRp2044
(dp2045
g61
(dp2046
g88
g89
ssg70
g2035
sg63
(lp2047
S':'
asbag56
(g77
g58
NtRp2048
(dp2049
g61
(dp2050
sg70
g2035
sg63
(lp2051
g56
(g57
g58
NtRp2052
(dp2053
g61
(dp2054
g69
I5
ssg70
g2048
sg63
(lp2055
g99
asbasbasbag56
(g72
g58
NtRp2056
(dp2057
g61
(dp2058
sg70
g66
sg63
(lp2059
g56
(g77
g58
NtRp2060
(dp2061
g61
(dp2062
g81
g82
ssg70
g2056
sg63
(lp2063
S'now'
p2064
asbag56
(g77
g58
NtRp2065
(dp2066
g61
(dp2067
g88
g89
ssg70
g2056
sg63
(lp2068
S':'
asbag56
(g77
g58
NtRp2069
(dp2070
g61
(dp2071
sg70
g2056
sg63
(lp2072
g56
(g57
g58
NtRp2073
(dp2074
g61
(dp2075
g69
I5
ssg70
g2069
sg63
(lp2076
S'datetime.datetime(2011, 9, 12, 15, 14, 4, 497147)'
p2077
asbasbasbag56
(g72
g58
NtRp2078
(dp2079
g61
(dp2080
sg70
g66
sg63
(lp2081
g56
(g77
g58
NtRp2082
(dp2083
g61
(dp2084
g81
g82
ssg70
g2078
sg63
(lp2085
S'post_vars'
p2086
asbag56
(g77
g58
NtRp2087
(dp2088
g61
(dp2089
g88
g89
ssg70
g2078
sg63
(lp2090
S':'
asbag56
(g77
g58
NtRp2091
(dp2092
g61
(dp2093
sg70
g2078
sg63
(lp2094
g56
(g57
g58
NtRp2095
(dp2096
g61
(dp2097
g69
I5
ssg70
g2091
sg63
(lp2098
g56
(g65
g58
NtRp2099
(dp2100
g61
(dp2101
g69
I4
ssg70
Nsg63
(lp2102
sbasbasbasbag56
(g72
g58
NtRp2103
(dp2104
g61
(dp2105
sg70
g66
sg63
(lp2106
g56
(g77
g58
NtRp2107
(dp2108
g61
(dp2109
g81
g82
ssg70
g2103
sg63
(lp2110
S'raw_args'
p2111
asbag56
(g77
g58
NtRp2112
(dp2113
g61
(dp2114
g88
g89
ssg70
g2103
sg63
(lp2115
S':'
asbag56
(g77
g58
NtRp2116
(dp2117
g61
(dp2118
sg70
g2103
sg63
(lp2119
g56
(g57
g58
NtRp2120
(dp2121
g61
(dp2122
g69
I5
ssg70
g2116
sg63
(lp2123
S'1'
asbasbasbag56
(g72
g58
NtRp2124
(dp2125
g61
(dp2126
sg70
g66
sg63
(lp2127
g56
(g77
g58
NtRp2128
(dp2129
g61
(dp2130
g81
g82
ssg70
g2124
sg63
(lp2131
S'url'
p2132
asbag56
(g77
g58
NtRp2133
(dp2134
g61
(dp2135
g88
g89
ssg70
g2124
sg63
(lp2136
S':'
asbag56
(g77
g58
NtRp2137
(dp2138
g61
(dp2139
sg70
g2124
sg63
(lp2140
g56
(g57
g58
NtRp2141
(dp2142
g61
(dp2143
g69
I5
ssg70
g2137
sg63
(lp2144
S'/scrum/ticket/imprimir/1'
p2145
asbasbasbag56
(g72
g58
NtRp2146
(dp2147
g61
(dp2148
sg70
g66
sg63
(lp2149
g56
(g77
g58
NtRp2150
(dp2151
g61
(dp2152
g81
g82
ssg70
g2146
sg63
(lp2153
S'uuid'
p2154
asbag56
(g77
g58
NtRp2155
(dp2156
g61
(dp2157
g88
g89
ssg70
g2146
sg63
(lp2158
S':'
asbag56
(g77
g58
NtRp2159
(dp2160
g61
(dp2161
sg70
g2146
sg63
(lp2162
g56
(g57
g58
NtRp2163
(dp2164
g61
(dp2165
g69
I5
ssg70
g2159
sg63
(lp2166
S'scrum/127.0.0.1.2011-09-12.15-14-04.b8eae4df-04fc-49d0-b112-777fed6fc3b4'
p2167
asbasbasbag56
(g72
g58
NtRp2168
(dp2169
g61
(dp2170
sg70
g66
sg63
(lp2171
g56
(g77
g58
NtRp2172
(dp2173
g61
(dp2174
g81
g82
ssg70
g2168
sg63
(lp2175
S'vars'
p2176
asbag56
(g77
g58
NtRp2177
(dp2178
g61
(dp2179
g88
g89
ssg70
g2168
sg63
(lp2180
S':'
asbag56
(g77
g58
NtRp2181
(dp2182
g61
(dp2183
sg70
g2168
sg63
(lp2184
g56
(g57
g58
NtRp2185
(dp2186
g61
(dp2187
g69
I5
ssg70
g2181
sg63
(lp2188
g56
(g65
g58
NtRp2189
(dp2190
g61
(dp2191
g69
I4
ssg70
Nsg63
(lp2192
sbasbasbasbag56
(g72
g58
NtRp2193
(dp2194
g61
(dp2195
sg70
g66
sg63
(lp2196
g56
(g77
g58
NtRp2197
(dp2198
g61
(dp2199
g81
g82
ssg70
g2193
sg63
(lp2200
S'wsgi'
p2201
asbag56
(g77
g58
NtRp2202
(dp2203
g61
(dp2204
g88
g89
ssg70
g2193
sg63
(lp2205
S':'
asbag56
(g77
g58
NtRp2206
(dp2207
g61
(dp2208
sg70
g2193
sg63
(lp2209
g56
(g57
g58
NtRp2210
(dp2211
g61
(dp2212
g69
I5
ssg70
g2206
sg63
(lp2213
g56
(g65
g58
NtRp2214
(dp2215
g61
(dp2216
g69
I4
ssg70
Nsg63
(lp2217
g56
(g72
g58
NtRp2218
(dp2219
g61
(dp2220
sg70
g2214
sg63
(lp2221
g56
(g77
g58
NtRp2222
(dp2223
g61
(dp2224
g81
g82
ssg70
g2218
sg63
(lp2225
S'environ'
p2226
asbag56
(g77
g58
NtRp2227
(dp2228
g61
(dp2229
g88
g89
ssg70
g2218
sg63
(lp2230
S':'
asbag56
(g77
g58
NtRp2231
(dp2232
g61
(dp2233
sg70
g2218
sg63
(lp2234
g56
(g57
g58
NtRp2235
(dp2236
g61
(dp2237
g69
I4
ssg70
g2231
sg63
(lp2238
g56
(g65
g58
NtRp2239
(dp2240
g61
(dp2241
g69
I3
ssg70
Nsg63
(lp2242
g56
(g72
g58
NtRp2243
(dp2244
g61
(dp2245
sg70
g2239
sg63
(lp2246
g56
(g77
g58
NtRp2247
(dp2248
g61
(dp2249
g81
g82
ssg70
g2243
sg63
(lp2250
S'DOCUMENT_ROOT'
p2251
asbag56
(g77
g58
NtRp2252
(dp2253
g61
(dp2254
g88
g89
ssg70
g2243
sg63
(lp2255
S':'
asbag56
(g77
g58
NtRp2256
(dp2257
g61
(dp2258
sg70
g2243
sg63
(lp2259
g56
(g57
g58
NtRp2260
(dp2261
g61
(dp2262
g69
I3
ssg70
g2256
sg63
(lp2263
g760
asbasbasbag56
(g72
g58
NtRp2264
(dp2265
g61
(dp2266
sg70
g2239
sg63
(lp2267
g56
(g77
g58
NtRp2268
(dp2269
g61
(dp2270
g81
g82
ssg70
g2264
sg63
(lp2271
S'GATEWAY_INTERFACE'
p2272
asbag56
(g77
g58
NtRp2273
(dp2274
g61
(dp2275
g88
g89
ssg70
g2264
sg63
(lp2276
S':'
asbag56
(g77
g58
NtRp2277
(dp2278
g61
(dp2279
sg70
g2264
sg63
(lp2280
g56
(g57
g58
NtRp2281
(dp2282
g61
(dp2283
g69
I3
ssg70
g2277
sg63
(lp2284
g782
asbasbasbag56
(g72
g58
NtRp2285
(dp2286
g61
(dp2287
sg70
g2239
sg63
(lp2288
g56
(g77
g58
NtRp2289
(dp2290
g61
(dp2291
g81
g82
ssg70
g2285
sg63
(lp2292
S'HTTPS'
p2293
asbag56
(g77
g58
NtRp2294
(dp2295
g61
(dp2296
g88
g89
ssg70
g2285
sg63
(lp2297
S':'
asbag56
(g77
g58
NtRp2298
(dp2299
g61
(dp2300
sg70
g2285
sg63
(lp2301
g56
(g57
g58
NtRp2302
(dp2303
g61
(dp2304
g69
I3
ssg70
g2298
sg63
(lp2305
S'1'
asbasbasbag56
(g72
g58
NtRp2306
(dp2307
g61
(dp2308
sg70
g2239
sg63
(lp2309
g56
(g77
g58
NtRp2310
(dp2311
g61
(dp2312
g81
g82
ssg70
g2306
sg63
(lp2313
S'HTTP_ACCEPT'
p2314
asbag56
(g77
g58
NtRp2315
(dp2316
g61
(dp2317
g88
g89
ssg70
g2306
sg63
(lp2318
S':'
asbag56
(g77
g58
NtRp2319
(dp2320
g61
(dp2321
sg70
g2306
sg63
(lp2322
g56
(g57
g58
NtRp2323
(dp2324
g61
(dp2325
g69
I3
ssg70
g2319
sg63
(lp2326
g825
asbasbasbag56
(g72
g58
NtRp2327
(dp2328
g61
(dp2329
sg70
g2239
sg63
(lp2330
g56
(g77
g58
NtRp2331
(dp2332
g61
(dp2333
g81
g82
ssg70
g2327
sg63
(lp2334
S'HTTP_ACCEPT_ENCODING'
p2335
asbag56
(g77
g58
NtRp2336
(dp2337
g61
(dp2338
g88
g89
ssg70
g2327
sg63
(lp2339
S':'
asbag56
(g77
g58
NtRp2340
(dp2341
g61
(dp2342
sg70
g2327
sg63
(lp2343
g56
(g57
g58
NtRp2344
(dp2345
g61
(dp2346
g69
I3
ssg70
g2340
sg63
(lp2347
g847
asbasbasbag56
(g72
g58
NtRp2348
(dp2349
g61
(dp2350
sg70
g2239
sg63
(lp2351
g56
(g77
g58
NtRp2352
(dp2353
g61
(dp2354
g81
g82
ssg70
g2348
sg63
(lp2355
S'HTTP_ACCEPT_LANGUAGE'
p2356
asbag56
(g77
g58
NtRp2357
(dp2358
g61
(dp2359
g88
g89
ssg70
g2348
sg63
(lp2360
S':'
asbag56
(g77
g58
NtRp2361
(dp2362
g61
(dp2363
sg70
g2348
sg63
(lp2364
g56
(g57
g58
NtRp2365
(dp2366
g61
(dp2367
g69
I3
ssg70
g2361
sg63
(lp2368
g869
asbasbasbag56
(g72
g58
NtRp2369
(dp2370
g61
(dp2371
sg70
g2239
sg63
(lp2372
g56
(g77
g58
NtRp2373
(dp2374
g61
(dp2375
g81
g82
ssg70
g2369
sg63
(lp2376
S'HTTP_CACHE_CONTROL'
p2377
asbag56
(g77
g58
NtRp2378
(dp2379
g61
(dp2380
g88
g89
ssg70
g2369
sg63
(lp2381
S':'
asbag56
(g77
g58
NtRp2382
(dp2383
g61
(dp2384
sg70
g2369
sg63
(lp2385
g56
(g57
g58
NtRp2386
(dp2387
g61
(dp2388
g69
I3
ssg70
g2382
sg63
(lp2389
g891
asbasbasbag56
(g72
g58
NtRp2390
(dp2391
g61
(dp2392
sg70
g2239
sg63
(lp2393
g56
(g77
g58
NtRp2394
(dp2395
g61
(dp2396
g81
g82
ssg70
g2390
sg63
(lp2397
S'HTTP_CONNECTION'
p2398
asbag56
(g77
g58
NtRp2399
(dp2400
g61
(dp2401
g88
g89
ssg70
g2390
sg63
(lp2402
S':'
asbag56
(g77
g58
NtRp2403
(dp2404
g61
(dp2405
sg70
g2390
sg63
(lp2406
g56
(g57
g58
NtRp2407
(dp2408
g61
(dp2409
g69
I3
ssg70
g2403
sg63
(lp2410
g913
asbasbasbag56
(g72
g58
NtRp2411
(dp2412
g61
(dp2413
sg70
g2239
sg63
(lp2414
g56
(g77
g58
NtRp2415
(dp2416
g61
(dp2417
g81
g82
ssg70
g2411
sg63
(lp2418
S'HTTP_COOKIE'
p2419
asbag56
(g77
g58
NtRp2420
(dp2421
g61
(dp2422
g88
g89
ssg70
g2411
sg63
(lp2423
S':'
asbag56
(g77
g58
NtRp2424
(dp2425
g61
(dp2426
sg70
g2411
sg63
(lp2427
g56
(g57
g58
NtRp2428
(dp2429
g61
(dp2430
g69
I3
ssg70
g2424
sg63
(lp2431
g935
asbasbasbag56
(g72
g58
NtRp2432
(dp2433
g61
(dp2434
sg70
g2239
sg63
(lp2435
g56
(g77
g58
NtRp2436
(dp2437
g61
(dp2438
g81
g82
ssg70
g2432
sg63
(lp2439
S'HTTP_HOST'
p2440
asbag56
(g77
g58
NtRp2441
(dp2442
g61
(dp2443
g88
g89
ssg70
g2432
sg63
(lp2444
S':'
asbag56
(g77
g58
NtRp2445
(dp2446
g61
(dp2447
sg70
g2432
sg63
(lp2448
g56
(g57
g58
NtRp2449
(dp2450
g61
(dp2451
g69
I3
ssg70
g2445
sg63
(lp2452
g957
asbasbasbag56
(g72
g58
NtRp2453
(dp2454
g61
(dp2455
sg70
g2239
sg63
(lp2456
g56
(g77
g58
NtRp2457
(dp2458
g61
(dp2459
g81
g82
ssg70
g2453
sg63
(lp2460
S'HTTP_REFERER'
p2461
asbag56
(g77
g58
NtRp2462
(dp2463
g61
(dp2464
g88
g89
ssg70
g2453
sg63
(lp2465
S':'
asbag56
(g77
g58
NtRp2466
(dp2467
g61
(dp2468
sg70
g2453
sg63
(lp2469
g56
(g57
g58
NtRp2470
(dp2471
g61
(dp2472
g69
I3
ssg70
g2466
sg63
(lp2473
g979
asbasbasbag56
(g72
g58
NtRp2474
(dp2475
g61
(dp2476
sg70
g2239
sg63
(lp2477
g56
(g77
g58
NtRp2478
(dp2479
g61
(dp2480
g81
g82
ssg70
g2474
sg63
(lp2481
S'HTTP_USER_AGENT'
p2482
asbag56
(g77
g58
NtRp2483
(dp2484
g61
(dp2485
g88
g89
ssg70
g2474
sg63
(lp2486
S':'
asbag56
(g77
g58
NtRp2487
(dp2488
g61
(dp2489
sg70
g2474
sg63
(lp2490
g56
(g57
g58
NtRp2491
(dp2492
g61
(dp2493
g69
I3
ssg70
g2487
sg63
(lp2494
g1001
asbasbasbag56
(g72
g58
NtRp2495
(dp2496
g61
(dp2497
sg70
g2239
sg63
(lp2498
g56
(g77
g58
NtRp2499
(dp2500
g61
(dp2501
g81
g82
ssg70
g2495
sg63
(lp2502
S'PATH_INFO'
p2503
asbag56
(g77
g58
NtRp2504
(dp2505
g61
(dp2506
g88
g89
ssg70
g2495
sg63
(lp2507
S':'
asbag56
(g77
g58
NtRp2508
(dp2509
g61
(dp2510
sg70
g2495
sg63
(lp2511
g56
(g57
g58
NtRp2512
(dp2513
g61
(dp2514
g69
I3
ssg70
g2508
sg63
(lp2515
g1308
asbasbasbag56
(g72
g58
NtRp2516
(dp2517
g61
(dp2518
sg70
g2239
sg63
(lp2519
g56
(g77
g58
NtRp2520
(dp2521
g61
(dp2522
g81
g82
ssg70
g2516
sg63
(lp2523
S'PATH_TRANSLATED'
p2524
asbag56
(g77
g58
NtRp2525
(dp2526
g61
(dp2527
g88
g89
ssg70
g2516
sg63
(lp2528
S':'
asbag56
(g77
g58
NtRp2529
(dp2530
g61
(dp2531
sg70
g2516
sg63
(lp2532
g56
(g57
g58
NtRp2533
(dp2534
g61
(dp2535
g69
I3
ssg70
g2529
sg63
(lp2536
g1330
asbasbasbag56
(g72
g58
NtRp2537
(dp2538
g61
(dp2539
sg70
g2239
sg63
(lp2540
g56
(g77
g58
NtRp2541
(dp2542
g61
(dp2543
g81
g82
ssg70
g2537
sg63
(lp2544
S'QUERY_STRING'
p2545
asbag56
(g77
g58
NtRp2546
(dp2547
g61
(dp2548
g88
g89
ssg70
g2537
sg63
(lp2549
S':'
asbag56
(g77
g58
NtRp2550
(dp2551
g61
(dp2552
sg70
g2537
sg63
(lp2553
g56
(g57
g58
NtRp2554
(dp2555
g61
(dp2556
g69
I3
ssg70
g2550
sg63
(lp2557
S''
asbasbasbag56
(g72
g58
NtRp2558
(dp2559
g61
(dp2560
sg70
g2239
sg63
(lp2561
g56
(g77
g58
NtRp2562
(dp2563
g61
(dp2564
g81
g82
ssg70
g2558
sg63
(lp2565
S'REMOTE_ADDR'
p2566
asbag56
(g77
g58
NtRp2567
(dp2568
g61
(dp2569
g88
g89
ssg70
g2558
sg63
(lp2570
S':'
asbag56
(g77
g58
NtRp2571
(dp2572
g61
(dp2573
sg70
g2558
sg63
(lp2574
g56
(g57
g58
NtRp2575
(dp2576
g61
(dp2577
g69
I3
ssg70
g2571
sg63
(lp2578
g201
asbasbasbag56
(g72
g58
NtRp2579
(dp2580
g61
(dp2581
sg70
g2239
sg63
(lp2582
g56
(g77
g58
NtRp2583
(dp2584
g61
(dp2585
g81
g82
ssg70
g2579
sg63
(lp2586
S'REMOTE_PORT'
p2587
asbag56
(g77
g58
NtRp2588
(dp2589
g61
(dp2590
g88
g89
ssg70
g2579
sg63
(lp2591
S':'
asbag56
(g77
g58
NtRp2592
(dp2593
g61
(dp2594
sg70
g2579
sg63
(lp2595
g56
(g57
g58
NtRp2596
(dp2597
g61
(dp2598
g69
I3
ssg70
g2592
sg63
(lp2599
g1394
asbasbasbag56
(g72
g58
NtRp2600
(dp2601
g61
(dp2602
sg70
g2239
sg63
(lp2603
g56
(g77
g58
NtRp2604
(dp2605
g61
(dp2606
g81
g82
ssg70
g2600
sg63
(lp2607
S'REQUEST_METHOD'
p2608
asbag56
(g77
g58
NtRp2609
(dp2610
g61
(dp2611
g88
g89
ssg70
g2600
sg63
(lp2612
S':'
asbag56
(g77
g58
NtRp2613
(dp2614
g61
(dp2615
sg70
g2600
sg63
(lp2616
g56
(g57
g58
NtRp2617
(dp2618
g61
(dp2619
g69
I3
ssg70
g2613
sg63
(lp2620
g1416
asbasbasbag56
(g72
g58
NtRp2621
(dp2622
g61
(dp2623
sg70
g2239
sg63
(lp2624
g56
(g77
g58
NtRp2625
(dp2626
g61
(dp2627
g81
g82
ssg70
g2621
sg63
(lp2628
S'REQUEST_URI'
p2629
asbag56
(g77
g58
NtRp2630
(dp2631
g61
(dp2632
g88
g89
ssg70
g2621
sg63
(lp2633
S':'
asbag56
(g77
g58
NtRp2634
(dp2635
g61
(dp2636
sg70
g2621
sg63
(lp2637
g56
(g57
g58
NtRp2638
(dp2639
g61
(dp2640
g69
I3
ssg70
g2634
sg63
(lp2641
g1438
asbasbasbag56
(g72
g58
NtRp2642
(dp2643
g61
(dp2644
sg70
g2239
sg63
(lp2645
g56
(g77
g58
NtRp2646
(dp2647
g61
(dp2648
g81
g82
ssg70
g2642
sg63
(lp2649
S'SCRIPT_FILENAME'
p2650
asbag56
(g77
g58
NtRp2651
(dp2652
g61
(dp2653
g88
g89
ssg70
g2642
sg63
(lp2654
S':'
asbag56
(g77
g58
NtRp2655
(dp2656
g61
(dp2657
sg70
g2642
sg63
(lp2658
g56
(g57
g58
NtRp2659
(dp2660
g61
(dp2661
g69
I3
ssg70
g2655
sg63
(lp2662
g1460
asbasbasbag56
(g72
g58
NtRp2663
(dp2664
g61
(dp2665
sg70
g2239
sg63
(lp2666
g56
(g77
g58
NtRp2667
(dp2668
g61
(dp2669
g81
g82
ssg70
g2663
sg63
(lp2670
S'SCRIPT_NAME'
p2671
asbag56
(g77
g58
NtRp2672
(dp2673
g61
(dp2674
g88
g89
ssg70
g2663
sg63
(lp2675
S':'
asbag56
(g77
g58
NtRp2676
(dp2677
g61
(dp2678
sg70
g2663
sg63
(lp2679
g56
(g57
g58
NtRp2680
(dp2681
g61
(dp2682
g69
I3
ssg70
g2676
sg63
(lp2683
S''
asbasbasbag56
(g72
g58
NtRp2684
(dp2685
g61
(dp2686
sg70
g2239
sg63
(lp2687
g56
(g77
g58
NtRp2688
(dp2689
g61
(dp2690
g81
g82
ssg70
g2684
sg63
(lp2691
S'SERVER_ADDR'
p2692
asbag56
(g77
g58
NtRp2693
(dp2694
g61
(dp2695
g88
g89
ssg70
g2684
sg63
(lp2696
S':'
asbag56
(g77
g58
NtRp2697
(dp2698
g61
(dp2699
sg70
g2684
sg63
(lp2700
g56
(g57
g58
NtRp2701
(dp2702
g61
(dp2703
g69
I3
ssg70
g2697
sg63
(lp2704
g1503
asbasbasbag56
(g72
g58
NtRp2705
(dp2706
g61
(dp2707
sg70
g2239
sg63
(lp2708
g56
(g77
g58
NtRp2709
(dp2710
g61
(dp2711
g81
g82
ssg70
g2705
sg63
(lp2712
S'SERVER_ADMIN'
p2713
asbag56
(g77
g58
NtRp2714
(dp2715
g61
(dp2716
g88
g89
ssg70
g2705
sg63
(lp2717
S':'
asbag56
(g77
g58
NtRp2718
(dp2719
g61
(dp2720
sg70
g2705
sg63
(lp2721
g56
(g57
g58
NtRp2722
(dp2723
g61
(dp2724
g69
I3
ssg70
g2718
sg63
(lp2725
g1525
asbasbasbag56
(g72
g58
NtRp2726
(dp2727
g61
(dp2728
sg70
g2239
sg63
(lp2729
g56
(g77
g58
NtRp2730
(dp2731
g61
(dp2732
g81
g82
ssg70
g2726
sg63
(lp2733
S'SERVER_NAME'
p2734
asbag56
(g77
g58
NtRp2735
(dp2736
g61
(dp2737
g88
g89
ssg70
g2726
sg63
(lp2738
S':'
asbag56
(g77
g58
NtRp2739
(dp2740
g61
(dp2741
sg70
g2726
sg63
(lp2742
g56
(g57
g58
NtRp2743
(dp2744
g61
(dp2745
g69
I3
ssg70
g2739
sg63
(lp2746
g1547
asbasbasbag56
(g72
g58
NtRp2747
(dp2748
g61
(dp2749
sg70
g2239
sg63
(lp2750
g56
(g77
g58
NtRp2751
(dp2752
g61
(dp2753
g81
g82
ssg70
g2747
sg63
(lp2754
S'SERVER_PORT'
p2755
asbag56
(g77
g58
NtRp2756
(dp2757
g61
(dp2758
g88
g89
ssg70
g2747
sg63
(lp2759
S':'
asbag56
(g77
g58
NtRp2760
(dp2761
g61
(dp2762
sg70
g2747
sg63
(lp2763
g56
(g57
g58
NtRp2764
(dp2765
g61
(dp2766
g69
I3
ssg70
g2760
sg63
(lp2767
g1569
asbasbasbag56
(g72
g58
NtRp2768
(dp2769
g61
(dp2770
sg70
g2239
sg63
(lp2771
g56
(g77
g58
NtRp2772
(dp2773
g61
(dp2774
g81
g82
ssg70
g2768
sg63
(lp2775
S'SERVER_PROTOCOL'
p2776
asbag56
(g77
g58
NtRp2777
(dp2778
g61
(dp2779
g88
g89
ssg70
g2768
sg63
(lp2780
S':'
asbag56
(g77
g58
NtRp2781
(dp2782
g61
(dp2783
sg70
g2768
sg63
(lp2784
g56
(g57
g58
NtRp2785
(dp2786
g61
(dp2787
g69
I3
ssg70
g2781
sg63
(lp2788
g1591
asbasbasbag56
(g72
g58
NtRp2789
(dp2790
g61
(dp2791
sg70
g2239
sg63
(lp2792
g56
(g77
g58
NtRp2793
(dp2794
g61
(dp2795
g81
g82
ssg70
g2789
sg63
(lp2796
S'SERVER_SIGNATURE'
p2797
asbag56
(g77
g58
NtRp2798
(dp2799
g61
(dp2800
g88
g89
ssg70
g2789
sg63
(lp2801
S':'
asbag56
(g77
g58
NtRp2802
(dp2803
g61
(dp2804
sg70
g2789
sg63
(lp2805
g56
(g57
g58
NtRp2806
(dp2807
g61
(dp2808
g69
I3
ssg70
g2802
sg63
(lp2809
g1613
asbasbasbag56
(g72
g58
NtRp2810
(dp2811
g61
(dp2812
sg70
g2239
sg63
(lp2813
g56
(g77
g58
NtRp2814
(dp2815
g61
(dp2816
g81
g82
ssg70
g2810
sg63
(lp2817
S'SERVER_SOFTWARE'
p2818
asbag56
(g77
g58
NtRp2819
(dp2820
g61
(dp2821
g88
g89
ssg70
g2810
sg63
(lp2822
S':'
asbag56
(g77
g58
NtRp2823
(dp2824
g61
(dp2825
sg70
g2810
sg63
(lp2826
g56
(g57
g58
NtRp2827
(dp2828
g61
(dp2829
g69
I3
ssg70
g2823
sg63
(lp2830
g1635
asbasbasbag56
(g72
g58
NtRp2831
(dp2832
g61
(dp2833
sg70
g2239
sg63
(lp2834
g56
(g77
g58
NtRp2835
(dp2836
g61
(dp2837
g81
g82
ssg70
g2831
sg63
(lp2838
S'SSL_TLS_SNI'
p2839
asbag56
(g77
g58
NtRp2840
(dp2841
g61
(dp2842
g88
g89
ssg70
g2831
sg63
(lp2843
S':'
asbag56
(g77
g58
NtRp2844
(dp2845
g61
(dp2846
sg70
g2831
sg63
(lp2847
g56
(g57
g58
NtRp2848
(dp2849
g61
(dp2850
g69
I3
ssg70
g2844
sg63
(lp2851
g1657
asbasbasbag56
(g72
g58
NtRp2852
(dp2853
g61
(dp2854
sg70
g2239
sg63
(lp2855
g56
(g77
g58
NtRp2856
(dp2857
g61
(dp2858
g81
g82
ssg70
g2852
sg63
(lp2859
S'mod_wsgi.application_group'
p2860
asbag56
(g77
g58
NtRp2861
(dp2862
g61
(dp2863
g88
g89
ssg70
g2852
sg63
(lp2864
S':'
asbag56
(g77
g58
NtRp2865
(dp2866
g61
(dp2867
sg70
g2852
sg63
(lp2868
g56
(g57
g58
NtRp2869
(dp2870
g61
(dp2871
g69
I3
ssg70
g2865
sg63
(lp2872
g1065
asbasbasbag56
(g72
g58
NtRp2873
(dp2874
g61
(dp2875
sg70
g2239
sg63
(lp2876
g56
(g77
g58
NtRp2877
(dp2878
g61
(dp2879
g81
g82
ssg70
g2873
sg63
(lp2880
S'mod_wsgi.callable_object'
p2881
asbag56
(g77
g58
NtRp2882
(dp2883
g61
(dp2884
g88
g89
ssg70
g2873
sg63
(lp2885
S':'
asbag56
(g77
g58
NtRp2886
(dp2887
g61
(dp2888
sg70
g2873
sg63
(lp2889
g56
(g57
g58
NtRp2890
(dp2891
g61
(dp2892
g69
I3
ssg70
g2886
sg63
(lp2893
g1087
asbasbasbag56
(g72
g58
NtRp2894
(dp2895
g61
(dp2896
sg70
g2239
sg63
(lp2897
g56
(g77
g58
NtRp2898
(dp2899
g61
(dp2900
g81
g82
ssg70
g2894
sg63
(lp2901
S'mod_wsgi.handler_script'
p2902
asbag56
(g77
g58
NtRp2903
(dp2904
g61
(dp2905
g88
g89
ssg70
g2894
sg63
(lp2906
S':'
asbag56
(g77
g58
NtRp2907
(dp2908
g61
(dp2909
sg70
g2894
sg63
(lp2910
g56
(g57
g58
NtRp2911
(dp2912
g61
(dp2913
g69
I3
ssg70
g2907
sg63
(lp2914
S''
asbasbasbag56
(g72
g58
NtRp2915
(dp2916
g61
(dp2917
sg70
g2239
sg63
(lp2918
g56
(g77
g58
NtRp2919
(dp2920
g61
(dp2921
g81
g82
ssg70
g2915
sg63
(lp2922
S'mod_wsgi.input_chunked'
p2923
asbag56
(g77
g58
NtRp2924
(dp2925
g61
(dp2926
g88
g89
ssg70
g2915
sg63
(lp2927
S':'
asbag56
(g77
g58
NtRp2928
(dp2929
g61
(dp2930
sg70
g2915
sg63
(lp2931
g56
(g57
g58
NtRp2932
(dp2933
g61
(dp2934
g69
I3
ssg70
g2928
sg63
(lp2935
S'0'
asbasbasbag56
(g72
g58
NtRp2936
(dp2937
g61
(dp2938
sg70
g2239
sg63
(lp2939
g56
(g77
g58
NtRp2940
(dp2941
g61
(dp2942
g81
g82
ssg70
g2936
sg63
(lp2943
S'mod_wsgi.listener_host'
p2944
asbag56
(g77
g58
NtRp2945
(dp2946
g61
(dp2947
g88
g89
ssg70
g2936
sg63
(lp2948
S':'
asbag56
(g77
g58
NtRp2949
(dp2950
g61
(dp2951
sg70
g2936
sg63
(lp2952
g56
(g57
g58
NtRp2953
(dp2954
g61
(dp2955
g69
I3
ssg70
g2949
sg63
(lp2956
S''
asbasbasbag56
(g72
g58
NtRp2957
(dp2958
g61
(dp2959
sg70
g2239
sg63
(lp2960
g56
(g77
g58
NtRp2961
(dp2962
g61
(dp2963
g81
g82
ssg70
g2957
sg63
(lp2964
S'mod_wsgi.listener_port'
p2965
asbag56
(g77
g58
NtRp2966
(dp2967
g61
(dp2968
g88
g89
ssg70
g2957
sg63
(lp2969
S':'
asbag56
(g77
g58
NtRp2970
(dp2971
g61
(dp2972
sg70
g2957
sg63
(lp2973
g56
(g57
g58
NtRp2974
(dp2975
g61
(dp2976
g69
I3
ssg70
g2970
sg63
(lp2977
g1172
asbasbasbag56
(g72
g58
NtRp2978
(dp2979
g61
(dp2980
sg70
g2239
sg63
(lp2981
g56
(g77
g58
NtRp2982
(dp2983
g61
(dp2984
g81
g82
ssg70
g2978
sg63
(lp2985
S'mod_wsgi.process_group'
p2986
asbag56
(g77
g58
NtRp2987
(dp2988
g61
(dp2989
g88
g89
ssg70
g2978
sg63
(lp2990
S':'
asbag56
(g77
g58
NtRp2991
(dp2992
g61
(dp2993
sg70
g2978
sg63
(lp2994
g56
(g57
g58
NtRp2995
(dp2996
g61
(dp2997
g69
I3
ssg70
g2991
sg63
(lp2998
g1194
asbasbasbag56
(g72
g58
NtRp2999
(dp3000
g61
(dp3001
sg70
g2239
sg63
(lp3002
g56
(g77
g58
NtRp3003
(dp3004
g61
(dp3005
g81
g82
ssg70
g2999
sg63
(lp3006
S'mod_wsgi.request_handler'
p3007
asbag56
(g77
g58
NtRp3008
(dp3009
g61
(dp3010
g88
g89
ssg70
g2999
sg63
(lp3011
S':'
asbag56
(g77
g58
NtRp3012
(dp3013
g61
(dp3014
sg70
g2999
sg63
(lp3015
g56
(g57
g58
NtRp3016
(dp3017
g61
(dp3018
g69
I3
ssg70
g3012
sg63
(lp3019
g1216
asbasbasbag56
(g72
g58
NtRp3020
(dp3021
g61
(dp3022
sg70
g2239
sg63
(lp3023
g56
(g77
g58
NtRp3024
(dp3025
g61
(dp3026
g81
g82
ssg70
g3020
sg63
(lp3027
S'mod_wsgi.script_reloading'
p3028
asbag56
(g77
g58
NtRp3029
(dp3030
g61
(dp3031
g88
g89
ssg70
g3020
sg63
(lp3032
S':'
asbag56
(g77
g58
NtRp3033
(dp3034
g61
(dp3035
sg70
g3020
sg63
(lp3036
g56
(g57
g58
NtRp3037
(dp3038
g61
(dp3039
g69
I3
ssg70
g3033
sg63
(lp3040
S'1'
asbasbasbag56
(g72
g58
NtRp3041
(dp3042
g61
(dp3043
sg70
g2239
sg63
(lp3044
g56
(g77
g58
NtRp3045
(dp3046
g61
(dp3047
g81
g82
ssg70
g3041
sg63
(lp3048
S'mod_wsgi.version'
p3049
asbag56
(g77
g58
NtRp3050
(dp3051
g61
(dp3052
g88
g89
ssg70
g3041
sg63
(lp3053
S':'
asbag56
(g77
g58
NtRp3054
(dp3055
g61
(dp3056
sg70
g3041
sg63
(lp3057
g56
(g57
g58
NtRp3058
(dp3059
g61
(dp3060
g69
I3
ssg70
g3054
sg63
(lp3061
g56
(g65
g58
NtRp3062
(dp3063
g61
(dp3064
g69
I2
ssg70
Nsg63
(lp3065
g56
(g72
g58
NtRp3066
(dp3067
g61
(dp3068
sg70
g3062
sg63
(lp3069
g56
(g77
g58
NtRp3070
(dp3071
g61
(dp3072
sg70
g3066
sg63
(lp3073
g56
(g57
g58
NtRp3074
(dp3075
g61
(dp3076
g69
I2
ssg70
g3070
sg63
(lp3077
S'3'
asbasbasbag56
(g72
g58
NtRp3078
(dp3079
g61
(dp3080
sg70
g3062
sg63
(lp3081
g56
(g77
g58
NtRp3082
(dp3083
g61
(dp3084
sg70
g3078
sg63
(lp3085
g56
(g57
g58
NtRp3086
(dp3087
g61
(dp3088
g69
I2
ssg70
g3082
sg63
(lp3089
S'3'
asbasbasbasbasbasbasbag56
(g72
g58
NtRp3090
(dp3091
g61
(dp3092
sg70
g2239
sg63
(lp3093
g56
(g77
g58
NtRp3094
(dp3095
g61
(dp3096
g81
g82
ssg70
g3090
sg63
(lp3097
S'wsgi.errors'
p3098
asbag56
(g77
g58
NtRp3099
(dp3100
g61
(dp3101
g88
g89
ssg70
g3090
sg63
(lp3102
S':'
asbag56
(g77
g58
NtRp3103
(dp3104
g61
(dp3105
sg70
g3090
sg63
(lp3106
g56
(g57
g58
NtRp3107
(dp3108
g61
(dp3109
g69
I3
ssg70
g3103
sg63
(lp3110
S'<mod_wsgi.Log object at 0xb90742a0>'
p3111
asbasbasbag56
(g72
g58
NtRp3112
(dp3113
g61
(dp3114
sg70
g2239
sg63
(lp3115
g56
(g77
g58
NtRp3116
(dp3117
g61
(dp3118
g81
g82
ssg70
g3112
sg63
(lp3119
S'wsgi.file_wrapper'
p3120
asbag56
(g77
g58
NtRp3121
(dp3122
g61
(dp3123
g88
g89
ssg70
g3112
sg63
(lp3124
S':'
asbag56
(g77
g58
NtRp3125
(dp3126
g61
(dp3127
sg70
g3112
sg63
(lp3128
g56
(g57
g58
NtRp3129
(dp3130
g61
(dp3131
g69
I3
ssg70
g3125
sg63
(lp3132
S'<built-in method file_wrapper of mod_wsgi.Adapter object at 0xb9033188>'
p3133
asbasbasbag56
(g72
g58
NtRp3134
(dp3135
g61
(dp3136
sg70
g2239
sg63
(lp3137
g56
(g77
g58
NtRp3138
(dp3139
g61
(dp3140
g81
g82
ssg70
g3134
sg63
(lp3141
S'wsgi.input'
p3142
asbag56
(g77
g58
NtRp3143
(dp3144
g61
(dp3145
g88
g89
ssg70
g3134
sg63
(lp3146
S':'
asbag56
(g77
g58
NtRp3147
(dp3148
g61
(dp3149
sg70
g3134
sg63
(lp3150
g56
(g57
g58
NtRp3151
(dp3152
g61
(dp3153
g69
I3
ssg70
g3147
sg63
(lp3154
S'<cStringIO.StringO object at 0xb9096ba0>'
p3155
asbasbasbag56
(g72
g58
NtRp3156
(dp3157
g61
(dp3158
sg70
g2239
sg63
(lp3159
g56
(g77
g58
NtRp3160
(dp3161
g61
(dp3162
g81
g82
ssg70
g3156
sg63
(lp3163
S'wsgi.multiprocess'
p3164
asbag56
(g77
g58
NtRp3165
(dp3166
g61
(dp3167
g88
g89
ssg70
g3156
sg63
(lp3168
S':'
asbag56
(g77
g58
NtRp3169
(dp3170
g61
(dp3171
sg70
g3156
sg63
(lp3172
g56
(g57
g58
NtRp3173
(dp3174
g61
(dp3175
g69
I3
ssg70
g3169
sg63
(lp3176
g99
asbasbasbag56
(g72
g58
NtRp3177
(dp3178
g61
(dp3179
sg70
g2239
sg63
(lp3180
g56
(g77
g58
NtRp3181
(dp3182
g61
(dp3183
g81
g82
ssg70
g3177
sg63
(lp3184
S'wsgi.multithread'
p3185
asbag56
(g77
g58
NtRp3186
(dp3187
g61
(dp3188
g88
g89
ssg70
g3177
sg63
(lp3189
S':'
asbag56
(g77
g58
NtRp3190
(dp3191
g61
(dp3192
sg70
g3177
sg63
(lp3193
g56
(g57
g58
NtRp3194
(dp3195
g61
(dp3196
g69
I3
ssg70
g3190
sg63
(lp3197
g1809
asbasbasbag56
(g72
g58
NtRp3198
(dp3199
g61
(dp3200
sg70
g2239
sg63
(lp3201
g56
(g77
g58
NtRp3202
(dp3203
g61
(dp3204
g81
g82
ssg70
g3198
sg63
(lp3205
S'wsgi.run_once'
p3206
asbag56
(g77
g58
NtRp3207
(dp3208
g61
(dp3209
g88
g89
ssg70
g3198
sg63
(lp3210
S':'
asbag56
(g77
g58
NtRp3211
(dp3212
g61
(dp3213
sg70
g3198
sg63
(lp3214
g56
(g57
g58
NtRp3215
(dp3216
g61
(dp3217
g69
I3
ssg70
g3211
sg63
(lp3218
g99
asbasbasbag56
(g72
g58
NtRp3219
(dp3220
g61
(dp3221
sg70
g2239
sg63
(lp3222
g56
(g77
g58
NtRp3223
(dp3224
g61
(dp3225
g81
g82
ssg70
g3219
sg63
(lp3226
S'wsgi.url_scheme'
p3227
asbag56
(g77
g58
NtRp3228
(dp3229
g61
(dp3230
g88
g89
ssg70
g3219
sg63
(lp3231
S':'
asbag56
(g77
g58
NtRp3232
(dp3233
g61
(dp3234
sg70
g3219
sg63
(lp3235
g56
(g57
g58
NtRp3236
(dp3237
g61
(dp3238
g69
I3
ssg70
g3232
sg63
(lp3239
g1852
asbasbasbag56
(g72
g58
NtRp3240
(dp3241
g61
(dp3242
sg70
g2239
sg63
(lp3243
g56
(g77
g58
NtRp3244
(dp3245
g61
(dp3246
g81
g82
ssg70
g3240
sg63
(lp3247
S'wsgi.version'
p3248
asbag56
(g77
g58
NtRp3249
(dp3250
g61
(dp3251
g88
g89
ssg70
g3240
sg63
(lp3252
S':'
asbag56
(g77
g58
NtRp3253
(dp3254
g61
(dp3255
sg70
g3240
sg63
(lp3256
g56
(g57
g58
NtRp3257
(dp3258
g61
(dp3259
g69
I3
ssg70
g3253
sg63
(lp3260
S'1'
asbasbasbasbasbasbasbasbasbasbasbasbasbsS'frames'
p3261
(lp3262
(dp3263
S'file'
p3264
S'/home/www-data/web2py/gluon/restricted.py'
p3265
sS'dump'
p3266
(dp3267
S'environment'
p3268
S"{'A': <class 'gluon.html.A'>, 'Auth': <class 'gluon.tools.Auth'>, 'B': <class 'gluon.html.B'>, 'BEAUTIFY': <class 'gluon.html.BEAUTIFY'>, 'BODY': <class 'gluon.html.BODY'>, 'BR': <class 'gluon.html.BR'>, 'BRAZILIAN_DATE': <gluon.validators.IS_DATE object>, 'BUTTON': <class 'gluon.html.BUTTON'>, 'CAT': <class 'gluon.html.CAT'>, 'CENTER': <class 'gluon.html.CENTER'>, ...}"
p3269
sS'ccode'
p3270
S'<code object <module> at 0xb8e39380, file "/home...ions/scrum/views/ticket/form_teste.html", line 1>'
p3271
ssS'lnum'
p3272
I192
sS'lines'
p3273
(dp3274
I192
S'        exec ccode in environment'
p3275
sI193
S'    except HTTP:'
p3276
sI194
S'        raise'
p3277
sI195
S'    except Exception, error:'
p3278
sI196
S'        # XXX Show exception in Wing IDE if running in debugger'
p3279
sI187
S'    try:'
p3280
sI188
S'        if type(code) == types.CodeType:'
p3281
sI189
S'            ccode = code'
p3282
sI190
S'        else:'
p3283
sI191
S'            ccode = compile2(code,layer)'
p3284
ssS'call'
p3285
S'(code=r"response.write(\'<TABLE WIDTH=696 CELLPADDING=0 C...>\\n\\t\\t</TD>\\n\\t</TR>\\n</TABLE>\\n\', escape=False)", environment={\'A\': <class \'gluon.html.A\'>, \'Auth\': <class \'gluon.tools.Auth\'>, \'B\': <class \'gluon.html.B\'>, \'BEAUTIFY\': <class \'gluon.html.BEAUTIFY\'>, \'BODY\': <class \'gluon.html.BODY\'>, \'BR\': <class \'gluon.html.BR\'>, \'BRAZILIAN_DATE\': <gluon.validators.IS_DATE object>, \'BUTTON\': <class \'gluon.html.BUTTON\'>, \'CAT\': <class \'gluon.html.CAT\'>, \'CENTER\': <class \'gluon.html.CENTER\'>, ...}, layer=\'/home/www-data/web2py/applications/scrum/views/ticket/form_teste.html\')'
p3286
sS'func'
p3287
S'restricted'
p3288
sa(dp3289
g3264
S'/home/www-data/web2py/applications/scrum/views/ticket/form_teste.html'
p3290
sg3266
(dp3291
S'FONT'
p3292
S'undefined'
p3293
sS'P'
S"<class 'gluon.html.P'>"
p3294
sS'B'
S"<class 'gluon.html.B'>"
p3295
sS'DE'
p3296
g3293
sS'TESTE'
p3297
g3293
ssg3272
I6
sg3273
(dp3298
I1
S'response.write(\'<TABLE WIDTH=696 CELLPADDING=0 CELLSPACING=0 STYLE="page-break-before: always">\\n\\t<TR>\\n\\t\\t<TD COLSPAN=14 WIDTH=694 VALIGN=TOP STYLE="; border: 1px solid #000000; padding: 0cm">\\n\\t\\t\\t<P CLASS="table-contents-western" ALIGN=CENTER STYLE="margin-top: 0.1cm; background: #e6e6e6">\\n\\t\\t\\t<FONT FACE="Trebuchet MS, sans-serif"><FONT SIZE=2><B>FORMUL\\xc3\\x81RIO\\n\\t\\t\\tDE TESTE</B></FONT></FONT></P>\\n\\t\\t</TD>\\n\\t</TR>\\n\\t<TR>\\n\\t\\t<TD COLSPAN=2 WIDTH=74 HEIGHT=14 STYLE="; border-top: 1px solid #000000; border-bottom: 1px solid #000000; border-left: 1px solid #000000; border-right: none; padding: 0cm">\\n\\t\\t\\t<P CLASS="western" STYLE="widows: 2; orphans: 2"><FONT FACE="Trebuchet MS, sans-serif"><FONT SIZE=1 STYLE="font-size: 8pt"><B>SPRINT: \', escape=False)'
p3299
sI2
S'response.write(ticket.sprint.numero)'
p3300
sI3
S'response.write(\'</B>\\n\\t\\t\\t</FONT></FONT>\\n\\t\\t\\t</P>\\n\\t\\t</TD>\\n\\t\\t<TD COLSPAN=6 WIDTH=254 STYLE="; border-top: 1px solid #000000; border-bottom: 1px solid #000000; border-left: 1px solid #000000; border-right: none; padding: 0cm">\\n\\t\\t\\t<P CLASS="western" STYLE="widows: 2; orphans: 2"><FONT face="Trebuchet MS, sans-serif"><FONT size=1 style="font-size: 8pt">Tipo:\\n\\t\\t\\t</FONT></FONT><FONT face="Trebuchet MS, sans-serif"><FONT SIZE=1 STYLE="font-size: 8pt"></FONT></FONT><FONT FACE="Trebuchet MS, sans-serif"></FONT></P>\\n\\t\\t</TD>\\n\\t\\t<TD COLSPAN=4 WIDTH=206 STYLE="; border-top: 1px solid #000000; border-bottom: 1px solid #000000; border-left: 1px solid #000000; border-right: none; padding: 0cm">\\n\\t\\t\\t<P CLASS="western" STYLE="widows: 2; orphans: 2"><FONT FACE="Trebuchet MS, sans-serif"><FONT SIZE=1 STYLE="font-size: 8pt">Cliente:\\n\\t\\t\\t </FONT></FONT></P>\\n\\t\\t</TD>\\n\\t\\t<TD COLSPAN=2 WIDTH=161 STYLE="; border: 1px solid #000000; padding: 0cm">\\n\\t\\t\\t<P CLASS="western" STYLE="widows: 2; orphans: 2"><FONT FACE="Trebuchet MS, sans-serif"><FONT SIZE=2><B>CHAMADO:\', escape=False)'
p3301
sI4
S'response.write(ticket.chamado)'
p3302
sI5
S'response.write(\'</B></FONT></FONT>\\n\\t\\t\\t</P>\\n\\t\\t</TD>\\n\\t</TR>\\n\\t<TR>\\n\\t\\t<TD COLSPAN=11 WIDTH=423 HEIGHT=19 STYLE="; border-top: 1px solid #000000; border-bottom: 1px solid #000000; border-left: 1px solid #000000; border-right: none; padding: 0cm">\\n\\t\\t\\t\\n      \', escape=False)'
p3303
sI6
S'response.write(ticket.estado.descricao)'
p3304
sI7
S'response.write(\'\\n      <P CLASS="western" ALIGN=CENTER STYLE="widows: 2; orphans: 2">\\n        <FONT face="Trebuchet MS, sans-serif"><FONT size=1 style="font-size: 8pt"></FONT></FONT><FONT face="Trebuchet MS, sans-serif"><FONT SIZE=1 STYLE="font-size: 8pt"></FONT></FONT><FONT FACE="Trebuchet MS, sans-serif"></FONT></P>\\n\\t\\t</TD>\\n\\t\\t<TD COLSPAN=3 WIDTH=271 STYLE="; border: 1px solid #000000; padding: 0cm">\\n\\t\\t\\t<P CLASS="western" ALIGN=CENTER STYLE="widows: 2; orphans: 2"><FONT FACE="Trebuchet MS, sans-serif">Sistema:<FONT SIZE=1 STYLE="font-size: 8pt"></FONT></FONT></P>\\n\\t\\t</TD>\\n\\t</TR>\\n\\t<TR>\\n\\t\\t<TD ROWSPAN=8 WIDTH=35 STYLE="; border-top: 1px solid #000000; border-bottom: 1px solid #000000; border-left: 1px solid #000000; border-right: none; padding: 0cm">\\n\\t\\t\\t<P CLASS="table-contents-western" ALIGN=CENTER STYLE="margin-left: 0.2cm; margin-right: 0.2cm">\\n\\t\\t\\t<FONT FACE="Tahoma, sans-serif"><FONT SIZE=4><B>D<br>E<br>S<br>E<br>N<br>V<br>O<br>L<br>V<br>I<br>M<br>E<br>N<br>T<br>O</B></FONT></FONT></P>\\n\\t\\t</TD>\\n\\t\\t<TD COLSPAN=13 WIDTH=659 VALIGN=TOP STYLE="; border: 1px solid #000000; padding: 0cm">\\n\\t\\t\\t<P CLASS="western" STYLE="widows: 2; orphans: 2"><FONT FACE="Trebuchet MS, sans-serif"><FONT SIZE=1 STYLE="font-size: 8pt">Nome do analista:\', escape=False)'
p3305
sI8
S'response.write(ticket.analista.first_name)'
p3306
sI9
S'response.write(\' <B> </B></FONT></FONT></P>\\n\\t\\t</TD>\\n\\t</TR>\\n\\t<TR>\\n\\t\\t<TD COLSPAN=4 WIDTH=172 VALIGN=TOP STYLE="; border-top: 1px solid #000000; border-bottom: 1px solid #000000; border-left: 1px solid #000000; border-right: none; padding: 0cm">\\n\\t\\t\\t<P CLASS="western" STYLE="widows: 2; orphans: 2"><FONT FACE="Trebuchet MS, sans-serif"><FONT SIZE=1 STYLE="font-size: 8pt">Data In\\xc3\\xadcio:\', escape=False)'
p3307
sI10
S'response.write(ticket.inicio)'
p3308
sI11
S'response.write(\'</FONT></FONT>\\n\\t\\t\\t</P>\\n\\t\\t</TD>\\n\\t\\t<TD COLSPAN=5 WIDTH=168 VALIGN=TOP STYLE="; border-top: 1px solid #000000; border-bottom: 1px solid #000000; border-left: 1px solid #000000; border-right: none; padding: 0cm">\\n\\t\\t\\t<P CLASS="western" STYLE="widows: 2; orphans: 2"><FONT FACE="Trebuchet MS, sans-serif"><FONT SIZE=1 STYLE="font-size: 8pt">Hora\\n\\t\\t\\tIn\\xc3\\xadcio: </FONT></FONT>\\n\\t\\t\\t</P>\\n\\t\\t</TD>\\n\\t\\t<TD COLSPAN=2 WIDTH=158 VALIGN=TOP STYLE="; border-top: 1px solid #000000; border-bottom: 1px solid #000000; border-left: 1px solid #000000; border-right: none; padding: 0cm">\\n\\t\\t\\t<P CLASS="western" STYLE="widows: 2; orphans: 2"><FONT FACE="Trebuchet MS, sans-serif"><FONT SIZE=1 STYLE="font-size: 8pt">Data Fim:\', escape=False)'
p3309
sI12
S'response.write(ticket.fim)'
p3310
sI13
S'response.write(\' </FONT></FONT><FONT FACE="Trebuchet MS, sans-serif"><FONT SIZE=1 STYLE="font-size: 8pt"><SDFIELD TYPE=DATETIME SDVAL="40795,7223842593" SDNUM="1046;1046;DD/MM/AAAA">09/09/2011</SDFIELD></FONT></FONT></P>\\n\\t\\t</TD>\\n\\t\\t<TD COLSPAN=2 WIDTH=161 VALIGN=TOP STYLE="; border: 1px solid #000000; padding: 0cm">\\n\\t\\t\\t<P CLASS="western" STYLE="widows: 2; orphans: 2"><FONT FACE="Trebuchet MS, sans-serif"><FONT SIZE=1 STYLE="font-size: 8pt">Hora\\n\\t\\t\\tFim: <SDFIELD TYPE=DATETIME SDVAL="40795,7223842593" SDNUM="1046;1046;HH:MM">17:20</SDFIELD></FONT></FONT></P>\\n\\t\\t</TD>\\n\\t</TR>\\n\\t<TR>\\n\\t\\t<TD COLSPAN=13 WIDTH=659 VALIGN=TOP STYLE="; border: 1px solid #000000; padding: 0cm">\\n\\t\\t\\t<P CLASS="western" STYLE="widows: 2; orphans: 2"><FONT FACE="Trebuchet MS, sans-serif"><FONT SIZE=1 STYLE="font-size: 8pt">Descri\\xc3\\xa7\\xc3\\xa3o\\n\\t\\t\\tanalista: </FONT></FONT>\\n\\t\\t\\t</P>\\n\\t\\t</TD>\\n\\t</TR>\\n\\t<TR>\\n\\t\\t<TD COLSPAN=13 WIDTH=659 VALIGN=TOP STYLE="; border: 1px solid #000000; padding: 0cm">\\n\\t\\t\\t<P CLASS="table-contents-western" STYLE="margin-bottom: 0.11cm"><BR><BR>\\n\\t\\t\\t</P>\\n\\t\\t\\t<TABLE WIDTH=656 CELLPADDING=0 CELLSPACING=0>\\n\\t\\t\\t\\t<COL WIDTH=86>\\n\\t\\t\\t\\t<COL WIDTH=213>\\n\\t\\t\\t\\t<COL WIDTH=354>\\n\\t\\t\\t\\t<TR VALIGN=TOP>\\n\\t\\t\\t\\t\\t<TD WIDTH=86 BGCOLOR="#e6e6e6" STYLE="border-top: 1px solid #000000; border-bottom: 1px solid #000000; border-left: 1px solid #000000; border-right: none; padding: 0cm">\\n\\t\\t\\t\\t\\t\\t<P CLASS="western" STYLE="widows: 2; orphans: 2"><FONT FACE="Trebuchet MS, sans-serif"><FONT SIZE=1 STYLE="font-size: 8pt">M\\xc3\\xb3dulo</FONT></FONT></P>\\n\\t\\t\\t\\t\\t</TD>\\n\\t\\t\\t\\t\\t<TD WIDTH=213 BGCOLOR="#e6e6e6" STYLE="border-top: 1px solid #000000; border-bottom: 1px solid #000000; border-left: 1px solid #000000; border-right: none; padding: 0cm">\\n\\t\\t\\t\\t\\t\\t<P CLASS="western" STYLE="widows: 2; orphans: 2"><FONT FACE="Trebuchet MS, sans-serif"><FONT SIZE=1 STYLE="font-size: 8pt">Nome\\n\\t\\t\\t\\t\\t\\tda Rotina:</FONT></FONT></P>\\n\\t\\t\\t\\t\\t</TD>\\n\\t\\t\\t\\t\\t<TD WIDTH=354 BGCOLOR="#e6e6e6" STYLE="border: 1px solid #000000; padding: 0cm">\\n\\t\\t\\t\\t\\t\\t<P CLASS="western" STYLE="widows: 2; orphans: 2"><FONT FACE="Trebuchet MS, sans-serif"><FONT SIZE=1 STYLE="font-size: 8pt">Menu\\n\\t\\t\\t\\t\\t\\tda Rotina:</FONT></FONT></P>\\n\\t\\t\\t\\t\\t</TD>\\n\\t\\t\\t\\t</TR>\\n\\t\\t\\t\\t<TR VALIGN=TOP>\\n\\t\\t\\t\\t\\t<TD WIDTH=86 STYLE="; border-top: none; border-bottom: 1px solid #000000; border-left: 1px solid #000000; border-right: none; padding: 0cm">\\n\\t\\t\\t\\t\\t\\t<P CLASS="western" STYLE="widows: 2; orphans: 2">\\n              \\n            </P>\\n\\t\\t\\t\\t\\t</TD>\\n\\t\\t\\t\\t\\t<TD WIDTH=213 STYLE="; border-top: none; border-bottom: 1px solid #000000; border-left: 1px solid #000000; border-right: none; padding: 0cm">\\n\\t\\t\\t\\t\\t\\t<P CLASS="western" STYLE="widows: 2; orphans: 2"><BR>\\n\\t\\t\\t\\t\\t\\t</P>\\n\\t\\t\\t\\t\\t</TD>\\n\\t\\t\\t\\t\\t<TD WIDTH=354 STYLE="; border-top: none; border-bottom: 1px solid #000000; border-left: 1px solid #000000; border-right: 1px solid #000000; padding: 0cm">\\n\\t\\t\\t\\t\\t\\t<P CLASS="western" STYLE="widows: 2; orphans: 2"><BR>\\n\\t\\t\\t\\t\\t\\t</P>\\n\\t\\t\\t\\t\\t</TD>\\n\\t\\t\\t\\t</TR>\\n\\t\\t\\t</TABLE>\\n\\t\\t\\t<P CLASS="table-contents-western"><BR><BR>\\n\\t\\t\\t</P>\\n\\t\\t</TD>\\n\\t</TR>\\n\\t<TR>\\n\\t\\t<TD COLSPAN=13 WIDTH=659 VALIGN=TOP STYLE="border: 1px solid #000000; padding: 0cm">\\n\\t\\t\\t<P CLASS="table-contents-western" STYLE="margin-bottom: 0.11cm"><BR><BR>\\n\\t\\t\\t</P>\\n\\t\\t\\t<TABLE WIDTH=656 CELLPADDING=0 CELLSPACING=0>\\n\\t\\t\\t\\t<COL WIDTH=91>\\n\\t\\t\\t\\t<COL WIDTH=434>\\n\\t\\t\\t\\t<COL WIDTH=74>\\n\\t\\t\\t\\t<COL WIDTH=54>\\n\\t\\t\\t\\t<TR VALIGN=TOP>\\n\\t\\t\\t\\t\\t<TD WIDTH=91 BGCOLOR="#e6e6e6" STYLE="border-top: 1px solid #000000; border-bottom: 1px solid #000000; border-left: 1px solid #000000; border-right: none; padding: 0cm">\\n\\t\\t\\t\\t\\t\\t<P CLASS="western" STYLE="widows: 2; orphans: 2"><FONT FACE="Trebuchet MS, sans-serif"><FONT SIZE=1 STYLE="font-size: 8pt">Pasta\\n\\t\\t\\t\\t\\t\\tRaiz:</FONT></FONT></P>\\n\\t\\t\\t\\t\\t</TD>\\n\\t\\t\\t\\t\\t<TD WIDTH=434 BGCOLOR="#e6e6e6" STYLE="border-top: 1px solid #000000; border-bottom: 1px solid #000000; border-left: 1px solid #000000; border-right: none; padding: 0cm">\\n\\t\\t\\t\\t\\t\\t<P CLASS="western" STYLE="widows: 2; orphans: 2"><FONT FACE="Trebuchet MS, sans-serif"><FONT SIZE=1 STYLE="font-size: 8pt">Formul\\xc3\\xa1rio\\n\\t\\t\\t\\t\\t\\tou Relat\\xc3\\xb3rio Alterado:</FONT></FONT></P>\\n\\t\\t\\t\\t\\t</TD>\\n\\t\\t\\t\\t\\t<TD WIDTH=74 BGCOLOR="#e6e6e6" STYLE="border-top: 1px solid #000000; border-bottom: 1px solid #000000; border-left: 1px solid #000000; border-right: none; padding: 0cm">\\n\\t\\t\\t\\t\\t\\t<P CLASS="western" ALIGN=CENTER STYLE="widows: 2; orphans: 2"><FONT FACE="Trebuchet MS, sans-serif"><FONT SIZE=1 STYLE="font-size: 8pt">Data\\n\\t\\t\\t\\t\\t\\tCommit:</FONT></FONT></P>\\n\\t\\t\\t\\t\\t</TD>\\n\\t\\t\\t\\t\\t<TD WIDTH=54 BGCOLOR="#e6e6e6" STYLE="border: 1px solid #000000; padding: 0cm">\\n\\t\\t\\t\\t\\t\\t<P CLASS="western" ALIGN=CENTER STYLE="widows: 2; orphans: 2"><FONT FACE="Trebuchet MS, sans-serif"><FONT SIZE=1 STYLE="font-size: 8pt">Form.WIKI:</FONT></FONT></P>\\n\\t\\t\\t\\t\\t</TD>\\n\\t\\t\\t\\t</TR>\\n\\t\\t\\t\\t<TR VALIGN=TOP>\\n\\t\\t\\t\\t\\t<TD WIDTH=91 STYLE="; border-top: none; border-bottom: 1px solid #000000; border-left: 1px solid #000000; border-right: none; padding: 0cm">\\n\\t\\t\\t\\t\\t\\t<P CLASS="western" STYLE="widows: 2; orphans: 2"><BR>\\n\\t\\t\\t\\t\\t\\t</P>\\n\\t\\t\\t\\t\\t</TD>\\n\\t\\t\\t\\t\\t<TD WIDTH=434 STYLE="; border-top: none; border-bottom: 1px solid #000000; border-left: 1px solid #000000; border-right: none; padding: 0cm">\\n\\t\\t\\t\\t\\t\\t<P CLASS="western" STYLE="widows: 2; orphans: 2"><BR>\\n\\t\\t\\t\\t\\t\\t</P>\\n\\t\\t\\t\\t\\t</TD>\\n\\t\\t\\t\\t\\t<TD WIDTH=74 STYLE="; border-top: none; border-bottom: 1px solid #000000; border-left: 1px solid #000000; border-right: none; padding: 0cm">\\n\\t\\t\\t\\t\\t\\t<P CLASS="western" STYLE="widows: 2; orphans: 2"><BR>\\n\\t\\t\\t\\t\\t\\t</P>\\n\\t\\t\\t\\t\\t</TD>\\n\\t\\t\\t\\t\\t<TD WIDTH=54 STYLE="; border-top: none; border-bottom: 1px solid #000000; border-left: 1px solid #000000; border-right: 1px solid #000000; padding: 0cm">\\n\\t\\t\\t\\t\\t\\t<P CLASS="western" STYLE="widows: 2; orphans: 2"><BR>\\n\\t\\t\\t\\t\\t\\t</P>\\n\\t\\t\\t\\t\\t</TD>\\n\\t\\t\\t\\t</TR>\\n\\t\\t\\t</TABLE>\\n\\t\\t\\t<P CLASS="table-contents-western"><BR><BR>\\n\\t\\t\\t</P>\\n\\t\\t</TD>\\n\\t</TR>\\n\\t<TR>\\n\\t\\t<TD COLSPAN=2 WIDTH=106 VALIGN=TOP STYLE="border-top: 1px solid #000000; border-bottom: 1px solid #000000; border-left: 1px solid #000000; border-right: none; padding: 0cm">\\n\\t\\t\\t<P CLASS="western" STYLE="margin-bottom: 0cm; widows: 2; orphans: 2">\\n        <FONT face="Trebuchet MS, sans-serif"><FONT size=1 style="font-size: 8pt"><B>TEM PATCH? \', escape=False)'
p3311
sI14
S'response.write(ticket.patch)'
p3312
sI15
S'response.write(\' </B></FONT></FONT><FONT face="Trebuchet MS, sans-serif"><FONT size=1 style="font-size: 8pt"><B><FONT SIZE=2 STYLE="font-size: 9pt"></FONT></B></FONT></FONT><FONT FACE="Trebuchet MS, sans-serif"><FONT SIZE=1 STYLE="font-size: 8pt"><B></B></FONT></FONT></P>\\n\\t\\t</TD>\\n\\t\\t<TD COLSPAN=4 WIDTH=105 VALIGN=TOP STYLE="; border-top: 1px solid #000000; border-bottom: 1px solid #000000; border-left: 1px solid #000000; border-right: none; padding: 0cm">\\n\\t\\t\\t<P CLASS="western" STYLE="margin-bottom: 0cm; widows: 2; orphans: 2">\\n        <FONT face="Trebuchet MS, sans-serif"><FONT size=1 style="font-size: 8pt"><B>MENU NOVO? </B></FONT></FONT><FONT face="Trebuchet MS, sans-serif"><FONT size=1 style="font-size: 8pt"><B><FONT SIZE=2 STYLE="font-size: 9pt"></FONT></B></FONT></FONT><FONT FACE="Trebuchet MS, sans-serif"><FONT SIZE=1 STYLE="font-size: 8pt"><B></B></FONT></FONT></P>\\n\\t\\t</TD>\\n\\t\\t<TD COLSPAN=7 WIDTH=448 VALIGN=TOP STYLE="; border: 1px solid #000000; padding: 0cm">\\n\\t\\t\\t<P CLASS="western" STYLE="margin-bottom: 0cm; widows: 2; orphans: 2">\\n        <FONT face="Trebuchet MS, sans-serif"><FONT size=1 style="font-size: 8pt">Local dos arquivos para teste: \', escape=False)'
p3313
sI16
S'response.write(ticket.local_teste)'
p3314
ssg3285
S'()'
p3315
sg3287
S'<module>'
p3316
sasS'pyver'
p3317
S'Python 2.7.1+: /usr/bin/python'
p3318
sS'session'
p3319
g56
(g57
g58
NtRp3320
(dp3321
g61
(dp3322
sg63
(lp3323
g56
(g65
g58
NtRp3324
(dp3325
g61
(dp3326
g69
I5
ssg70
Nsg63
(lp3327
g56
(g72
g58
NtRp3328
(dp3329
g61
(dp3330
sg70
g3324
sg63
(lp3331
g56
(g77
g58
NtRp3332
(dp3333
g61
(dp3334
g81
g82
ssg70
g3328
sg63
(lp3335
S'auth'
p3336
asbag56
(g77
g58
NtRp3337
(dp3338
g61
(dp3339
g88
g89
ssg70
g3328
sg63
(lp3340
S':'
asbag56
(g77
g58
NtRp3341
(dp3342
g61
(dp3343
sg70
g3328
sg63
(lp3344
g56
(g57
g58
NtRp3345
(dp3346
g61
(dp3347
g69
I5
ssg70
g3341
sg63
(lp3348
g56
(g65
g58
NtRp3349
(dp3350
g61
(dp3351
g69
I4
ssg70
Nsg63
(lp3352
g56
(g72
g58
NtRp3353
(dp3354
g61
(dp3355
sg70
g3349
sg63
(lp3356
g56
(g77
g58
NtRp3357
(dp3358
g61
(dp3359
g81
g82
ssg70
g3353
sg63
(lp3360
S'expiration'
p3361
asbag56
(g77
g58
NtRp3362
(dp3363
g61
(dp3364
g88
g89
ssg70
g3353
sg63
(lp3365
S':'
asbag56
(g77
g58
NtRp3366
(dp3367
g61
(dp3368
sg70
g3353
sg63
(lp3369
g56
(g57
g58
NtRp3370
(dp3371
g61
(dp3372
g69
I4
ssg70
g3366
sg63
(lp3373
S'2592000'
p3374
asbasbasbag56
(g72
g58
NtRp3375
(dp3376
g61
(dp3377
sg70
g3349
sg63
(lp3378
g56
(g77
g58
NtRp3379
(dp3380
g61
(dp3381
g81
g82
ssg70
g3375
sg63
(lp3382
S'hmac_key'
p3383
asbag56
(g77
g58
NtRp3384
(dp3385
g61
(dp3386
g88
g89
ssg70
g3375
sg63
(lp3387
S':'
asbag56
(g77
g58
NtRp3388
(dp3389
g61
(dp3390
sg70
g3375
sg63
(lp3391
g56
(g57
g58
NtRp3392
(dp3393
g61
(dp3394
g69
I4
ssg70
g3388
sg63
(lp3395
S'ea0d0cd6-0e5a-4117-9fc3-debd8b48146a'
p3396
asbasbasbag56
(g72
g58
NtRp3397
(dp3398
g61
(dp3399
sg70
g3349
sg63
(lp3400
g56
(g77
g58
NtRp3401
(dp3402
g61
(dp3403
g81
g82
ssg70
g3397
sg63
(lp3404
S'last_visit'
p3405
asbag56
(g77
g58
NtRp3406
(dp3407
g61
(dp3408
g88
g89
ssg70
g3397
sg63
(lp3409
S':'
asbag56
(g77
g58
NtRp3410
(dp3411
g61
(dp3412
sg70
g3397
sg63
(lp3413
g56
(g57
g58
NtRp3414
(dp3415
g61
(dp3416
g69
I4
ssg70
g3410
sg63
(lp3417
S'datetime.datetime(2011, 9, 12, 15, 7, 26, 132996)'
p3418
asbasbasbag56
(g72
g58
NtRp3419
(dp3420
g61
(dp3421
sg70
g3349
sg63
(lp3422
g56
(g77
g58
NtRp3423
(dp3424
g61
(dp3425
g81
g82
ssg70
g3419
sg63
(lp3426
S'remember'
p3427
asbag56
(g77
g58
NtRp3428
(dp3429
g61
(dp3430
g88
g89
ssg70
g3419
sg63
(lp3431
S':'
asbag56
(g77
g58
NtRp3432
(dp3433
g61
(dp3434
sg70
g3419
sg63
(lp3435
g56
(g57
g58
NtRp3436
(dp3437
g61
(dp3438
g69
I4
ssg70
g3432
sg63
(lp3439
g99
asbasbasbag56
(g72
g58
NtRp3440
(dp3441
g61
(dp3442
sg70
g3349
sg63
(lp3443
g56
(g77
g58
NtRp3444
(dp3445
g61
(dp3446
g81
g82
ssg70
g3440
sg63
(lp3447
S'user'
p3448
asbag56
(g77
g58
NtRp3449
(dp3450
g61
(dp3451
g88
g89
ssg70
g3440
sg63
(lp3452
S':'
asbag56
(g77
g58
NtRp3453
(dp3454
g61
(dp3455
sg70
g3440
sg63
(lp3456
g56
(g57
g58
NtRp3457
(dp3458
g61
(dp3459
g69
I4
ssg70
g3453
sg63
(lp3460
g56
(g65
g58
NtRp3461
(dp3462
g61
(dp3463
g69
I3
ssg70
Nsg63
(lp3464
g56
(g72
g58
NtRp3465
(dp3466
g61
(dp3467
sg70
g3461
sg63
(lp3468
g56
(g77
g58
NtRp3469
(dp3470
g61
(dp3471
g81
g82
ssg70
g3465
sg63
(lp3472
S'email'
p3473
asbag56
(g77
g58
NtRp3474
(dp3475
g61
(dp3476
g88
g89
ssg70
g3465
sg63
(lp3477
S':'
asbag56
(g77
g58
NtRp3478
(dp3479
g61
(dp3480
sg70
g3465
sg63
(lp3481
g56
(g57
g58
NtRp3482
(dp3483
g61
(dp3484
g69
I3
ssg70
g3478
sg63
(lp3485
S'yamandu.costa@gmail.com'
p3486
asbasbasbag56
(g72
g58
NtRp3487
(dp3488
g61
(dp3489
sg70
g3461
sg63
(lp3490
g56
(g77
g58
NtRp3491
(dp3492
g61
(dp3493
g81
g82
ssg70
g3487
sg63
(lp3494
S'first_name'
p3495
asbag56
(g77
g58
NtRp3496
(dp3497
g61
(dp3498
g88
g89
ssg70
g3487
sg63
(lp3499
S':'
asbag56
(g77
g58
NtRp3500
(dp3501
g61
(dp3502
sg70
g3487
sg63
(lp3503
g56
(g57
g58
NtRp3504
(dp3505
g61
(dp3506
g69
I3
ssg70
g3500
sg63
(lp3507
S'Carlos'
p3508
asbasbasbag56
(g72
g58
NtRp3509
(dp3510
g61
(dp3511
sg70
g3461
sg63
(lp3512
g56
(g77
g58
NtRp3513
(dp3514
g61
(dp3515
g81
g82
ssg70
g3509
sg63
(lp3516
S'id'
p3517
asbag56
(g77
g58
NtRp3518
(dp3519
g61
(dp3520
g88
g89
ssg70
g3509
sg63
(lp3521
S':'
asbag56
(g77
g58
NtRp3522
(dp3523
g61
(dp3524
sg70
g3509
sg63
(lp3525
g56
(g57
g58
NtRp3526
(dp3527
g61
(dp3528
g69
I3
ssg70
g3522
sg63
(lp3529
S'2'
asbasbasbag56
(g72
g58
NtRp3530
(dp3531
g61
(dp3532
sg70
g3461
sg63
(lp3533
g56
(g77
g58
NtRp3534
(dp3535
g61
(dp3536
g81
g82
ssg70
g3530
sg63
(lp3537
S'last_name'
p3538
asbag56
(g77
g58
NtRp3539
(dp3540
g61
(dp3541
g88
g89
ssg70
g3530
sg63
(lp3542
S':'
asbag56
(g77
g58
NtRp3543
(dp3544
g61
(dp3545
sg70
g3530
sg63
(lp3546
g56
(g57
g58
NtRp3547
(dp3548
g61
(dp3549
g69
I3
ssg70
g3543
sg63
(lp3550
S'costa'
p3551
asbasbasbag56
(g72
g58
NtRp3552
(dp3553
g61
(dp3554
sg70
g3461
sg63
(lp3555
g56
(g77
g58
NtRp3556
(dp3557
g61
(dp3558
g81
g82
ssg70
g3552
sg63
(lp3559
S'password'
p3560
asbag56
(g77
g58
NtRp3561
(dp3562
g61
(dp3563
g88
g89
ssg70
g3552
sg63
(lp3564
S':'
asbag56
(g77
g58
NtRp3565
(dp3566
g61
(dp3567
sg70
g3552
sg63
(lp3568
g56
(g57
g58
NtRp3569
(dp3570
g61
(dp3571
g69
I3
ssg70
g3565
sg63
(lp3572
S'00a7a128f71552b063e36943370dd0944d5adb4000c6382d33eb3e1a93dc679cb99beb47e3003d318803f96ef839a18a379eae2e2bb917ca3c52c4e45231b331'
p3573
asbasbasbag56
(g72
g58
NtRp3574
(dp3575
g61
(dp3576
sg70
g3461
sg63
(lp3577
g56
(g77
g58
NtRp3578
(dp3579
g61
(dp3580
g81
g82
ssg70
g3574
sg63
(lp3581
S'registration_key'
p3582
asbag56
(g77
g58
NtRp3583
(dp3584
g61
(dp3585
g88
g89
ssg70
g3574
sg63
(lp3586
S':'
asbag56
(g77
g58
NtRp3587
(dp3588
g61
(dp3589
sg70
g3574
sg63
(lp3590
g56
(g57
g58
NtRp3591
(dp3592
g61
(dp3593
g69
I3
ssg70
g3587
sg63
(lp3594
S''
asbasbasbag56
(g72
g58
NtRp3595
(dp3596
g61
(dp3597
sg70
g3461
sg63
(lp3598
g56
(g77
g58
NtRp3599
(dp3600
g61
(dp3601
g81
g82
ssg70
g3595
sg63
(lp3602
S'reset_password_key'
p3603
asbag56
(g77
g58
NtRp3604
(dp3605
g61
(dp3606
g88
g89
ssg70
g3595
sg63
(lp3607
S':'
asbag56
(g77
g58
NtRp3608
(dp3609
g61
(dp3610
sg70
g3595
sg63
(lp3611
g56
(g57
g58
NtRp3612
(dp3613
g61
(dp3614
g69
I3
ssg70
g3608
sg63
(lp3615
S''
asbasbasbasbasbasbasbasbasbasbasbasbasbsS'etype'
p3616
S"<type 'exceptions.AttributeError'>"
p3617
sS'date'
p3618
S'Mon Sep 12 15:14:04 2011'
p3619
sS'response'
p3620
g56
(g57
g58
NtRp3621
(dp3622
g61
(dp3623
sg63
(lp3624
g56
(g65
g58
NtRp3625
(dp3626
g61
(dp3627
g69
I5
ssg70
Nsg63
(lp3628
g56
(g72
g58
NtRp3629
(dp3630
g61
(dp3631
sg70
g3625
sg63
(lp3632
g56
(g77
g58
NtRp3633
(dp3634
g61
(dp3635
g81
g82
ssg70
g3629
sg63
(lp3636
g166
asbag56
(g77
g58
NtRp3637
(dp3638
g61
(dp3639
g88
g89
ssg70
g3629
sg63
(lp3640
S':'
asbag56
(g77
g58
NtRp3641
(dp3642
g61
(dp3643
sg70
g3629
sg63
(lp3644
g56
(g57
g58
NtRp3645
(dp3646
g61
(dp3647
g69
I5
ssg70
g3641
sg63
(lp3648
S'<cStringIO.StringO object at 0xb8f883a0>'
p3649
asbasbasbag56
(g72
g58
NtRp3650
(dp3651
g61
(dp3652
sg70
g3625
sg63
(lp3653
g56
(g77
g58
NtRp3654
(dp3655
g61
(dp3656
g81
g82
ssg70
g3650
sg63
(lp3657
g232
asbag56
(g77
g58
NtRp3658
(dp3659
g61
(dp3660
g88
g89
ssg70
g3650
sg63
(lp3661
S':'
asbag56
(g77
g58
NtRp3662
(dp3663
g61
(dp3664
sg70
g3650
sg63
(lp3665
g56
(g57
g58
NtRp3666
(dp3667
g61
(dp3668
g69
I5
ssg70
g3662
sg63
(lp3669
g56
(g65
g58
NtRp3670
(dp3671
g61
(dp3672
g69
I4
ssg70
Nsg63
(lp3673
g56
(g72
g58
NtRp3674
(dp3675
g61
(dp3676
sg70
g3670
sg63
(lp3677
g56
(g77
g58
NtRp3678
(dp3679
g61
(dp3680
g81
g82
ssg70
g3674
sg63
(lp3681
S'session_id_scrum'
p3682
asbag56
(g77
g58
NtRp3683
(dp3684
g61
(dp3685
g88
g89
ssg70
g3674
sg63
(lp3686
S':'
asbag56
(g77
g58
NtRp3687
(dp3688
g61
(dp3689
sg70
g3674
sg63
(lp3690
g56
(g57
g58
NtRp3691
(dp3692
g61
(dp3693
g69
I4
ssg70
g3687
sg63
(lp3694
g56
(g65
g58
NtRp3695
(dp3696
g61
(dp3697
g69
I3
ssg70
Nsg63
(lp3698
g56
(g72
g58
NtRp3699
(dp3700
g61
(dp3701
sg70
g3695
sg63
(lp3702
g56
(g77
g58
NtRp3703
(dp3704
g61
(dp3705
g81
g82
ssg70
g3699
sg63
(lp3706
g282
asbag56
(g77
g58
NtRp3707
(dp3708
g61
(dp3709
g88
g89
ssg70
g3699
sg63
(lp3710
S':'
asbag56
(g77
g58
NtRp3711
(dp3712
g61
(dp3713
sg70
g3699
sg63
(lp3714
g56
(g57
g58
NtRp3715
(dp3716
g61
(dp3717
g69
I3
ssg70
g3711
sg63
(lp3718
S''
asbasbasbag56
(g72
g58
NtRp3719
(dp3720
g61
(dp3721
sg70
g3695
sg63
(lp3722
g56
(g77
g58
NtRp3723
(dp3724
g61
(dp3725
g81
g82
ssg70
g3719
sg63
(lp3726
g303
asbag56
(g77
g58
NtRp3727
(dp3728
g61
(dp3729
g88
g89
ssg70
g3719
sg63
(lp3730
S':'
asbag56
(g77
g58
NtRp3731
(dp3732
g61
(dp3733
sg70
g3719
sg63
(lp3734
g56
(g57
g58
NtRp3735
(dp3736
g61
(dp3737
g69
I3
ssg70
g3731
sg63
(lp3738
S''
asbasbasbag56
(g72
g58
NtRp3739
(dp3740
g61
(dp3741
sg70
g3695
sg63
(lp3742
g56
(g77
g58
NtRp3743
(dp3744
g61
(dp3745
g81
g82
ssg70
g3739
sg63
(lp3746
g324
asbag56
(g77
g58
NtRp3747
(dp3748
g61
(dp3749
g88
g89
ssg70
g3739
sg63
(lp3750
S':'
asbag56
(g77
g58
NtRp3751
(dp3752
g61
(dp3753
sg70
g3739
sg63
(lp3754
g56
(g57
g58
NtRp3755
(dp3756
g61
(dp3757
g69
I3
ssg70
g3751
sg63
(lp3758
S''
asbasbasbag56
(g72
g58
NtRp3759
(dp3760
g61
(dp3761
sg70
g3695
sg63
(lp3762
g56
(g77
g58
NtRp3763
(dp3764
g61
(dp3765
g81
g82
ssg70
g3759
sg63
(lp3766
g345
asbag56
(g77
g58
NtRp3767
(dp3768
g61
(dp3769
g88
g89
ssg70
g3759
sg63
(lp3770
S':'
asbag56
(g77
g58
NtRp3771
(dp3772
g61
(dp3773
sg70
g3759
sg63
(lp3774
g56
(g57
g58
NtRp3775
(dp3776
g61
(dp3777
g69
I3
ssg70
g3771
sg63
(lp3778
S''
asbasbasbag56
(g72
g58
NtRp3779
(dp3780
g61
(dp3781
sg70
g3695
sg63
(lp3782
g56
(g77
g58
NtRp3783
(dp3784
g61
(dp3785
g81
g82
ssg70
g3779
sg63
(lp3786
g366
asbag56
(g77
g58
NtRp3787
(dp3788
g61
(dp3789
g88
g89
ssg70
g3779
sg63
(lp3790
S':'
asbag56
(g77
g58
NtRp3791
(dp3792
g61
(dp3793
sg70
g3779
sg63
(lp3794
g56
(g57
g58
NtRp3795
(dp3796
g61
(dp3797
g69
I3
ssg70
g3791
sg63
(lp3798
S''
asbasbasbag56
(g72
g58
NtRp3799
(dp3800
g61
(dp3801
sg70
g3695
sg63
(lp3802
g56
(g77
g58
NtRp3803
(dp3804
g61
(dp3805
g81
g82
ssg70
g3799
sg63
(lp3806
g387
asbag56
(g77
g58
NtRp3807
(dp3808
g61
(dp3809
g88
g89
ssg70
g3799
sg63
(lp3810
S':'
asbag56
(g77
g58
NtRp3811
(dp3812
g61
(dp3813
sg70
g3799
sg63
(lp3814
g56
(g57
g58
NtRp3815
(dp3816
g61
(dp3817
g69
I3
ssg70
g3811
sg63
(lp3818
S'/'
asbasbasbag56
(g72
g58
NtRp3819
(dp3820
g61
(dp3821
sg70
g3695
sg63
(lp3822
g56
(g77
g58
NtRp3823
(dp3824
g61
(dp3825
g81
g82
ssg70
g3819
sg63
(lp3826
g408
asbag56
(g77
g58
NtRp3827
(dp3828
g61
(dp3829
g88
g89
ssg70
g3819
sg63
(lp3830
S':'
asbag56
(g77
g58
NtRp3831
(dp3832
g61
(dp3833
sg70
g3819
sg63
(lp3834
g56
(g57
g58
NtRp3835
(dp3836
g61
(dp3837
g69
I3
ssg70
g3831
sg63
(lp3838
S''
asbasbasbag56
(g72
g58
NtRp3839
(dp3840
g61
(dp3841
sg70
g3695
sg63
(lp3842
g56
(g77
g58
NtRp3843
(dp3844
g61
(dp3845
g81
g82
ssg70
g3839
sg63
(lp3846
g429
asbag56
(g77
g58
NtRp3847
(dp3848
g61
(dp3849
g88
g89
ssg70
g3839
sg63
(lp3850
S':'
asbag56
(g77
g58
NtRp3851
(dp3852
g61
(dp3853
sg70
g3839
sg63
(lp3854
g56
(g57
g58
NtRp3855
(dp3856
g61
(dp3857
g69
I3
ssg70
g3851
sg63
(lp3858
S''
asbasbasbasbasbasbasbasbasbasbasbag56
(g72
g58
NtRp3859
(dp3860
g61
(dp3861
sg70
g3625
sg63
(lp3862
g56
(g77
g58
NtRp3863
(dp3864
g61
(dp3865
g81
g82
ssg70
g3859
sg63
(lp3866
S'files'
p3867
asbag56
(g77
g58
NtRp3868
(dp3869
g61
(dp3870
g88
g89
ssg70
g3859
sg63
(lp3871
S':'
asbag56
(g77
g58
NtRp3872
(dp3873
g61
(dp3874
sg70
g3859
sg63
(lp3875
g56
(g57
g58
NtRp3876
(dp3877
g61
(dp3878
g69
I5
ssg70
g3872
sg63
(lp3879
g56
(g65
g58
NtRp3880
(dp3881
g61
(dp3882
g69
I4
ssg70
Nsg63
(lp3883
sbasbasbasbag56
(g72
g58
NtRp3884
(dp3885
g61
(dp3886
sg70
g3625
sg63
(lp3887
g56
(g77
g58
NtRp3888
(dp3889
g61
(dp3890
g81
g82
ssg70
g3884
sg63
(lp3891
S'flash'
p3892
asbag56
(g77
g58
NtRp3893
(dp3894
g61
(dp3895
g88
g89
ssg70
g3884
sg63
(lp3896
S':'
asbag56
(g77
g58
NtRp3897
(dp3898
g61
(dp3899
sg70
g3884
sg63
(lp3900
g56
(g57
g58
NtRp3901
(dp3902
g61
(dp3903
g69
I5
ssg70
g3897
sg63
(lp3904
S''
asbasbasbag56
(g72
g58
NtRp3905
(dp3906
g61
(dp3907
sg70
g3625
sg63
(lp3908
g56
(g77
g58
NtRp3909
(dp3910
g61
(dp3911
g81
g82
ssg70
g3905
sg63
(lp3912
S'generic_patterns'
p3913
asbag56
(g77
g58
NtRp3914
(dp3915
g61
(dp3916
g88
g89
ssg70
g3905
sg63
(lp3917
S':'
asbag56
(g77
g58
NtRp3918
(dp3919
g61
(dp3920
sg70
g3905
sg63
(lp3921
g56
(g57
g58
NtRp3922
(dp3923
g61
(dp3924
g69
I5
ssg70
g3918
sg63
(lp3925
g56
(g65
g58
NtRp3926
(dp3927
g61
(dp3928
g69
I4
ssg70
Nsg63
(lp3929
sbasbasbasbag56
(g72
g58
NtRp3930
(dp3931
g61
(dp3932
sg70
g3625
sg63
(lp3933
g56
(g77
g58
NtRp3934
(dp3935
g61
(dp3936
g81
g82
ssg70
g3930
sg63
(lp3937
S'headers'
p3938
asbag56
(g77
g58
NtRp3939
(dp3940
g61
(dp3941
g88
g89
ssg70
g3930
sg63
(lp3942
S':'
asbag56
(g77
g58
NtRp3943
(dp3944
g61
(dp3945
sg70
g3930
sg63
(lp3946
g56
(g57
g58
NtRp3947
(dp3948
g61
(dp3949
g69
I5
ssg70
g3943
sg63
(lp3950
g56
(g65
g58
NtRp3951
(dp3952
g61
(dp3953
g69
I4
ssg70
Nsg63
(lp3954
g56
(g72
g58
NtRp3955
(dp3956
g61
(dp3957
sg70
g3951
sg63
(lp3958
g56
(g77
g58
NtRp3959
(dp3960
g61
(dp3961
g81
g82
ssg70
g3955
sg63
(lp3962
S'Cache-Control'
p3963
asbag56
(g77
g58
NtRp3964
(dp3965
g61
(dp3966
g88
g89
ssg70
g3955
sg63
(lp3967
S':'
asbag56
(g77
g58
NtRp3968
(dp3969
g61
(dp3970
sg70
g3955
sg63
(lp3971
g56
(g57
g58
NtRp3972
(dp3973
g61
(dp3974
g69
I4
ssg70
g3968
sg63
(lp3975
S'no-store, no-cache, must-revalidate, post-check=0, pre-check=0'
p3976
asbasbasbag56
(g72
g58
NtRp3977
(dp3978
g61
(dp3979
sg70
g3951
sg63
(lp3980
g56
(g77
g58
NtRp3981
(dp3982
g61
(dp3983
g81
g82
ssg70
g3977
sg63
(lp3984
S'Content-Type'
p3985
asbag56
(g77
g58
NtRp3986
(dp3987
g61
(dp3988
g88
g89
ssg70
g3977
sg63
(lp3989
S':'
asbag56
(g77
g58
NtRp3990
(dp3991
g61
(dp3992
sg70
g3977
sg63
(lp3993
g56
(g57
g58
NtRp3994
(dp3995
g61
(dp3996
g69
I4
ssg70
g3990
sg63
(lp3997
S'text/html; charset=utf-8'
p3998
asbasbasbag56
(g72
g58
NtRp3999
(dp4000
g61
(dp4001
sg70
g3951
sg63
(lp4002
g56
(g77
g58
NtRp4003
(dp4004
g61
(dp4005
g81
g82
ssg70
g3999
sg63
(lp4006
S'Expires'
p4007
asbag56
(g77
g58
NtRp4008
(dp4009
g61
(dp4010
g88
g89
ssg70
g3999
sg63
(lp4011
S':'
asbag56
(g77
g58
NtRp4012
(dp4013
g61
(dp4014
sg70
g3999
sg63
(lp4015
g56
(g57
g58
NtRp4016
(dp4017
g61
(dp4018
g69
I4
ssg70
g4012
sg63
(lp4019
S'Mon, 12 Sep 2011 18:14:04 GMT'
p4020
asbasbasbag56
(g72
g58
NtRp4021
(dp4022
g61
(dp4023
sg70
g3951
sg63
(lp4024
g56
(g77
g58
NtRp4025
(dp4026
g61
(dp4027
g81
g82
ssg70
g4021
sg63
(lp4028
S'Pragma'
p4029
asbag56
(g77
g58
NtRp4030
(dp4031
g61
(dp4032
g88
g89
ssg70
g4021
sg63
(lp4033
S':'
asbag56
(g77
g58
NtRp4034
(dp4035
g61
(dp4036
sg70
g4021
sg63
(lp4037
g56
(g57
g58
NtRp4038
(dp4039
g61
(dp4040
g69
I4
ssg70
g4034
sg63
(lp4041
S'no-cache'
p4042
asbasbasbag56
(g72
g58
NtRp4043
(dp4044
g61
(dp4045
sg70
g3951
sg63
(lp4046
g56
(g77
g58
NtRp4047
(dp4048
g61
(dp4049
g81
g82
ssg70
g4043
sg63
(lp4050
S'X-Powered-By'
p4051
asbag56
(g77
g58
NtRp4052
(dp4053
g61
(dp4054
g88
g89
ssg70
g4043
sg63
(lp4055
S':'
asbag56
(g77
g58
NtRp4056
(dp4057
g61
(dp4058
sg70
g4043
sg63
(lp4059
g56
(g57
g58
NtRp4060
(dp4061
g61
(dp4062
g69
I4
ssg70
g4056
sg63
(lp4063
S'web2py'
p4064
asbasbasbasbasbasbasbag56
(g72
g58
NtRp4065
(dp4066
g61
(dp4067
sg70
g3625
sg63
(lp4068
g56
(g77
g58
NtRp4069
(dp4070
g61
(dp4071
g81
g82
ssg70
g4065
sg63
(lp4072
S'menu'
p4073
asbag56
(g77
g58
NtRp4074
(dp4075
g61
(dp4076
g88
g89
ssg70
g4065
sg63
(lp4077
S':'
asbag56
(g77
g58
NtRp4078
(dp4079
g61
(dp4080
sg70
g4065
sg63
(lp4081
g56
(g57
g58
NtRp4082
(dp4083
g61
(dp4084
g69
I5
ssg70
g4078
sg63
(lp4085
g56
(g65
g58
NtRp4086
(dp4087
g61
(dp4088
g69
I4
ssg70
Nsg63
(lp4089
g56
(g72
g58
NtRp4090
(dp4091
g61
(dp4092
sg70
g4086
sg63
(lp4093
g56
(g77
g58
NtRp4094
(dp4095
g61
(dp4096
sg70
g4090
sg63
(lp4097
g56
(g57
g58
NtRp4098
(dp4099
g61
(dp4100
g69
I4
ssg70
g4094
sg63
(lp4101
g56
(g65
g58
NtRp4102
(dp4103
g61
(dp4104
g69
I3
ssg70
Nsg63
(lp4105
g56
(g72
g58
NtRp4106
(dp4107
g61
(dp4108
sg70
g4102
sg63
(lp4109
g56
(g77
g58
NtRp4110
(dp4111
g61
(dp4112
sg70
g4106
sg63
(lp4113
g56
(g57
g58
NtRp4114
(dp4115
g61
(dp4116
g69
I3
ssg70
g4110
sg63
(lp4117
cgluon.languages
lazyT_unpickle
p4118
(S't\x04\x00\x00\x00Home'
tRp4119
asbasbasbag56
(g72
g58
NtRp4120
(dp4121
g61
(dp4122
sg70
g4102
sg63
(lp4123
g56
(g77
g58
NtRp4124
(dp4125
g61
(dp4126
sg70
g4120
sg63
(lp4127
g56
(g57
g58
NtRp4128
(dp4129
g61
(dp4130
g69
I3
ssg70
g4124
sg63
(lp4131
g99
asbasbasbag56
(g72
g58
NtRp4132
(dp4133
g61
(dp4134
sg70
g4102
sg63
(lp4135
g56
(g77
g58
NtRp4136
(dp4137
g61
(dp4138
sg70
g4132
sg63
(lp4139
g56
(g57
g58
NtRp4140
(dp4141
g61
(dp4142
g69
I3
ssg70
g4136
sg63
(lp4143
S'/scrum/default/index'
p4144
asbasbasbag56
(g72
g58
NtRp4145
(dp4146
g61
(dp4147
sg70
g4102
sg63
(lp4148
g56
(g77
g58
NtRp4149
(dp4150
g61
(dp4151
sg70
g4145
sg63
(lp4152
g56
(g57
g58
NtRp4153
(dp4154
g61
(dp4155
g69
I3
ssg70
g4149
sg63
(lp4156
g56
(g65
g58
NtRp4157
(dp4158
g61
(dp4159
g69
I2
ssg70
Nsg63
(lp4160
sbasbasbasbasbasbasbasbag56
(g72
g58
NtRp4161
(dp4162
g61
(dp4163
sg70
g4086
sg63
(lp4164
g56
(g77
g58
NtRp4165
(dp4166
g61
(dp4167
sg70
g4161
sg63
(lp4168
g56
(g57
g58
NtRp4169
(dp4170
g61
(dp4171
g69
I4
ssg70
g4165
sg63
(lp4172
g56
(g65
g58
NtRp4173
(dp4174
g61
(dp4175
g69
I3
ssg70
Nsg63
(lp4176
g56
(g72
g58
NtRp4177
(dp4178
g61
(dp4179
sg70
g4173
sg63
(lp4180
g56
(g77
g58
NtRp4181
(dp4182
g61
(dp4183
sg70
g4177
sg63
(lp4184
g56
(g57
g58
NtRp4185
(dp4186
g61
(dp4187
g69
I3
ssg70
g4181
sg63
(lp4188
g4118
(S't\x03\x00\x00\x00BIV'
tRp4189
asbasbasbag56
(g72
g58
NtRp4190
(dp4191
g61
(dp4192
sg70
g4173
sg63
(lp4193
g56
(g77
g58
NtRp4194
(dp4195
g61
(dp4196
sg70
g4190
sg63
(lp4197
g56
(g57
g58
NtRp4198
(dp4199
g61
(dp4200
g69
I3
ssg70
g4194
sg63
(lp4201
g99
asbasbasbag56
(g72
g58
NtRp4202
(dp4203
g61
(dp4204
sg70
g4173
sg63
(lp4205
g56
(g77
g58
NtRp4206
(dp4207
g61
(dp4208
sg70
g4202
sg63
(lp4209
g56
(g57
g58
NtRp4210
(dp4211
g61
(dp4212
g69
I3
ssg70
g4206
sg63
(lp4213
S''
asbasbasbag56
(g72
g58
NtRp4214
(dp4215
g61
(dp4216
sg70
g4173
sg63
(lp4217
g56
(g77
g58
NtRp4218
(dp4219
g61
(dp4220
sg70
g4214
sg63
(lp4221
g56
(g57
g58
NtRp4222
(dp4223
g61
(dp4224
g69
I3
ssg70
g4218
sg63
(lp4225
g56
(g65
g58
NtRp4226
(dp4227
g61
(dp4228
g69
I2
ssg70
Nsg63
(lp4229
g56
(g72
g58
NtRp4230
(dp4231
g61
(dp4232
sg70
g4226
sg63
(lp4233
g56
(g77
g58
NtRp4234
(dp4235
g61
(dp4236
sg70
g4230
sg63
(lp4237
g56
(g57
g58
NtRp4238
(dp4239
g61
(dp4240
g69
I2
ssg70
g4234
sg63
(lp4241
g56
(g65
g58
NtRp4242
(dp4243
g61
(dp4244
g69
I1
ssg70
Nsg63
(lp4245
g56
(g72
g58
NtRp4246
(dp4247
g61
(dp4248
sg70
g4242
sg63
(lp4249
g56
(g77
g58
NtRp4250
(dp4251
g61
(dp4252
sg70
g4246
sg63
(lp4253
g56
(g57
g58
NtRp4254
(dp4255
g61
(dp4256
g69
I1
ssg70
g4250
sg63
(lp4257
g4118
(S't\x04\x00\x00\x00Novo'
tRp4258
asbasbasbag56
(g72
g58
NtRp4259
(dp4260
g61
(dp4261
sg70
g4242
sg63
(lp4262
g56
(g77
g58
NtRp4263
(dp4264
g61
(dp4265
sg70
g4259
sg63
(lp4266
g56
(g57
g58
NtRp4267
(dp4268
g61
(dp4269
g69
I1
ssg70
g4263
sg63
(lp4270
I00
asbasbasbag56
(g72
g58
NtRp4271
(dp4272
g61
(dp4273
sg70
g4242
sg63
(lp4274
g56
(g77
g58
NtRp4275
(dp4276
g61
(dp4277
sg70
g4271
sg63
(lp4278
g56
(g57
g58
NtRp4279
(dp4280
g61
(dp4281
g69
I1
ssg70
g4275
sg63
(lp4282
S'/scrum/default/novo_biv'
p4283
asbasbasbag56
(g72
g58
NtRp4284
(dp4285
g61
(dp4286
sg70
g4242
sg63
(lp4287
g56
(g77
g58
NtRp4288
(dp4289
g61
(dp4290
sg70
g4284
sg63
(lp4291
g56
(g57
g58
NtRp4292
(dp4293
g61
(dp4294
g69
I1
ssg70
g4288
sg63
(lp4295
(lp4296
asbasbasbasbasbasbasbag56
(g72
g58
NtRp4297
(dp4298
g61
(dp4299
sg70
g4226
sg63
(lp4300
g56
(g77
g58
NtRp4301
(dp4302
g61
(dp4303
sg70
g4297
sg63
(lp4304
g56
(g57
g58
NtRp4305
(dp4306
g61
(dp4307
g69
I2
ssg70
g4301
sg63
(lp4308
g56
(g65
g58
NtRp4309
(dp4310
g61
(dp4311
g69
I1
ssg70
Nsg63
(lp4312
g56
(g72
g58
NtRp4313
(dp4314
g61
(dp4315
sg70
g4309
sg63
(lp4316
g56
(g77
g58
NtRp4317
(dp4318
g61
(dp4319
sg70
g4313
sg63
(lp4320
g56
(g57
g58
NtRp4321
(dp4322
g61
(dp4323
g69
I1
ssg70
g4317
sg63
(lp4324
g4118
(S't\n\x00\x00\x00Selecionar'
tRp4325
asbasbasbag56
(g72
g58
NtRp4326
(dp4327
g61
(dp4328
sg70
g4309
sg63
(lp4329
g56
(g77
g58
NtRp4330
(dp4331
g61
(dp4332
sg70
g4326
sg63
(lp4333
g56
(g57
g58
NtRp4334
(dp4335
g61
(dp4336
g69
I1
ssg70
g4330
sg63
(lp4337
I00
asbasbasbag56
(g72
g58
NtRp4338
(dp4339
g61
(dp4340
sg70
g4309
sg63
(lp4341
g56
(g77
g58
NtRp4342
(dp4343
g61
(dp4344
sg70
g4338
sg63
(lp4345
g56
(g57
g58
NtRp4346
(dp4347
g61
(dp4348
g69
I1
ssg70
g4342
sg63
(lp4349
S'/scrum/default/selecionar_biv'
p4350
asbasbasbag56
(g72
g58
NtRp4351
(dp4352
g61
(dp4353
sg70
g4309
sg63
(lp4354
g56
(g77
g58
NtRp4355
(dp4356
g61
(dp4357
sg70
g4351
sg63
(lp4358
g56
(g57
g58
NtRp4359
(dp4360
g61
(dp4361
g69
I1
ssg70
g4355
sg63
(lp4362
(lp4363
asbasbasbasbasbasbasbasbasbasbasbasbasbasbasbag56
(g72
g58
NtRp4364
(dp4365
g61
(dp4366
sg70
g4086
sg63
(lp4367
g56
(g77
g58
NtRp4368
(dp4369
g61
(dp4370
sg70
g4364
sg63
(lp4371
g56
(g57
g58
NtRp4372
(dp4373
g61
(dp4374
g69
I4
ssg70
g4368
sg63
(lp4375
g56
(g65
g58
NtRp4376
(dp4377
g61
(dp4378
g69
I3
ssg70
Nsg63
(lp4379
g56
(g72
g58
NtRp4380
(dp4381
g61
(dp4382
sg70
g4376
sg63
(lp4383
g56
(g77
g58
NtRp4384
(dp4385
g61
(dp4386
sg70
g4380
sg63
(lp4387
g56
(g57
g58
NtRp4388
(dp4389
g61
(dp4390
g69
I3
ssg70
g4384
sg63
(lp4391
g4118
(S't\x07\x00\x00\x00Tickets'
tRp4392
asbasbasbag56
(g72
g58
NtRp4393
(dp4394
g61
(dp4395
sg70
g4376
sg63
(lp4396
g56
(g77
g58
NtRp4397
(dp4398
g61
(dp4399
sg70
g4393
sg63
(lp4400
g56
(g57
g58
NtRp4401
(dp4402
g61
(dp4403
g69
I3
ssg70
g4397
sg63
(lp4404
g99
asbasbasbag56
(g72
g58
NtRp4405
(dp4406
g61
(dp4407
sg70
g4376
sg63
(lp4408
g56
(g77
g58
NtRp4409
(dp4410
g61
(dp4411
sg70
g4405
sg63
(lp4412
g56
(g57
g58
NtRp4413
(dp4414
g61
(dp4415
g69
I3
ssg70
g4409
sg63
(lp4416
S'/scrum/ticket/index'
p4417
asbasbasbag56
(g72
g58
NtRp4418
(dp4419
g61
(dp4420
sg70
g4376
sg63
(lp4421
g56
(g77
g58
NtRp4422
(dp4423
g61
(dp4424
sg70
g4418
sg63
(lp4425
g56
(g57
g58
NtRp4426
(dp4427
g61
(dp4428
g69
I3
ssg70
g4422
sg63
(lp4429
g56
(g65
g58
NtRp4430
(dp4431
g61
(dp4432
g69
I2
ssg70
Nsg63
(lp4433
g56
(g72
g58
NtRp4434
(dp4435
g61
(dp4436
sg70
g4430
sg63
(lp4437
g56
(g77
g58
NtRp4438
(dp4439
g61
(dp4440
sg70
g4434
sg63
(lp4441
g56
(g57
g58
NtRp4442
(dp4443
g61
(dp4444
g69
I2
ssg70
g4438
sg63
(lp4445
g56
(g65
g58
NtRp4446
(dp4447
g61
(dp4448
g69
I1
ssg70
Nsg63
(lp4449
g56
(g72
g58
NtRp4450
(dp4451
g61
(dp4452
sg70
g4446
sg63
(lp4453
g56
(g77
g58
NtRp4454
(dp4455
g61
(dp4456
sg70
g4450
sg63
(lp4457
g56
(g57
g58
NtRp4458
(dp4459
g61
(dp4460
g69
I1
ssg70
g4454
sg63
(lp4461
g4118
(S't\x04\x00\x00\x00Novo'
tRp4462
asbasbasbag56
(g72
g58
NtRp4463
(dp4464
g61
(dp4465
sg70
g4446
sg63
(lp4466
g56
(g77
g58
NtRp4467
(dp4468
g61
(dp4469
sg70
g4463
sg63
(lp4470
g56
(g57
g58
NtRp4471
(dp4472
g61
(dp4473
g69
I1
ssg70
g4467
sg63
(lp4474
I00
asbasbasbag56
(g72
g58
NtRp4475
(dp4476
g61
(dp4477
sg70
g4446
sg63
(lp4478
g56
(g77
g58
NtRp4479
(dp4480
g61
(dp4481
sg70
g4475
sg63
(lp4482
g56
(g57
g58
NtRp4483
(dp4484
g61
(dp4485
g69
I1
ssg70
g4479
sg63
(lp4486
S'/scrum/ticket/novo'
p4487
asbasbasbag56
(g72
g58
NtRp4488
(dp4489
g61
(dp4490
sg70
g4446
sg63
(lp4491
g56
(g77
g58
NtRp4492
(dp4493
g61
(dp4494
sg70
g4488
sg63
(lp4495
g56
(g57
g58
NtRp4496
(dp4497
g61
(dp4498
g69
I1
ssg70
g4492
sg63
(lp4499
(lp4500
asbasbasbasbasbasbasbag56
(g72
g58
NtRp4501
(dp4502
g61
(dp4503
sg70
g4430
sg63
(lp4504
g56
(g77
g58
NtRp4505
(dp4506
g61
(dp4507
sg70
g4501
sg63
(lp4508
g56
(g57
g58
NtRp4509
(dp4510
g61
(dp4511
g69
I2
ssg70
g4505
sg63
(lp4512
g56
(g65
g58
NtRp4513
(dp4514
g61
(dp4515
g69
I1
ssg70
Nsg63
(lp4516
g56
(g72
g58
NtRp4517
(dp4518
g61
(dp4519
sg70
g4513
sg63
(lp4520
g56
(g77
g58
NtRp4521
(dp4522
g61
(dp4523
sg70
g4517
sg63
(lp4524
g56
(g57
g58
NtRp4525
(dp4526
g61
(dp4527
g69
I1
ssg70
g4521
sg63
(lp4528
g4118
(S't\n\x00\x00\x00Selecionar'
tRp4529
asbasbasbag56
(g72
g58
NtRp4530
(dp4531
g61
(dp4532
sg70
g4513
sg63
(lp4533
g56
(g77
g58
NtRp4534
(dp4535
g61
(dp4536
sg70
g4530
sg63
(lp4537
g56
(g57
g58
NtRp4538
(dp4539
g61
(dp4540
g69
I1
ssg70
g4534
sg63
(lp4541
I00
asbasbasbag56
(g72
g58
NtRp4542
(dp4543
g61
(dp4544
sg70
g4513
sg63
(lp4545
g56
(g77
g58
NtRp4546
(dp4547
g61
(dp4548
sg70
g4542
sg63
(lp4549
g56
(g57
g58
NtRp4550
(dp4551
g61
(dp4552
g69
I1
ssg70
g4546
sg63
(lp4553
S'/scrum/ticket/index'
p4554
asbasbasbag56
(g72
g58
NtRp4555
(dp4556
g61
(dp4557
sg70
g4513
sg63
(lp4558
g56
(g77
g58
NtRp4559
(dp4560
g61
(dp4561
sg70
g4555
sg63
(lp4562
g56
(g57
g58
NtRp4563
(dp4564
g61
(dp4565
g69
I1
ssg70
g4559
sg63
(lp4566
(lp4567
asbasbasbasbasbasbasbasbasbasbasbasbasbasbasbag56
(g72
g58
NtRp4568
(dp4569
g61
(dp4570
sg70
g4086
sg63
(lp4571
g56
(g77
g58
NtRp4572
(dp4573
g61
(dp4574
sg70
g4568
sg63
(lp4575
g56
(g57
g58
NtRp4576
(dp4577
g61
(dp4578
g69
I4
ssg70
g4572
sg63
(lp4579
g56
(g65
g58
NtRp4580
(dp4581
g61
(dp4582
g69
I3
ssg70
Nsg63
(lp4583
g56
(g72
g58
NtRp4584
(dp4585
g61
(dp4586
sg70
g4580
sg63
(lp4587
g56
(g77
g58
NtRp4588
(dp4589
g61
(dp4590
sg70
g4584
sg63
(lp4591
g56
(g57
g58
NtRp4592
(dp4593
g61
(dp4594
g69
I3
ssg70
g4588
sg63
(lp4595
g4118
(S't\x06\x00\x00\x00Sprint'
tRp4596
asbasbasbag56
(g72
g58
NtRp4597
(dp4598
g61
(dp4599
sg70
g4580
sg63
(lp4600
g56
(g77
g58
NtRp4601
(dp4602
g61
(dp4603
sg70
g4597
sg63
(lp4604
g56
(g57
g58
NtRp4605
(dp4606
g61
(dp4607
g69
I3
ssg70
g4601
sg63
(lp4608
g99
asbasbasbag56
(g72
g58
NtRp4609
(dp4610
g61
(dp4611
sg70
g4580
sg63
(lp4612
g56
(g77
g58
NtRp4613
(dp4614
g61
(dp4615
sg70
g4609
sg63
(lp4616
g56
(g57
g58
NtRp4617
(dp4618
g61
(dp4619
g69
I3
ssg70
g4613
sg63
(lp4620
S''
asbasbasbag56
(g72
g58
NtRp4621
(dp4622
g61
(dp4623
sg70
g4580
sg63
(lp4624
g56
(g77
g58
NtRp4625
(dp4626
g61
(dp4627
sg70
g4621
sg63
(lp4628
g56
(g57
g58
NtRp4629
(dp4630
g61
(dp4631
g69
I3
ssg70
g4625
sg63
(lp4632
g56
(g65
g58
NtRp4633
(dp4634
g61
(dp4635
g69
I2
ssg70
Nsg63
(lp4636
g56
(g72
g58
NtRp4637
(dp4638
g61
(dp4639
sg70
g4633
sg63
(lp4640
g56
(g77
g58
NtRp4641
(dp4642
g61
(dp4643
sg70
g4637
sg63
(lp4644
g56
(g57
g58
NtRp4645
(dp4646
g61
(dp4647
g69
I2
ssg70
g4641
sg63
(lp4648
g56
(g65
g58
NtRp4649
(dp4650
g61
(dp4651
g69
I1
ssg70
Nsg63
(lp4652
g56
(g72
g58
NtRp4653
(dp4654
g61
(dp4655
sg70
g4649
sg63
(lp4656
g56
(g77
g58
NtRp4657
(dp4658
g61
(dp4659
sg70
g4653
sg63
(lp4660
g56
(g57
g58
NtRp4661
(dp4662
g61
(dp4663
g69
I1
ssg70
g4657
sg63
(lp4664
g4118
(S't\x04\x00\x00\x00Novo'
tRp4665
asbasbasbag56
(g72
g58
NtRp4666
(dp4667
g61
(dp4668
sg70
g4649
sg63
(lp4669
g56
(g77
g58
NtRp4670
(dp4671
g61
(dp4672
sg70
g4666
sg63
(lp4673
g56
(g57
g58
NtRp4674
(dp4675
g61
(dp4676
g69
I1
ssg70
g4670
sg63
(lp4677
I00
asbasbasbag56
(g72
g58
NtRp4678
(dp4679
g61
(dp4680
sg70
g4649
sg63
(lp4681
g56
(g77
g58
NtRp4682
(dp4683
g61
(dp4684
sg70
g4678
sg63
(lp4685
g56
(g57
g58
NtRp4686
(dp4687
g61
(dp4688
g69
I1
ssg70
g4682
sg63
(lp4689
S'/scrum/sprint/novo'
p4690
asbasbasbag56
(g72
g58
NtRp4691
(dp4692
g61
(dp4693
sg70
g4649
sg63
(lp4694
g56
(g77
g58
NtRp4695
(dp4696
g61
(dp4697
sg70
g4691
sg63
(lp4698
g56
(g57
g58
NtRp4699
(dp4700
g61
(dp4701
g69
I1
ssg70
g4695
sg63
(lp4702
(lp4703
asbasbasbasbasbasbasbag56
(g72
g58
NtRp4704
(dp4705
g61
(dp4706
sg70
g4633
sg63
(lp4707
g56
(g77
g58
NtRp4708
(dp4709
g61
(dp4710
sg70
g4704
sg63
(lp4711
g56
(g57
g58
NtRp4712
(dp4713
g61
(dp4714
g69
I2
ssg70
g4708
sg63
(lp4715
g56
(g65
g58
NtRp4716
(dp4717
g61
(dp4718
g69
I1
ssg70
Nsg63
(lp4719
g56
(g72
g58
NtRp4720
(dp4721
g61
(dp4722
sg70
g4716
sg63
(lp4723
g56
(g77
g58
NtRp4724
(dp4725
g61
(dp4726
sg70
g4720
sg63
(lp4727
g56
(g57
g58
NtRp4728
(dp4729
g61
(dp4730
g69
I1
ssg70
g4724
sg63
(lp4731
g4118
(S't\n\x00\x00\x00Selecionar'
tRp4732
asbasbasbag56
(g72
g58
NtRp4733
(dp4734
g61
(dp4735
sg70
g4716
sg63
(lp4736
g56
(g77
g58
NtRp4737
(dp4738
g61
(dp4739
sg70
g4733
sg63
(lp4740
g56
(g57
g58
NtRp4741
(dp4742
g61
(dp4743
g69
I1
ssg70
g4737
sg63
(lp4744
I00
asbasbasbag56
(g72
g58
NtRp4745
(dp4746
g61
(dp4747
sg70
g4716
sg63
(lp4748
g56
(g77
g58
NtRp4749
(dp4750
g61
(dp4751
sg70
g4745
sg63
(lp4752
g56
(g57
g58
NtRp4753
(dp4754
g61
(dp4755
g69
I1
ssg70
g4749
sg63
(lp4756
S'/scrum/sprint/index'
p4757
asbasbasbag56
(g72
g58
NtRp4758
(dp4759
g61
(dp4760
sg70
g4716
sg63
(lp4761
g56
(g77
g58
NtRp4762
(dp4763
g61
(dp4764
sg70
g4758
sg63
(lp4765
g56
(g57
g58
NtRp4766
(dp4767
g61
(dp4768
g69
I1
ssg70
g4762
sg63
(lp4769
(lp4770
asbasbasbasbasbasbasbasbasbasbasbasbasbasbasbag56
(g72
g58
NtRp4771
(dp4772
g61
(dp4773
sg70
g4086
sg63
(lp4774
g56
(g77
g58
NtRp4775
(dp4776
g61
(dp4777
sg70
g4771
sg63
(lp4778
g56
(g57
g58
NtRp4779
(dp4780
g61
(dp4781
g69
I4
ssg70
g4775
sg63
(lp4782
g56
(g65
g58
NtRp4783
(dp4784
g61
(dp4785
g69
I3
ssg70
Nsg63
(lp4786
g56
(g72
g58
NtRp4787
(dp4788
g61
(dp4789
sg70
g4783
sg63
(lp4790
g56
(g77
g58
NtRp4791
(dp4792
g61
(dp4793
sg70
g4787
sg63
(lp4794
g56
(g57
g58
NtRp4795
(dp4796
g61
(dp4797
g69
I3
ssg70
g4791
sg63
(lp4798
g4118
(S't\x06\x00\x00\x00Config'
tRp4799
asbasbasbag56
(g72
g58
NtRp4800
(dp4801
g61
(dp4802
sg70
g4783
sg63
(lp4803
g56
(g77
g58
NtRp4804
(dp4805
g61
(dp4806
sg70
g4800
sg63
(lp4807
g56
(g57
g58
NtRp4808
(dp4809
g61
(dp4810
g69
I3
ssg70
g4804
sg63
(lp4811
g99
asbasbasbag56
(g72
g58
NtRp4812
(dp4813
g61
(dp4814
sg70
g4783
sg63
(lp4815
g56
(g77
g58
NtRp4816
(dp4817
g61
(dp4818
sg70
g4812
sg63
(lp4819
g56
(g57
g58
NtRp4820
(dp4821
g61
(dp4822
g69
I3
ssg70
g4816
sg63
(lp4823
S''
asbasbasbag56
(g72
g58
NtRp4824
(dp4825
g61
(dp4826
sg70
g4783
sg63
(lp4827
g56
(g77
g58
NtRp4828
(dp4829
g61
(dp4830
sg70
g4824
sg63
(lp4831
g56
(g57
g58
NtRp4832
(dp4833
g61
(dp4834
g69
I3
ssg70
g4828
sg63
(lp4835
g56
(g65
g58
NtRp4836
(dp4837
g61
(dp4838
g69
I2
ssg70
Nsg63
(lp4839
g56
(g72
g58
NtRp4840
(dp4841
g61
(dp4842
sg70
g4836
sg63
(lp4843
g56
(g77
g58
NtRp4844
(dp4845
g61
(dp4846
sg70
g4840
sg63
(lp4847
g56
(g57
g58
NtRp4848
(dp4849
g61
(dp4850
g69
I2
ssg70
g4844
sg63
(lp4851
g56
(g65
g58
NtRp4852
(dp4853
g61
(dp4854
g69
I1
ssg70
Nsg63
(lp4855
g56
(g72
g58
NtRp4856
(dp4857
g61
(dp4858
sg70
g4852
sg63
(lp4859
g56
(g77
g58
NtRp4860
(dp4861
g61
(dp4862
sg70
g4856
sg63
(lp4863
g56
(g57
g58
NtRp4864
(dp4865
g61
(dp4866
g69
I1
ssg70
g4860
sg63
(lp4867
g4118
(S't\x05\x00\x00\x00Geral'
tRp4868
asbasbasbag56
(g72
g58
NtRp4869
(dp4870
g61
(dp4871
sg70
g4852
sg63
(lp4872
g56
(g77
g58
NtRp4873
(dp4874
g61
(dp4875
sg70
g4869
sg63
(lp4876
g56
(g57
g58
NtRp4877
(dp4878
g61
(dp4879
g69
I1
ssg70
g4873
sg63
(lp4880
I00
asbasbasbag56
(g72
g58
NtRp4881
(dp4882
g61
(dp4883
sg70
g4852
sg63
(lp4884
g56
(g77
g58
NtRp4885
(dp4886
g61
(dp4887
sg70
g4881
sg63
(lp4888
g56
(g57
g58
NtRp4889
(dp4890
g61
(dp4891
g69
I1
ssg70
g4885
sg63
(lp4892
S'/scrum/config/index'
p4893
asbasbasbag56
(g72
g58
NtRp4894
(dp4895
g61
(dp4896
sg70
g4852
sg63
(lp4897
g56
(g77
g58
NtRp4898
(dp4899
g61
(dp4900
sg70
g4894
sg63
(lp4901
g56
(g57
g58
NtRp4902
(dp4903
g61
(dp4904
g69
I1
ssg70
g4898
sg63
(lp4905
(lp4906
asbasbasbasbasbasbasbag56
(g72
g58
NtRp4907
(dp4908
g61
(dp4909
sg70
g4836
sg63
(lp4910
g56
(g77
g58
NtRp4911
(dp4912
g61
(dp4913
sg70
g4907
sg63
(lp4914
g56
(g57
g58
NtRp4915
(dp4916
g61
(dp4917
g69
I2
ssg70
g4911
sg63
(lp4918
g56
(g65
g58
NtRp4919
(dp4920
g61
(dp4921
g69
I1
ssg70
Nsg63
(lp4922
g56
(g72
g58
NtRp4923
(dp4924
g61
(dp4925
sg70
g4919
sg63
(lp4926
g56
(g77
g58
NtRp4927
(dp4928
g61
(dp4929
sg70
g4923
sg63
(lp4930
g56
(g57
g58
NtRp4931
(dp4932
g61
(dp4933
g69
I1
ssg70
g4927
sg63
(lp4934
g4118
(S's\x12\x00\x00\x00Estados de Tickets'
tRp4935
asbasbasbag56
(g72
g58
NtRp4936
(dp4937
g61
(dp4938
sg70
g4919
sg63
(lp4939
g56
(g77
g58
NtRp4940
(dp4941
g61
(dp4942
sg70
g4936
sg63
(lp4943
g56
(g57
g58
NtRp4944
(dp4945
g61
(dp4946
g69
I1
ssg70
g4940
sg63
(lp4947
I00
asbasbasbag56
(g72
g58
NtRp4948
(dp4949
g61
(dp4950
sg70
g4919
sg63
(lp4951
g56
(g77
g58
NtRp4952
(dp4953
g61
(dp4954
sg70
g4948
sg63
(lp4955
g56
(g57
g58
NtRp4956
(dp4957
g61
(dp4958
g69
I1
ssg70
g4952
sg63
(lp4959
S'/scrum/config/estado_ticket'
p4960
asbasbasbag56
(g72
g58
NtRp4961
(dp4962
g61
(dp4963
sg70
g4919
sg63
(lp4964
g56
(g77
g58
NtRp4965
(dp4966
g61
(dp4967
sg70
g4961
sg63
(lp4968
g56
(g57
g58
NtRp4969
(dp4970
g61
(dp4971
g69
I1
ssg70
g4965
sg63
(lp4972
(lp4973
asbasbasbasbasbasbasbasbasbasbasbasbasbasbasbasbasbasbasbag56
(g72
g58
NtRp4974
(dp4975
g61
(dp4976
sg70
g3625
sg63
(lp4977
g56
(g77
g58
NtRp4978
(dp4979
g61
(dp4980
g81
g82
ssg70
g4974
sg63
(lp4981
S'meta'
p4982
asbag56
(g77
g58
NtRp4983
(dp4984
g61
(dp4985
g88
g89
ssg70
g4974
sg63
(lp4986
S':'
asbag56
(g77
g58
NtRp4987
(dp4988
g61
(dp4989
sg70
g4974
sg63
(lp4990
g56
(g57
g58
NtRp4991
(dp4992
g61
(dp4993
g69
I5
ssg70
g4987
sg63
(lp4994
g56
(g65
g58
NtRp4995
(dp4996
g61
(dp4997
g69
I4
ssg70
Nsg63
(lp4998
g56
(g72
g58
NtRp4999
(dp5000
g61
(dp5001
sg70
g4995
sg63
(lp5002
g56
(g77
g58
NtRp5003
(dp5004
g61
(dp5005
g81
g82
ssg70
g4999
sg63
(lp5006
S'author'
p5007
asbag56
(g77
g58
NtRp5008
(dp5009
g61
(dp5010
g88
g89
ssg70
g4999
sg63
(lp5011
S':'
asbag56
(g77
g58
NtRp5012
(dp5013
g61
(dp5014
sg70
g4999
sg63
(lp5015
g56
(g57
g58
NtRp5016
(dp5017
g61
(dp5018
g69
I4
ssg70
g5012
sg63
(lp5019
S'Carlos J. Costa'
p5020
asbasbasbag56
(g72
g58
NtRp5021
(dp5022
g61
(dp5023
sg70
g4995
sg63
(lp5024
g56
(g77
g58
NtRp5025
(dp5026
g61
(dp5027
g81
g82
ssg70
g5021
sg63
(lp5028
S'copyright'
p5029
asbag56
(g77
g58
NtRp5030
(dp5031
g61
(dp5032
g88
g89
ssg70
g5021
sg63
(lp5033
S':'
asbag56
(g77
g58
NtRp5034
(dp5035
g61
(dp5036
sg70
g5021
sg63
(lp5037
g56
(g57
g58
NtRp5038
(dp5039
g61
(dp5040
g69
I4
ssg70
g5034
sg63
(lp5041
S'Copyright 2007-2010'
p5042
asbasbasbag56
(g72
g58
NtRp5043
(dp5044
g61
(dp5045
sg70
g4995
sg63
(lp5046
g56
(g77
g58
NtRp5047
(dp5048
g61
(dp5049
g81
g82
ssg70
g5043
sg63
(lp5050
S'description'
p5051
asbag56
(g77
g58
NtRp5052
(dp5053
g61
(dp5054
g88
g89
ssg70
g5043
sg63
(lp5055
S':'
asbag56
(g77
g58
NtRp5056
(dp5057
g61
(dp5058
sg70
g5043
sg63
(lp5059
g56
(g57
g58
NtRp5060
(dp5061
g61
(dp5062
g69
I4
ssg70
g5056
sg63
(lp5063
S'Development track'
p5064
asbasbasbag56
(g72
g58
NtRp5065
(dp5066
g61
(dp5067
sg70
g4995
sg63
(lp5068
g56
(g77
g58
NtRp5069
(dp5070
g61
(dp5071
g81
g82
ssg70
g5065
sg63
(lp5072
S'generator'
p5073
asbag56
(g77
g58
NtRp5074
(dp5075
g61
(dp5076
g88
g89
ssg70
g5065
sg63
(lp5077
S':'
asbag56
(g77
g58
NtRp5078
(dp5079
g61
(dp5080
sg70
g5065
sg63
(lp5081
g56
(g57
g58
NtRp5082
(dp5083
g61
(dp5084
g69
I4
ssg70
g5078
sg63
(lp5085
S'Web2py Enterprise Framework'
p5086
asbasbasbag56
(g72
g58
NtRp5087
(dp5088
g61
(dp5089
sg70
g4995
sg63
(lp5090
g56
(g77
g58
NtRp5091
(dp5092
g61
(dp5093
g81
g82
ssg70
g5087
sg63
(lp5094
S'keywords'
p5095
asbag56
(g77
g58
NtRp5096
(dp5097
g61
(dp5098
g88
g89
ssg70
g5087
sg63
(lp5099
S':'
asbag56
(g77
g58
NtRp5100
(dp5101
g61
(dp5102
sg70
g5087
sg63
(lp5103
g56
(g57
g58
NtRp5104
(dp5105
g61
(dp5106
g69
I4
ssg70
g5100
sg63
(lp5107
S'test, issue'
p5108
asbasbasbasbasbasbasbag56
(g72
g58
NtRp5109
(dp5110
g61
(dp5111
sg70
g3625
sg63
(lp5112
g56
(g77
g58
NtRp5113
(dp5114
g61
(dp5115
g81
g82
ssg70
g5109
sg63
(lp5116
S'postprocessing'
p5117
asbag56
(g77
g58
NtRp5118
(dp5119
g61
(dp5120
g88
g89
ssg70
g5109
sg63
(lp5121
S':'
asbag56
(g77
g58
NtRp5122
(dp5123
g61
(dp5124
sg70
g5109
sg63
(lp5125
g56
(g57
g58
NtRp5126
(dp5127
g61
(dp5128
g69
I5
ssg70
g5122
sg63
(lp5129
g56
(g65
g58
NtRp5130
(dp5131
g61
(dp5132
g69
I4
ssg70
Nsg63
(lp5133
sbasbasbasbag56
(g72
g58
NtRp5134
(dp5135
g61
(dp5136
sg70
g3625
sg63
(lp5137
g56
(g77
g58
NtRp5138
(dp5139
g61
(dp5140
g81
g82
ssg70
g5134
sg63
(lp5141
S'session_file'
p5142
asbag56
(g77
g58
NtRp5143
(dp5144
g61
(dp5145
g88
g89
ssg70
g5134
sg63
(lp5146
S':'
asbag56
(g77
g58
NtRp5147
(dp5148
g61
(dp5149
sg70
g5134
sg63
(lp5150
g56
(g57
g58
NtRp5151
(dp5152
g61
(dp5153
g69
I5
ssg70
g5147
sg63
(lp5154
S"<open file '/home/www-data/web2py/applications/scrum/sessions/127.0.0.1-acc155dc-1d39-4558-b401-1701a16e3472', mode 'rb+' at 0xb941df98>"
p5155
asbasbasbag56
(g72
g58
NtRp5156
(dp5157
g61
(dp5158
sg70
g3625
sg63
(lp5159
g56
(g77
g58
NtRp5160
(dp5161
g61
(dp5162
g81
g82
ssg70
g5156
sg63
(lp5163
S'session_filename'
p5164
asbag56
(g77
g58
NtRp5165
(dp5166
g61
(dp5167
g88
g89
ssg70
g5156
sg63
(lp5168
S':'
asbag56
(g77
g58
NtRp5169
(dp5170
g61
(dp5171
sg70
g5156
sg63
(lp5172
g56
(g57
g58
NtRp5173
(dp5174
g61
(dp5175
g69
I5
ssg70
g5169
sg63
(lp5176
S'/home/www-data/web2py/applications/scrum/sessions/127.0.0.1-acc155dc-1d39-4558-b401-1701a16e3472'
p5177
asbasbasbag56
(g72
g58
NtRp5178
(dp5179
g61
(dp5180
sg70
g3625
sg63
(lp5181
g56
(g77
g58
NtRp5182
(dp5183
g61
(dp5184
g81
g82
ssg70
g5178
sg63
(lp5185
S'session_id'
p5186
asbag56
(g77
g58
NtRp5187
(dp5188
g61
(dp5189
g88
g89
ssg70
g5178
sg63
(lp5190
S':'
asbag56
(g77
g58
NtRp5191
(dp5192
g61
(dp5193
sg70
g5178
sg63
(lp5194
g56
(g57
g58
NtRp5195
(dp5196
g61
(dp5197
g69
I5
ssg70
g5191
sg63
(lp5198
S'127.0.0.1-acc155dc-1d39-4558-b401-1701a16e3472'
p5199
asbasbasbag56
(g72
g58
NtRp5200
(dp5201
g61
(dp5202
sg70
g3625
sg63
(lp5203
g56
(g77
g58
NtRp5204
(dp5205
g61
(dp5206
g81
g82
ssg70
g5200
sg63
(lp5207
S'session_id_name'
p5208
asbag56
(g77
g58
NtRp5209
(dp5210
g61
(dp5211
g88
g89
ssg70
g5200
sg63
(lp5212
S':'
asbag56
(g77
g58
NtRp5213
(dp5214
g61
(dp5215
sg70
g5200
sg63
(lp5216
g56
(g57
g58
NtRp5217
(dp5218
g61
(dp5219
g69
I5
ssg70
g5213
sg63
(lp5220
g3682
asbasbasbag56
(g72
g58
NtRp5221
(dp5222
g61
(dp5223
sg70
g3625
sg63
(lp5224
g56
(g77
g58
NtRp5225
(dp5226
g61
(dp5227
g81
g82
ssg70
g5221
sg63
(lp5228
S'session_locked'
p5229
asbag56
(g77
g58
NtRp5230
(dp5231
g61
(dp5232
g88
g89
ssg70
g5221
sg63
(lp5233
S':'
asbag56
(g77
g58
NtRp5234
(dp5235
g61
(dp5236
sg70
g5221
sg63
(lp5237
g56
(g57
g58
NtRp5238
(dp5239
g61
(dp5240
g69
I5
ssg70
g5234
sg63
(lp5241
g1809
asbasbasbag56
(g72
g58
NtRp5242
(dp5243
g61
(dp5244
sg70
g3625
sg63
(lp5245
g56
(g77
g58
NtRp5246
(dp5247
g61
(dp5248
g81
g82
ssg70
g5242
sg63
(lp5249
S'session_new'
p5250
asbag56
(g77
g58
NtRp5251
(dp5252
g61
(dp5253
g88
g89
ssg70
g5242
sg63
(lp5254
S':'
asbag56
(g77
g58
NtRp5255
(dp5256
g61
(dp5257
sg70
g5242
sg63
(lp5258
g56
(g57
g58
NtRp5259
(dp5260
g61
(dp5261
g69
I5
ssg70
g5255
sg63
(lp5262
g99
asbasbasbag56
(g72
g58
NtRp5263
(dp5264
g61
(dp5265
sg70
g3625
sg63
(lp5266
g56
(g77
g58
NtRp5267
(dp5268
g61
(dp5269
g81
g82
ssg70
g5263
sg63
(lp5270
S'status'
p5271
asbag56
(g77
g58
NtRp5272
(dp5273
g61
(dp5274
g88
g89
ssg70
g5263
sg63
(lp5275
S':'
asbag56
(g77
g58
NtRp5276
(dp5277
g61
(dp5278
sg70
g5263
sg63
(lp5279
g56
(g57
g58
NtRp5280
(dp5281
g61
(dp5282
g69
I5
ssg70
g5276
sg63
(lp5283
S'200'
p5284
asbasbasbag56
(g72
g58
NtRp5285
(dp5286
g61
(dp5287
sg70
g3625
sg63
(lp5288
g56
(g77
g58
NtRp5289
(dp5290
g61
(dp5291
g81
g82
ssg70
g5285
sg63
(lp5292
S'subtitle'
p5293
asbag56
(g77
g58
NtRp5294
(dp5295
g61
(dp5296
g88
g89
ssg70
g5285
sg63
(lp5297
S':'
asbag56
(g77
g58
NtRp5298
(dp5299
g61
(dp5300
sg70
g5285
sg63
(lp5301
g56
(g57
g58
NtRp5302
(dp5303
g61
(dp5304
g69
I5
ssg70
g5298
sg63
(lp5305
g4118
(S's\x0f\x00\x00\x00Personalize-me!'
tRp5306
asbasbasbag56
(g72
g58
NtRp5307
(dp5308
g61
(dp5309
sg70
g3625
sg63
(lp5310
g56
(g77
g58
NtRp5311
(dp5312
g61
(dp5313
g81
g82
ssg70
g5307
sg63
(lp5314
S'title'
p5315
asbag56
(g77
g58
NtRp5316
(dp5317
g61
(dp5318
g88
g89
ssg70
g5307
sg63
(lp5319
S':'
asbag56
(g77
g58
NtRp5320
(dp5321
g61
(dp5322
sg70
g5307
sg63
(lp5323
g56
(g57
g58
NtRp5324
(dp5325
g61
(dp5326
g69
I5
ssg70
g5320
sg63
(lp5327
g121
asbasbasbag56
(g72
g58
NtRp5328
(dp5329
g61
(dp5330
sg70
g3625
sg63
(lp5331
g56
(g77
g58
NtRp5332
(dp5333
g61
(dp5334
g81
g82
ssg70
g5328
sg63
(lp5335
g2154
asbag56
(g77
g58
NtRp5336
(dp5337
g61
(dp5338
g88
g89
ssg70
g5328
sg63
(lp5339
S':'
asbag56
(g77
g58
NtRp5340
(dp5341
g61
(dp5342
sg70
g5328
sg63
(lp5343
g56
(g57
g58
NtRp5344
(dp5345
g61
(dp5346
g69
I5
ssg70
g5340
sg63
(lp5347
g2167
asbasbasbag56
(g72
g58
NtRp5348
(dp5349
g61
(dp5350
sg70
g3625
sg63
(lp5351
g56
(g77
g58
NtRp5352
(dp5353
g61
(dp5354
g81
g82
ssg70
g5348
sg63
(lp5355
S'view'
p5356
asbag56
(g77
g58
NtRp5357
(dp5358
g61
(dp5359
g88
g89
ssg70
g5348
sg63
(lp5360
S':'
asbag56
(g77
g58
NtRp5361
(dp5362
g61
(dp5363
sg70
g5348
sg63
(lp5364
g56
(g57
g58
NtRp5365
(dp5366
g61
(dp5367
g69
I5
ssg70
g5361
sg63
(lp5368
S'ticket/form_teste.html'
p5369
asbasbasbasbasbsS'locals'
p5370
(dp5371
S'insere_modulo'
p5372
S'<function insere_modulo>'
p5373
sS'OBJECT'
p5374
S"<class 'gluon.html.OBJECT'>"
p5375
sS'SQLDB'
p5376
S"<class 'gluon.dal.DAL'>"
p5377
sg3319
S"<Storage {'_formkey[ticket/1]': '7bbf3e596b09014...5\\x08\\x13\\x9c\\x0cf\\xf5\\xa9\\xdc\\xc4\\x8d\\xfe\\x02'}>"
p5378
sS'LINK'
p5379
S"<class 'gluon.html.LINK'>"
p5380
sS'BR'
p5381
S"<class 'gluon.html.BR'>"
p5382
sS'local_import'
p5383
S'<function <lambda>>'
p5384
sS'OPTGROUP'
p5385
S"<class 'gluon.html.OPTGROUP'>"
p5386
sS'config'
p5387
S"<Row {'grupo_desenvolvedor': 2, 'update_record':...lete_record': <function <lambda> at 0xb942910c>}>"
p5388
sS'ticket'
p5389
S"<Row {'chamado': '11447', 'local_teste': '', 'co... <function <lambda> at 0xb942956c>, 'fim': None}>"
p5390
sS'PRE'
p5391
S"<class 'gluon.html.PRE'>"
p5392
sS'IS_INT_IN_RANGE'
p5393
S"<class 'gluon.validators.IS_INT_IN_RANGE'>"
p5394
sS'Service'
p5395
S"<class 'gluon.tools.Service'>"
p5396
sS'IS_LOWER'
p5397
S"<class 'gluon.validators.IS_LOWER'>"
p5398
sS'IS_STRONG'
p5399
S"<class 'gluon.validators.IS_STRONG'>"
p5400
sS'Recaptcha'
p5401
S"<class 'gluon.tools.Recaptcha'>"
p5402
sS'cache'
p5403
S'<gluon.cache.Cache object>'
p5404
sS'IS_IN_DB'
p5405
S"<class 'gluon.validators.IS_IN_DB'>"
p5406
sS'TAG'
p5407
S'<gluon.html.__TAG__ object>'
p5408
sS'SQLField'
p5409
S"<class 'gluon.dal.Field'>"
p5410
sS'mail'
p5411
S'<gluon.tools.Mail object>'
p5412
sS'BODY'
p5413
S"<class 'gluon.html.BODY'>"
p5414
sS'IS_DATE_IN_RANGE'
p5415
S"<class 'gluon.validators.IS_DATE_IN_RANGE'>"
p5416
sS'TH'
p5417
S"<class 'gluon.html.TH'>"
p5418
sS'URL'
p5419
S'<function URL>'
p5420
sS'__file__'
p5421
S"'/home/www-data/web2py/applications/scrum/views/ticket/form_teste.html'"
p5422
sS'db'
p5423
S"<DAL {'auth_event': <Table {'origin': <gluon.dal... 'id': <gluon.dal.Field object at 0xb8f7ed4c>}>}>"
p5424
sS'auth'
p5425
S'<gluon.tools.Auth object>'
p5426
sS'P'
S"<class 'gluon.html.P'>"
p5427
sS'TFOOT'
p5428
S"<class 'gluon.html.TFOOT'>"
p5429
sS'XHTML'
p5430
S"<class 'gluon.html.XHTML'>"
p5431
sS'ON'
p5432
g1809
sS'OL'
p5433
S"<class 'gluon.html.OL'>"
p5434
sS'TEXTAREA'
p5435
S"<class 'gluon.html.TEXTAREA'>"
p5436
sS'codepoint2name'
p5437
S"{34: 'quot', 38: 'amp', 60: 'lt', 62: 'gt', 160: 'nbsp', 161: 'iexcl', 162: 'cent', 163: 'pound', 164: 'curren', 165: 'yen', ...}"
p5438
sS'MENU'
p5439
S"<class 'gluon.html.MENU'>"
p5440
sS'IS_IMAGE'
p5441
S"<class 'gluon.validators.IS_IMAGE'>"
p5442
sS'LOAD'
p5443
S'<gluon.compileapp.LoadFactory object>'
p5444
sS'CODE'
p5445
S"<class 'gluon.html.CODE'>"
p5446
sS'HTTP'
p5447
S"<class 'gluon.http.HTTP'>"
p5448
sS'HR'
p5449
S"<class 'gluon.html.HR'>"
p5450
sS'IS_DATETIME'
p5451
S"<class 'gluon.validators.IS_DATETIME'>"
p5452
sS'HEAD'
p5453
S"<class 'gluon.html.HEAD'>"
p5454
sS'LABEL'
p5455
S"<class 'gluon.html.LABEL'>"
p5456
sS'META'
p5457
S"<class 'gluon.html.META'>"
p5458
sS'plugins'
p5459
S'<gluon.tools.PluginManager object>'
p5460
sS'SELECT'
p5461
S"<class 'gluon.html.SELECT'>"
p5462
sS'CENTER'
p5463
S"<class 'gluon.html.CENTER'>"
p5464
sS'prettydate'
p5465
S'<function prettydate>'
p5466
sS'Crud'
p5467
S"<class 'gluon.tools.Crud'>"
p5468
sS'Auth'
p5469
S"<class 'gluon.tools.Auth'>"
p5470
sS'IS_EQUAL_TO'
p5471
S"<class 'gluon.validators.IS_EQUAL_TO'>"
p5472
sS'insere_menu'
p5473
S'<function insere_menu>'
p5474
sS'SQLFORM'
p5475
S"<class 'gluon.sqlhtml.SQLFORM'>"
p5476
sS'EM'
p5477
S"<class 'gluon.html.EM'>"
p5478
sS'redirect'
p5479
S'<function redirect>'
p5480
sS'FIELDSET'
p5481
S"<class 'gluon.html.FIELDSET'>"
p5482
sS'__builtins__'
p5483
S"{'ArithmeticError': <type 'exceptions.ArithmeticError'>, 'AssertionError': <type 'exceptions.AssertionError'>, 'AttributeError': <type 'exceptions.AttributeError'>, 'BaseException': <type 'exceptions.BaseException'>, 'BufferError': <type 'exceptions.BufferError'>, 'BytesWarning': <type 'exceptions.BytesWarning'>, 'DeprecationWarning': <type 'exceptions.DeprecationWarning'>, 'EOFError': <type 'exceptions.EOFError'>, 'Ellipsis': Ellipsis, 'EnvironmentError': <type 'exceptions.EnvironmentError'>, ...}"
p5484
sS'embed64'
p5485
S'<function embed64>'
p5486
sS'IS_LIST_OF'
p5487
S"<class 'gluon.validators.IS_LIST_OF'>"
p5488
sS'INPUT'
p5489
S"<class 'gluon.html.INPUT'>"
p5490
sS'EMBED'
p5491
S"<class 'gluon.html.EMBED'>"
p5492
sS'H2'
p5493
S"<class 'gluon.html.H2'>"
p5494
sS'H3'
p5495
S"<class 'gluon.html.H3'>"
p5496
sS'BUTTON'
p5497
S"<class 'gluon.html.BUTTON'>"
p5498
sS'H1'
p5499
S"<class 'gluon.html.H1'>"
p5500
sS'H6'
p5501
S"<class 'gluon.html.H6'>"
p5502
sS'H4'
p5503
S"<class 'gluon.html.H4'>"
p5504
sS'H5'
p5505
S"<class 'gluon.html.H5'>"
p5506
sS'UL'
p5507
S"<class 'gluon.html.UL'>"
p5508
sS'IS_UPPER'
p5509
S"<class 'gluon.validators.IS_UPPER'>"
p5510
sS'xmlescape'
p5511
S'<function xmlescape>'
p5512
sS'IS_TIME'
p5513
S"<class 'gluon.validators.IS_TIME'>"
p5514
sS'OPTION'
p5515
S"<class 'gluon.html.OPTION'>"
p5516
sS'TITLE'
p5517
S"<class 'gluon.html.TITLE'>"
p5518
sS'CRYPT'
p5519
S"<class 'gluon.validators.CRYPT'>"
p5520
sS'IS_EMPTY_OR'
p5521
S"<class 'gluon.validators.IS_EMPTY_OR'>"
p5522
sS'MARKMIN'
p5523
S"<class 'gluon.html.MARKMIN'>"
p5524
sS'BRAZILIAN_DATE'
p5525
S'<gluon.validators.IS_DATE object>'
p5526
sS'service'
p5527
S'<gluon.tools.Service object>'
p5528
sS'SCRIPT'
p5529
S"<class 'gluon.html.SCRIPT'>"
p5530
sS'geocode'
p5531
S'<function geocode>'
p5532
sS'TABLE'
p5533
S"<class 'gluon.html.TABLE'>"
p5534
sS'IS_IPV4'
p5535
S"<class 'gluon.validators.IS_IPV4'>"
p5536
sS'IS_LENGTH'
p5537
S"<class 'gluon.validators.IS_LENGTH'>"
p5538
sS'XML'
p5539
S"<class 'gluon.html.XML'>"
p5540
sS'B'
S"<class 'gluon.html.B'>"
p5541
sS'IMG'
p5542
S"<class 'gluon.html.IMG'>"
p5543
sS'SQLTABLE'
p5544
S"<class 'gluon.sqlhtml.SQLTABLE'>"
p5545
sS'IS_MATCH'
p5546
S"<class 'gluon.validators.IS_MATCH'>"
p5547
sS'IS_ALPHANUMERIC'
p5548
S"<class 'gluon.validators.IS_ALPHANUMERIC'>"
p5549
sS'unicode2htmlentities'
p5550
S'<function unicode2htmlentities>'
p5551
sS'SPAN'
p5552
S"<class 'gluon.html.SPAN'>"
p5553
sS'IS_SLUG'
p5554
S"<class 'gluon.validators.IS_SLUG'>"
p5555
sS'CLEANUP'
p5556
S"<class 'gluon.validators.CLEANUP'>"
p5557
sS'fetch'
p5558
S'<function fetch>'
p5559
sS'IS_DATE'
p5560
S"<class 'gluon.validators.IS_DATE'>"
p5561
sS'IS_EMAIL'
p5562
S"<class 'gluon.validators.IS_EMAIL'>"
p5563
sS'IS_NOT_EMPTY'
p5564
S"<class 'gluon.validators.IS_NOT_EMPTY'>"
p5565
sg55
S"<Storage {'body': <cStringIO.StringO object at 0..._vars': <Storage {}>, 'post_vars': <Storage {}>}>"
p5566
sS'BEAUTIFY'
p5567
S"<class 'gluon.html.BEAUTIFY'>"
p5568
sS'TBODY'
p5569
S"<class 'gluon.html.TBODY'>"
p5570
sS'CAT'
p5571
S"<class 'gluon.html.CAT'>"
p5572
sS'Field'
p5573
S"<class 'gluon.dal.Field'>"
p5574
sS'Mail'
p5575
S"<class 'gluon.tools.Mail'>"
p5576
sS'DIV'
p5577
S"<class 'gluon.html.DIV'>"
p5578
sS'LEGEND'
p5579
S"<class 'gluon.html.LEGEND'>"
p5580
sS'DAL'
p5581
S"<class 'gluon.dal.DAL'>"
p5582
sS'TT'
p5583
S"<class 'gluon.html.TT'>"
p5584
sS'TR'
p5585
S"<class 'gluon.html.TR'>"
p5586
sS'LI'
p5587
S"<class 'gluon.html.LI'>"
p5588
sS'IFRAME'
p5589
S"<class 'gluon.html.IFRAME'>"
p5590
sS'TD'
p5591
S"<class 'gluon.html.TD'>"
p5592
sS'PluginManager'
p5593
S"<class 'gluon.tools.PluginManager'>"
p5594
sS'IS_URL'
p5595
S"<class 'gluon.validators.IS_URL'>"
p5596
sS'A'
S"<class 'gluon.html.A'>"
p5597
sS'STYLE'
p5598
S"<class 'gluon.html.STYLE'>"
p5599
sS'IS_DATETIME_IN_RANGE'
p5600
S"<class 'gluon.validators.IS_DATETIME_IN_RANGE'>"
p5601
sS'HTML'
p5602
S"<class 'gluon.html.HTML'>"
p5603
sS'FORM'
p5604
S"<class 'gluon.html.FORM'>"
p5605
sS'I'
S"<class 'gluon.html.I'>"
p5606
sS'crud'
p5607
S'<gluon.tools.Crud object>'
p5608
sS'IS_NOT_IN_DB'
p5609
S"<class 'gluon.validators.IS_NOT_IN_DB'>"
p5610
sg3620
S"<Storage {'body': <cStringIO.StringO object at 0...t 0xb942ee64>, 'view': 'ticket/form_teste.html'}>"
p5611
sS'THEAD'
p5612
S"<class 'gluon.html.THEAD'>"
p5613
sS'IS_NULL_OR'
p5614
S"<class 'gluon.validators.IS_EMPTY_OR'>"
p5615
sS'IS_FLOAT_IN_RANGE'
p5616
S"<class 'gluon.validators.IS_FLOAT_IN_RANGE'>"
p5617
sS'IS_EXPR'
p5618
S"<class 'gluon.validators.IS_EXPR'>"
p5619
sS'T'
S'<gluon.languages.translator object>'
p5620
sS'IS_IN_SET'
p5621
S"<class 'gluon.validators.IS_IN_SET'>"
p5622
sS'IS_UPLOAD_FILENAME'
p5623
S"<class 'gluon.validators.IS_UPLOAD_FILENAME'>"
p5624
sS'IS_DECIMAL_IN_RANGE'
p5625
S"<class 'gluon.validators.IS_DECIMAL_IN_RANGE'>"
p5626
sssS'traceback'
p5627
S'Traceback (most recent call last):\n  File "/home/www-data/web2py/gluon/restricted.py", line 192, in restricted\n    exec ccode in environment\n  File "/home/www-data/web2py/applications/scrum/views/ticket/form_teste.html", line 6, in <module>\n    DE TESTE</B></FONT></FONT></P>\nAttributeError: \'str\' object has no attribute \'descricao\'\n'
p5628
s.