(dp1
S'output'
p2
S''
sS'layer'
p3
S'/home/www-data/web2py/applications/scrum/controllers/sprint.py'
p4
sS'code'
p5
S"# coding: utf8\n\n@auth.requires_login()\ndef index(): \n    sprints = db(db.sprint).select()\n    return dict(sprints=crud.select(db.sprint))\n\n@auth.requires_login()   \ndef novo():\n    form = crud.create(db.sprint)\n    response.view = 'simple_form.html'\n    return dict(form=form)\n\n@auth.requires_login()\ndef editar():\n    form = crud.update(db.sprint,request.args(0))\n    response.subtitle = 'Editar Sprint' \n    powerTable = plugins.powerTable\n    powerTable.datasource = db.sprint\n    powerTable.headers = 'labels'\n    powerTable.showkeycolumn = False\n    powerTable.keycolumn = 'sprint.id'\n    powerTable.columns = ['sprint.id','sprint.numero']\n    powerTable.extrajs = dict(autoresize={},\n                             tooltip={},\n                             details={'detailscolumns':'ticket.id,\\\n                                                        ticket.chamado,\\\n                                                        ticket.analista,\\\n                                                        ticket.cliente',\n                                     'detailscallback':URL(c='sprint',f='detalhes')\n                             })\n    return dict(form=form,table=powerTable.create())\n    \ndef detalhes():\n    #Key Processing\n    key = None\n    cols = None\n    for k in request.vars.keys():\n        if k[:3] == 'dt_':\n            key = request.vars[k]\n        elif k[:6] == 'dtcols':\n            cols = request.vars[k]\n    \n    #vars to work\n    tablename = key.split('.')[0]\n    fieldname = key.split('.')[1]\n    value = key.split('.')[2]\n    \n    tickets = db(db.tickets.sprint == value).select()\n    return SQLTABLE(tickets)\n\nresponse._vars=response._caller(detalhes)\n"
p6
sS'snapshot'
p7
(dp8
S'exception'
p9
(dp10
S'__hash__'
p11
S"<method-wrapper '__hash__' of exceptions.AttributeError object>"
p12
sS'__setattr__'
p13
S"<method-wrapper '__setattr__' of exceptions.AttributeError object>"
p14
sS'__reduce_ex__'
p15
S'<built-in method __reduce_ex__ of exceptions.AttributeError object>'
p16
sS'__getslice__'
p17
S"<method-wrapper '__getslice__' of exceptions.AttributeError object>"
p18
sS'__getitem__'
p19
S"<method-wrapper '__getitem__' of exceptions.AttributeError object>"
p20
sS'__setstate__'
p21
S'<built-in method __setstate__ of exceptions.AttributeError object>'
p22
sS'__reduce__'
p23
S'<built-in method __reduce__ of exceptions.AttributeError object>'
p24
sS'__str__'
p25
S"<method-wrapper '__str__' of exceptions.AttributeError object>"
p26
sS'__format__'
p27
S'<built-in method __format__ of exceptions.AttributeError object>'
p28
sS'__getattribute__'
p29
S"<method-wrapper '__getattribute__' of exceptions.AttributeError object>"
p30
sS'__class__'
p31
S"<type 'exceptions.AttributeError'>"
p32
sS'__unicode__'
p33
S'<built-in method __unicode__ of exceptions.AttributeError object>'
p34
sS'__delattr__'
p35
S"<method-wrapper '__delattr__' of exceptions.AttributeError object>"
p36
sS'__subclasshook__'
p37
S'<built-in method __subclasshook__ of type object>'
p38
sS'__repr__'
p39
S"<method-wrapper '__repr__' of exceptions.AttributeError object>"
p40
sS'args'
p41
S'("\'NoneType\' object has no attribute \'split\'",)'
p42
sS'__dict__'
p43
S'{}'
p44
sS'__sizeof__'
p45
S'<built-in method __sizeof__ of exceptions.AttributeError object>'
p46
sS'__doc__'
p47
S"'Attribute not found.'"
p48
sS'__init__'
p49
S"<method-wrapper '__init__' of exceptions.AttributeError object>"
p50
sS'__new__'
p51
S'<built-in method __new__ of type object>'
p52
ssS'evalue'
p53
S"'NoneType' object has no attribute 'split'"
p54
sS'request'
p55
ccopy_reg
_reconstructor
p56
(cgluon.html
BEAUTIFY
p57
c__builtin__
object
p58
NtRp59
(dp60
S'attributes'
p61
(dp62
sS'components'
p63
(lp64
g56
(cgluon.html
TABLE
p65
g58
NtRp66
(dp67
g61
(dp68
S'level'
p69
I5
ssS'parent'
p70
Nsg63
(lp71
g56
(cgluon.html
TR
p72
g58
NtRp73
(dp74
g61
(dp75
sg70
g66
sg63
(lp76
g56
(cgluon.html
TD
p77
g58
NtRp78
(dp79
g61
(dp80
S'_style'
p81
S'font-weight:bold;'
p82
ssg70
g73
sg63
(lp83
S'ajax'
p84
asbag56
(g77
g58
NtRp85
(dp86
g61
(dp87
S'_valign'
p88
S'top'
p89
ssg70
g73
sg63
(lp90
S':'
asbag56
(g77
g58
NtRp91
(dp92
g61
(dp93
sg70
g73
sg63
(lp94
g56
(g57
g58
NtRp95
(dp96
g61
(dp97
g69
I5
ssg70
g91
sg63
(lp98
S'False'
p99
asbasbasbag56
(g72
g58
NtRp100
(dp101
g61
(dp102
sg70
g66
sg63
(lp103
g56
(g77
g58
NtRp104
(dp105
g61
(dp106
g81
g82
ssg70
g100
sg63
(lp107
S'application'
p108
asbag56
(g77
g58
NtRp109
(dp110
g61
(dp111
g88
g89
ssg70
g100
sg63
(lp112
S':'
asbag56
(g77
g58
NtRp113
(dp114
g61
(dp115
sg70
g100
sg63
(lp116
g56
(g57
g58
NtRp117
(dp118
g61
(dp119
g69
I5
ssg70
g113
sg63
(lp120
S'scrum'
p121
asbasbasbag56
(g72
g58
NtRp122
(dp123
g61
(dp124
sg70
g66
sg63
(lp125
g56
(g77
g58
NtRp126
(dp127
g61
(dp128
g81
g82
ssg70
g122
sg63
(lp129
g41
asbag56
(g77
g58
NtRp130
(dp131
g61
(dp132
g88
g89
ssg70
g122
sg63
(lp133
S':'
asbag56
(g77
g58
NtRp134
(dp135
g61
(dp136
sg70
g122
sg63
(lp137
g56
(g57
g58
NtRp138
(dp139
g61
(dp140
g69
I5
ssg70
g134
sg63
(lp141
g56
(g65
g58
NtRp142
(dp143
g61
(dp144
g69
I4
ssg70
Nsg63
(lp145
sbasbasbasbag56
(g72
g58
NtRp146
(dp147
g61
(dp148
sg70
g66
sg63
(lp149
g56
(g77
g58
NtRp150
(dp151
g61
(dp152
g81
g82
ssg70
g146
sg63
(lp153
S'body'
p154
asbag56
(g77
g58
NtRp155
(dp156
g61
(dp157
g88
g89
ssg70
g146
sg63
(lp158
S':'
asbag56
(g77
g58
NtRp159
(dp160
g61
(dp161
sg70
g146
sg63
(lp162
g56
(g57
g58
NtRp163
(dp164
g61
(dp165
g69
I5
ssg70
g159
sg63
(lp166
S'<cStringIO.StringO object at 0xb97a0f80>'
p167
asbasbasbag56
(g72
g58
NtRp168
(dp169
g61
(dp170
sg70
g66
sg63
(lp171
g56
(g77
g58
NtRp172
(dp173
g61
(dp174
g81
g82
ssg70
g168
sg63
(lp175
S'client'
p176
asbag56
(g77
g58
NtRp177
(dp178
g61
(dp179
g88
g89
ssg70
g168
sg63
(lp180
S':'
asbag56
(g77
g58
NtRp181
(dp182
g61
(dp183
sg70
g168
sg63
(lp184
g56
(g57
g58
NtRp185
(dp186
g61
(dp187
g69
I5
ssg70
g181
sg63
(lp188
S'127.0.0.1'
p189
asbasbasbag56
(g72
g58
NtRp190
(dp191
g61
(dp192
sg70
g66
sg63
(lp193
g56
(g77
g58
NtRp194
(dp195
g61
(dp196
g81
g82
ssg70
g190
sg63
(lp197
S'controller'
p198
asbag56
(g77
g58
NtRp199
(dp200
g61
(dp201
g88
g89
ssg70
g190
sg63
(lp202
S':'
asbag56
(g77
g58
NtRp203
(dp204
g61
(dp205
sg70
g190
sg63
(lp206
g56
(g57
g58
NtRp207
(dp208
g61
(dp209
g69
I5
ssg70
g203
sg63
(lp210
S'sprint'
p211
asbasbasbag56
(g72
g58
NtRp212
(dp213
g61
(dp214
sg70
g66
sg63
(lp215
g56
(g77
g58
NtRp216
(dp217
g61
(dp218
g81
g82
ssg70
g212
sg63
(lp219
S'cookies'
p220
asbag56
(g77
g58
NtRp221
(dp222
g61
(dp223
g88
g89
ssg70
g212
sg63
(lp224
S':'
asbag56
(g77
g58
NtRp225
(dp226
g61
(dp227
sg70
g212
sg63
(lp228
g56
(g57
g58
NtRp229
(dp230
g61
(dp231
g69
I5
ssg70
g225
sg63
(lp232
g56
(g65
g58
NtRp233
(dp234
g61
(dp235
g69
I4
ssg70
Nsg63
(lp236
g56
(g72
g58
NtRp237
(dp238
g61
(dp239
sg70
g233
sg63
(lp240
g56
(g77
g58
NtRp241
(dp242
g61
(dp243
g81
g82
ssg70
g237
sg63
(lp244
S'session_id_admin'
p245
asbag56
(g77
g58
NtRp246
(dp247
g61
(dp248
g88
g89
ssg70
g237
sg63
(lp249
S':'
asbag56
(g77
g58
NtRp250
(dp251
g61
(dp252
sg70
g237
sg63
(lp253
g56
(g57
g58
NtRp254
(dp255
g61
(dp256
g69
I4
ssg70
g250
sg63
(lp257
g56
(g65
g58
NtRp258
(dp259
g61
(dp260
g69
I3
ssg70
Nsg63
(lp261
g56
(g72
g58
NtRp262
(dp263
g61
(dp264
sg70
g258
sg63
(lp265
g56
(g77
g58
NtRp266
(dp267
g61
(dp268
g81
g82
ssg70
g262
sg63
(lp269
S'comment'
p270
asbag56
(g77
g58
NtRp271
(dp272
g61
(dp273
g88
g89
ssg70
g262
sg63
(lp274
S':'
asbag56
(g77
g58
NtRp275
(dp276
g61
(dp277
sg70
g262
sg63
(lp278
g56
(g57
g58
NtRp279
(dp280
g61
(dp281
g69
I3
ssg70
g275
sg63
(lp282
S''
asbasbasbag56
(g72
g58
NtRp283
(dp284
g61
(dp285
sg70
g258
sg63
(lp286
g56
(g77
g58
NtRp287
(dp288
g61
(dp289
g81
g82
ssg70
g283
sg63
(lp290
S'domain'
p291
asbag56
(g77
g58
NtRp292
(dp293
g61
(dp294
g88
g89
ssg70
g283
sg63
(lp295
S':'
asbag56
(g77
g58
NtRp296
(dp297
g61
(dp298
sg70
g283
sg63
(lp299
g56
(g57
g58
NtRp300
(dp301
g61
(dp302
g69
I3
ssg70
g296
sg63
(lp303
S''
asbasbasbag56
(g72
g58
NtRp304
(dp305
g61
(dp306
sg70
g258
sg63
(lp307
g56
(g77
g58
NtRp308
(dp309
g61
(dp310
g81
g82
ssg70
g304
sg63
(lp311
S'expires'
p312
asbag56
(g77
g58
NtRp313
(dp314
g61
(dp315
g88
g89
ssg70
g304
sg63
(lp316
S':'
asbag56
(g77
g58
NtRp317
(dp318
g61
(dp319
sg70
g304
sg63
(lp320
g56
(g57
g58
NtRp321
(dp322
g61
(dp323
g69
I3
ssg70
g317
sg63
(lp324
S''
asbasbasbag56
(g72
g58
NtRp325
(dp326
g61
(dp327
sg70
g258
sg63
(lp328
g56
(g77
g58
NtRp329
(dp330
g61
(dp331
g81
g82
ssg70
g325
sg63
(lp332
S'httponly'
p333
asbag56
(g77
g58
NtRp334
(dp335
g61
(dp336
g88
g89
ssg70
g325
sg63
(lp337
S':'
asbag56
(g77
g58
NtRp338
(dp339
g61
(dp340
sg70
g325
sg63
(lp341
g56
(g57
g58
NtRp342
(dp343
g61
(dp344
g69
I3
ssg70
g338
sg63
(lp345
S''
asbasbasbag56
(g72
g58
NtRp346
(dp347
g61
(dp348
sg70
g258
sg63
(lp349
g56
(g77
g58
NtRp350
(dp351
g61
(dp352
g81
g82
ssg70
g346
sg63
(lp353
S'max-age'
p354
asbag56
(g77
g58
NtRp355
(dp356
g61
(dp357
g88
g89
ssg70
g346
sg63
(lp358
S':'
asbag56
(g77
g58
NtRp359
(dp360
g61
(dp361
sg70
g346
sg63
(lp362
g56
(g57
g58
NtRp363
(dp364
g61
(dp365
g69
I3
ssg70
g359
sg63
(lp366
S''
asbasbasbag56
(g72
g58
NtRp367
(dp368
g61
(dp369
sg70
g258
sg63
(lp370
g56
(g77
g58
NtRp371
(dp372
g61
(dp373
g81
g82
ssg70
g367
sg63
(lp374
S'path'
p375
asbag56
(g77
g58
NtRp376
(dp377
g61
(dp378
g88
g89
ssg70
g367
sg63
(lp379
S':'
asbag56
(g77
g58
NtRp380
(dp381
g61
(dp382
sg70
g367
sg63
(lp383
g56
(g57
g58
NtRp384
(dp385
g61
(dp386
g69
I3
ssg70
g380
sg63
(lp387
S''
asbasbasbag56
(g72
g58
NtRp388
(dp389
g61
(dp390
sg70
g258
sg63
(lp391
g56
(g77
g58
NtRp392
(dp393
g61
(dp394
g81
g82
ssg70
g388
sg63
(lp395
S'secure'
p396
asbag56
(g77
g58
NtRp397
(dp398
g61
(dp399
g88
g89
ssg70
g388
sg63
(lp400
S':'
asbag56
(g77
g58
NtRp401
(dp402
g61
(dp403
sg70
g388
sg63
(lp404
g56
(g57
g58
NtRp405
(dp406
g61
(dp407
g69
I3
ssg70
g401
sg63
(lp408
S''
asbasbasbag56
(g72
g58
NtRp409
(dp410
g61
(dp411
sg70
g258
sg63
(lp412
g56
(g77
g58
NtRp413
(dp414
g61
(dp415
g81
g82
ssg70
g409
sg63
(lp416
S'version'
p417
asbag56
(g77
g58
NtRp418
(dp419
g61
(dp420
g88
g89
ssg70
g409
sg63
(lp421
S':'
asbag56
(g77
g58
NtRp422
(dp423
g61
(dp424
sg70
g409
sg63
(lp425
g56
(g57
g58
NtRp426
(dp427
g61
(dp428
g69
I3
ssg70
g422
sg63
(lp429
S''
asbasbasbasbasbasbasbag56
(g72
g58
NtRp430
(dp431
g61
(dp432
sg70
g233
sg63
(lp433
g56
(g77
g58
NtRp434
(dp435
g61
(dp436
g81
g82
ssg70
g430
sg63
(lp437
S'session_id_scrum'
p438
asbag56
(g77
g58
NtRp439
(dp440
g61
(dp441
g88
g89
ssg70
g430
sg63
(lp442
S':'
asbag56
(g77
g58
NtRp443
(dp444
g61
(dp445
sg70
g430
sg63
(lp446
g56
(g57
g58
NtRp447
(dp448
g61
(dp449
g69
I4
ssg70
g443
sg63
(lp450
g56
(g65
g58
NtRp451
(dp452
g61
(dp453
g69
I3
ssg70
Nsg63
(lp454
g56
(g72
g58
NtRp455
(dp456
g61
(dp457
sg70
g451
sg63
(lp458
g56
(g77
g58
NtRp459
(dp460
g61
(dp461
g81
g82
ssg70
g455
sg63
(lp462
g270
asbag56
(g77
g58
NtRp463
(dp464
g61
(dp465
g88
g89
ssg70
g455
sg63
(lp466
S':'
asbag56
(g77
g58
NtRp467
(dp468
g61
(dp469
sg70
g455
sg63
(lp470
g56
(g57
g58
NtRp471
(dp472
g61
(dp473
g69
I3
ssg70
g467
sg63
(lp474
S''
asbasbasbag56
(g72
g58
NtRp475
(dp476
g61
(dp477
sg70
g451
sg63
(lp478
g56
(g77
g58
NtRp479
(dp480
g61
(dp481
g81
g82
ssg70
g475
sg63
(lp482
g291
asbag56
(g77
g58
NtRp483
(dp484
g61
(dp485
g88
g89
ssg70
g475
sg63
(lp486
S':'
asbag56
(g77
g58
NtRp487
(dp488
g61
(dp489
sg70
g475
sg63
(lp490
g56
(g57
g58
NtRp491
(dp492
g61
(dp493
g69
I3
ssg70
g487
sg63
(lp494
S''
asbasbasbag56
(g72
g58
NtRp495
(dp496
g61
(dp497
sg70
g451
sg63
(lp498
g56
(g77
g58
NtRp499
(dp500
g61
(dp501
g81
g82
ssg70
g495
sg63
(lp502
g312
asbag56
(g77
g58
NtRp503
(dp504
g61
(dp505
g88
g89
ssg70
g495
sg63
(lp506
S':'
asbag56
(g77
g58
NtRp507
(dp508
g61
(dp509
sg70
g495
sg63
(lp510
g56
(g57
g58
NtRp511
(dp512
g61
(dp513
g69
I3
ssg70
g507
sg63
(lp514
S''
asbasbasbag56
(g72
g58
NtRp515
(dp516
g61
(dp517
sg70
g451
sg63
(lp518
g56
(g77
g58
NtRp519
(dp520
g61
(dp521
g81
g82
ssg70
g515
sg63
(lp522
g333
asbag56
(g77
g58
NtRp523
(dp524
g61
(dp525
g88
g89
ssg70
g515
sg63
(lp526
S':'
asbag56
(g77
g58
NtRp527
(dp528
g61
(dp529
sg70
g515
sg63
(lp530
g56
(g57
g58
NtRp531
(dp532
g61
(dp533
g69
I3
ssg70
g527
sg63
(lp534
S''
asbasbasbag56
(g72
g58
NtRp535
(dp536
g61
(dp537
sg70
g451
sg63
(lp538
g56
(g77
g58
NtRp539
(dp540
g61
(dp541
g81
g82
ssg70
g535
sg63
(lp542
g354
asbag56
(g77
g58
NtRp543
(dp544
g61
(dp545
g88
g89
ssg70
g535
sg63
(lp546
S':'
asbag56
(g77
g58
NtRp547
(dp548
g61
(dp549
sg70
g535
sg63
(lp550
g56
(g57
g58
NtRp551
(dp552
g61
(dp553
g69
I3
ssg70
g547
sg63
(lp554
S''
asbasbasbag56
(g72
g58
NtRp555
(dp556
g61
(dp557
sg70
g451
sg63
(lp558
g56
(g77
g58
NtRp559
(dp560
g61
(dp561
g81
g82
ssg70
g555
sg63
(lp562
g375
asbag56
(g77
g58
NtRp563
(dp564
g61
(dp565
g88
g89
ssg70
g555
sg63
(lp566
S':'
asbag56
(g77
g58
NtRp567
(dp568
g61
(dp569
sg70
g555
sg63
(lp570
g56
(g57
g58
NtRp571
(dp572
g61
(dp573
g69
I3
ssg70
g567
sg63
(lp574
S''
asbasbasbag56
(g72
g58
NtRp575
(dp576
g61
(dp577
sg70
g451
sg63
(lp578
g56
(g77
g58
NtRp579
(dp580
g61
(dp581
g81
g82
ssg70
g575
sg63
(lp582
g396
asbag56
(g77
g58
NtRp583
(dp584
g61
(dp585
g88
g89
ssg70
g575
sg63
(lp586
S':'
asbag56
(g77
g58
NtRp587
(dp588
g61
(dp589
sg70
g575
sg63
(lp590
g56
(g57
g58
NtRp591
(dp592
g61
(dp593
g69
I3
ssg70
g587
sg63
(lp594
S''
asbasbasbag56
(g72
g58
NtRp595
(dp596
g61
(dp597
sg70
g451
sg63
(lp598
g56
(g77
g58
NtRp599
(dp600
g61
(dp601
g81
g82
ssg70
g595
sg63
(lp602
g417
asbag56
(g77
g58
NtRp603
(dp604
g61
(dp605
g88
g89
ssg70
g595
sg63
(lp606
S':'
asbag56
(g77
g58
NtRp607
(dp608
g61
(dp609
sg70
g595
sg63
(lp610
g56
(g57
g58
NtRp611
(dp612
g61
(dp613
g69
I3
ssg70
g607
sg63
(lp614
S''
asbasbasbasbasbasbasbasbasbasbasbag56
(g72
g58
NtRp615
(dp616
g61
(dp617
sg70
g66
sg63
(lp618
g56
(g77
g58
NtRp619
(dp620
g61
(dp621
g81
g82
ssg70
g615
sg63
(lp622
S'env'
p623
asbag56
(g77
g58
NtRp624
(dp625
g61
(dp626
g88
g89
ssg70
g615
sg63
(lp627
S':'
asbag56
(g77
g58
NtRp628
(dp629
g61
(dp630
sg70
g615
sg63
(lp631
g56
(g57
g58
NtRp632
(dp633
g61
(dp634
g69
I5
ssg70
g628
sg63
(lp635
g56
(g65
g58
NtRp636
(dp637
g61
(dp638
g69
I4
ssg70
Nsg63
(lp639
g56
(g72
g58
NtRp640
(dp641
g61
(dp642
sg70
g636
sg63
(lp643
g56
(g77
g58
NtRp644
(dp645
g61
(dp646
g81
g82
ssg70
g640
sg63
(lp647
S'app_folders'
p648
asbag56
(g77
g58
NtRp649
(dp650
g61
(dp651
g88
g89
ssg70
g640
sg63
(lp652
S':'
asbag56
(g77
g58
NtRp653
(dp654
g61
(dp655
sg70
g640
sg63
(lp656
g56
(g57
g58
NtRp657
(dp658
g61
(dp659
g69
I4
ssg70
g653
sg63
(lp660
S"set(['/home/www-data/web2py/applications/scrum/', '/home/www-data/web2py/applications/admin/'])"
p661
asbasbasbag56
(g72
g58
NtRp662
(dp663
g61
(dp664
sg70
g636
sg63
(lp665
g56
(g77
g58
NtRp666
(dp667
g61
(dp668
g81
g82
ssg70
g662
sg63
(lp669
S'applications_parent'
p670
asbag56
(g77
g58
NtRp671
(dp672
g61
(dp673
g88
g89
ssg70
g662
sg63
(lp674
S':'
asbag56
(g77
g58
NtRp675
(dp676
g61
(dp677
sg70
g662
sg63
(lp678
g56
(g57
g58
NtRp679
(dp680
g61
(dp681
g69
I4
ssg70
g675
sg63
(lp682
S'/home/www-data/web2py'
p683
asbasbasbag56
(g72
g58
NtRp684
(dp685
g61
(dp686
sg70
g636
sg63
(lp687
g56
(g77
g58
NtRp688
(dp689
g61
(dp690
g81
g82
ssg70
g684
sg63
(lp691
S'db_sessions'
p692
asbag56
(g77
g58
NtRp693
(dp694
g61
(dp695
g88
g89
ssg70
g684
sg63
(lp696
S':'
asbag56
(g77
g58
NtRp697
(dp698
g61
(dp699
sg70
g684
sg63
(lp700
g56
(g57
g58
NtRp701
(dp702
g61
(dp703
g69
I4
ssg70
g697
sg63
(lp704
S'set([])'
p705
asbasbasbag56
(g72
g58
NtRp706
(dp707
g61
(dp708
sg70
g636
sg63
(lp709
g56
(g77
g58
NtRp710
(dp711
g61
(dp712
g81
g82
ssg70
g706
sg63
(lp713
S'debugging'
p714
asbag56
(g77
g58
NtRp715
(dp716
g61
(dp717
g88
g89
ssg70
g706
sg63
(lp718
S':'
asbag56
(g77
g58
NtRp719
(dp720
g61
(dp721
sg70
g706
sg63
(lp722
g56
(g57
g58
NtRp723
(dp724
g61
(dp725
g69
I4
ssg70
g719
sg63
(lp726
g99
asbasbasbag56
(g72
g58
NtRp727
(dp728
g61
(dp729
sg70
g636
sg63
(lp730
g56
(g77
g58
NtRp731
(dp732
g61
(dp733
g81
g82
ssg70
g727
sg63
(lp734
S'document_root'
p735
asbag56
(g77
g58
NtRp736
(dp737
g61
(dp738
g88
g89
ssg70
g727
sg63
(lp739
S':'
asbag56
(g77
g58
NtRp740
(dp741
g61
(dp742
sg70
g727
sg63
(lp743
g56
(g57
g58
NtRp744
(dp745
g61
(dp746
g69
I4
ssg70
g740
sg63
(lp747
S'/etc/apache2/htdocs'
p748
asbasbasbag56
(g72
g58
NtRp749
(dp750
g61
(dp751
sg70
g636
sg63
(lp752
g56
(g77
g58
NtRp753
(dp754
g61
(dp755
g81
g82
ssg70
g749
sg63
(lp756
S'gateway_interface'
p757
asbag56
(g77
g58
NtRp758
(dp759
g61
(dp760
g88
g89
ssg70
g749
sg63
(lp761
S':'
asbag56
(g77
g58
NtRp762
(dp763
g61
(dp764
sg70
g749
sg63
(lp765
g56
(g57
g58
NtRp766
(dp767
g61
(dp768
g69
I4
ssg70
g762
sg63
(lp769
S'CGI/1.1'
p770
asbasbasbag56
(g72
g58
NtRp771
(dp772
g61
(dp773
sg70
g636
sg63
(lp774
g56
(g77
g58
NtRp775
(dp776
g61
(dp777
g81
g82
ssg70
g771
sg63
(lp778
S'gluon_parent'
p779
asbag56
(g77
g58
NtRp780
(dp781
g61
(dp782
g88
g89
ssg70
g771
sg63
(lp783
S':'
asbag56
(g77
g58
NtRp784
(dp785
g61
(dp786
sg70
g771
sg63
(lp787
g56
(g57
g58
NtRp788
(dp789
g61
(dp790
g69
I4
ssg70
g784
sg63
(lp791
g683
asbasbasbag56
(g72
g58
NtRp792
(dp793
g61
(dp794
sg70
g636
sg63
(lp795
g56
(g77
g58
NtRp796
(dp797
g61
(dp798
g81
g82
ssg70
g792
sg63
(lp799
S'http_accept'
p800
asbag56
(g77
g58
NtRp801
(dp802
g61
(dp803
g88
g89
ssg70
g792
sg63
(lp804
S':'
asbag56
(g77
g58
NtRp805
(dp806
g61
(dp807
sg70
g792
sg63
(lp808
g56
(g57
g58
NtRp809
(dp810
g61
(dp811
g69
I4
ssg70
g805
sg63
(lp812
S'text/html,application/xhtml+xml,application/xml;q=0.9,*/*;q=0.8'
p813
asbasbasbag56
(g72
g58
NtRp814
(dp815
g61
(dp816
sg70
g636
sg63
(lp817
g56
(g77
g58
NtRp818
(dp819
g61
(dp820
g81
g82
ssg70
g814
sg63
(lp821
S'http_accept_charset'
p822
asbag56
(g77
g58
NtRp823
(dp824
g61
(dp825
g88
g89
ssg70
g814
sg63
(lp826
S':'
asbag56
(g77
g58
NtRp827
(dp828
g61
(dp829
sg70
g814
sg63
(lp830
g56
(g57
g58
NtRp831
(dp832
g61
(dp833
g69
I4
ssg70
g827
sg63
(lp834
S'ISO-8859-1,utf-8;q=0.7,*;q=0.7'
p835
asbasbasbag56
(g72
g58
NtRp836
(dp837
g61
(dp838
sg70
g636
sg63
(lp839
g56
(g77
g58
NtRp840
(dp841
g61
(dp842
g81
g82
ssg70
g836
sg63
(lp843
S'http_accept_encoding'
p844
asbag56
(g77
g58
NtRp845
(dp846
g61
(dp847
g88
g89
ssg70
g836
sg63
(lp848
S':'
asbag56
(g77
g58
NtRp849
(dp850
g61
(dp851
sg70
g836
sg63
(lp852
g56
(g57
g58
NtRp853
(dp854
g61
(dp855
g69
I4
ssg70
g849
sg63
(lp856
S'gzip, deflate'
p857
asbasbasbag56
(g72
g58
NtRp858
(dp859
g61
(dp860
sg70
g636
sg63
(lp861
g56
(g77
g58
NtRp862
(dp863
g61
(dp864
g81
g82
ssg70
g858
sg63
(lp865
S'http_accept_language'
p866
asbag56
(g77
g58
NtRp867
(dp868
g61
(dp869
g88
g89
ssg70
g858
sg63
(lp870
S':'
asbag56
(g77
g58
NtRp871
(dp872
g61
(dp873
sg70
g858
sg63
(lp874
g56
(g57
g58
NtRp875
(dp876
g61
(dp877
g69
I4
ssg70
g871
sg63
(lp878
S'pt-br,pt;q=0.8,en-us;q=0.5,en;q=0.3'
p879
asbasbasbag56
(g72
g58
NtRp880
(dp881
g61
(dp882
sg70
g636
sg63
(lp883
g56
(g77
g58
NtRp884
(dp885
g61
(dp886
g81
g82
ssg70
g880
sg63
(lp887
S'http_connection'
p888
asbag56
(g77
g58
NtRp889
(dp890
g61
(dp891
g88
g89
ssg70
g880
sg63
(lp892
S':'
asbag56
(g77
g58
NtRp893
(dp894
g61
(dp895
sg70
g880
sg63
(lp896
g56
(g57
g58
NtRp897
(dp898
g61
(dp899
g69
I4
ssg70
g893
sg63
(lp900
S'keep-alive'
p901
asbasbasbag56
(g72
g58
NtRp902
(dp903
g61
(dp904
sg70
g636
sg63
(lp905
g56
(g77
g58
NtRp906
(dp907
g61
(dp908
g81
g82
ssg70
g902
sg63
(lp909
S'http_cookie'
p910
asbag56
(g77
g58
NtRp911
(dp912
g61
(dp913
g88
g89
ssg70
g902
sg63
(lp914
S':'
asbag56
(g77
g58
NtRp915
(dp916
g61
(dp917
sg70
g902
sg63
(lp918
g56
(g57
g58
NtRp919
(dp920
g61
(dp921
g69
I4
ssg70
g915
sg63
(lp922
S'session_id_admin=127.0.0.1-e5192660-39ef-4b4b-a6d6-48f8215e8275; session_id_scrum=127.0.0.1-8741b6aa-dd8d-45b3-88a3-6f21c23a3c79'
p923
asbasbasbag56
(g72
g58
NtRp924
(dp925
g61
(dp926
sg70
g636
sg63
(lp927
g56
(g77
g58
NtRp928
(dp929
g61
(dp930
g81
g82
ssg70
g924
sg63
(lp931
S'http_host'
p932
asbag56
(g77
g58
NtRp933
(dp934
g61
(dp935
g88
g89
ssg70
g924
sg63
(lp936
S':'
asbag56
(g77
g58
NtRp937
(dp938
g61
(dp939
sg70
g924
sg63
(lp940
g56
(g57
g58
NtRp941
(dp942
g61
(dp943
g69
I4
ssg70
g937
sg63
(lp944
S'localhost'
p945
asbasbasbag56
(g72
g58
NtRp946
(dp947
g61
(dp948
sg70
g636
sg63
(lp949
g56
(g77
g58
NtRp950
(dp951
g61
(dp952
g81
g82
ssg70
g946
sg63
(lp953
S'http_referer'
p954
asbag56
(g77
g58
NtRp955
(dp956
g61
(dp957
g88
g89
ssg70
g946
sg63
(lp958
S':'
asbag56
(g77
g58
NtRp959
(dp960
g61
(dp961
sg70
g946
sg63
(lp962
g56
(g57
g58
NtRp963
(dp964
g61
(dp965
g69
I4
ssg70
g959
sg63
(lp966
S'https://localhost/admin/default/edit/scrum/controllers/sprint.py'
p967
asbasbasbag56
(g72
g58
NtRp968
(dp969
g61
(dp970
sg70
g636
sg63
(lp971
g56
(g77
g58
NtRp972
(dp973
g61
(dp974
g81
g82
ssg70
g968
sg63
(lp975
S'http_user_agent'
p976
asbag56
(g77
g58
NtRp977
(dp978
g61
(dp979
g88
g89
ssg70
g968
sg63
(lp980
S':'
asbag56
(g77
g58
NtRp981
(dp982
g61
(dp983
sg70
g968
sg63
(lp984
g56
(g57
g58
NtRp985
(dp986
g61
(dp987
g69
I4
ssg70
g981
sg63
(lp988
S'Mozilla/5.0 (X11; Linux i686; rv:6.0.2) Gecko/20100101 Firefox/6.0.2'
p989
asbasbasbag56
(g72
g58
NtRp990
(dp991
g61
(dp992
sg70
g636
sg63
(lp993
g56
(g77
g58
NtRp994
(dp995
g61
(dp996
g81
g82
ssg70
g990
sg63
(lp997
S'https'
p998
asbag56
(g77
g58
NtRp999
(dp1000
g61
(dp1001
g88
g89
ssg70
g990
sg63
(lp1002
S':'
asbag56
(g77
g58
NtRp1003
(dp1004
g61
(dp1005
sg70
g990
sg63
(lp1006
g56
(g57
g58
NtRp1007
(dp1008
g61
(dp1009
g69
I4
ssg70
g1003
sg63
(lp1010
S'1'
asbasbasbag56
(g72
g58
NtRp1011
(dp1012
g61
(dp1013
sg70
g636
sg63
(lp1014
g56
(g77
g58
NtRp1015
(dp1016
g61
(dp1017
g81
g82
ssg70
g1011
sg63
(lp1018
S'is_jython'
p1019
asbag56
(g77
g58
NtRp1020
(dp1021
g61
(dp1022
g88
g89
ssg70
g1011
sg63
(lp1023
S':'
asbag56
(g77
g58
NtRp1024
(dp1025
g61
(dp1026
sg70
g1011
sg63
(lp1027
g56
(g57
g58
NtRp1028
(dp1029
g61
(dp1030
g69
I4
ssg70
g1024
sg63
(lp1031
g99
asbasbasbag56
(g72
g58
NtRp1032
(dp1033
g61
(dp1034
sg70
g636
sg63
(lp1035
g56
(g77
g58
NtRp1036
(dp1037
g61
(dp1038
g81
g82
ssg70
g1032
sg63
(lp1039
S'mod_wsgi_application_group'
p1040
asbag56
(g77
g58
NtRp1041
(dp1042
g61
(dp1043
g88
g89
ssg70
g1032
sg63
(lp1044
S':'
asbag56
(g77
g58
NtRp1045
(dp1046
g61
(dp1047
sg70
g1032
sg63
(lp1048
g56
(g57
g58
NtRp1049
(dp1050
g61
(dp1051
g69
I4
ssg70
g1045
sg63
(lp1052
S'localhost.localdomain|'
p1053
asbasbasbag56
(g72
g58
NtRp1054
(dp1055
g61
(dp1056
sg70
g636
sg63
(lp1057
g56
(g77
g58
NtRp1058
(dp1059
g61
(dp1060
g81
g82
ssg70
g1054
sg63
(lp1061
S'mod_wsgi_callable_object'
p1062
asbag56
(g77
g58
NtRp1063
(dp1064
g61
(dp1065
g88
g89
ssg70
g1054
sg63
(lp1066
S':'
asbag56
(g77
g58
NtRp1067
(dp1068
g61
(dp1069
sg70
g1054
sg63
(lp1070
g56
(g57
g58
NtRp1071
(dp1072
g61
(dp1073
g69
I4
ssg70
g1067
sg63
(lp1074
S'application'
p1075
asbasbasbag56
(g72
g58
NtRp1076
(dp1077
g61
(dp1078
sg70
g636
sg63
(lp1079
g56
(g77
g58
NtRp1080
(dp1081
g61
(dp1082
g81
g82
ssg70
g1076
sg63
(lp1083
S'mod_wsgi_handler_script'
p1084
asbag56
(g77
g58
NtRp1085
(dp1086
g61
(dp1087
g88
g89
ssg70
g1076
sg63
(lp1088
S':'
asbag56
(g77
g58
NtRp1089
(dp1090
g61
(dp1091
sg70
g1076
sg63
(lp1092
g56
(g57
g58
NtRp1093
(dp1094
g61
(dp1095
g69
I4
ssg70
g1089
sg63
(lp1096
S''
asbasbasbag56
(g72
g58
NtRp1097
(dp1098
g61
(dp1099
sg70
g636
sg63
(lp1100
g56
(g77
g58
NtRp1101
(dp1102
g61
(dp1103
g81
g82
ssg70
g1097
sg63
(lp1104
S'mod_wsgi_input_chunked'
p1105
asbag56
(g77
g58
NtRp1106
(dp1107
g61
(dp1108
g88
g89
ssg70
g1097
sg63
(lp1109
S':'
asbag56
(g77
g58
NtRp1110
(dp1111
g61
(dp1112
sg70
g1097
sg63
(lp1113
g56
(g57
g58
NtRp1114
(dp1115
g61
(dp1116
g69
I4
ssg70
g1110
sg63
(lp1117
S'0'
asbasbasbag56
(g72
g58
NtRp1118
(dp1119
g61
(dp1120
sg70
g636
sg63
(lp1121
g56
(g77
g58
NtRp1122
(dp1123
g61
(dp1124
g81
g82
ssg70
g1118
sg63
(lp1125
S'mod_wsgi_listener_host'
p1126
asbag56
(g77
g58
NtRp1127
(dp1128
g61
(dp1129
g88
g89
ssg70
g1118
sg63
(lp1130
S':'
asbag56
(g77
g58
NtRp1131
(dp1132
g61
(dp1133
sg70
g1118
sg63
(lp1134
g56
(g57
g58
NtRp1135
(dp1136
g61
(dp1137
g69
I4
ssg70
g1131
sg63
(lp1138
S''
asbasbasbag56
(g72
g58
NtRp1139
(dp1140
g61
(dp1141
sg70
g636
sg63
(lp1142
g56
(g77
g58
NtRp1143
(dp1144
g61
(dp1145
g81
g82
ssg70
g1139
sg63
(lp1146
S'mod_wsgi_listener_port'
p1147
asbag56
(g77
g58
NtRp1148
(dp1149
g61
(dp1150
g88
g89
ssg70
g1139
sg63
(lp1151
S':'
asbag56
(g77
g58
NtRp1152
(dp1153
g61
(dp1154
sg70
g1139
sg63
(lp1155
g56
(g57
g58
NtRp1156
(dp1157
g61
(dp1158
g69
I4
ssg70
g1152
sg63
(lp1159
S'443'
p1160
asbasbasbag56
(g72
g58
NtRp1161
(dp1162
g61
(dp1163
sg70
g636
sg63
(lp1164
g56
(g77
g58
NtRp1165
(dp1166
g61
(dp1167
g81
g82
ssg70
g1161
sg63
(lp1168
S'mod_wsgi_process_group'
p1169
asbag56
(g77
g58
NtRp1170
(dp1171
g61
(dp1172
g88
g89
ssg70
g1161
sg63
(lp1173
S':'
asbag56
(g77
g58
NtRp1174
(dp1175
g61
(dp1176
sg70
g1161
sg63
(lp1177
g56
(g57
g58
NtRp1178
(dp1179
g61
(dp1180
g69
I4
ssg70
g1174
sg63
(lp1181
S'web2py'
p1182
asbasbasbag56
(g72
g58
NtRp1183
(dp1184
g61
(dp1185
sg70
g636
sg63
(lp1186
g56
(g77
g58
NtRp1187
(dp1188
g61
(dp1189
g81
g82
ssg70
g1183
sg63
(lp1190
S'mod_wsgi_request_handler'
p1191
asbag56
(g77
g58
NtRp1192
(dp1193
g61
(dp1194
g88
g89
ssg70
g1183
sg63
(lp1195
S':'
asbag56
(g77
g58
NtRp1196
(dp1197
g61
(dp1198
sg70
g1183
sg63
(lp1199
g56
(g57
g58
NtRp1200
(dp1201
g61
(dp1202
g69
I4
ssg70
g1196
sg63
(lp1203
S'wsgi-script'
p1204
asbasbasbag56
(g72
g58
NtRp1205
(dp1206
g61
(dp1207
sg70
g636
sg63
(lp1208
g56
(g77
g58
NtRp1209
(dp1210
g61
(dp1211
g81
g82
ssg70
g1205
sg63
(lp1212
S'mod_wsgi_script_reloading'
p1213
asbag56
(g77
g58
NtRp1214
(dp1215
g61
(dp1216
g88
g89
ssg70
g1205
sg63
(lp1217
S':'
asbag56
(g77
g58
NtRp1218
(dp1219
g61
(dp1220
sg70
g1205
sg63
(lp1221
g56
(g57
g58
NtRp1222
(dp1223
g61
(dp1224
g69
I4
ssg70
g1218
sg63
(lp1225
S'1'
asbasbasbag56
(g72
g58
NtRp1226
(dp1227
g61
(dp1228
sg70
g636
sg63
(lp1229
g56
(g77
g58
NtRp1230
(dp1231
g61
(dp1232
g81
g82
ssg70
g1226
sg63
(lp1233
S'mod_wsgi_version'
p1234
asbag56
(g77
g58
NtRp1235
(dp1236
g61
(dp1237
g88
g89
ssg70
g1226
sg63
(lp1238
S':'
asbag56
(g77
g58
NtRp1239
(dp1240
g61
(dp1241
sg70
g1226
sg63
(lp1242
g56
(g57
g58
NtRp1243
(dp1244
g61
(dp1245
g69
I4
ssg70
g1239
sg63
(lp1246
g56
(g65
g58
NtRp1247
(dp1248
g61
(dp1249
g69
I3
ssg70
Nsg63
(lp1250
g56
(g72
g58
NtRp1251
(dp1252
g61
(dp1253
sg70
g1247
sg63
(lp1254
g56
(g77
g58
NtRp1255
(dp1256
g61
(dp1257
sg70
g1251
sg63
(lp1258
g56
(g57
g58
NtRp1259
(dp1260
g61
(dp1261
g69
I3
ssg70
g1255
sg63
(lp1262
S'3'
asbasbasbag56
(g72
g58
NtRp1263
(dp1264
g61
(dp1265
sg70
g1247
sg63
(lp1266
g56
(g77
g58
NtRp1267
(dp1268
g61
(dp1269
sg70
g1263
sg63
(lp1270
g56
(g57
g58
NtRp1271
(dp1272
g61
(dp1273
g69
I3
ssg70
g1267
sg63
(lp1274
S'3'
asbasbasbasbasbasbasbag56
(g72
g58
NtRp1275
(dp1276
g61
(dp1277
sg70
g636
sg63
(lp1278
g56
(g77
g58
NtRp1279
(dp1280
g61
(dp1281
g81
g82
ssg70
g1275
sg63
(lp1282
S'path_info'
p1283
asbag56
(g77
g58
NtRp1284
(dp1285
g61
(dp1286
g88
g89
ssg70
g1275
sg63
(lp1287
S':'
asbag56
(g77
g58
NtRp1288
(dp1289
g61
(dp1290
sg70
g1275
sg63
(lp1291
g56
(g57
g58
NtRp1292
(dp1293
g61
(dp1294
g69
I4
ssg70
g1288
sg63
(lp1295
S'/scrum/sprint/detalhes'
p1296
asbasbasbag56
(g72
g58
NtRp1297
(dp1298
g61
(dp1299
sg70
g636
sg63
(lp1300
g56
(g77
g58
NtRp1301
(dp1302
g61
(dp1303
g81
g82
ssg70
g1297
sg63
(lp1304
S'path_translated'
p1305
asbag56
(g77
g58
NtRp1306
(dp1307
g61
(dp1308
g88
g89
ssg70
g1297
sg63
(lp1309
S':'
asbag56
(g77
g58
NtRp1310
(dp1311
g61
(dp1312
sg70
g1297
sg63
(lp1313
g56
(g57
g58
NtRp1314
(dp1315
g61
(dp1316
g69
I4
ssg70
g1310
sg63
(lp1317
S'/home/www-data/web2py/wsgihandler.py/scrum/sprint/detalhes'
p1318
asbasbasbag56
(g72
g58
NtRp1319
(dp1320
g61
(dp1321
sg70
g636
sg63
(lp1322
g56
(g77
g58
NtRp1323
(dp1324
g61
(dp1325
g81
g82
ssg70
g1319
sg63
(lp1326
S'query_string'
p1327
asbag56
(g77
g58
NtRp1328
(dp1329
g61
(dp1330
g88
g89
ssg70
g1319
sg63
(lp1331
S':'
asbag56
(g77
g58
NtRp1332
(dp1333
g61
(dp1334
sg70
g1319
sg63
(lp1335
g56
(g57
g58
NtRp1336
(dp1337
g61
(dp1338
g69
I4
ssg70
g1332
sg63
(lp1339
S''
asbasbasbag56
(g72
g58
NtRp1340
(dp1341
g61
(dp1342
sg70
g636
sg63
(lp1343
g56
(g77
g58
NtRp1344
(dp1345
g61
(dp1346
g81
g82
ssg70
g1340
sg63
(lp1347
S'remote_addr'
p1348
asbag56
(g77
g58
NtRp1349
(dp1350
g61
(dp1351
g88
g89
ssg70
g1340
sg63
(lp1352
S':'
asbag56
(g77
g58
NtRp1353
(dp1354
g61
(dp1355
sg70
g1340
sg63
(lp1356
g56
(g57
g58
NtRp1357
(dp1358
g61
(dp1359
g69
I4
ssg70
g1353
sg63
(lp1360
g189
asbasbasbag56
(g72
g58
NtRp1361
(dp1362
g61
(dp1363
sg70
g636
sg63
(lp1364
g56
(g77
g58
NtRp1365
(dp1366
g61
(dp1367
g81
g82
ssg70
g1361
sg63
(lp1368
S'remote_port'
p1369
asbag56
(g77
g58
NtRp1370
(dp1371
g61
(dp1372
g88
g89
ssg70
g1361
sg63
(lp1373
S':'
asbag56
(g77
g58
NtRp1374
(dp1375
g61
(dp1376
sg70
g1361
sg63
(lp1377
g56
(g57
g58
NtRp1378
(dp1379
g61
(dp1380
g69
I4
ssg70
g1374
sg63
(lp1381
S'47429'
p1382
asbasbasbag56
(g72
g58
NtRp1383
(dp1384
g61
(dp1385
sg70
g636
sg63
(lp1386
g56
(g77
g58
NtRp1387
(dp1388
g61
(dp1389
g81
g82
ssg70
g1383
sg63
(lp1390
S'request_method'
p1391
asbag56
(g77
g58
NtRp1392
(dp1393
g61
(dp1394
g88
g89
ssg70
g1383
sg63
(lp1395
S':'
asbag56
(g77
g58
NtRp1396
(dp1397
g61
(dp1398
sg70
g1383
sg63
(lp1399
g56
(g57
g58
NtRp1400
(dp1401
g61
(dp1402
g69
I4
ssg70
g1396
sg63
(lp1403
S'GET'
p1404
asbasbasbag56
(g72
g58
NtRp1405
(dp1406
g61
(dp1407
sg70
g636
sg63
(lp1408
g56
(g77
g58
NtRp1409
(dp1410
g61
(dp1411
g81
g82
ssg70
g1405
sg63
(lp1412
S'request_uri'
p1413
asbag56
(g77
g58
NtRp1414
(dp1415
g61
(dp1416
g88
g89
ssg70
g1405
sg63
(lp1417
S':'
asbag56
(g77
g58
NtRp1418
(dp1419
g61
(dp1420
sg70
g1405
sg63
(lp1421
g56
(g57
g58
NtRp1422
(dp1423
g61
(dp1424
g69
I4
ssg70
g1418
sg63
(lp1425
S'/scrum/sprint/detalhes'
p1426
asbasbasbag56
(g72
g58
NtRp1427
(dp1428
g61
(dp1429
sg70
g636
sg63
(lp1430
g56
(g77
g58
NtRp1431
(dp1432
g61
(dp1433
g81
g82
ssg70
g1427
sg63
(lp1434
S'script_filename'
p1435
asbag56
(g77
g58
NtRp1436
(dp1437
g61
(dp1438
g88
g89
ssg70
g1427
sg63
(lp1439
S':'
asbag56
(g77
g58
NtRp1440
(dp1441
g61
(dp1442
sg70
g1427
sg63
(lp1443
g56
(g57
g58
NtRp1444
(dp1445
g61
(dp1446
g69
I4
ssg70
g1440
sg63
(lp1447
S'/home/www-data/web2py/wsgihandler.py'
p1448
asbasbasbag56
(g72
g58
NtRp1449
(dp1450
g61
(dp1451
sg70
g636
sg63
(lp1452
g56
(g77
g58
NtRp1453
(dp1454
g61
(dp1455
g81
g82
ssg70
g1449
sg63
(lp1456
S'script_name'
p1457
asbag56
(g77
g58
NtRp1458
(dp1459
g61
(dp1460
g88
g89
ssg70
g1449
sg63
(lp1461
S':'
asbag56
(g77
g58
NtRp1462
(dp1463
g61
(dp1464
sg70
g1449
sg63
(lp1465
g56
(g57
g58
NtRp1466
(dp1467
g61
(dp1468
g69
I4
ssg70
g1462
sg63
(lp1469
S''
asbasbasbag56
(g72
g58
NtRp1470
(dp1471
g61
(dp1472
sg70
g636
sg63
(lp1473
g56
(g77
g58
NtRp1474
(dp1475
g61
(dp1476
g81
g82
ssg70
g1470
sg63
(lp1477
S'server_addr'
p1478
asbag56
(g77
g58
NtRp1479
(dp1480
g61
(dp1481
g88
g89
ssg70
g1470
sg63
(lp1482
S':'
asbag56
(g77
g58
NtRp1483
(dp1484
g61
(dp1485
sg70
g1470
sg63
(lp1486
g56
(g57
g58
NtRp1487
(dp1488
g61
(dp1489
g69
I4
ssg70
g1483
sg63
(lp1490
S'127.0.0.1'
p1491
asbasbasbag56
(g72
g58
NtRp1492
(dp1493
g61
(dp1494
sg70
g636
sg63
(lp1495
g56
(g77
g58
NtRp1496
(dp1497
g61
(dp1498
g81
g82
ssg70
g1492
sg63
(lp1499
S'server_admin'
p1500
asbag56
(g77
g58
NtRp1501
(dp1502
g61
(dp1503
g88
g89
ssg70
g1492
sg63
(lp1504
S':'
asbag56
(g77
g58
NtRp1505
(dp1506
g61
(dp1507
sg70
g1492
sg63
(lp1508
g56
(g57
g58
NtRp1509
(dp1510
g61
(dp1511
g69
I4
ssg70
g1505
sg63
(lp1512
S'[no address given]'
p1513
asbasbasbag56
(g72
g58
NtRp1514
(dp1515
g61
(dp1516
sg70
g636
sg63
(lp1517
g56
(g77
g58
NtRp1518
(dp1519
g61
(dp1520
g81
g82
ssg70
g1514
sg63
(lp1521
S'server_name'
p1522
asbag56
(g77
g58
NtRp1523
(dp1524
g61
(dp1525
g88
g89
ssg70
g1514
sg63
(lp1526
S':'
asbag56
(g77
g58
NtRp1527
(dp1528
g61
(dp1529
sg70
g1514
sg63
(lp1530
g56
(g57
g58
NtRp1531
(dp1532
g61
(dp1533
g69
I4
ssg70
g1527
sg63
(lp1534
S'localhost'
p1535
asbasbasbag56
(g72
g58
NtRp1536
(dp1537
g61
(dp1538
sg70
g636
sg63
(lp1539
g56
(g77
g58
NtRp1540
(dp1541
g61
(dp1542
g81
g82
ssg70
g1536
sg63
(lp1543
S'server_port'
p1544
asbag56
(g77
g58
NtRp1545
(dp1546
g61
(dp1547
g88
g89
ssg70
g1536
sg63
(lp1548
S':'
asbag56
(g77
g58
NtRp1549
(dp1550
g61
(dp1551
sg70
g1536
sg63
(lp1552
g56
(g57
g58
NtRp1553
(dp1554
g61
(dp1555
g69
I4
ssg70
g1549
sg63
(lp1556
S'443'
p1557
asbasbasbag56
(g72
g58
NtRp1558
(dp1559
g61
(dp1560
sg70
g636
sg63
(lp1561
g56
(g77
g58
NtRp1562
(dp1563
g61
(dp1564
g81
g82
ssg70
g1558
sg63
(lp1565
S'server_protocol'
p1566
asbag56
(g77
g58
NtRp1567
(dp1568
g61
(dp1569
g88
g89
ssg70
g1558
sg63
(lp1570
S':'
asbag56
(g77
g58
NtRp1571
(dp1572
g61
(dp1573
sg70
g1558
sg63
(lp1574
g56
(g57
g58
NtRp1575
(dp1576
g61
(dp1577
g69
I4
ssg70
g1571
sg63
(lp1578
S'HTTP/1.1'
p1579
asbasbasbag56
(g72
g58
NtRp1580
(dp1581
g61
(dp1582
sg70
g636
sg63
(lp1583
g56
(g77
g58
NtRp1584
(dp1585
g61
(dp1586
g81
g82
ssg70
g1580
sg63
(lp1587
S'server_signature'
p1588
asbag56
(g77
g58
NtRp1589
(dp1590
g61
(dp1591
g88
g89
ssg70
g1580
sg63
(lp1592
S':'
asbag56
(g77
g58
NtRp1593
(dp1594
g61
(dp1595
sg70
g1580
sg63
(lp1596
g56
(g57
g58
NtRp1597
(dp1598
g61
(dp1599
g69
I4
ssg70
g1593
sg63
(lp1600
S'<address>Apache/2.2.17 (Ubuntu) Server at localhost Port 443</address>\n'
p1601
asbasbasbag56
(g72
g58
NtRp1602
(dp1603
g61
(dp1604
sg70
g636
sg63
(lp1605
g56
(g77
g58
NtRp1606
(dp1607
g61
(dp1608
g81
g82
ssg70
g1602
sg63
(lp1609
S'server_software'
p1610
asbag56
(g77
g58
NtRp1611
(dp1612
g61
(dp1613
g88
g89
ssg70
g1602
sg63
(lp1614
S':'
asbag56
(g77
g58
NtRp1615
(dp1616
g61
(dp1617
sg70
g1602
sg63
(lp1618
g56
(g57
g58
NtRp1619
(dp1620
g61
(dp1621
g69
I4
ssg70
g1615
sg63
(lp1622
S'Apache/2.2.17 (Ubuntu)'
p1623
asbasbasbag56
(g72
g58
NtRp1624
(dp1625
g61
(dp1626
sg70
g636
sg63
(lp1627
g56
(g77
g58
NtRp1628
(dp1629
g61
(dp1630
g81
g82
ssg70
g1624
sg63
(lp1631
S'ssl_tls_sni'
p1632
asbag56
(g77
g58
NtRp1633
(dp1634
g61
(dp1635
g88
g89
ssg70
g1624
sg63
(lp1636
S':'
asbag56
(g77
g58
NtRp1637
(dp1638
g61
(dp1639
sg70
g1624
sg63
(lp1640
g56
(g57
g58
NtRp1641
(dp1642
g61
(dp1643
g69
I4
ssg70
g1637
sg63
(lp1644
S'localhost'
p1645
asbasbasbag56
(g72
g58
NtRp1646
(dp1647
g61
(dp1648
sg70
g636
sg63
(lp1649
g56
(g77
g58
NtRp1650
(dp1651
g61
(dp1652
g81
g82
ssg70
g1646
sg63
(lp1653
S'web2py_path'
p1654
asbag56
(g77
g58
NtRp1655
(dp1656
g61
(dp1657
g88
g89
ssg70
g1646
sg63
(lp1658
S':'
asbag56
(g77
g58
NtRp1659
(dp1660
g61
(dp1661
sg70
g1646
sg63
(lp1662
g56
(g57
g58
NtRp1663
(dp1664
g61
(dp1665
g69
I4
ssg70
g1659
sg63
(lp1666
g683
asbasbasbag56
(g72
g58
NtRp1667
(dp1668
g61
(dp1669
sg70
g636
sg63
(lp1670
g56
(g77
g58
NtRp1671
(dp1672
g61
(dp1673
g81
g82
ssg70
g1667
sg63
(lp1674
S'web2py_version'
p1675
asbag56
(g77
g58
NtRp1676
(dp1677
g61
(dp1678
g88
g89
ssg70
g1667
sg63
(lp1679
S':'
asbag56
(g77
g58
NtRp1680
(dp1681
g61
(dp1682
sg70
g1667
sg63
(lp1683
g56
(g57
g58
NtRp1684
(dp1685
g61
(dp1686
g69
I4
ssg70
g1680
sg63
(lp1687
S'Version 1.98.2 (2011-08-04 00:47:09)\n'
p1688
asbasbasbag56
(g72
g58
NtRp1689
(dp1690
g61
(dp1691
sg70
g636
sg63
(lp1692
g56
(g77
g58
NtRp1693
(dp1694
g61
(dp1695
g81
g82
ssg70
g1689
sg63
(lp1696
S'wsgi_errors'
p1697
asbag56
(g77
g58
NtRp1698
(dp1699
g61
(dp1700
g88
g89
ssg70
g1689
sg63
(lp1701
S':'
asbag56
(g77
g58
NtRp1702
(dp1703
g61
(dp1704
sg70
g1689
sg63
(lp1705
g56
(g57
g58
NtRp1706
(dp1707
g61
(dp1708
g69
I4
ssg70
g1702
sg63
(lp1709
S'<mod_wsgi.Log object at 0xb9488930>'
p1710
asbasbasbag56
(g72
g58
NtRp1711
(dp1712
g61
(dp1713
sg70
g636
sg63
(lp1714
g56
(g77
g58
NtRp1715
(dp1716
g61
(dp1717
g81
g82
ssg70
g1711
sg63
(lp1718
S'wsgi_file_wrapper'
p1719
asbag56
(g77
g58
NtRp1720
(dp1721
g61
(dp1722
g88
g89
ssg70
g1711
sg63
(lp1723
S':'
asbag56
(g77
g58
NtRp1724
(dp1725
g61
(dp1726
sg70
g1711
sg63
(lp1727
g56
(g57
g58
NtRp1728
(dp1729
g61
(dp1730
g69
I4
ssg70
g1724
sg63
(lp1731
S'<built-in method file_wrapper of mod_wsgi.Adapter object at 0xb98787b8>'
p1732
asbasbasbag56
(g72
g58
NtRp1733
(dp1734
g61
(dp1735
sg70
g636
sg63
(lp1736
g56
(g77
g58
NtRp1737
(dp1738
g61
(dp1739
g81
g82
ssg70
g1733
sg63
(lp1740
S'wsgi_input'
p1741
asbag56
(g77
g58
NtRp1742
(dp1743
g61
(dp1744
g88
g89
ssg70
g1733
sg63
(lp1745
S':'
asbag56
(g77
g58
NtRp1746
(dp1747
g61
(dp1748
sg70
g1733
sg63
(lp1749
g56
(g57
g58
NtRp1750
(dp1751
g61
(dp1752
g69
I4
ssg70
g1746
sg63
(lp1753
S'<mod_wsgi.Input object at 0xb9488548>'
p1754
asbasbasbag56
(g72
g58
NtRp1755
(dp1756
g61
(dp1757
sg70
g636
sg63
(lp1758
g56
(g77
g58
NtRp1759
(dp1760
g61
(dp1761
g81
g82
ssg70
g1755
sg63
(lp1762
S'wsgi_multiprocess'
p1763
asbag56
(g77
g58
NtRp1764
(dp1765
g61
(dp1766
g88
g89
ssg70
g1755
sg63
(lp1767
S':'
asbag56
(g77
g58
NtRp1768
(dp1769
g61
(dp1770
sg70
g1755
sg63
(lp1771
g56
(g57
g58
NtRp1772
(dp1773
g61
(dp1774
g69
I4
ssg70
g1768
sg63
(lp1775
g99
asbasbasbag56
(g72
g58
NtRp1776
(dp1777
g61
(dp1778
sg70
g636
sg63
(lp1779
g56
(g77
g58
NtRp1780
(dp1781
g61
(dp1782
g81
g82
ssg70
g1776
sg63
(lp1783
S'wsgi_multithread'
p1784
asbag56
(g77
g58
NtRp1785
(dp1786
g61
(dp1787
g88
g89
ssg70
g1776
sg63
(lp1788
S':'
asbag56
(g77
g58
NtRp1789
(dp1790
g61
(dp1791
sg70
g1776
sg63
(lp1792
g56
(g57
g58
NtRp1793
(dp1794
g61
(dp1795
g69
I4
ssg70
g1789
sg63
(lp1796
S'True'
p1797
asbasbasbag56
(g72
g58
NtRp1798
(dp1799
g61
(dp1800
sg70
g636
sg63
(lp1801
g56
(g77
g58
NtRp1802
(dp1803
g61
(dp1804
g81
g82
ssg70
g1798
sg63
(lp1805
S'wsgi_run_once'
p1806
asbag56
(g77
g58
NtRp1807
(dp1808
g61
(dp1809
g88
g89
ssg70
g1798
sg63
(lp1810
S':'
asbag56
(g77
g58
NtRp1811
(dp1812
g61
(dp1813
sg70
g1798
sg63
(lp1814
g56
(g57
g58
NtRp1815
(dp1816
g61
(dp1817
g69
I4
ssg70
g1811
sg63
(lp1818
g99
asbasbasbag56
(g72
g58
NtRp1819
(dp1820
g61
(dp1821
sg70
g636
sg63
(lp1822
g56
(g77
g58
NtRp1823
(dp1824
g61
(dp1825
g81
g82
ssg70
g1819
sg63
(lp1826
S'wsgi_url_scheme'
p1827
asbag56
(g77
g58
NtRp1828
(dp1829
g61
(dp1830
g88
g89
ssg70
g1819
sg63
(lp1831
S':'
asbag56
(g77
g58
NtRp1832
(dp1833
g61
(dp1834
sg70
g1819
sg63
(lp1835
g56
(g57
g58
NtRp1836
(dp1837
g61
(dp1838
g69
I4
ssg70
g1832
sg63
(lp1839
S'https'
p1840
asbasbasbag56
(g72
g58
NtRp1841
(dp1842
g61
(dp1843
sg70
g636
sg63
(lp1844
g56
(g77
g58
NtRp1845
(dp1846
g61
(dp1847
g81
g82
ssg70
g1841
sg63
(lp1848
S'wsgi_version'
p1849
asbag56
(g77
g58
NtRp1850
(dp1851
g61
(dp1852
g88
g89
ssg70
g1841
sg63
(lp1853
S':'
asbag56
(g77
g58
NtRp1854
(dp1855
g61
(dp1856
sg70
g1841
sg63
(lp1857
g56
(g57
g58
NtRp1858
(dp1859
g61
(dp1860
g69
I4
ssg70
g1854
sg63
(lp1861
g56
(g65
g58
NtRp1862
(dp1863
g61
(dp1864
g69
I3
ssg70
Nsg63
(lp1865
g56
(g72
g58
NtRp1866
(dp1867
g61
(dp1868
sg70
g1862
sg63
(lp1869
g56
(g77
g58
NtRp1870
(dp1871
g61
(dp1872
sg70
g1866
sg63
(lp1873
g56
(g57
g58
NtRp1874
(dp1875
g61
(dp1876
g69
I3
ssg70
g1870
sg63
(lp1877
S'1'
asbasbasbag56
(g72
g58
NtRp1878
(dp1879
g61
(dp1880
sg70
g1862
sg63
(lp1881
g56
(g77
g58
NtRp1882
(dp1883
g61
(dp1884
sg70
g1878
sg63
(lp1885
g56
(g57
g58
NtRp1886
(dp1887
g61
(dp1888
g69
I3
ssg70
g1882
sg63
(lp1889
S'1'
asbasbasbasbasbasbasbasbasbasbasbag56
(g72
g58
NtRp1890
(dp1891
g61
(dp1892
sg70
g66
sg63
(lp1893
g56
(g77
g58
NtRp1894
(dp1895
g61
(dp1896
g81
g82
ssg70
g1890
sg63
(lp1897
S'extension'
p1898
asbag56
(g77
g58
NtRp1899
(dp1900
g61
(dp1901
g88
g89
ssg70
g1890
sg63
(lp1902
S':'
asbag56
(g77
g58
NtRp1903
(dp1904
g61
(dp1905
sg70
g1890
sg63
(lp1906
g56
(g57
g58
NtRp1907
(dp1908
g61
(dp1909
g69
I5
ssg70
g1903
sg63
(lp1910
S'html'
p1911
asbasbasbag56
(g72
g58
NtRp1912
(dp1913
g61
(dp1914
sg70
g66
sg63
(lp1915
g56
(g77
g58
NtRp1916
(dp1917
g61
(dp1918
g81
g82
ssg70
g1912
sg63
(lp1919
S'folder'
p1920
asbag56
(g77
g58
NtRp1921
(dp1922
g61
(dp1923
g88
g89
ssg70
g1912
sg63
(lp1924
S':'
asbag56
(g77
g58
NtRp1925
(dp1926
g61
(dp1927
sg70
g1912
sg63
(lp1928
g56
(g57
g58
NtRp1929
(dp1930
g61
(dp1931
g69
I5
ssg70
g1925
sg63
(lp1932
S'/home/www-data/web2py/applications/scrum/'
p1933
asbasbasbag56
(g72
g58
NtRp1934
(dp1935
g61
(dp1936
sg70
g66
sg63
(lp1937
g56
(g77
g58
NtRp1938
(dp1939
g61
(dp1940
g81
g82
ssg70
g1934
sg63
(lp1941
S'function'
p1942
asbag56
(g77
g58
NtRp1943
(dp1944
g61
(dp1945
g88
g89
ssg70
g1934
sg63
(lp1946
S':'
asbag56
(g77
g58
NtRp1947
(dp1948
g61
(dp1949
sg70
g1934
sg63
(lp1950
g56
(g57
g58
NtRp1951
(dp1952
g61
(dp1953
g69
I5
ssg70
g1947
sg63
(lp1954
S'detalhes'
p1955
asbasbasbag56
(g72
g58
NtRp1956
(dp1957
g61
(dp1958
sg70
g66
sg63
(lp1959
g56
(g77
g58
NtRp1960
(dp1961
g61
(dp1962
g81
g82
ssg70
g1956
sg63
(lp1963
S'get_vars'
p1964
asbag56
(g77
g58
NtRp1965
(dp1966
g61
(dp1967
g88
g89
ssg70
g1956
sg63
(lp1968
S':'
asbag56
(g77
g58
NtRp1969
(dp1970
g61
(dp1971
sg70
g1956
sg63
(lp1972
g56
(g57
g58
NtRp1973
(dp1974
g61
(dp1975
g69
I5
ssg70
g1969
sg63
(lp1976
g56
(g65
g58
NtRp1977
(dp1978
g61
(dp1979
g69
I4
ssg70
Nsg63
(lp1980
sbasbasbasbag56
(g72
g58
NtRp1981
(dp1982
g61
(dp1983
sg70
g66
sg63
(lp1984
g56
(g77
g58
NtRp1985
(dp1986
g61
(dp1987
g81
g82
ssg70
g1981
sg63
(lp1988
S'is_https'
p1989
asbag56
(g77
g58
NtRp1990
(dp1991
g61
(dp1992
g88
g89
ssg70
g1981
sg63
(lp1993
S':'
asbag56
(g77
g58
NtRp1994
(dp1995
g61
(dp1996
sg70
g1981
sg63
(lp1997
g56
(g57
g58
NtRp1998
(dp1999
g61
(dp2000
g69
I5
ssg70
g1994
sg63
(lp2001
g1797
asbasbasbag56
(g72
g58
NtRp2002
(dp2003
g61
(dp2004
sg70
g66
sg63
(lp2005
g56
(g77
g58
NtRp2006
(dp2007
g61
(dp2008
g81
g82
ssg70
g2002
sg63
(lp2009
S'is_local'
p2010
asbag56
(g77
g58
NtRp2011
(dp2012
g61
(dp2013
g88
g89
ssg70
g2002
sg63
(lp2014
S':'
asbag56
(g77
g58
NtRp2015
(dp2016
g61
(dp2017
sg70
g2002
sg63
(lp2018
g56
(g57
g58
NtRp2019
(dp2020
g61
(dp2021
g69
I5
ssg70
g2015
sg63
(lp2022
g1797
asbasbasbag56
(g72
g58
NtRp2023
(dp2024
g61
(dp2025
sg70
g66
sg63
(lp2026
g56
(g77
g58
NtRp2027
(dp2028
g61
(dp2029
g81
g82
ssg70
g2023
sg63
(lp2030
S'is_restful'
p2031
asbag56
(g77
g58
NtRp2032
(dp2033
g61
(dp2034
g88
g89
ssg70
g2023
sg63
(lp2035
S':'
asbag56
(g77
g58
NtRp2036
(dp2037
g61
(dp2038
sg70
g2023
sg63
(lp2039
g56
(g57
g58
NtRp2040
(dp2041
g61
(dp2042
g69
I5
ssg70
g2036
sg63
(lp2043
g99
asbasbasbag56
(g72
g58
NtRp2044
(dp2045
g61
(dp2046
sg70
g66
sg63
(lp2047
g56
(g77
g58
NtRp2048
(dp2049
g61
(dp2050
g81
g82
ssg70
g2044
sg63
(lp2051
S'now'
p2052
asbag56
(g77
g58
NtRp2053
(dp2054
g61
(dp2055
g88
g89
ssg70
g2044
sg63
(lp2056
S':'
asbag56
(g77
g58
NtRp2057
(dp2058
g61
(dp2059
sg70
g2044
sg63
(lp2060
g56
(g57
g58
NtRp2061
(dp2062
g61
(dp2063
g69
I5
ssg70
g2057
sg63
(lp2064
S'datetime.datetime(2011, 9, 12, 16, 15, 54, 211745)'
p2065
asbasbasbag56
(g72
g58
NtRp2066
(dp2067
g61
(dp2068
sg70
g66
sg63
(lp2069
g56
(g77
g58
NtRp2070
(dp2071
g61
(dp2072
g81
g82
ssg70
g2066
sg63
(lp2073
S'post_vars'
p2074
asbag56
(g77
g58
NtRp2075
(dp2076
g61
(dp2077
g88
g89
ssg70
g2066
sg63
(lp2078
S':'
asbag56
(g77
g58
NtRp2079
(dp2080
g61
(dp2081
sg70
g2066
sg63
(lp2082
g56
(g57
g58
NtRp2083
(dp2084
g61
(dp2085
g69
I5
ssg70
g2079
sg63
(lp2086
g56
(g65
g58
NtRp2087
(dp2088
g61
(dp2089
g69
I4
ssg70
Nsg63
(lp2090
sbasbasbasbag56
(g72
g58
NtRp2091
(dp2092
g61
(dp2093
sg70
g66
sg63
(lp2094
g56
(g77
g58
NtRp2095
(dp2096
g61
(dp2097
g81
g82
ssg70
g2091
sg63
(lp2098
S'url'
p2099
asbag56
(g77
g58
NtRp2100
(dp2101
g61
(dp2102
g88
g89
ssg70
g2091
sg63
(lp2103
S':'
asbag56
(g77
g58
NtRp2104
(dp2105
g61
(dp2106
sg70
g2091
sg63
(lp2107
g56
(g57
g58
NtRp2108
(dp2109
g61
(dp2110
g69
I5
ssg70
g2104
sg63
(lp2111
S'/scrum/sprint/detalhes'
p2112
asbasbasbag56
(g72
g58
NtRp2113
(dp2114
g61
(dp2115
sg70
g66
sg63
(lp2116
g56
(g77
g58
NtRp2117
(dp2118
g61
(dp2119
g81
g82
ssg70
g2113
sg63
(lp2120
S'uuid'
p2121
asbag56
(g77
g58
NtRp2122
(dp2123
g61
(dp2124
g88
g89
ssg70
g2113
sg63
(lp2125
S':'
asbag56
(g77
g58
NtRp2126
(dp2127
g61
(dp2128
sg70
g2113
sg63
(lp2129
g56
(g57
g58
NtRp2130
(dp2131
g61
(dp2132
g69
I5
ssg70
g2126
sg63
(lp2133
S'scrum/127.0.0.1.2011-09-12.16-15-54.7f5dd6f7-d008-4443-94b4-b9a0e3dc96d3'
p2134
asbasbasbag56
(g72
g58
NtRp2135
(dp2136
g61
(dp2137
sg70
g66
sg63
(lp2138
g56
(g77
g58
NtRp2139
(dp2140
g61
(dp2141
g81
g82
ssg70
g2135
sg63
(lp2142
S'vars'
p2143
asbag56
(g77
g58
NtRp2144
(dp2145
g61
(dp2146
g88
g89
ssg70
g2135
sg63
(lp2147
S':'
asbag56
(g77
g58
NtRp2148
(dp2149
g61
(dp2150
sg70
g2135
sg63
(lp2151
g56
(g57
g58
NtRp2152
(dp2153
g61
(dp2154
g69
I5
ssg70
g2148
sg63
(lp2155
g56
(g65
g58
NtRp2156
(dp2157
g61
(dp2158
g69
I4
ssg70
Nsg63
(lp2159
sbasbasbasbag56
(g72
g58
NtRp2160
(dp2161
g61
(dp2162
sg70
g66
sg63
(lp2163
g56
(g77
g58
NtRp2164
(dp2165
g61
(dp2166
g81
g82
ssg70
g2160
sg63
(lp2167
S'wsgi'
p2168
asbag56
(g77
g58
NtRp2169
(dp2170
g61
(dp2171
g88
g89
ssg70
g2160
sg63
(lp2172
S':'
asbag56
(g77
g58
NtRp2173
(dp2174
g61
(dp2175
sg70
g2160
sg63
(lp2176
g56
(g57
g58
NtRp2177
(dp2178
g61
(dp2179
g69
I5
ssg70
g2173
sg63
(lp2180
g56
(g65
g58
NtRp2181
(dp2182
g61
(dp2183
g69
I4
ssg70
Nsg63
(lp2184
g56
(g72
g58
NtRp2185
(dp2186
g61
(dp2187
sg70
g2181
sg63
(lp2188
g56
(g77
g58
NtRp2189
(dp2190
g61
(dp2191
g81
g82
ssg70
g2185
sg63
(lp2192
S'environ'
p2193
asbag56
(g77
g58
NtRp2194
(dp2195
g61
(dp2196
g88
g89
ssg70
g2185
sg63
(lp2197
S':'
asbag56
(g77
g58
NtRp2198
(dp2199
g61
(dp2200
sg70
g2185
sg63
(lp2201
g56
(g57
g58
NtRp2202
(dp2203
g61
(dp2204
g69
I4
ssg70
g2198
sg63
(lp2205
g56
(g65
g58
NtRp2206
(dp2207
g61
(dp2208
g69
I3
ssg70
Nsg63
(lp2209
g56
(g72
g58
NtRp2210
(dp2211
g61
(dp2212
sg70
g2206
sg63
(lp2213
g56
(g77
g58
NtRp2214
(dp2215
g61
(dp2216
g81
g82
ssg70
g2210
sg63
(lp2217
S'DOCUMENT_ROOT'
p2218
asbag56
(g77
g58
NtRp2219
(dp2220
g61
(dp2221
g88
g89
ssg70
g2210
sg63
(lp2222
S':'
asbag56
(g77
g58
NtRp2223
(dp2224
g61
(dp2225
sg70
g2210
sg63
(lp2226
g56
(g57
g58
NtRp2227
(dp2228
g61
(dp2229
g69
I3
ssg70
g2223
sg63
(lp2230
g748
asbasbasbag56
(g72
g58
NtRp2231
(dp2232
g61
(dp2233
sg70
g2206
sg63
(lp2234
g56
(g77
g58
NtRp2235
(dp2236
g61
(dp2237
g81
g82
ssg70
g2231
sg63
(lp2238
S'GATEWAY_INTERFACE'
p2239
asbag56
(g77
g58
NtRp2240
(dp2241
g61
(dp2242
g88
g89
ssg70
g2231
sg63
(lp2243
S':'
asbag56
(g77
g58
NtRp2244
(dp2245
g61
(dp2246
sg70
g2231
sg63
(lp2247
g56
(g57
g58
NtRp2248
(dp2249
g61
(dp2250
g69
I3
ssg70
g2244
sg63
(lp2251
g770
asbasbasbag56
(g72
g58
NtRp2252
(dp2253
g61
(dp2254
sg70
g2206
sg63
(lp2255
g56
(g77
g58
NtRp2256
(dp2257
g61
(dp2258
g81
g82
ssg70
g2252
sg63
(lp2259
S'HTTPS'
p2260
asbag56
(g77
g58
NtRp2261
(dp2262
g61
(dp2263
g88
g89
ssg70
g2252
sg63
(lp2264
S':'
asbag56
(g77
g58
NtRp2265
(dp2266
g61
(dp2267
sg70
g2252
sg63
(lp2268
g56
(g57
g58
NtRp2269
(dp2270
g61
(dp2271
g69
I3
ssg70
g2265
sg63
(lp2272
S'1'
asbasbasbag56
(g72
g58
NtRp2273
(dp2274
g61
(dp2275
sg70
g2206
sg63
(lp2276
g56
(g77
g58
NtRp2277
(dp2278
g61
(dp2279
g81
g82
ssg70
g2273
sg63
(lp2280
S'HTTP_ACCEPT'
p2281
asbag56
(g77
g58
NtRp2282
(dp2283
g61
(dp2284
g88
g89
ssg70
g2273
sg63
(lp2285
S':'
asbag56
(g77
g58
NtRp2286
(dp2287
g61
(dp2288
sg70
g2273
sg63
(lp2289
g56
(g57
g58
NtRp2290
(dp2291
g61
(dp2292
g69
I3
ssg70
g2286
sg63
(lp2293
g813
asbasbasbag56
(g72
g58
NtRp2294
(dp2295
g61
(dp2296
sg70
g2206
sg63
(lp2297
g56
(g77
g58
NtRp2298
(dp2299
g61
(dp2300
g81
g82
ssg70
g2294
sg63
(lp2301
S'HTTP_ACCEPT_CHARSET'
p2302
asbag56
(g77
g58
NtRp2303
(dp2304
g61
(dp2305
g88
g89
ssg70
g2294
sg63
(lp2306
S':'
asbag56
(g77
g58
NtRp2307
(dp2308
g61
(dp2309
sg70
g2294
sg63
(lp2310
g56
(g57
g58
NtRp2311
(dp2312
g61
(dp2313
g69
I3
ssg70
g2307
sg63
(lp2314
g835
asbasbasbag56
(g72
g58
NtRp2315
(dp2316
g61
(dp2317
sg70
g2206
sg63
(lp2318
g56
(g77
g58
NtRp2319
(dp2320
g61
(dp2321
g81
g82
ssg70
g2315
sg63
(lp2322
S'HTTP_ACCEPT_ENCODING'
p2323
asbag56
(g77
g58
NtRp2324
(dp2325
g61
(dp2326
g88
g89
ssg70
g2315
sg63
(lp2327
S':'
asbag56
(g77
g58
NtRp2328
(dp2329
g61
(dp2330
sg70
g2315
sg63
(lp2331
g56
(g57
g58
NtRp2332
(dp2333
g61
(dp2334
g69
I3
ssg70
g2328
sg63
(lp2335
g857
asbasbasbag56
(g72
g58
NtRp2336
(dp2337
g61
(dp2338
sg70
g2206
sg63
(lp2339
g56
(g77
g58
NtRp2340
(dp2341
g61
(dp2342
g81
g82
ssg70
g2336
sg63
(lp2343
S'HTTP_ACCEPT_LANGUAGE'
p2344
asbag56
(g77
g58
NtRp2345
(dp2346
g61
(dp2347
g88
g89
ssg70
g2336
sg63
(lp2348
S':'
asbag56
(g77
g58
NtRp2349
(dp2350
g61
(dp2351
sg70
g2336
sg63
(lp2352
g56
(g57
g58
NtRp2353
(dp2354
g61
(dp2355
g69
I3
ssg70
g2349
sg63
(lp2356
g879
asbasbasbag56
(g72
g58
NtRp2357
(dp2358
g61
(dp2359
sg70
g2206
sg63
(lp2360
g56
(g77
g58
NtRp2361
(dp2362
g61
(dp2363
g81
g82
ssg70
g2357
sg63
(lp2364
S'HTTP_CONNECTION'
p2365
asbag56
(g77
g58
NtRp2366
(dp2367
g61
(dp2368
g88
g89
ssg70
g2357
sg63
(lp2369
S':'
asbag56
(g77
g58
NtRp2370
(dp2371
g61
(dp2372
sg70
g2357
sg63
(lp2373
g56
(g57
g58
NtRp2374
(dp2375
g61
(dp2376
g69
I3
ssg70
g2370
sg63
(lp2377
g901
asbasbasbag56
(g72
g58
NtRp2378
(dp2379
g61
(dp2380
sg70
g2206
sg63
(lp2381
g56
(g77
g58
NtRp2382
(dp2383
g61
(dp2384
g81
g82
ssg70
g2378
sg63
(lp2385
S'HTTP_COOKIE'
p2386
asbag56
(g77
g58
NtRp2387
(dp2388
g61
(dp2389
g88
g89
ssg70
g2378
sg63
(lp2390
S':'
asbag56
(g77
g58
NtRp2391
(dp2392
g61
(dp2393
sg70
g2378
sg63
(lp2394
g56
(g57
g58
NtRp2395
(dp2396
g61
(dp2397
g69
I3
ssg70
g2391
sg63
(lp2398
g923
asbasbasbag56
(g72
g58
NtRp2399
(dp2400
g61
(dp2401
sg70
g2206
sg63
(lp2402
g56
(g77
g58
NtRp2403
(dp2404
g61
(dp2405
g81
g82
ssg70
g2399
sg63
(lp2406
S'HTTP_HOST'
p2407
asbag56
(g77
g58
NtRp2408
(dp2409
g61
(dp2410
g88
g89
ssg70
g2399
sg63
(lp2411
S':'
asbag56
(g77
g58
NtRp2412
(dp2413
g61
(dp2414
sg70
g2399
sg63
(lp2415
g56
(g57
g58
NtRp2416
(dp2417
g61
(dp2418
g69
I3
ssg70
g2412
sg63
(lp2419
g945
asbasbasbag56
(g72
g58
NtRp2420
(dp2421
g61
(dp2422
sg70
g2206
sg63
(lp2423
g56
(g77
g58
NtRp2424
(dp2425
g61
(dp2426
g81
g82
ssg70
g2420
sg63
(lp2427
S'HTTP_REFERER'
p2428
asbag56
(g77
g58
NtRp2429
(dp2430
g61
(dp2431
g88
g89
ssg70
g2420
sg63
(lp2432
S':'
asbag56
(g77
g58
NtRp2433
(dp2434
g61
(dp2435
sg70
g2420
sg63
(lp2436
g56
(g57
g58
NtRp2437
(dp2438
g61
(dp2439
g69
I3
ssg70
g2433
sg63
(lp2440
g967
asbasbasbag56
(g72
g58
NtRp2441
(dp2442
g61
(dp2443
sg70
g2206
sg63
(lp2444
g56
(g77
g58
NtRp2445
(dp2446
g61
(dp2447
g81
g82
ssg70
g2441
sg63
(lp2448
S'HTTP_USER_AGENT'
p2449
asbag56
(g77
g58
NtRp2450
(dp2451
g61
(dp2452
g88
g89
ssg70
g2441
sg63
(lp2453
S':'
asbag56
(g77
g58
NtRp2454
(dp2455
g61
(dp2456
sg70
g2441
sg63
(lp2457
g56
(g57
g58
NtRp2458
(dp2459
g61
(dp2460
g69
I3
ssg70
g2454
sg63
(lp2461
g989
asbasbasbag56
(g72
g58
NtRp2462
(dp2463
g61
(dp2464
sg70
g2206
sg63
(lp2465
g56
(g77
g58
NtRp2466
(dp2467
g61
(dp2468
g81
g82
ssg70
g2462
sg63
(lp2469
S'PATH_INFO'
p2470
asbag56
(g77
g58
NtRp2471
(dp2472
g61
(dp2473
g88
g89
ssg70
g2462
sg63
(lp2474
S':'
asbag56
(g77
g58
NtRp2475
(dp2476
g61
(dp2477
sg70
g2462
sg63
(lp2478
g56
(g57
g58
NtRp2479
(dp2480
g61
(dp2481
g69
I3
ssg70
g2475
sg63
(lp2482
g1296
asbasbasbag56
(g72
g58
NtRp2483
(dp2484
g61
(dp2485
sg70
g2206
sg63
(lp2486
g56
(g77
g58
NtRp2487
(dp2488
g61
(dp2489
g81
g82
ssg70
g2483
sg63
(lp2490
S'PATH_TRANSLATED'
p2491
asbag56
(g77
g58
NtRp2492
(dp2493
g61
(dp2494
g88
g89
ssg70
g2483
sg63
(lp2495
S':'
asbag56
(g77
g58
NtRp2496
(dp2497
g61
(dp2498
sg70
g2483
sg63
(lp2499
g56
(g57
g58
NtRp2500
(dp2501
g61
(dp2502
g69
I3
ssg70
g2496
sg63
(lp2503
g1318
asbasbasbag56
(g72
g58
NtRp2504
(dp2505
g61
(dp2506
sg70
g2206
sg63
(lp2507
g56
(g77
g58
NtRp2508
(dp2509
g61
(dp2510
g81
g82
ssg70
g2504
sg63
(lp2511
S'QUERY_STRING'
p2512
asbag56
(g77
g58
NtRp2513
(dp2514
g61
(dp2515
g88
g89
ssg70
g2504
sg63
(lp2516
S':'
asbag56
(g77
g58
NtRp2517
(dp2518
g61
(dp2519
sg70
g2504
sg63
(lp2520
g56
(g57
g58
NtRp2521
(dp2522
g61
(dp2523
g69
I3
ssg70
g2517
sg63
(lp2524
S''
asbasbasbag56
(g72
g58
NtRp2525
(dp2526
g61
(dp2527
sg70
g2206
sg63
(lp2528
g56
(g77
g58
NtRp2529
(dp2530
g61
(dp2531
g81
g82
ssg70
g2525
sg63
(lp2532
S'REMOTE_ADDR'
p2533
asbag56
(g77
g58
NtRp2534
(dp2535
g61
(dp2536
g88
g89
ssg70
g2525
sg63
(lp2537
S':'
asbag56
(g77
g58
NtRp2538
(dp2539
g61
(dp2540
sg70
g2525
sg63
(lp2541
g56
(g57
g58
NtRp2542
(dp2543
g61
(dp2544
g69
I3
ssg70
g2538
sg63
(lp2545
g189
asbasbasbag56
(g72
g58
NtRp2546
(dp2547
g61
(dp2548
sg70
g2206
sg63
(lp2549
g56
(g77
g58
NtRp2550
(dp2551
g61
(dp2552
g81
g82
ssg70
g2546
sg63
(lp2553
S'REMOTE_PORT'
p2554
asbag56
(g77
g58
NtRp2555
(dp2556
g61
(dp2557
g88
g89
ssg70
g2546
sg63
(lp2558
S':'
asbag56
(g77
g58
NtRp2559
(dp2560
g61
(dp2561
sg70
g2546
sg63
(lp2562
g56
(g57
g58
NtRp2563
(dp2564
g61
(dp2565
g69
I3
ssg70
g2559
sg63
(lp2566
g1382
asbasbasbag56
(g72
g58
NtRp2567
(dp2568
g61
(dp2569
sg70
g2206
sg63
(lp2570
g56
(g77
g58
NtRp2571
(dp2572
g61
(dp2573
g81
g82
ssg70
g2567
sg63
(lp2574
S'REQUEST_METHOD'
p2575
asbag56
(g77
g58
NtRp2576
(dp2577
g61
(dp2578
g88
g89
ssg70
g2567
sg63
(lp2579
S':'
asbag56
(g77
g58
NtRp2580
(dp2581
g61
(dp2582
sg70
g2567
sg63
(lp2583
g56
(g57
g58
NtRp2584
(dp2585
g61
(dp2586
g69
I3
ssg70
g2580
sg63
(lp2587
g1404
asbasbasbag56
(g72
g58
NtRp2588
(dp2589
g61
(dp2590
sg70
g2206
sg63
(lp2591
g56
(g77
g58
NtRp2592
(dp2593
g61
(dp2594
g81
g82
ssg70
g2588
sg63
(lp2595
S'REQUEST_URI'
p2596
asbag56
(g77
g58
NtRp2597
(dp2598
g61
(dp2599
g88
g89
ssg70
g2588
sg63
(lp2600
S':'
asbag56
(g77
g58
NtRp2601
(dp2602
g61
(dp2603
sg70
g2588
sg63
(lp2604
g56
(g57
g58
NtRp2605
(dp2606
g61
(dp2607
g69
I3
ssg70
g2601
sg63
(lp2608
g1426
asbasbasbag56
(g72
g58
NtRp2609
(dp2610
g61
(dp2611
sg70
g2206
sg63
(lp2612
g56
(g77
g58
NtRp2613
(dp2614
g61
(dp2615
g81
g82
ssg70
g2609
sg63
(lp2616
S'SCRIPT_FILENAME'
p2617
asbag56
(g77
g58
NtRp2618
(dp2619
g61
(dp2620
g88
g89
ssg70
g2609
sg63
(lp2621
S':'
asbag56
(g77
g58
NtRp2622
(dp2623
g61
(dp2624
sg70
g2609
sg63
(lp2625
g56
(g57
g58
NtRp2626
(dp2627
g61
(dp2628
g69
I3
ssg70
g2622
sg63
(lp2629
g1448
asbasbasbag56
(g72
g58
NtRp2630
(dp2631
g61
(dp2632
sg70
g2206
sg63
(lp2633
g56
(g77
g58
NtRp2634
(dp2635
g61
(dp2636
g81
g82
ssg70
g2630
sg63
(lp2637
S'SCRIPT_NAME'
p2638
asbag56
(g77
g58
NtRp2639
(dp2640
g61
(dp2641
g88
g89
ssg70
g2630
sg63
(lp2642
S':'
asbag56
(g77
g58
NtRp2643
(dp2644
g61
(dp2645
sg70
g2630
sg63
(lp2646
g56
(g57
g58
NtRp2647
(dp2648
g61
(dp2649
g69
I3
ssg70
g2643
sg63
(lp2650
S''
asbasbasbag56
(g72
g58
NtRp2651
(dp2652
g61
(dp2653
sg70
g2206
sg63
(lp2654
g56
(g77
g58
NtRp2655
(dp2656
g61
(dp2657
g81
g82
ssg70
g2651
sg63
(lp2658
S'SERVER_ADDR'
p2659
asbag56
(g77
g58
NtRp2660
(dp2661
g61
(dp2662
g88
g89
ssg70
g2651
sg63
(lp2663
S':'
asbag56
(g77
g58
NtRp2664
(dp2665
g61
(dp2666
sg70
g2651
sg63
(lp2667
g56
(g57
g58
NtRp2668
(dp2669
g61
(dp2670
g69
I3
ssg70
g2664
sg63
(lp2671
g1491
asbasbasbag56
(g72
g58
NtRp2672
(dp2673
g61
(dp2674
sg70
g2206
sg63
(lp2675
g56
(g77
g58
NtRp2676
(dp2677
g61
(dp2678
g81
g82
ssg70
g2672
sg63
(lp2679
S'SERVER_ADMIN'
p2680
asbag56
(g77
g58
NtRp2681
(dp2682
g61
(dp2683
g88
g89
ssg70
g2672
sg63
(lp2684
S':'
asbag56
(g77
g58
NtRp2685
(dp2686
g61
(dp2687
sg70
g2672
sg63
(lp2688
g56
(g57
g58
NtRp2689
(dp2690
g61
(dp2691
g69
I3
ssg70
g2685
sg63
(lp2692
g1513
asbasbasbag56
(g72
g58
NtRp2693
(dp2694
g61
(dp2695
sg70
g2206
sg63
(lp2696
g56
(g77
g58
NtRp2697
(dp2698
g61
(dp2699
g81
g82
ssg70
g2693
sg63
(lp2700
S'SERVER_NAME'
p2701
asbag56
(g77
g58
NtRp2702
(dp2703
g61
(dp2704
g88
g89
ssg70
g2693
sg63
(lp2705
S':'
asbag56
(g77
g58
NtRp2706
(dp2707
g61
(dp2708
sg70
g2693
sg63
(lp2709
g56
(g57
g58
NtRp2710
(dp2711
g61
(dp2712
g69
I3
ssg70
g2706
sg63
(lp2713
g1535
asbasbasbag56
(g72
g58
NtRp2714
(dp2715
g61
(dp2716
sg70
g2206
sg63
(lp2717
g56
(g77
g58
NtRp2718
(dp2719
g61
(dp2720
g81
g82
ssg70
g2714
sg63
(lp2721
S'SERVER_PORT'
p2722
asbag56
(g77
g58
NtRp2723
(dp2724
g61
(dp2725
g88
g89
ssg70
g2714
sg63
(lp2726
S':'
asbag56
(g77
g58
NtRp2727
(dp2728
g61
(dp2729
sg70
g2714
sg63
(lp2730
g56
(g57
g58
NtRp2731
(dp2732
g61
(dp2733
g69
I3
ssg70
g2727
sg63
(lp2734
g1557
asbasbasbag56
(g72
g58
NtRp2735
(dp2736
g61
(dp2737
sg70
g2206
sg63
(lp2738
g56
(g77
g58
NtRp2739
(dp2740
g61
(dp2741
g81
g82
ssg70
g2735
sg63
(lp2742
S'SERVER_PROTOCOL'
p2743
asbag56
(g77
g58
NtRp2744
(dp2745
g61
(dp2746
g88
g89
ssg70
g2735
sg63
(lp2747
S':'
asbag56
(g77
g58
NtRp2748
(dp2749
g61
(dp2750
sg70
g2735
sg63
(lp2751
g56
(g57
g58
NtRp2752
(dp2753
g61
(dp2754
g69
I3
ssg70
g2748
sg63
(lp2755
g1579
asbasbasbag56
(g72
g58
NtRp2756
(dp2757
g61
(dp2758
sg70
g2206
sg63
(lp2759
g56
(g77
g58
NtRp2760
(dp2761
g61
(dp2762
g81
g82
ssg70
g2756
sg63
(lp2763
S'SERVER_SIGNATURE'
p2764
asbag56
(g77
g58
NtRp2765
(dp2766
g61
(dp2767
g88
g89
ssg70
g2756
sg63
(lp2768
S':'
asbag56
(g77
g58
NtRp2769
(dp2770
g61
(dp2771
sg70
g2756
sg63
(lp2772
g56
(g57
g58
NtRp2773
(dp2774
g61
(dp2775
g69
I3
ssg70
g2769
sg63
(lp2776
g1601
asbasbasbag56
(g72
g58
NtRp2777
(dp2778
g61
(dp2779
sg70
g2206
sg63
(lp2780
g56
(g77
g58
NtRp2781
(dp2782
g61
(dp2783
g81
g82
ssg70
g2777
sg63
(lp2784
S'SERVER_SOFTWARE'
p2785
asbag56
(g77
g58
NtRp2786
(dp2787
g61
(dp2788
g88
g89
ssg70
g2777
sg63
(lp2789
S':'
asbag56
(g77
g58
NtRp2790
(dp2791
g61
(dp2792
sg70
g2777
sg63
(lp2793
g56
(g57
g58
NtRp2794
(dp2795
g61
(dp2796
g69
I3
ssg70
g2790
sg63
(lp2797
g1623
asbasbasbag56
(g72
g58
NtRp2798
(dp2799
g61
(dp2800
sg70
g2206
sg63
(lp2801
g56
(g77
g58
NtRp2802
(dp2803
g61
(dp2804
g81
g82
ssg70
g2798
sg63
(lp2805
S'SSL_TLS_SNI'
p2806
asbag56
(g77
g58
NtRp2807
(dp2808
g61
(dp2809
g88
g89
ssg70
g2798
sg63
(lp2810
S':'
asbag56
(g77
g58
NtRp2811
(dp2812
g61
(dp2813
sg70
g2798
sg63
(lp2814
g56
(g57
g58
NtRp2815
(dp2816
g61
(dp2817
g69
I3
ssg70
g2811
sg63
(lp2818
g1645
asbasbasbag56
(g72
g58
NtRp2819
(dp2820
g61
(dp2821
sg70
g2206
sg63
(lp2822
g56
(g77
g58
NtRp2823
(dp2824
g61
(dp2825
g81
g82
ssg70
g2819
sg63
(lp2826
S'mod_wsgi.application_group'
p2827
asbag56
(g77
g58
NtRp2828
(dp2829
g61
(dp2830
g88
g89
ssg70
g2819
sg63
(lp2831
S':'
asbag56
(g77
g58
NtRp2832
(dp2833
g61
(dp2834
sg70
g2819
sg63
(lp2835
g56
(g57
g58
NtRp2836
(dp2837
g61
(dp2838
g69
I3
ssg70
g2832
sg63
(lp2839
g1053
asbasbasbag56
(g72
g58
NtRp2840
(dp2841
g61
(dp2842
sg70
g2206
sg63
(lp2843
g56
(g77
g58
NtRp2844
(dp2845
g61
(dp2846
g81
g82
ssg70
g2840
sg63
(lp2847
S'mod_wsgi.callable_object'
p2848
asbag56
(g77
g58
NtRp2849
(dp2850
g61
(dp2851
g88
g89
ssg70
g2840
sg63
(lp2852
S':'
asbag56
(g77
g58
NtRp2853
(dp2854
g61
(dp2855
sg70
g2840
sg63
(lp2856
g56
(g57
g58
NtRp2857
(dp2858
g61
(dp2859
g69
I3
ssg70
g2853
sg63
(lp2860
g1075
asbasbasbag56
(g72
g58
NtRp2861
(dp2862
g61
(dp2863
sg70
g2206
sg63
(lp2864
g56
(g77
g58
NtRp2865
(dp2866
g61
(dp2867
g81
g82
ssg70
g2861
sg63
(lp2868
S'mod_wsgi.handler_script'
p2869
asbag56
(g77
g58
NtRp2870
(dp2871
g61
(dp2872
g88
g89
ssg70
g2861
sg63
(lp2873
S':'
asbag56
(g77
g58
NtRp2874
(dp2875
g61
(dp2876
sg70
g2861
sg63
(lp2877
g56
(g57
g58
NtRp2878
(dp2879
g61
(dp2880
g69
I3
ssg70
g2874
sg63
(lp2881
S''
asbasbasbag56
(g72
g58
NtRp2882
(dp2883
g61
(dp2884
sg70
g2206
sg63
(lp2885
g56
(g77
g58
NtRp2886
(dp2887
g61
(dp2888
g81
g82
ssg70
g2882
sg63
(lp2889
S'mod_wsgi.input_chunked'
p2890
asbag56
(g77
g58
NtRp2891
(dp2892
g61
(dp2893
g88
g89
ssg70
g2882
sg63
(lp2894
S':'
asbag56
(g77
g58
NtRp2895
(dp2896
g61
(dp2897
sg70
g2882
sg63
(lp2898
g56
(g57
g58
NtRp2899
(dp2900
g61
(dp2901
g69
I3
ssg70
g2895
sg63
(lp2902
S'0'
asbasbasbag56
(g72
g58
NtRp2903
(dp2904
g61
(dp2905
sg70
g2206
sg63
(lp2906
g56
(g77
g58
NtRp2907
(dp2908
g61
(dp2909
g81
g82
ssg70
g2903
sg63
(lp2910
S'mod_wsgi.listener_host'
p2911
asbag56
(g77
g58
NtRp2912
(dp2913
g61
(dp2914
g88
g89
ssg70
g2903
sg63
(lp2915
S':'
asbag56
(g77
g58
NtRp2916
(dp2917
g61
(dp2918
sg70
g2903
sg63
(lp2919
g56
(g57
g58
NtRp2920
(dp2921
g61
(dp2922
g69
I3
ssg70
g2916
sg63
(lp2923
S''
asbasbasbag56
(g72
g58
NtRp2924
(dp2925
g61
(dp2926
sg70
g2206
sg63
(lp2927
g56
(g77
g58
NtRp2928
(dp2929
g61
(dp2930
g81
g82
ssg70
g2924
sg63
(lp2931
S'mod_wsgi.listener_port'
p2932
asbag56
(g77
g58
NtRp2933
(dp2934
g61
(dp2935
g88
g89
ssg70
g2924
sg63
(lp2936
S':'
asbag56
(g77
g58
NtRp2937
(dp2938
g61
(dp2939
sg70
g2924
sg63
(lp2940
g56
(g57
g58
NtRp2941
(dp2942
g61
(dp2943
g69
I3
ssg70
g2937
sg63
(lp2944
g1160
asbasbasbag56
(g72
g58
NtRp2945
(dp2946
g61
(dp2947
sg70
g2206
sg63
(lp2948
g56
(g77
g58
NtRp2949
(dp2950
g61
(dp2951
g81
g82
ssg70
g2945
sg63
(lp2952
S'mod_wsgi.process_group'
p2953
asbag56
(g77
g58
NtRp2954
(dp2955
g61
(dp2956
g88
g89
ssg70
g2945
sg63
(lp2957
S':'
asbag56
(g77
g58
NtRp2958
(dp2959
g61
(dp2960
sg70
g2945
sg63
(lp2961
g56
(g57
g58
NtRp2962
(dp2963
g61
(dp2964
g69
I3
ssg70
g2958
sg63
(lp2965
g1182
asbasbasbag56
(g72
g58
NtRp2966
(dp2967
g61
(dp2968
sg70
g2206
sg63
(lp2969
g56
(g77
g58
NtRp2970
(dp2971
g61
(dp2972
g81
g82
ssg70
g2966
sg63
(lp2973
S'mod_wsgi.request_handler'
p2974
asbag56
(g77
g58
NtRp2975
(dp2976
g61
(dp2977
g88
g89
ssg70
g2966
sg63
(lp2978
S':'
asbag56
(g77
g58
NtRp2979
(dp2980
g61
(dp2981
sg70
g2966
sg63
(lp2982
g56
(g57
g58
NtRp2983
(dp2984
g61
(dp2985
g69
I3
ssg70
g2979
sg63
(lp2986
g1204
asbasbasbag56
(g72
g58
NtRp2987
(dp2988
g61
(dp2989
sg70
g2206
sg63
(lp2990
g56
(g77
g58
NtRp2991
(dp2992
g61
(dp2993
g81
g82
ssg70
g2987
sg63
(lp2994
S'mod_wsgi.script_reloading'
p2995
asbag56
(g77
g58
NtRp2996
(dp2997
g61
(dp2998
g88
g89
ssg70
g2987
sg63
(lp2999
S':'
asbag56
(g77
g58
NtRp3000
(dp3001
g61
(dp3002
sg70
g2987
sg63
(lp3003
g56
(g57
g58
NtRp3004
(dp3005
g61
(dp3006
g69
I3
ssg70
g3000
sg63
(lp3007
S'1'
asbasbasbag56
(g72
g58
NtRp3008
(dp3009
g61
(dp3010
sg70
g2206
sg63
(lp3011
g56
(g77
g58
NtRp3012
(dp3013
g61
(dp3014
g81
g82
ssg70
g3008
sg63
(lp3015
S'mod_wsgi.version'
p3016
asbag56
(g77
g58
NtRp3017
(dp3018
g61
(dp3019
g88
g89
ssg70
g3008
sg63
(lp3020
S':'
asbag56
(g77
g58
NtRp3021
(dp3022
g61
(dp3023
sg70
g3008
sg63
(lp3024
g56
(g57
g58
NtRp3025
(dp3026
g61
(dp3027
g69
I3
ssg70
g3021
sg63
(lp3028
g56
(g65
g58
NtRp3029
(dp3030
g61
(dp3031
g69
I2
ssg70
Nsg63
(lp3032
g56
(g72
g58
NtRp3033
(dp3034
g61
(dp3035
sg70
g3029
sg63
(lp3036
g56
(g77
g58
NtRp3037
(dp3038
g61
(dp3039
sg70
g3033
sg63
(lp3040
g56
(g57
g58
NtRp3041
(dp3042
g61
(dp3043
g69
I2
ssg70
g3037
sg63
(lp3044
S'3'
asbasbasbag56
(g72
g58
NtRp3045
(dp3046
g61
(dp3047
sg70
g3029
sg63
(lp3048
g56
(g77
g58
NtRp3049
(dp3050
g61
(dp3051
sg70
g3045
sg63
(lp3052
g56
(g57
g58
NtRp3053
(dp3054
g61
(dp3055
g69
I2
ssg70
g3049
sg63
(lp3056
S'3'
asbasbasbasbasbasbasbag56
(g72
g58
NtRp3057
(dp3058
g61
(dp3059
sg70
g2206
sg63
(lp3060
g56
(g77
g58
NtRp3061
(dp3062
g61
(dp3063
g81
g82
ssg70
g3057
sg63
(lp3064
S'wsgi.errors'
p3065
asbag56
(g77
g58
NtRp3066
(dp3067
g61
(dp3068
g88
g89
ssg70
g3057
sg63
(lp3069
S':'
asbag56
(g77
g58
NtRp3070
(dp3071
g61
(dp3072
sg70
g3057
sg63
(lp3073
g56
(g57
g58
NtRp3074
(dp3075
g61
(dp3076
g69
I3
ssg70
g3070
sg63
(lp3077
S'<mod_wsgi.Log object at 0xb9488930>'
p3078
asbasbasbag56
(g72
g58
NtRp3079
(dp3080
g61
(dp3081
sg70
g2206
sg63
(lp3082
g56
(g77
g58
NtRp3083
(dp3084
g61
(dp3085
g81
g82
ssg70
g3079
sg63
(lp3086
S'wsgi.file_wrapper'
p3087
asbag56
(g77
g58
NtRp3088
(dp3089
g61
(dp3090
g88
g89
ssg70
g3079
sg63
(lp3091
S':'
asbag56
(g77
g58
NtRp3092
(dp3093
g61
(dp3094
sg70
g3079
sg63
(lp3095
g56
(g57
g58
NtRp3096
(dp3097
g61
(dp3098
g69
I3
ssg70
g3092
sg63
(lp3099
S'<built-in method file_wrapper of mod_wsgi.Adapter object at 0xb98787b8>'
p3100
asbasbasbag56
(g72
g58
NtRp3101
(dp3102
g61
(dp3103
sg70
g2206
sg63
(lp3104
g56
(g77
g58
NtRp3105
(dp3106
g61
(dp3107
g81
g82
ssg70
g3101
sg63
(lp3108
S'wsgi.input'
p3109
asbag56
(g77
g58
NtRp3110
(dp3111
g61
(dp3112
g88
g89
ssg70
g3101
sg63
(lp3113
S':'
asbag56
(g77
g58
NtRp3114
(dp3115
g61
(dp3116
sg70
g3101
sg63
(lp3117
g56
(g57
g58
NtRp3118
(dp3119
g61
(dp3120
g69
I3
ssg70
g3114
sg63
(lp3121
S'<cStringIO.StringO object at 0xb97a0f80>'
p3122
asbasbasbag56
(g72
g58
NtRp3123
(dp3124
g61
(dp3125
sg70
g2206
sg63
(lp3126
g56
(g77
g58
NtRp3127
(dp3128
g61
(dp3129
g81
g82
ssg70
g3123
sg63
(lp3130
S'wsgi.multiprocess'
p3131
asbag56
(g77
g58
NtRp3132
(dp3133
g61
(dp3134
g88
g89
ssg70
g3123
sg63
(lp3135
S':'
asbag56
(g77
g58
NtRp3136
(dp3137
g61
(dp3138
sg70
g3123
sg63
(lp3139
g56
(g57
g58
NtRp3140
(dp3141
g61
(dp3142
g69
I3
ssg70
g3136
sg63
(lp3143
g99
asbasbasbag56
(g72
g58
NtRp3144
(dp3145
g61
(dp3146
sg70
g2206
sg63
(lp3147
g56
(g77
g58
NtRp3148
(dp3149
g61
(dp3150
g81
g82
ssg70
g3144
sg63
(lp3151
S'wsgi.multithread'
p3152
asbag56
(g77
g58
NtRp3153
(dp3154
g61
(dp3155
g88
g89
ssg70
g3144
sg63
(lp3156
S':'
asbag56
(g77
g58
NtRp3157
(dp3158
g61
(dp3159
sg70
g3144
sg63
(lp3160
g56
(g57
g58
NtRp3161
(dp3162
g61
(dp3163
g69
I3
ssg70
g3157
sg63
(lp3164
g1797
asbasbasbag56
(g72
g58
NtRp3165
(dp3166
g61
(dp3167
sg70
g2206
sg63
(lp3168
g56
(g77
g58
NtRp3169
(dp3170
g61
(dp3171
g81
g82
ssg70
g3165
sg63
(lp3172
S'wsgi.run_once'
p3173
asbag56
(g77
g58
NtRp3174
(dp3175
g61
(dp3176
g88
g89
ssg70
g3165
sg63
(lp3177
S':'
asbag56
(g77
g58
NtRp3178
(dp3179
g61
(dp3180
sg70
g3165
sg63
(lp3181
g56
(g57
g58
NtRp3182
(dp3183
g61
(dp3184
g69
I3
ssg70
g3178
sg63
(lp3185
g99
asbasbasbag56
(g72
g58
NtRp3186
(dp3187
g61
(dp3188
sg70
g2206
sg63
(lp3189
g56
(g77
g58
NtRp3190
(dp3191
g61
(dp3192
g81
g82
ssg70
g3186
sg63
(lp3193
S'wsgi.url_scheme'
p3194
asbag56
(g77
g58
NtRp3195
(dp3196
g61
(dp3197
g88
g89
ssg70
g3186
sg63
(lp3198
S':'
asbag56
(g77
g58
NtRp3199
(dp3200
g61
(dp3201
sg70
g3186
sg63
(lp3202
g56
(g57
g58
NtRp3203
(dp3204
g61
(dp3205
g69
I3
ssg70
g3199
sg63
(lp3206
g1840
asbasbasbag56
(g72
g58
NtRp3207
(dp3208
g61
(dp3209
sg70
g2206
sg63
(lp3210
g56
(g77
g58
NtRp3211
(dp3212
g61
(dp3213
g81
g82
ssg70
g3207
sg63
(lp3214
S'wsgi.version'
p3215
asbag56
(g77
g58
NtRp3216
(dp3217
g61
(dp3218
g88
g89
ssg70
g3207
sg63
(lp3219
S':'
asbag56
(g77
g58
NtRp3220
(dp3221
g61
(dp3222
sg70
g3207
sg63
(lp3223
g56
(g57
g58
NtRp3224
(dp3225
g61
(dp3226
g69
I3
ssg70
g3220
sg63
(lp3227
S'1'
asbasbasbasbasbasbasbasbasbasbasbasbasbsS'frames'
p3228
(lp3229
(dp3230
S'file'
p3231
S'/home/www-data/web2py/gluon/restricted.py'
p3232
sS'dump'
p3233
(dp3234
S'environment'
p3235
S"{'A': <class 'gluon.html.A'>, 'Auth': <class 'gluon.tools.Auth'>, 'B': <class 'gluon.html.B'>, 'BEAUTIFY': <class 'gluon.html.BEAUTIFY'>, 'BODY': <class 'gluon.html.BODY'>, 'BR': <class 'gluon.html.BR'>, 'BRAZILIAN_DATE': <gluon.validators.IS_DATE object>, 'BUTTON': <class 'gluon.html.BUTTON'>, 'CAT': <class 'gluon.html.CAT'>, 'CENTER': <class 'gluon.html.CENTER'>, ...}"
p3236
sS'ccode'
p3237
S'<code object <module> at 0xb9878140, file "/home...pplications/scrum/controllers/sprint.py", line 3>'
p3238
ssS'lnum'
p3239
I192
sS'lines'
p3240
(dp3241
I192
S'        exec ccode in environment'
p3242
sI193
S'    except HTTP:'
p3243
sI194
S'        raise'
p3244
sI195
S'    except Exception, error:'
p3245
sI196
S'        # XXX Show exception in Wing IDE if running in debugger'
p3246
sI187
S'    try:'
p3247
sI188
S'        if type(code) == types.CodeType:'
p3248
sI189
S'            ccode = code'
p3249
sI190
S'        else:'
p3250
sI191
S'            ccode = compile2(code,layer)'
p3251
ssS'call'
p3252
S"(code='# coding: utf8\\n\\n@auth.requires_login()\\ndef index...kets)\\n\\nresponse._vars=response._caller(detalhes)\\n', environment={'A': <class 'gluon.html.A'>, 'Auth': <class 'gluon.tools.Auth'>, 'B': <class 'gluon.html.B'>, 'BEAUTIFY': <class 'gluon.html.BEAUTIFY'>, 'BODY': <class 'gluon.html.BODY'>, 'BR': <class 'gluon.html.BR'>, 'BRAZILIAN_DATE': <gluon.validators.IS_DATE object>, 'BUTTON': <class 'gluon.html.BUTTON'>, 'CAT': <class 'gluon.html.CAT'>, 'CENTER': <class 'gluon.html.CENTER'>, ...}, layer='/home/www-data/web2py/applications/scrum/controllers/sprint.py')"
p3253
sS'func'
p3254
S'restricted'
p3255
sa(dp3256
g3231
S'/home/www-data/web2py/applications/scrum/controllers/sprint.py'
p3257
sg3233
(dp3258
sg3239
I52
sg3240
(dp3259
I41
S"        elif k[:6] == 'dtcols':"
p3260
sI42
S'            cols = request.vars[k]'
p3261
sI43
S''
sI44
S'    #vars to work'
p3262
sI45
S"    tablename = key.split('.')[0]"
p3263
sI46
S"    fieldname = key.split('.')[1]"
p3264
sI47
S"    value = key.split('.')[2]"
p3265
sI48
S''
sI49
S'    tickets = db(db.tickets.sprint == value).select()'
p3266
sI50
S'    return SQLTABLE(tickets)'
p3267
ssg3252
S'()'
p3268
sg3254
S'<module>'
p3269
sa(dp3270
g3231
S'/home/www-data/web2py/gluon/globals.py'
p3271
sg3233
(dp3272
S'self'
p3273
S'undefined'
p3274
sS'f'
S'<function detalhes>'
p3275
ssg3239
I145
sg3240
(dp3276
I140
S'        self.meta = Storage()      # used by web2py_ajax.html'
p3277
sI141
S'        self.menu = []             # used by the default view layout'
p3278
sI142
S'        self.files = []            # used by web2py_ajax.html'
p3279
sI143
S'        self.generic_patterns = [] # patterns to allow generic views'
p3280
sI144
S'        self._vars = None'
p3281
sI145
S'        self._caller = lambda f: f()'
p3282
sI146
S'        self._view_environment = None'
p3283
sI147
S'        self._custom_commit = None'
p3284
sI148
S'        self._custom_rollback = None'
p3285
sI149
S''
ssg3252
S'(f=<function detalhes>)'
p3286
sg3254
S'<lambda>'
p3287
sa(dp3288
g3231
S'/home/www-data/web2py/applications/scrum/controllers/sprint.py'
p3289
sg3233
(dp3290
S'key.split'
p3291
g3274
sS'tablename'
p3292
g3274
sS'key'
p3293
S'None'
p3294
ssg3239
I45
sg3240
(dp3295
I40
S'            key = request.vars[k]'
p3296
sI41
S"        elif k[:6] == 'dtcols':"
p3297
sI42
S'            cols = request.vars[k]'
p3298
sI43
S''
sI44
S'    #vars to work'
p3299
sI45
S"    tablename = key.split('.')[0]"
p3300
sI46
S"    fieldname = key.split('.')[1]"
p3301
sI47
S"    value = key.split('.')[2]"
p3302
sI48
S''
sI49
S'    tickets = db(db.tickets.sprint == value).select()'
p3303
ssg3252
S'()'
p3304
sg3254
S'detalhes'
p3305
sasS'pyver'
p3306
S'Python 2.7.1+: /usr/bin/python'
p3307
sS'session'
p3308
g56
(g57
g58
NtRp3309
(dp3310
g61
(dp3311
sg63
(lp3312
g56
(g65
g58
NtRp3313
(dp3314
g61
(dp3315
g69
I5
ssg70
Nsg63
(lp3316
g56
(g72
g58
NtRp3317
(dp3318
g61
(dp3319
sg70
g3313
sg63
(lp3320
g56
(g77
g58
NtRp3321
(dp3322
g61
(dp3323
g81
g82
ssg70
g3317
sg63
(lp3324
S'auth'
p3325
asbag56
(g77
g58
NtRp3326
(dp3327
g61
(dp3328
g88
g89
ssg70
g3317
sg63
(lp3329
S':'
asbag56
(g77
g58
NtRp3330
(dp3331
g61
(dp3332
sg70
g3317
sg63
(lp3333
g56
(g57
g58
NtRp3334
(dp3335
g61
(dp3336
g69
I5
ssg70
g3330
sg63
(lp3337
g56
(g65
g58
NtRp3338
(dp3339
g61
(dp3340
g69
I4
ssg70
Nsg63
(lp3341
g56
(g72
g58
NtRp3342
(dp3343
g61
(dp3344
sg70
g3338
sg63
(lp3345
g56
(g77
g58
NtRp3346
(dp3347
g61
(dp3348
g81
g82
ssg70
g3342
sg63
(lp3349
S'expiration'
p3350
asbag56
(g77
g58
NtRp3351
(dp3352
g61
(dp3353
g88
g89
ssg70
g3342
sg63
(lp3354
S':'
asbag56
(g77
g58
NtRp3355
(dp3356
g61
(dp3357
sg70
g3342
sg63
(lp3358
g56
(g57
g58
NtRp3359
(dp3360
g61
(dp3361
g69
I4
ssg70
g3355
sg63
(lp3362
S'2592000'
p3363
asbasbasbag56
(g72
g58
NtRp3364
(dp3365
g61
(dp3366
sg70
g3338
sg63
(lp3367
g56
(g77
g58
NtRp3368
(dp3369
g61
(dp3370
g81
g82
ssg70
g3364
sg63
(lp3371
S'hmac_key'
p3372
asbag56
(g77
g58
NtRp3373
(dp3374
g61
(dp3375
g88
g89
ssg70
g3364
sg63
(lp3376
S':'
asbag56
(g77
g58
NtRp3377
(dp3378
g61
(dp3379
sg70
g3364
sg63
(lp3380
g56
(g57
g58
NtRp3381
(dp3382
g61
(dp3383
g69
I4
ssg70
g3377
sg63
(lp3384
S'0eb5913b-5067-4036-a2e3-0b783a415d41'
p3385
asbasbasbag56
(g72
g58
NtRp3386
(dp3387
g61
(dp3388
sg70
g3338
sg63
(lp3389
g56
(g77
g58
NtRp3390
(dp3391
g61
(dp3392
g81
g82
ssg70
g3386
sg63
(lp3393
S'last_visit'
p3394
asbag56
(g77
g58
NtRp3395
(dp3396
g61
(dp3397
g88
g89
ssg70
g3386
sg63
(lp3398
S':'
asbag56
(g77
g58
NtRp3399
(dp3400
g61
(dp3401
sg70
g3386
sg63
(lp3402
g56
(g57
g58
NtRp3403
(dp3404
g61
(dp3405
g69
I4
ssg70
g3399
sg63
(lp3406
S'datetime.datetime(2011, 9, 12, 16, 10, 17, 480100)'
p3407
asbasbasbag56
(g72
g58
NtRp3408
(dp3409
g61
(dp3410
sg70
g3338
sg63
(lp3411
g56
(g77
g58
NtRp3412
(dp3413
g61
(dp3414
g81
g82
ssg70
g3408
sg63
(lp3415
S'remember'
p3416
asbag56
(g77
g58
NtRp3417
(dp3418
g61
(dp3419
g88
g89
ssg70
g3408
sg63
(lp3420
S':'
asbag56
(g77
g58
NtRp3421
(dp3422
g61
(dp3423
sg70
g3408
sg63
(lp3424
g56
(g57
g58
NtRp3425
(dp3426
g61
(dp3427
g69
I4
ssg70
g3421
sg63
(lp3428
g99
asbasbasbag56
(g72
g58
NtRp3429
(dp3430
g61
(dp3431
sg70
g3338
sg63
(lp3432
g56
(g77
g58
NtRp3433
(dp3434
g61
(dp3435
g81
g82
ssg70
g3429
sg63
(lp3436
S'user'
p3437
asbag56
(g77
g58
NtRp3438
(dp3439
g61
(dp3440
g88
g89
ssg70
g3429
sg63
(lp3441
S':'
asbag56
(g77
g58
NtRp3442
(dp3443
g61
(dp3444
sg70
g3429
sg63
(lp3445
g56
(g57
g58
NtRp3446
(dp3447
g61
(dp3448
g69
I4
ssg70
g3442
sg63
(lp3449
g56
(g65
g58
NtRp3450
(dp3451
g61
(dp3452
g69
I3
ssg70
Nsg63
(lp3453
g56
(g72
g58
NtRp3454
(dp3455
g61
(dp3456
sg70
g3450
sg63
(lp3457
g56
(g77
g58
NtRp3458
(dp3459
g61
(dp3460
g81
g82
ssg70
g3454
sg63
(lp3461
S'email'
p3462
asbag56
(g77
g58
NtRp3463
(dp3464
g61
(dp3465
g88
g89
ssg70
g3454
sg63
(lp3466
S':'
asbag56
(g77
g58
NtRp3467
(dp3468
g61
(dp3469
sg70
g3454
sg63
(lp3470
g56
(g57
g58
NtRp3471
(dp3472
g61
(dp3473
g69
I3
ssg70
g3467
sg63
(lp3474
S'yamandu.costa@gmail.com'
p3475
asbasbasbag56
(g72
g58
NtRp3476
(dp3477
g61
(dp3478
sg70
g3450
sg63
(lp3479
g56
(g77
g58
NtRp3480
(dp3481
g61
(dp3482
g81
g82
ssg70
g3476
sg63
(lp3483
S'first_name'
p3484
asbag56
(g77
g58
NtRp3485
(dp3486
g61
(dp3487
g88
g89
ssg70
g3476
sg63
(lp3488
S':'
asbag56
(g77
g58
NtRp3489
(dp3490
g61
(dp3491
sg70
g3476
sg63
(lp3492
g56
(g57
g58
NtRp3493
(dp3494
g61
(dp3495
g69
I3
ssg70
g3489
sg63
(lp3496
S'Carlos'
p3497
asbasbasbag56
(g72
g58
NtRp3498
(dp3499
g61
(dp3500
sg70
g3450
sg63
(lp3501
g56
(g77
g58
NtRp3502
(dp3503
g61
(dp3504
g81
g82
ssg70
g3498
sg63
(lp3505
S'id'
p3506
asbag56
(g77
g58
NtRp3507
(dp3508
g61
(dp3509
g88
g89
ssg70
g3498
sg63
(lp3510
S':'
asbag56
(g77
g58
NtRp3511
(dp3512
g61
(dp3513
sg70
g3498
sg63
(lp3514
g56
(g57
g58
NtRp3515
(dp3516
g61
(dp3517
g69
I3
ssg70
g3511
sg63
(lp3518
S'2'
asbasbasbag56
(g72
g58
NtRp3519
(dp3520
g61
(dp3521
sg70
g3450
sg63
(lp3522
g56
(g77
g58
NtRp3523
(dp3524
g61
(dp3525
g81
g82
ssg70
g3519
sg63
(lp3526
S'last_name'
p3527
asbag56
(g77
g58
NtRp3528
(dp3529
g61
(dp3530
g88
g89
ssg70
g3519
sg63
(lp3531
S':'
asbag56
(g77
g58
NtRp3532
(dp3533
g61
(dp3534
sg70
g3519
sg63
(lp3535
g56
(g57
g58
NtRp3536
(dp3537
g61
(dp3538
g69
I3
ssg70
g3532
sg63
(lp3539
S'costa'
p3540
asbasbasbag56
(g72
g58
NtRp3541
(dp3542
g61
(dp3543
sg70
g3450
sg63
(lp3544
g56
(g77
g58
NtRp3545
(dp3546
g61
(dp3547
g81
g82
ssg70
g3541
sg63
(lp3548
S'password'
p3549
asbag56
(g77
g58
NtRp3550
(dp3551
g61
(dp3552
g88
g89
ssg70
g3541
sg63
(lp3553
S':'
asbag56
(g77
g58
NtRp3554
(dp3555
g61
(dp3556
sg70
g3541
sg63
(lp3557
g56
(g57
g58
NtRp3558
(dp3559
g61
(dp3560
g69
I3
ssg70
g3554
sg63
(lp3561
S'00a7a128f71552b063e36943370dd0944d5adb4000c6382d33eb3e1a93dc679cb99beb47e3003d318803f96ef839a18a379eae2e2bb917ca3c52c4e45231b331'
p3562
asbasbasbag56
(g72
g58
NtRp3563
(dp3564
g61
(dp3565
sg70
g3450
sg63
(lp3566
g56
(g77
g58
NtRp3567
(dp3568
g61
(dp3569
g81
g82
ssg70
g3563
sg63
(lp3570
S'registration_key'
p3571
asbag56
(g77
g58
NtRp3572
(dp3573
g61
(dp3574
g88
g89
ssg70
g3563
sg63
(lp3575
S':'
asbag56
(g77
g58
NtRp3576
(dp3577
g61
(dp3578
sg70
g3563
sg63
(lp3579
g56
(g57
g58
NtRp3580
(dp3581
g61
(dp3582
g69
I3
ssg70
g3576
sg63
(lp3583
S''
asbasbasbag56
(g72
g58
NtRp3584
(dp3585
g61
(dp3586
sg70
g3450
sg63
(lp3587
g56
(g77
g58
NtRp3588
(dp3589
g61
(dp3590
g81
g82
ssg70
g3584
sg63
(lp3591
S'reset_password_key'
p3592
asbag56
(g77
g58
NtRp3593
(dp3594
g61
(dp3595
g88
g89
ssg70
g3584
sg63
(lp3596
S':'
asbag56
(g77
g58
NtRp3597
(dp3598
g61
(dp3599
sg70
g3584
sg63
(lp3600
g56
(g57
g58
NtRp3601
(dp3602
g61
(dp3603
g69
I3
ssg70
g3597
sg63
(lp3604
S''
asbasbasbasbasbasbasbasbasbasbasbasbasbsS'etype'
p3605
S"<type 'exceptions.AttributeError'>"
p3606
sS'date'
p3607
S'Mon Sep 12 16:15:54 2011'
p3608
sS'response'
p3609
g56
(g57
g58
NtRp3610
(dp3611
g61
(dp3612
sg63
(lp3613
g56
(g65
g58
NtRp3614
(dp3615
g61
(dp3616
g69
I5
ssg70
Nsg63
(lp3617
g56
(g72
g58
NtRp3618
(dp3619
g61
(dp3620
sg70
g3614
sg63
(lp3621
g56
(g77
g58
NtRp3622
(dp3623
g61
(dp3624
g81
g82
ssg70
g3618
sg63
(lp3625
g154
asbag56
(g77
g58
NtRp3626
(dp3627
g61
(dp3628
g88
g89
ssg70
g3618
sg63
(lp3629
S':'
asbag56
(g77
g58
NtRp3630
(dp3631
g61
(dp3632
sg70
g3618
sg63
(lp3633
g56
(g57
g58
NtRp3634
(dp3635
g61
(dp3636
g69
I5
ssg70
g3630
sg63
(lp3637
S'<cStringIO.StringO object at 0xb95f4060>'
p3638
asbasbasbag56
(g72
g58
NtRp3639
(dp3640
g61
(dp3641
sg70
g3614
sg63
(lp3642
g56
(g77
g58
NtRp3643
(dp3644
g61
(dp3645
g81
g82
ssg70
g3639
sg63
(lp3646
g220
asbag56
(g77
g58
NtRp3647
(dp3648
g61
(dp3649
g88
g89
ssg70
g3639
sg63
(lp3650
S':'
asbag56
(g77
g58
NtRp3651
(dp3652
g61
(dp3653
sg70
g3639
sg63
(lp3654
g56
(g57
g58
NtRp3655
(dp3656
g61
(dp3657
g69
I5
ssg70
g3651
sg63
(lp3658
g56
(g65
g58
NtRp3659
(dp3660
g61
(dp3661
g69
I4
ssg70
Nsg63
(lp3662
g56
(g72
g58
NtRp3663
(dp3664
g61
(dp3665
sg70
g3659
sg63
(lp3666
g56
(g77
g58
NtRp3667
(dp3668
g61
(dp3669
g81
g82
ssg70
g3663
sg63
(lp3670
S'session_id_scrum'
p3671
asbag56
(g77
g58
NtRp3672
(dp3673
g61
(dp3674
g88
g89
ssg70
g3663
sg63
(lp3675
S':'
asbag56
(g77
g58
NtRp3676
(dp3677
g61
(dp3678
sg70
g3663
sg63
(lp3679
g56
(g57
g58
NtRp3680
(dp3681
g61
(dp3682
g69
I4
ssg70
g3676
sg63
(lp3683
g56
(g65
g58
NtRp3684
(dp3685
g61
(dp3686
g69
I3
ssg70
Nsg63
(lp3687
g56
(g72
g58
NtRp3688
(dp3689
g61
(dp3690
sg70
g3684
sg63
(lp3691
g56
(g77
g58
NtRp3692
(dp3693
g61
(dp3694
g81
g82
ssg70
g3688
sg63
(lp3695
g270
asbag56
(g77
g58
NtRp3696
(dp3697
g61
(dp3698
g88
g89
ssg70
g3688
sg63
(lp3699
S':'
asbag56
(g77
g58
NtRp3700
(dp3701
g61
(dp3702
sg70
g3688
sg63
(lp3703
g56
(g57
g58
NtRp3704
(dp3705
g61
(dp3706
g69
I3
ssg70
g3700
sg63
(lp3707
S''
asbasbasbag56
(g72
g58
NtRp3708
(dp3709
g61
(dp3710
sg70
g3684
sg63
(lp3711
g56
(g77
g58
NtRp3712
(dp3713
g61
(dp3714
g81
g82
ssg70
g3708
sg63
(lp3715
g291
asbag56
(g77
g58
NtRp3716
(dp3717
g61
(dp3718
g88
g89
ssg70
g3708
sg63
(lp3719
S':'
asbag56
(g77
g58
NtRp3720
(dp3721
g61
(dp3722
sg70
g3708
sg63
(lp3723
g56
(g57
g58
NtRp3724
(dp3725
g61
(dp3726
g69
I3
ssg70
g3720
sg63
(lp3727
S''
asbasbasbag56
(g72
g58
NtRp3728
(dp3729
g61
(dp3730
sg70
g3684
sg63
(lp3731
g56
(g77
g58
NtRp3732
(dp3733
g61
(dp3734
g81
g82
ssg70
g3728
sg63
(lp3735
g312
asbag56
(g77
g58
NtRp3736
(dp3737
g61
(dp3738
g88
g89
ssg70
g3728
sg63
(lp3739
S':'
asbag56
(g77
g58
NtRp3740
(dp3741
g61
(dp3742
sg70
g3728
sg63
(lp3743
g56
(g57
g58
NtRp3744
(dp3745
g61
(dp3746
g69
I3
ssg70
g3740
sg63
(lp3747
S''
asbasbasbag56
(g72
g58
NtRp3748
(dp3749
g61
(dp3750
sg70
g3684
sg63
(lp3751
g56
(g77
g58
NtRp3752
(dp3753
g61
(dp3754
g81
g82
ssg70
g3748
sg63
(lp3755
g333
asbag56
(g77
g58
NtRp3756
(dp3757
g61
(dp3758
g88
g89
ssg70
g3748
sg63
(lp3759
S':'
asbag56
(g77
g58
NtRp3760
(dp3761
g61
(dp3762
sg70
g3748
sg63
(lp3763
g56
(g57
g58
NtRp3764
(dp3765
g61
(dp3766
g69
I3
ssg70
g3760
sg63
(lp3767
S''
asbasbasbag56
(g72
g58
NtRp3768
(dp3769
g61
(dp3770
sg70
g3684
sg63
(lp3771
g56
(g77
g58
NtRp3772
(dp3773
g61
(dp3774
g81
g82
ssg70
g3768
sg63
(lp3775
g354
asbag56
(g77
g58
NtRp3776
(dp3777
g61
(dp3778
g88
g89
ssg70
g3768
sg63
(lp3779
S':'
asbag56
(g77
g58
NtRp3780
(dp3781
g61
(dp3782
sg70
g3768
sg63
(lp3783
g56
(g57
g58
NtRp3784
(dp3785
g61
(dp3786
g69
I3
ssg70
g3780
sg63
(lp3787
S''
asbasbasbag56
(g72
g58
NtRp3788
(dp3789
g61
(dp3790
sg70
g3684
sg63
(lp3791
g56
(g77
g58
NtRp3792
(dp3793
g61
(dp3794
g81
g82
ssg70
g3788
sg63
(lp3795
g375
asbag56
(g77
g58
NtRp3796
(dp3797
g61
(dp3798
g88
g89
ssg70
g3788
sg63
(lp3799
S':'
asbag56
(g77
g58
NtRp3800
(dp3801
g61
(dp3802
sg70
g3788
sg63
(lp3803
g56
(g57
g58
NtRp3804
(dp3805
g61
(dp3806
g69
I3
ssg70
g3800
sg63
(lp3807
S'/'
asbasbasbag56
(g72
g58
NtRp3808
(dp3809
g61
(dp3810
sg70
g3684
sg63
(lp3811
g56
(g77
g58
NtRp3812
(dp3813
g61
(dp3814
g81
g82
ssg70
g3808
sg63
(lp3815
g396
asbag56
(g77
g58
NtRp3816
(dp3817
g61
(dp3818
g88
g89
ssg70
g3808
sg63
(lp3819
S':'
asbag56
(g77
g58
NtRp3820
(dp3821
g61
(dp3822
sg70
g3808
sg63
(lp3823
g56
(g57
g58
NtRp3824
(dp3825
g61
(dp3826
g69
I3
ssg70
g3820
sg63
(lp3827
S''
asbasbasbag56
(g72
g58
NtRp3828
(dp3829
g61
(dp3830
sg70
g3684
sg63
(lp3831
g56
(g77
g58
NtRp3832
(dp3833
g61
(dp3834
g81
g82
ssg70
g3828
sg63
(lp3835
g417
asbag56
(g77
g58
NtRp3836
(dp3837
g61
(dp3838
g88
g89
ssg70
g3828
sg63
(lp3839
S':'
asbag56
(g77
g58
NtRp3840
(dp3841
g61
(dp3842
sg70
g3828
sg63
(lp3843
g56
(g57
g58
NtRp3844
(dp3845
g61
(dp3846
g69
I3
ssg70
g3840
sg63
(lp3847
S''
asbasbasbasbasbasbasbasbasbasbasbag56
(g72
g58
NtRp3848
(dp3849
g61
(dp3850
sg70
g3614
sg63
(lp3851
g56
(g77
g58
NtRp3852
(dp3853
g61
(dp3854
g81
g82
ssg70
g3848
sg63
(lp3855
S'files'
p3856
asbag56
(g77
g58
NtRp3857
(dp3858
g61
(dp3859
g88
g89
ssg70
g3848
sg63
(lp3860
S':'
asbag56
(g77
g58
NtRp3861
(dp3862
g61
(dp3863
sg70
g3848
sg63
(lp3864
g56
(g57
g58
NtRp3865
(dp3866
g61
(dp3867
g69
I5
ssg70
g3861
sg63
(lp3868
g56
(g65
g58
NtRp3869
(dp3870
g61
(dp3871
g69
I4
ssg70
Nsg63
(lp3872
sbasbasbasbag56
(g72
g58
NtRp3873
(dp3874
g61
(dp3875
sg70
g3614
sg63
(lp3876
g56
(g77
g58
NtRp3877
(dp3878
g61
(dp3879
g81
g82
ssg70
g3873
sg63
(lp3880
S'flash'
p3881
asbag56
(g77
g58
NtRp3882
(dp3883
g61
(dp3884
g88
g89
ssg70
g3873
sg63
(lp3885
S':'
asbag56
(g77
g58
NtRp3886
(dp3887
g61
(dp3888
sg70
g3873
sg63
(lp3889
g56
(g57
g58
NtRp3890
(dp3891
g61
(dp3892
g69
I5
ssg70
g3886
sg63
(lp3893
S''
asbasbasbag56
(g72
g58
NtRp3894
(dp3895
g61
(dp3896
sg70
g3614
sg63
(lp3897
g56
(g77
g58
NtRp3898
(dp3899
g61
(dp3900
g81
g82
ssg70
g3894
sg63
(lp3901
S'generic_patterns'
p3902
asbag56
(g77
g58
NtRp3903
(dp3904
g61
(dp3905
g88
g89
ssg70
g3894
sg63
(lp3906
S':'
asbag56
(g77
g58
NtRp3907
(dp3908
g61
(dp3909
sg70
g3894
sg63
(lp3910
g56
(g57
g58
NtRp3911
(dp3912
g61
(dp3913
g69
I5
ssg70
g3907
sg63
(lp3914
g56
(g65
g58
NtRp3915
(dp3916
g61
(dp3917
g69
I4
ssg70
Nsg63
(lp3918
sbasbasbasbag56
(g72
g58
NtRp3919
(dp3920
g61
(dp3921
sg70
g3614
sg63
(lp3922
g56
(g77
g58
NtRp3923
(dp3924
g61
(dp3925
g81
g82
ssg70
g3919
sg63
(lp3926
S'headers'
p3927
asbag56
(g77
g58
NtRp3928
(dp3929
g61
(dp3930
g88
g89
ssg70
g3919
sg63
(lp3931
S':'
asbag56
(g77
g58
NtRp3932
(dp3933
g61
(dp3934
sg70
g3919
sg63
(lp3935
g56
(g57
g58
NtRp3936
(dp3937
g61
(dp3938
g69
I5
ssg70
g3932
sg63
(lp3939
g56
(g65
g58
NtRp3940
(dp3941
g61
(dp3942
g69
I4
ssg70
Nsg63
(lp3943
g56
(g72
g58
NtRp3944
(dp3945
g61
(dp3946
sg70
g3940
sg63
(lp3947
g56
(g77
g58
NtRp3948
(dp3949
g61
(dp3950
g81
g82
ssg70
g3944
sg63
(lp3951
S'Cache-Control'
p3952
asbag56
(g77
g58
NtRp3953
(dp3954
g61
(dp3955
g88
g89
ssg70
g3944
sg63
(lp3956
S':'
asbag56
(g77
g58
NtRp3957
(dp3958
g61
(dp3959
sg70
g3944
sg63
(lp3960
g56
(g57
g58
NtRp3961
(dp3962
g61
(dp3963
g69
I4
ssg70
g3957
sg63
(lp3964
S'no-store, no-cache, must-revalidate, post-check=0, pre-check=0'
p3965
asbasbasbag56
(g72
g58
NtRp3966
(dp3967
g61
(dp3968
sg70
g3940
sg63
(lp3969
g56
(g77
g58
NtRp3970
(dp3971
g61
(dp3972
g81
g82
ssg70
g3966
sg63
(lp3973
S'Content-Type'
p3974
asbag56
(g77
g58
NtRp3975
(dp3976
g61
(dp3977
g88
g89
ssg70
g3966
sg63
(lp3978
S':'
asbag56
(g77
g58
NtRp3979
(dp3980
g61
(dp3981
sg70
g3966
sg63
(lp3982
g56
(g57
g58
NtRp3983
(dp3984
g61
(dp3985
g69
I4
ssg70
g3979
sg63
(lp3986
S'text/html; charset=utf-8'
p3987
asbasbasbag56
(g72
g58
NtRp3988
(dp3989
g61
(dp3990
sg70
g3940
sg63
(lp3991
g56
(g77
g58
NtRp3992
(dp3993
g61
(dp3994
g81
g82
ssg70
g3988
sg63
(lp3995
S'Expires'
p3996
asbag56
(g77
g58
NtRp3997
(dp3998
g61
(dp3999
g88
g89
ssg70
g3988
sg63
(lp4000
S':'
asbag56
(g77
g58
NtRp4001
(dp4002
g61
(dp4003
sg70
g3988
sg63
(lp4004
g56
(g57
g58
NtRp4005
(dp4006
g61
(dp4007
g69
I4
ssg70
g4001
sg63
(lp4008
S'Mon, 12 Sep 2011 19:15:54 GMT'
p4009
asbasbasbag56
(g72
g58
NtRp4010
(dp4011
g61
(dp4012
sg70
g3940
sg63
(lp4013
g56
(g77
g58
NtRp4014
(dp4015
g61
(dp4016
g81
g82
ssg70
g4010
sg63
(lp4017
S'Pragma'
p4018
asbag56
(g77
g58
NtRp4019
(dp4020
g61
(dp4021
g88
g89
ssg70
g4010
sg63
(lp4022
S':'
asbag56
(g77
g58
NtRp4023
(dp4024
g61
(dp4025
sg70
g4010
sg63
(lp4026
g56
(g57
g58
NtRp4027
(dp4028
g61
(dp4029
g69
I4
ssg70
g4023
sg63
(lp4030
S'no-cache'
p4031
asbasbasbag56
(g72
g58
NtRp4032
(dp4033
g61
(dp4034
sg70
g3940
sg63
(lp4035
g56
(g77
g58
NtRp4036
(dp4037
g61
(dp4038
g81
g82
ssg70
g4032
sg63
(lp4039
S'X-Powered-By'
p4040
asbag56
(g77
g58
NtRp4041
(dp4042
g61
(dp4043
g88
g89
ssg70
g4032
sg63
(lp4044
S':'
asbag56
(g77
g58
NtRp4045
(dp4046
g61
(dp4047
sg70
g4032
sg63
(lp4048
g56
(g57
g58
NtRp4049
(dp4050
g61
(dp4051
g69
I4
ssg70
g4045
sg63
(lp4052
S'web2py'
p4053
asbasbasbasbasbasbasbag56
(g72
g58
NtRp4054
(dp4055
g61
(dp4056
sg70
g3614
sg63
(lp4057
g56
(g77
g58
NtRp4058
(dp4059
g61
(dp4060
g81
g82
ssg70
g4054
sg63
(lp4061
S'menu'
p4062
asbag56
(g77
g58
NtRp4063
(dp4064
g61
(dp4065
g88
g89
ssg70
g4054
sg63
(lp4066
S':'
asbag56
(g77
g58
NtRp4067
(dp4068
g61
(dp4069
sg70
g4054
sg63
(lp4070
g56
(g57
g58
NtRp4071
(dp4072
g61
(dp4073
g69
I5
ssg70
g4067
sg63
(lp4074
g56
(g65
g58
NtRp4075
(dp4076
g61
(dp4077
g69
I4
ssg70
Nsg63
(lp4078
g56
(g72
g58
NtRp4079
(dp4080
g61
(dp4081
sg70
g4075
sg63
(lp4082
g56
(g77
g58
NtRp4083
(dp4084
g61
(dp4085
sg70
g4079
sg63
(lp4086
g56
(g57
g58
NtRp4087
(dp4088
g61
(dp4089
g69
I4
ssg70
g4083
sg63
(lp4090
g56
(g65
g58
NtRp4091
(dp4092
g61
(dp4093
g69
I3
ssg70
Nsg63
(lp4094
g56
(g72
g58
NtRp4095
(dp4096
g61
(dp4097
sg70
g4091
sg63
(lp4098
g56
(g77
g58
NtRp4099
(dp4100
g61
(dp4101
sg70
g4095
sg63
(lp4102
g56
(g57
g58
NtRp4103
(dp4104
g61
(dp4105
g69
I3
ssg70
g4099
sg63
(lp4106
cgluon.languages
lazyT_unpickle
p4107
(S't\x04\x00\x00\x00Home'
tRp4108
asbasbasbag56
(g72
g58
NtRp4109
(dp4110
g61
(dp4111
sg70
g4091
sg63
(lp4112
g56
(g77
g58
NtRp4113
(dp4114
g61
(dp4115
sg70
g4109
sg63
(lp4116
g56
(g57
g58
NtRp4117
(dp4118
g61
(dp4119
g69
I3
ssg70
g4113
sg63
(lp4120
g99
asbasbasbag56
(g72
g58
NtRp4121
(dp4122
g61
(dp4123
sg70
g4091
sg63
(lp4124
g56
(g77
g58
NtRp4125
(dp4126
g61
(dp4127
sg70
g4121
sg63
(lp4128
g56
(g57
g58
NtRp4129
(dp4130
g61
(dp4131
g69
I3
ssg70
g4125
sg63
(lp4132
S'/scrum/default/index'
p4133
asbasbasbag56
(g72
g58
NtRp4134
(dp4135
g61
(dp4136
sg70
g4091
sg63
(lp4137
g56
(g77
g58
NtRp4138
(dp4139
g61
(dp4140
sg70
g4134
sg63
(lp4141
g56
(g57
g58
NtRp4142
(dp4143
g61
(dp4144
g69
I3
ssg70
g4138
sg63
(lp4145
g56
(g65
g58
NtRp4146
(dp4147
g61
(dp4148
g69
I2
ssg70
Nsg63
(lp4149
sbasbasbasbasbasbasbasbag56
(g72
g58
NtRp4150
(dp4151
g61
(dp4152
sg70
g4075
sg63
(lp4153
g56
(g77
g58
NtRp4154
(dp4155
g61
(dp4156
sg70
g4150
sg63
(lp4157
g56
(g57
g58
NtRp4158
(dp4159
g61
(dp4160
g69
I4
ssg70
g4154
sg63
(lp4161
g56
(g65
g58
NtRp4162
(dp4163
g61
(dp4164
g69
I3
ssg70
Nsg63
(lp4165
g56
(g72
g58
NtRp4166
(dp4167
g61
(dp4168
sg70
g4162
sg63
(lp4169
g56
(g77
g58
NtRp4170
(dp4171
g61
(dp4172
sg70
g4166
sg63
(lp4173
g56
(g57
g58
NtRp4174
(dp4175
g61
(dp4176
g69
I3
ssg70
g4170
sg63
(lp4177
g4107
(S't\x03\x00\x00\x00BIV'
tRp4178
asbasbasbag56
(g72
g58
NtRp4179
(dp4180
g61
(dp4181
sg70
g4162
sg63
(lp4182
g56
(g77
g58
NtRp4183
(dp4184
g61
(dp4185
sg70
g4179
sg63
(lp4186
g56
(g57
g58
NtRp4187
(dp4188
g61
(dp4189
g69
I3
ssg70
g4183
sg63
(lp4190
g99
asbasbasbag56
(g72
g58
NtRp4191
(dp4192
g61
(dp4193
sg70
g4162
sg63
(lp4194
g56
(g77
g58
NtRp4195
(dp4196
g61
(dp4197
sg70
g4191
sg63
(lp4198
g56
(g57
g58
NtRp4199
(dp4200
g61
(dp4201
g69
I3
ssg70
g4195
sg63
(lp4202
S''
asbasbasbag56
(g72
g58
NtRp4203
(dp4204
g61
(dp4205
sg70
g4162
sg63
(lp4206
g56
(g77
g58
NtRp4207
(dp4208
g61
(dp4209
sg70
g4203
sg63
(lp4210
g56
(g57
g58
NtRp4211
(dp4212
g61
(dp4213
g69
I3
ssg70
g4207
sg63
(lp4214
g56
(g65
g58
NtRp4215
(dp4216
g61
(dp4217
g69
I2
ssg70
Nsg63
(lp4218
g56
(g72
g58
NtRp4219
(dp4220
g61
(dp4221
sg70
g4215
sg63
(lp4222
g56
(g77
g58
NtRp4223
(dp4224
g61
(dp4225
sg70
g4219
sg63
(lp4226
g56
(g57
g58
NtRp4227
(dp4228
g61
(dp4229
g69
I2
ssg70
g4223
sg63
(lp4230
g56
(g65
g58
NtRp4231
(dp4232
g61
(dp4233
g69
I1
ssg70
Nsg63
(lp4234
g56
(g72
g58
NtRp4235
(dp4236
g61
(dp4237
sg70
g4231
sg63
(lp4238
g56
(g77
g58
NtRp4239
(dp4240
g61
(dp4241
sg70
g4235
sg63
(lp4242
g56
(g57
g58
NtRp4243
(dp4244
g61
(dp4245
g69
I1
ssg70
g4239
sg63
(lp4246
g4107
(S't\x04\x00\x00\x00Novo'
tRp4247
asbasbasbag56
(g72
g58
NtRp4248
(dp4249
g61
(dp4250
sg70
g4231
sg63
(lp4251
g56
(g77
g58
NtRp4252
(dp4253
g61
(dp4254
sg70
g4248
sg63
(lp4255
g56
(g57
g58
NtRp4256
(dp4257
g61
(dp4258
g69
I1
ssg70
g4252
sg63
(lp4259
I00
asbasbasbag56
(g72
g58
NtRp4260
(dp4261
g61
(dp4262
sg70
g4231
sg63
(lp4263
g56
(g77
g58
NtRp4264
(dp4265
g61
(dp4266
sg70
g4260
sg63
(lp4267
g56
(g57
g58
NtRp4268
(dp4269
g61
(dp4270
g69
I1
ssg70
g4264
sg63
(lp4271
S'/scrum/default/novo_biv'
p4272
asbasbasbag56
(g72
g58
NtRp4273
(dp4274
g61
(dp4275
sg70
g4231
sg63
(lp4276
g56
(g77
g58
NtRp4277
(dp4278
g61
(dp4279
sg70
g4273
sg63
(lp4280
g56
(g57
g58
NtRp4281
(dp4282
g61
(dp4283
g69
I1
ssg70
g4277
sg63
(lp4284
(lp4285
asbasbasbasbasbasbasbag56
(g72
g58
NtRp4286
(dp4287
g61
(dp4288
sg70
g4215
sg63
(lp4289
g56
(g77
g58
NtRp4290
(dp4291
g61
(dp4292
sg70
g4286
sg63
(lp4293
g56
(g57
g58
NtRp4294
(dp4295
g61
(dp4296
g69
I2
ssg70
g4290
sg63
(lp4297
g56
(g65
g58
NtRp4298
(dp4299
g61
(dp4300
g69
I1
ssg70
Nsg63
(lp4301
g56
(g72
g58
NtRp4302
(dp4303
g61
(dp4304
sg70
g4298
sg63
(lp4305
g56
(g77
g58
NtRp4306
(dp4307
g61
(dp4308
sg70
g4302
sg63
(lp4309
g56
(g57
g58
NtRp4310
(dp4311
g61
(dp4312
g69
I1
ssg70
g4306
sg63
(lp4313
g4107
(S't\n\x00\x00\x00Selecionar'
tRp4314
asbasbasbag56
(g72
g58
NtRp4315
(dp4316
g61
(dp4317
sg70
g4298
sg63
(lp4318
g56
(g77
g58
NtRp4319
(dp4320
g61
(dp4321
sg70
g4315
sg63
(lp4322
g56
(g57
g58
NtRp4323
(dp4324
g61
(dp4325
g69
I1
ssg70
g4319
sg63
(lp4326
I00
asbasbasbag56
(g72
g58
NtRp4327
(dp4328
g61
(dp4329
sg70
g4298
sg63
(lp4330
g56
(g77
g58
NtRp4331
(dp4332
g61
(dp4333
sg70
g4327
sg63
(lp4334
g56
(g57
g58
NtRp4335
(dp4336
g61
(dp4337
g69
I1
ssg70
g4331
sg63
(lp4338
S'/scrum/default/selecionar_biv'
p4339
asbasbasbag56
(g72
g58
NtRp4340
(dp4341
g61
(dp4342
sg70
g4298
sg63
(lp4343
g56
(g77
g58
NtRp4344
(dp4345
g61
(dp4346
sg70
g4340
sg63
(lp4347
g56
(g57
g58
NtRp4348
(dp4349
g61
(dp4350
g69
I1
ssg70
g4344
sg63
(lp4351
(lp4352
asbasbasbasbasbasbasbasbasbasbasbasbasbasbasbag56
(g72
g58
NtRp4353
(dp4354
g61
(dp4355
sg70
g4075
sg63
(lp4356
g56
(g77
g58
NtRp4357
(dp4358
g61
(dp4359
sg70
g4353
sg63
(lp4360
g56
(g57
g58
NtRp4361
(dp4362
g61
(dp4363
g69
I4
ssg70
g4357
sg63
(lp4364
g56
(g65
g58
NtRp4365
(dp4366
g61
(dp4367
g69
I3
ssg70
Nsg63
(lp4368
g56
(g72
g58
NtRp4369
(dp4370
g61
(dp4371
sg70
g4365
sg63
(lp4372
g56
(g77
g58
NtRp4373
(dp4374
g61
(dp4375
sg70
g4369
sg63
(lp4376
g56
(g57
g58
NtRp4377
(dp4378
g61
(dp4379
g69
I3
ssg70
g4373
sg63
(lp4380
g4107
(S't\x07\x00\x00\x00Tickets'
tRp4381
asbasbasbag56
(g72
g58
NtRp4382
(dp4383
g61
(dp4384
sg70
g4365
sg63
(lp4385
g56
(g77
g58
NtRp4386
(dp4387
g61
(dp4388
sg70
g4382
sg63
(lp4389
g56
(g57
g58
NtRp4390
(dp4391
g61
(dp4392
g69
I3
ssg70
g4386
sg63
(lp4393
g99
asbasbasbag56
(g72
g58
NtRp4394
(dp4395
g61
(dp4396
sg70
g4365
sg63
(lp4397
g56
(g77
g58
NtRp4398
(dp4399
g61
(dp4400
sg70
g4394
sg63
(lp4401
g56
(g57
g58
NtRp4402
(dp4403
g61
(dp4404
g69
I3
ssg70
g4398
sg63
(lp4405
S'/scrum/ticket/index'
p4406
asbasbasbag56
(g72
g58
NtRp4407
(dp4408
g61
(dp4409
sg70
g4365
sg63
(lp4410
g56
(g77
g58
NtRp4411
(dp4412
g61
(dp4413
sg70
g4407
sg63
(lp4414
g56
(g57
g58
NtRp4415
(dp4416
g61
(dp4417
g69
I3
ssg70
g4411
sg63
(lp4418
g56
(g65
g58
NtRp4419
(dp4420
g61
(dp4421
g69
I2
ssg70
Nsg63
(lp4422
g56
(g72
g58
NtRp4423
(dp4424
g61
(dp4425
sg70
g4419
sg63
(lp4426
g56
(g77
g58
NtRp4427
(dp4428
g61
(dp4429
sg70
g4423
sg63
(lp4430
g56
(g57
g58
NtRp4431
(dp4432
g61
(dp4433
g69
I2
ssg70
g4427
sg63
(lp4434
g56
(g65
g58
NtRp4435
(dp4436
g61
(dp4437
g69
I1
ssg70
Nsg63
(lp4438
g56
(g72
g58
NtRp4439
(dp4440
g61
(dp4441
sg70
g4435
sg63
(lp4442
g56
(g77
g58
NtRp4443
(dp4444
g61
(dp4445
sg70
g4439
sg63
(lp4446
g56
(g57
g58
NtRp4447
(dp4448
g61
(dp4449
g69
I1
ssg70
g4443
sg63
(lp4450
g4107
(S't\x04\x00\x00\x00Novo'
tRp4451
asbasbasbag56
(g72
g58
NtRp4452
(dp4453
g61
(dp4454
sg70
g4435
sg63
(lp4455
g56
(g77
g58
NtRp4456
(dp4457
g61
(dp4458
sg70
g4452
sg63
(lp4459
g56
(g57
g58
NtRp4460
(dp4461
g61
(dp4462
g69
I1
ssg70
g4456
sg63
(lp4463
I00
asbasbasbag56
(g72
g58
NtRp4464
(dp4465
g61
(dp4466
sg70
g4435
sg63
(lp4467
g56
(g77
g58
NtRp4468
(dp4469
g61
(dp4470
sg70
g4464
sg63
(lp4471
g56
(g57
g58
NtRp4472
(dp4473
g61
(dp4474
g69
I1
ssg70
g4468
sg63
(lp4475
S'/scrum/ticket/novo'
p4476
asbasbasbag56
(g72
g58
NtRp4477
(dp4478
g61
(dp4479
sg70
g4435
sg63
(lp4480
g56
(g77
g58
NtRp4481
(dp4482
g61
(dp4483
sg70
g4477
sg63
(lp4484
g56
(g57
g58
NtRp4485
(dp4486
g61
(dp4487
g69
I1
ssg70
g4481
sg63
(lp4488
(lp4489
asbasbasbasbasbasbasbag56
(g72
g58
NtRp4490
(dp4491
g61
(dp4492
sg70
g4419
sg63
(lp4493
g56
(g77
g58
NtRp4494
(dp4495
g61
(dp4496
sg70
g4490
sg63
(lp4497
g56
(g57
g58
NtRp4498
(dp4499
g61
(dp4500
g69
I2
ssg70
g4494
sg63
(lp4501
g56
(g65
g58
NtRp4502
(dp4503
g61
(dp4504
g69
I1
ssg70
Nsg63
(lp4505
g56
(g72
g58
NtRp4506
(dp4507
g61
(dp4508
sg70
g4502
sg63
(lp4509
g56
(g77
g58
NtRp4510
(dp4511
g61
(dp4512
sg70
g4506
sg63
(lp4513
g56
(g57
g58
NtRp4514
(dp4515
g61
(dp4516
g69
I1
ssg70
g4510
sg63
(lp4517
g4107
(S't\n\x00\x00\x00Selecionar'
tRp4518
asbasbasbag56
(g72
g58
NtRp4519
(dp4520
g61
(dp4521
sg70
g4502
sg63
(lp4522
g56
(g77
g58
NtRp4523
(dp4524
g61
(dp4525
sg70
g4519
sg63
(lp4526
g56
(g57
g58
NtRp4527
(dp4528
g61
(dp4529
g69
I1
ssg70
g4523
sg63
(lp4530
I00
asbasbasbag56
(g72
g58
NtRp4531
(dp4532
g61
(dp4533
sg70
g4502
sg63
(lp4534
g56
(g77
g58
NtRp4535
(dp4536
g61
(dp4537
sg70
g4531
sg63
(lp4538
g56
(g57
g58
NtRp4539
(dp4540
g61
(dp4541
g69
I1
ssg70
g4535
sg63
(lp4542
S'/scrum/ticket/index'
p4543
asbasbasbag56
(g72
g58
NtRp4544
(dp4545
g61
(dp4546
sg70
g4502
sg63
(lp4547
g56
(g77
g58
NtRp4548
(dp4549
g61
(dp4550
sg70
g4544
sg63
(lp4551
g56
(g57
g58
NtRp4552
(dp4553
g61
(dp4554
g69
I1
ssg70
g4548
sg63
(lp4555
(lp4556
asbasbasbasbasbasbasbasbasbasbasbasbasbasbasbag56
(g72
g58
NtRp4557
(dp4558
g61
(dp4559
sg70
g4075
sg63
(lp4560
g56
(g77
g58
NtRp4561
(dp4562
g61
(dp4563
sg70
g4557
sg63
(lp4564
g56
(g57
g58
NtRp4565
(dp4566
g61
(dp4567
g69
I4
ssg70
g4561
sg63
(lp4568
g56
(g65
g58
NtRp4569
(dp4570
g61
(dp4571
g69
I3
ssg70
Nsg63
(lp4572
g56
(g72
g58
NtRp4573
(dp4574
g61
(dp4575
sg70
g4569
sg63
(lp4576
g56
(g77
g58
NtRp4577
(dp4578
g61
(dp4579
sg70
g4573
sg63
(lp4580
g56
(g57
g58
NtRp4581
(dp4582
g61
(dp4583
g69
I3
ssg70
g4577
sg63
(lp4584
g4107
(S't\x06\x00\x00\x00Sprint'
tRp4585
asbasbasbag56
(g72
g58
NtRp4586
(dp4587
g61
(dp4588
sg70
g4569
sg63
(lp4589
g56
(g77
g58
NtRp4590
(dp4591
g61
(dp4592
sg70
g4586
sg63
(lp4593
g56
(g57
g58
NtRp4594
(dp4595
g61
(dp4596
g69
I3
ssg70
g4590
sg63
(lp4597
g99
asbasbasbag56
(g72
g58
NtRp4598
(dp4599
g61
(dp4600
sg70
g4569
sg63
(lp4601
g56
(g77
g58
NtRp4602
(dp4603
g61
(dp4604
sg70
g4598
sg63
(lp4605
g56
(g57
g58
NtRp4606
(dp4607
g61
(dp4608
g69
I3
ssg70
g4602
sg63
(lp4609
S''
asbasbasbag56
(g72
g58
NtRp4610
(dp4611
g61
(dp4612
sg70
g4569
sg63
(lp4613
g56
(g77
g58
NtRp4614
(dp4615
g61
(dp4616
sg70
g4610
sg63
(lp4617
g56
(g57
g58
NtRp4618
(dp4619
g61
(dp4620
g69
I3
ssg70
g4614
sg63
(lp4621
g56
(g65
g58
NtRp4622
(dp4623
g61
(dp4624
g69
I2
ssg70
Nsg63
(lp4625
g56
(g72
g58
NtRp4626
(dp4627
g61
(dp4628
sg70
g4622
sg63
(lp4629
g56
(g77
g58
NtRp4630
(dp4631
g61
(dp4632
sg70
g4626
sg63
(lp4633
g56
(g57
g58
NtRp4634
(dp4635
g61
(dp4636
g69
I2
ssg70
g4630
sg63
(lp4637
g56
(g65
g58
NtRp4638
(dp4639
g61
(dp4640
g69
I1
ssg70
Nsg63
(lp4641
g56
(g72
g58
NtRp4642
(dp4643
g61
(dp4644
sg70
g4638
sg63
(lp4645
g56
(g77
g58
NtRp4646
(dp4647
g61
(dp4648
sg70
g4642
sg63
(lp4649
g56
(g57
g58
NtRp4650
(dp4651
g61
(dp4652
g69
I1
ssg70
g4646
sg63
(lp4653
g4107
(S't\x04\x00\x00\x00Novo'
tRp4654
asbasbasbag56
(g72
g58
NtRp4655
(dp4656
g61
(dp4657
sg70
g4638
sg63
(lp4658
g56
(g77
g58
NtRp4659
(dp4660
g61
(dp4661
sg70
g4655
sg63
(lp4662
g56
(g57
g58
NtRp4663
(dp4664
g61
(dp4665
g69
I1
ssg70
g4659
sg63
(lp4666
I00
asbasbasbag56
(g72
g58
NtRp4667
(dp4668
g61
(dp4669
sg70
g4638
sg63
(lp4670
g56
(g77
g58
NtRp4671
(dp4672
g61
(dp4673
sg70
g4667
sg63
(lp4674
g56
(g57
g58
NtRp4675
(dp4676
g61
(dp4677
g69
I1
ssg70
g4671
sg63
(lp4678
S'/scrum/sprint/novo'
p4679
asbasbasbag56
(g72
g58
NtRp4680
(dp4681
g61
(dp4682
sg70
g4638
sg63
(lp4683
g56
(g77
g58
NtRp4684
(dp4685
g61
(dp4686
sg70
g4680
sg63
(lp4687
g56
(g57
g58
NtRp4688
(dp4689
g61
(dp4690
g69
I1
ssg70
g4684
sg63
(lp4691
(lp4692
asbasbasbasbasbasbasbag56
(g72
g58
NtRp4693
(dp4694
g61
(dp4695
sg70
g4622
sg63
(lp4696
g56
(g77
g58
NtRp4697
(dp4698
g61
(dp4699
sg70
g4693
sg63
(lp4700
g56
(g57
g58
NtRp4701
(dp4702
g61
(dp4703
g69
I2
ssg70
g4697
sg63
(lp4704
g56
(g65
g58
NtRp4705
(dp4706
g61
(dp4707
g69
I1
ssg70
Nsg63
(lp4708
g56
(g72
g58
NtRp4709
(dp4710
g61
(dp4711
sg70
g4705
sg63
(lp4712
g56
(g77
g58
NtRp4713
(dp4714
g61
(dp4715
sg70
g4709
sg63
(lp4716
g56
(g57
g58
NtRp4717
(dp4718
g61
(dp4719
g69
I1
ssg70
g4713
sg63
(lp4720
g4107
(S't\n\x00\x00\x00Selecionar'
tRp4721
asbasbasbag56
(g72
g58
NtRp4722
(dp4723
g61
(dp4724
sg70
g4705
sg63
(lp4725
g56
(g77
g58
NtRp4726
(dp4727
g61
(dp4728
sg70
g4722
sg63
(lp4729
g56
(g57
g58
NtRp4730
(dp4731
g61
(dp4732
g69
I1
ssg70
g4726
sg63
(lp4733
I00
asbasbasbag56
(g72
g58
NtRp4734
(dp4735
g61
(dp4736
sg70
g4705
sg63
(lp4737
g56
(g77
g58
NtRp4738
(dp4739
g61
(dp4740
sg70
g4734
sg63
(lp4741
g56
(g57
g58
NtRp4742
(dp4743
g61
(dp4744
g69
I1
ssg70
g4738
sg63
(lp4745
S'/scrum/sprint/index'
p4746
asbasbasbag56
(g72
g58
NtRp4747
(dp4748
g61
(dp4749
sg70
g4705
sg63
(lp4750
g56
(g77
g58
NtRp4751
(dp4752
g61
(dp4753
sg70
g4747
sg63
(lp4754
g56
(g57
g58
NtRp4755
(dp4756
g61
(dp4757
g69
I1
ssg70
g4751
sg63
(lp4758
(lp4759
asbasbasbasbasbasbasbasbasbasbasbasbasbasbasbag56
(g72
g58
NtRp4760
(dp4761
g61
(dp4762
sg70
g4075
sg63
(lp4763
g56
(g77
g58
NtRp4764
(dp4765
g61
(dp4766
sg70
g4760
sg63
(lp4767
g56
(g57
g58
NtRp4768
(dp4769
g61
(dp4770
g69
I4
ssg70
g4764
sg63
(lp4771
g56
(g65
g58
NtRp4772
(dp4773
g61
(dp4774
g69
I3
ssg70
Nsg63
(lp4775
g56
(g72
g58
NtRp4776
(dp4777
g61
(dp4778
sg70
g4772
sg63
(lp4779
g56
(g77
g58
NtRp4780
(dp4781
g61
(dp4782
sg70
g4776
sg63
(lp4783
g56
(g57
g58
NtRp4784
(dp4785
g61
(dp4786
g69
I3
ssg70
g4780
sg63
(lp4787
g4107
(S't\x06\x00\x00\x00Config'
tRp4788
asbasbasbag56
(g72
g58
NtRp4789
(dp4790
g61
(dp4791
sg70
g4772
sg63
(lp4792
g56
(g77
g58
NtRp4793
(dp4794
g61
(dp4795
sg70
g4789
sg63
(lp4796
g56
(g57
g58
NtRp4797
(dp4798
g61
(dp4799
g69
I3
ssg70
g4793
sg63
(lp4800
g99
asbasbasbag56
(g72
g58
NtRp4801
(dp4802
g61
(dp4803
sg70
g4772
sg63
(lp4804
g56
(g77
g58
NtRp4805
(dp4806
g61
(dp4807
sg70
g4801
sg63
(lp4808
g56
(g57
g58
NtRp4809
(dp4810
g61
(dp4811
g69
I3
ssg70
g4805
sg63
(lp4812
S''
asbasbasbag56
(g72
g58
NtRp4813
(dp4814
g61
(dp4815
sg70
g4772
sg63
(lp4816
g56
(g77
g58
NtRp4817
(dp4818
g61
(dp4819
sg70
g4813
sg63
(lp4820
g56
(g57
g58
NtRp4821
(dp4822
g61
(dp4823
g69
I3
ssg70
g4817
sg63
(lp4824
g56
(g65
g58
NtRp4825
(dp4826
g61
(dp4827
g69
I2
ssg70
Nsg63
(lp4828
g56
(g72
g58
NtRp4829
(dp4830
g61
(dp4831
sg70
g4825
sg63
(lp4832
g56
(g77
g58
NtRp4833
(dp4834
g61
(dp4835
sg70
g4829
sg63
(lp4836
g56
(g57
g58
NtRp4837
(dp4838
g61
(dp4839
g69
I2
ssg70
g4833
sg63
(lp4840
g56
(g65
g58
NtRp4841
(dp4842
g61
(dp4843
g69
I1
ssg70
Nsg63
(lp4844
g56
(g72
g58
NtRp4845
(dp4846
g61
(dp4847
sg70
g4841
sg63
(lp4848
g56
(g77
g58
NtRp4849
(dp4850
g61
(dp4851
sg70
g4845
sg63
(lp4852
g56
(g57
g58
NtRp4853
(dp4854
g61
(dp4855
g69
I1
ssg70
g4849
sg63
(lp4856
g4107
(S't\x05\x00\x00\x00Geral'
tRp4857
asbasbasbag56
(g72
g58
NtRp4858
(dp4859
g61
(dp4860
sg70
g4841
sg63
(lp4861
g56
(g77
g58
NtRp4862
(dp4863
g61
(dp4864
sg70
g4858
sg63
(lp4865
g56
(g57
g58
NtRp4866
(dp4867
g61
(dp4868
g69
I1
ssg70
g4862
sg63
(lp4869
I00
asbasbasbag56
(g72
g58
NtRp4870
(dp4871
g61
(dp4872
sg70
g4841
sg63
(lp4873
g56
(g77
g58
NtRp4874
(dp4875
g61
(dp4876
sg70
g4870
sg63
(lp4877
g56
(g57
g58
NtRp4878
(dp4879
g61
(dp4880
g69
I1
ssg70
g4874
sg63
(lp4881
S'/scrum/config/index'
p4882
asbasbasbag56
(g72
g58
NtRp4883
(dp4884
g61
(dp4885
sg70
g4841
sg63
(lp4886
g56
(g77
g58
NtRp4887
(dp4888
g61
(dp4889
sg70
g4883
sg63
(lp4890
g56
(g57
g58
NtRp4891
(dp4892
g61
(dp4893
g69
I1
ssg70
g4887
sg63
(lp4894
(lp4895
asbasbasbasbasbasbasbag56
(g72
g58
NtRp4896
(dp4897
g61
(dp4898
sg70
g4825
sg63
(lp4899
g56
(g77
g58
NtRp4900
(dp4901
g61
(dp4902
sg70
g4896
sg63
(lp4903
g56
(g57
g58
NtRp4904
(dp4905
g61
(dp4906
g69
I2
ssg70
g4900
sg63
(lp4907
g56
(g65
g58
NtRp4908
(dp4909
g61
(dp4910
g69
I1
ssg70
Nsg63
(lp4911
g56
(g72
g58
NtRp4912
(dp4913
g61
(dp4914
sg70
g4908
sg63
(lp4915
g56
(g77
g58
NtRp4916
(dp4917
g61
(dp4918
sg70
g4912
sg63
(lp4919
g56
(g57
g58
NtRp4920
(dp4921
g61
(dp4922
g69
I1
ssg70
g4916
sg63
(lp4923
g4107
(S's\x12\x00\x00\x00Estados de Tickets'
tRp4924
asbasbasbag56
(g72
g58
NtRp4925
(dp4926
g61
(dp4927
sg70
g4908
sg63
(lp4928
g56
(g77
g58
NtRp4929
(dp4930
g61
(dp4931
sg70
g4925
sg63
(lp4932
g56
(g57
g58
NtRp4933
(dp4934
g61
(dp4935
g69
I1
ssg70
g4929
sg63
(lp4936
I00
asbasbasbag56
(g72
g58
NtRp4937
(dp4938
g61
(dp4939
sg70
g4908
sg63
(lp4940
g56
(g77
g58
NtRp4941
(dp4942
g61
(dp4943
sg70
g4937
sg63
(lp4944
g56
(g57
g58
NtRp4945
(dp4946
g61
(dp4947
g69
I1
ssg70
g4941
sg63
(lp4948
S'/scrum/config/estado_ticket'
p4949
asbasbasbag56
(g72
g58
NtRp4950
(dp4951
g61
(dp4952
sg70
g4908
sg63
(lp4953
g56
(g77
g58
NtRp4954
(dp4955
g61
(dp4956
sg70
g4950
sg63
(lp4957
g56
(g57
g58
NtRp4958
(dp4959
g61
(dp4960
g69
I1
ssg70
g4954
sg63
(lp4961
(lp4962
asbasbasbasbasbasbasbasbasbasbasbasbasbasbasbasbasbasbasbag56
(g72
g58
NtRp4963
(dp4964
g61
(dp4965
sg70
g3614
sg63
(lp4966
g56
(g77
g58
NtRp4967
(dp4968
g61
(dp4969
g81
g82
ssg70
g4963
sg63
(lp4970
S'meta'
p4971
asbag56
(g77
g58
NtRp4972
(dp4973
g61
(dp4974
g88
g89
ssg70
g4963
sg63
(lp4975
S':'
asbag56
(g77
g58
NtRp4976
(dp4977
g61
(dp4978
sg70
g4963
sg63
(lp4979
g56
(g57
g58
NtRp4980
(dp4981
g61
(dp4982
g69
I5
ssg70
g4976
sg63
(lp4983
g56
(g65
g58
NtRp4984
(dp4985
g61
(dp4986
g69
I4
ssg70
Nsg63
(lp4987
g56
(g72
g58
NtRp4988
(dp4989
g61
(dp4990
sg70
g4984
sg63
(lp4991
g56
(g77
g58
NtRp4992
(dp4993
g61
(dp4994
g81
g82
ssg70
g4988
sg63
(lp4995
S'author'
p4996
asbag56
(g77
g58
NtRp4997
(dp4998
g61
(dp4999
g88
g89
ssg70
g4988
sg63
(lp5000
S':'
asbag56
(g77
g58
NtRp5001
(dp5002
g61
(dp5003
sg70
g4988
sg63
(lp5004
g56
(g57
g58
NtRp5005
(dp5006
g61
(dp5007
g69
I4
ssg70
g5001
sg63
(lp5008
S'Carlos J. Costa'
p5009
asbasbasbag56
(g72
g58
NtRp5010
(dp5011
g61
(dp5012
sg70
g4984
sg63
(lp5013
g56
(g77
g58
NtRp5014
(dp5015
g61
(dp5016
g81
g82
ssg70
g5010
sg63
(lp5017
S'copyright'
p5018
asbag56
(g77
g58
NtRp5019
(dp5020
g61
(dp5021
g88
g89
ssg70
g5010
sg63
(lp5022
S':'
asbag56
(g77
g58
NtRp5023
(dp5024
g61
(dp5025
sg70
g5010
sg63
(lp5026
g56
(g57
g58
NtRp5027
(dp5028
g61
(dp5029
g69
I4
ssg70
g5023
sg63
(lp5030
S'Copyright 2007-2010'
p5031
asbasbasbag56
(g72
g58
NtRp5032
(dp5033
g61
(dp5034
sg70
g4984
sg63
(lp5035
g56
(g77
g58
NtRp5036
(dp5037
g61
(dp5038
g81
g82
ssg70
g5032
sg63
(lp5039
S'description'
p5040
asbag56
(g77
g58
NtRp5041
(dp5042
g61
(dp5043
g88
g89
ssg70
g5032
sg63
(lp5044
S':'
asbag56
(g77
g58
NtRp5045
(dp5046
g61
(dp5047
sg70
g5032
sg63
(lp5048
g56
(g57
g58
NtRp5049
(dp5050
g61
(dp5051
g69
I4
ssg70
g5045
sg63
(lp5052
S'Development track'
p5053
asbasbasbag56
(g72
g58
NtRp5054
(dp5055
g61
(dp5056
sg70
g4984
sg63
(lp5057
g56
(g77
g58
NtRp5058
(dp5059
g61
(dp5060
g81
g82
ssg70
g5054
sg63
(lp5061
S'generator'
p5062
asbag56
(g77
g58
NtRp5063
(dp5064
g61
(dp5065
g88
g89
ssg70
g5054
sg63
(lp5066
S':'
asbag56
(g77
g58
NtRp5067
(dp5068
g61
(dp5069
sg70
g5054
sg63
(lp5070
g56
(g57
g58
NtRp5071
(dp5072
g61
(dp5073
g69
I4
ssg70
g5067
sg63
(lp5074
S'Web2py Enterprise Framework'
p5075
asbasbasbag56
(g72
g58
NtRp5076
(dp5077
g61
(dp5078
sg70
g4984
sg63
(lp5079
g56
(g77
g58
NtRp5080
(dp5081
g61
(dp5082
g81
g82
ssg70
g5076
sg63
(lp5083
S'keywords'
p5084
asbag56
(g77
g58
NtRp5085
(dp5086
g61
(dp5087
g88
g89
ssg70
g5076
sg63
(lp5088
S':'
asbag56
(g77
g58
NtRp5089
(dp5090
g61
(dp5091
sg70
g5076
sg63
(lp5092
g56
(g57
g58
NtRp5093
(dp5094
g61
(dp5095
g69
I4
ssg70
g5089
sg63
(lp5096
S'test, issue'
p5097
asbasbasbasbasbasbasbag56
(g72
g58
NtRp5098
(dp5099
g61
(dp5100
sg70
g3614
sg63
(lp5101
g56
(g77
g58
NtRp5102
(dp5103
g61
(dp5104
g81
g82
ssg70
g5098
sg63
(lp5105
S'postprocessing'
p5106
asbag56
(g77
g58
NtRp5107
(dp5108
g61
(dp5109
g88
g89
ssg70
g5098
sg63
(lp5110
S':'
asbag56
(g77
g58
NtRp5111
(dp5112
g61
(dp5113
sg70
g5098
sg63
(lp5114
g56
(g57
g58
NtRp5115
(dp5116
g61
(dp5117
g69
I5
ssg70
g5111
sg63
(lp5118
g56
(g65
g58
NtRp5119
(dp5120
g61
(dp5121
g69
I4
ssg70
Nsg63
(lp5122
sbasbasbasbag56
(g72
g58
NtRp5123
(dp5124
g61
(dp5125
sg70
g3614
sg63
(lp5126
g56
(g77
g58
NtRp5127
(dp5128
g61
(dp5129
g81
g82
ssg70
g5123
sg63
(lp5130
S'session_file'
p5131
asbag56
(g77
g58
NtRp5132
(dp5133
g61
(dp5134
g88
g89
ssg70
g5123
sg63
(lp5135
S':'
asbag56
(g77
g58
NtRp5136
(dp5137
g61
(dp5138
sg70
g5123
sg63
(lp5139
g56
(g57
g58
NtRp5140
(dp5141
g61
(dp5142
g69
I5
ssg70
g5136
sg63
(lp5143
S"<open file '/home/www-data/web2py/applications/scrum/sessions/127.0.0.1-8741b6aa-dd8d-45b3-88a3-6f21c23a3c79', mode 'rb+' at 0xb8e43ac8>"
p5144
asbasbasbag56
(g72
g58
NtRp5145
(dp5146
g61
(dp5147
sg70
g3614
sg63
(lp5148
g56
(g77
g58
NtRp5149
(dp5150
g61
(dp5151
g81
g82
ssg70
g5145
sg63
(lp5152
S'session_filename'
p5153
asbag56
(g77
g58
NtRp5154
(dp5155
g61
(dp5156
g88
g89
ssg70
g5145
sg63
(lp5157
S':'
asbag56
(g77
g58
NtRp5158
(dp5159
g61
(dp5160
sg70
g5145
sg63
(lp5161
g56
(g57
g58
NtRp5162
(dp5163
g61
(dp5164
g69
I5
ssg70
g5158
sg63
(lp5165
S'/home/www-data/web2py/applications/scrum/sessions/127.0.0.1-8741b6aa-dd8d-45b3-88a3-6f21c23a3c79'
p5166
asbasbasbag56
(g72
g58
NtRp5167
(dp5168
g61
(dp5169
sg70
g3614
sg63
(lp5170
g56
(g77
g58
NtRp5171
(dp5172
g61
(dp5173
g81
g82
ssg70
g5167
sg63
(lp5174
S'session_id'
p5175
asbag56
(g77
g58
NtRp5176
(dp5177
g61
(dp5178
g88
g89
ssg70
g5167
sg63
(lp5179
S':'
asbag56
(g77
g58
NtRp5180
(dp5181
g61
(dp5182
sg70
g5167
sg63
(lp5183
g56
(g57
g58
NtRp5184
(dp5185
g61
(dp5186
g69
I5
ssg70
g5180
sg63
(lp5187
S'127.0.0.1-8741b6aa-dd8d-45b3-88a3-6f21c23a3c79'
p5188
asbasbasbag56
(g72
g58
NtRp5189
(dp5190
g61
(dp5191
sg70
g3614
sg63
(lp5192
g56
(g77
g58
NtRp5193
(dp5194
g61
(dp5195
g81
g82
ssg70
g5189
sg63
(lp5196
S'session_id_name'
p5197
asbag56
(g77
g58
NtRp5198
(dp5199
g61
(dp5200
g88
g89
ssg70
g5189
sg63
(lp5201
S':'
asbag56
(g77
g58
NtRp5202
(dp5203
g61
(dp5204
sg70
g5189
sg63
(lp5205
g56
(g57
g58
NtRp5206
(dp5207
g61
(dp5208
g69
I5
ssg70
g5202
sg63
(lp5209
g3671
asbasbasbag56
(g72
g58
NtRp5210
(dp5211
g61
(dp5212
sg70
g3614
sg63
(lp5213
g56
(g77
g58
NtRp5214
(dp5215
g61
(dp5216
g81
g82
ssg70
g5210
sg63
(lp5217
S'session_locked'
p5218
asbag56
(g77
g58
NtRp5219
(dp5220
g61
(dp5221
g88
g89
ssg70
g5210
sg63
(lp5222
S':'
asbag56
(g77
g58
NtRp5223
(dp5224
g61
(dp5225
sg70
g5210
sg63
(lp5226
g56
(g57
g58
NtRp5227
(dp5228
g61
(dp5229
g69
I5
ssg70
g5223
sg63
(lp5230
g1797
asbasbasbag56
(g72
g58
NtRp5231
(dp5232
g61
(dp5233
sg70
g3614
sg63
(lp5234
g56
(g77
g58
NtRp5235
(dp5236
g61
(dp5237
g81
g82
ssg70
g5231
sg63
(lp5238
S'session_new'
p5239
asbag56
(g77
g58
NtRp5240
(dp5241
g61
(dp5242
g88
g89
ssg70
g5231
sg63
(lp5243
S':'
asbag56
(g77
g58
NtRp5244
(dp5245
g61
(dp5246
sg70
g5231
sg63
(lp5247
g56
(g57
g58
NtRp5248
(dp5249
g61
(dp5250
g69
I5
ssg70
g5244
sg63
(lp5251
g99
asbasbasbag56
(g72
g58
NtRp5252
(dp5253
g61
(dp5254
sg70
g3614
sg63
(lp5255
g56
(g77
g58
NtRp5256
(dp5257
g61
(dp5258
g81
g82
ssg70
g5252
sg63
(lp5259
S'status'
p5260
asbag56
(g77
g58
NtRp5261
(dp5262
g61
(dp5263
g88
g89
ssg70
g5252
sg63
(lp5264
S':'
asbag56
(g77
g58
NtRp5265
(dp5266
g61
(dp5267
sg70
g5252
sg63
(lp5268
g56
(g57
g58
NtRp5269
(dp5270
g61
(dp5271
g69
I5
ssg70
g5265
sg63
(lp5272
S'200'
p5273
asbasbasbag56
(g72
g58
NtRp5274
(dp5275
g61
(dp5276
sg70
g3614
sg63
(lp5277
g56
(g77
g58
NtRp5278
(dp5279
g61
(dp5280
g81
g82
ssg70
g5274
sg63
(lp5281
S'subtitle'
p5282
asbag56
(g77
g58
NtRp5283
(dp5284
g61
(dp5285
g88
g89
ssg70
g5274
sg63
(lp5286
S':'
asbag56
(g77
g58
NtRp5287
(dp5288
g61
(dp5289
sg70
g5274
sg63
(lp5290
g56
(g57
g58
NtRp5291
(dp5292
g61
(dp5293
g69
I5
ssg70
g5287
sg63
(lp5294
g4107
(S's\x0f\x00\x00\x00Personalize-me!'
tRp5295
asbasbasbag56
(g72
g58
NtRp5296
(dp5297
g61
(dp5298
sg70
g3614
sg63
(lp5299
g56
(g77
g58
NtRp5300
(dp5301
g61
(dp5302
g81
g82
ssg70
g5296
sg63
(lp5303
S'title'
p5304
asbag56
(g77
g58
NtRp5305
(dp5306
g61
(dp5307
g88
g89
ssg70
g5296
sg63
(lp5308
S':'
asbag56
(g77
g58
NtRp5309
(dp5310
g61
(dp5311
sg70
g5296
sg63
(lp5312
g56
(g57
g58
NtRp5313
(dp5314
g61
(dp5315
g69
I5
ssg70
g5309
sg63
(lp5316
g121
asbasbasbag56
(g72
g58
NtRp5317
(dp5318
g61
(dp5319
sg70
g3614
sg63
(lp5320
g56
(g77
g58
NtRp5321
(dp5322
g61
(dp5323
g81
g82
ssg70
g5317
sg63
(lp5324
g2121
asbag56
(g77
g58
NtRp5325
(dp5326
g61
(dp5327
g88
g89
ssg70
g5317
sg63
(lp5328
S':'
asbag56
(g77
g58
NtRp5329
(dp5330
g61
(dp5331
sg70
g5317
sg63
(lp5332
g56
(g57
g58
NtRp5333
(dp5334
g61
(dp5335
g69
I5
ssg70
g5329
sg63
(lp5336
g2134
asbasbasbag56
(g72
g58
NtRp5337
(dp5338
g61
(dp5339
sg70
g3614
sg63
(lp5340
g56
(g77
g58
NtRp5341
(dp5342
g61
(dp5343
g81
g82
ssg70
g5337
sg63
(lp5344
S'view'
p5345
asbag56
(g77
g58
NtRp5346
(dp5347
g61
(dp5348
g88
g89
ssg70
g5337
sg63
(lp5349
S':'
asbag56
(g77
g58
NtRp5350
(dp5351
g61
(dp5352
sg70
g5337
sg63
(lp5353
g56
(g57
g58
NtRp5354
(dp5355
g61
(dp5356
g69
I5
ssg70
g5350
sg63
(lp5357
S'sprint/detalhes.html'
p5358
asbasbasbasbasbsS'locals'
p5359
(dp5360
S'cols'
p5361
S'None'
p5362
sS'key'
p5363
S'None'
p5364
sssS'traceback'
p5365
S'Traceback (most recent call last):\n  File "/home/www-data/web2py/gluon/restricted.py", line 192, in restricted\n    exec ccode in environment\n  File "/home/www-data/web2py/applications/scrum/controllers/sprint.py", line 52, in <module>\n  File "/home/www-data/web2py/gluon/globals.py", line 145, in <lambda>\n    self._caller = lambda f: f()\n  File "/home/www-data/web2py/applications/scrum/controllers/sprint.py", line 45, in detalhes\n    tablename = key.split(\'.\')[0]\nAttributeError: \'NoneType\' object has no attribute \'split\'\n'
p5366
s.