(dp1
S'output'
p2
S''
sS'layer'
p3
S'/home/www-data/web2py/applications/scrum/views/sprint/editar.html'
p4
sS'code'
p5
S'response.write(\'<!DOCTYPE html>\\n<html lang="\', escape=False)\nresponse.write(T.accepted_language or \'en\')\nresponse.write(\'" class="no-js"><!-- no-js need it for modernzr -->\\n  <head>\\n    \\n    <meta charset="utf-8" />        \\n    <!-- www.phpied.com/conditional-comments-block-downloads/ -->\\n    <!--[if IE]><![endif]-->    \\n    <!-- Always force latest IE rendering engine \\n     (even in intranet) & Chrome Frame \\n     Remove this if you use the .htaccess -->\\n    <meta http-equiv="X-UA-Compatible" content="IE=edge,chrome=1">\\n    \\n    <title>\', escape=False)\nresponse.write(response.title or request.application)\nresponse.write(\'</title>\\n    \\n    <!-- http://dev.w3.org/html5/markup/meta.name.html -->\\n    <meta name="application-name" content="\', escape=False)\nresponse.write(request.application)\nresponse.write(\'" /> \\n    \\n    <!-- Speaking of Google, don\\\'t forget to set your site up: \\n     http://google.com/webmasters -->\\n    <meta name="google-site-verification" content="" />\\n    \\n    <!--  Mobile Viewport Fix\\n      j.mp/mobileviewport & davidbcalhoun.com/2010/viewport-metatag \\n      device-width: Occupy full width of the screen in its current orientation\\n      initial-scale = 1.0 retains dimensions instead of zooming out if page height > device height\\n      maximum-scale = 1.0 retains dimensions instead of zooming in if page width < device width\\n      -->\\n    <meta name="viewport" content="width=device-width; initial-scale=1.0; maximum-scale=1.0;">\\n    \\n    <!-- Place favicon.ico and apple-touch-icon.png in the root of your domain and delete these references -->\\n    <link rel="shortcut icon" href="\', escape=False)\nresponse.write(URL(\'static\',\'favicon.ico\'))\nresponse.write(\'" type="image/x-icon">\\n    <link rel="apple-touch-icon" href="\', escape=False)\nresponse.write(URL(\'static\',\'favicon.png\'))\nresponse.write(\'">\\n\\n    <!-- For the less-enabled mobile browsers like Opera Mini -->\\n    <link rel="stylesheet" media="handheld" href="\', escape=False)\nresponse.write(URL(\'static\',\'css/handheld.css\'))\nresponse.write(\'">\\n    \\n    <!-- All JavaScript at the bottom, except for Modernizr which enables HTML5 elements & feature detects -->\\n    <script src="\', escape=False)\nresponse.write(URL(\'static\',\'js/modernizr-1.6.min.js\'))\nresponse.write(\'"></script>\\n    \\n    \', escape=False)\n#------  require CSS and JS files for this page (read info in base.css) ------\nresponse.write(\'\\n    \', escape=False)\nresponse.files.append(URL(\'static\',\'css/base.css\'))\nresponse.write(\'\\n    \', escape=False)\nresponse.files.append(URL(\'static\',\'css/superfish.css\'))\nresponse.write(\'\\n    \', escape=False)\nresponse.files.append(URL(\'static\',\'js/superfish.js\'))\nresponse.write(\'\\n    \', escape=False)\n#------ include web2py specific js code (jquery, calendar, form stuff) ------\nresponse.write(\'\\n    \', escape=False)\nresponse.files.insert(0,URL(\'static\',\'js/jquery.js\'))\nresponse.files.insert(1,URL(\'static\',\'css/calendar.css\'))\nresponse.files.insert(2,URL(\'static\',\'js/calendar.js\'))\nfor _item in response.meta or []:\n    response.write(\'\\n     <meta name="\', escape=False)\n    response.write(_item)\n    response.write(\'" content="\', escape=False)\n    response.write(response.meta[_item])\n    response.write(\'" />\', escape=False)\n    pass\nfor _k,_file in enumerate(response.files or []):\n    if _file in response.files[:_k]:\n        continue\n    _file0=_file.lower().split(\'?\')[0]\n    if _file0.endswith(\'.css\'):\n        response.write(\'\\n     <link href="\', escape=False)\n        response.write(_file)\n        response.write(\'" rel="stylesheet" type="text/css" />\', escape=False)\n    elif _file0.endswith(\'.js\'):\n        response.write(\'\\n     <script src="\', escape=False)\n        response.write(_file)\n        response.write(\'" type="text/javascript"></script>\', escape=False)\n        pass\n    pass\nresponse.write(\'\\n  \\n<script type="text/javascript"><!--\\nfunction popup(url) {\\n  newwindow=window.open(url,\\\'name\\\',\\\'height=400,width=600\\\');\\n  if (window.focus) newwindow.focus();\\n  return false;\\n}\\nfunction collapse(id) { jQuery(\\\'#\\\'+id).slideToggle(); }\\nfunction fade(id,value) { if(value>0) jQuery(\\\'#\\\'+id).hide().fadeIn(\\\'slow\\\'); else jQuery(\\\'#\\\'+id).show().fadeOut(\\\'slow\\\'); }\\nfunction ajax(u,s,t) {\\n    query = \\\'\\\';\\n    if (typeof s == "string") {\\n        d = jQuery(s).serialize();\\n        if(d){ query = d; }\\n    } else {\\n        pcs = [];\\n        for(i=0; i<s.length; i++) {\\n            q = jQuery("[name="+s[i]+"]").serialize();\\n            if(q){pcs.push(q);}\\n        }\\n        if (pcs.length>0){query = pcs.join("&");}\\n    }\\n    jQuery.ajax({type: "POST", url: u, data: query, success: function(msg) { if(t) { if(t==\\\':eval\\\') eval(msg); else jQuery("#" + t).html(msg); } } }); \\n}\\n\\nString.prototype.reverse = function () { return this.split(\\\'\\\').reverse().join(\\\'\\\');};\\nfunction web2py_ajax_init() {\\n  jQuery(\\\'.hidden\\\').hide();\\n  jQuery(\\\'.error\\\').hide().slideDown(\\\'slow\\\');\\n  jQuery(\\\'.flash\\\').click(function() { jQuery(this).fadeOut(\\\'slow\\\'); return false; });\\n  // jQuery(\\\'input[type=submit]\\\').click(function(){var t=jQuery(this);t.hide();t.after(\\\'<input class="submit_disabled" disabled="disabled" type="submit" name="\\\'+t.attr("name")+\\\'_dummy" value="\\\'+t.val()+\\\'">\\\')});\\n  jQuery(\\\'input.integer\\\').live(\\\'keyup\\\', function(){this.value=this.value.reverse().replace(/[^0-9\\\\-]|\\\\-(?=.)/g,\\\'\\\').reverse();});\\n  jQuery(\\\'input.double,input.decimal\\\').live(\\\'keyup\\\', function(){this.value=this.value.reverse().replace(/[^0-9\\\\-\\\\.]|[\\\\-](?=.)|[\\\\.](?=[0-9]*[\\\\.])/g,\\\'\\\').reverse();});\\n  jQuery("input[type=\\\'checkbox\\\'].delete").live(\\\'click\\\', function(){ if(this.checked) if(!confirm("\', escape=False)\nresponse.write(T(\'Sure you want to delete this object?\'))\nresponse.write(\'")) this.checked=false; });\\n  try {jQuery("input.date").live(\\\'focus\\\',function() {Calendar.setup({\\n     inputField:this, ifFormat:"\', escape=False)\nresponse.write(T(\'%Y-%m-%d\'))\nresponse.write(\'", showsTime:false\\n  }); }); } catch(e) {};\\n  try { jQuery("input.datetime").live(\\\'focus\\\', function() {Calendar.setup({\\n     inputField:this, ifFormat:"\', escape=False)\nresponse.write(T(\'%Y-%m-%d %H:%M:%S\'))\nresponse.write(\'", showsTime: true,timeFormat: "24"\\n  }); }); } catch(e) {};\\n\\n  jQuery("input.time").live(\\\'focus\\\', function() { var el = jQuery(this); \\n          if (!el.hasClass(\\\'hasTimeEntry\\\')) try { el.timeEntry(); } catch(e) {}; \\n  });\\n};\\n\\njQuery(document).ready(function() {   \\n   var flash = jQuery(\\\'.flash\\\');\\n   flash.hide();\\n   if(flash.html()) flash.slideDown();\\n   web2py_ajax_init();\\n});\\nfunction web2py_trap_form(action,target) {\\n   jQuery(\\\'#\\\'+target+\\\' form\\\').each(function(i){\\n      var form=jQuery(this);\\n      if(!form.hasClass(\\\'no_trap\\\'))\\n        form.submit(function(obj){\\n         jQuery(\\\'.flash\\\').hide().html(\\\'\\\');\\n         web2py_ajax_page(\\\'post\\\',action,form.serialize(),target);\\n         return false;\\n      });\\n   });\\n}\\nfunction web2py_ajax_page(method,action,data,target) {\\n  jQuery.ajax({\\\'type\\\':method,\\\'url\\\':action,\\\'data\\\':data,\\n    \\\'beforeSend\\\':function(xhr) {\\n      xhr.setRequestHeader(\\\'web2py-component-location\\\',document.location);\\n      xhr.setRequestHeader(\\\'web2py-component-element\\\',target);},\\n    \\\'complete\\\':function(xhr,text){\\n      var html=xhr.responseText;\\n      var content=xhr.getResponseHeader(\\\'web2py-component-content\\\'); \\n      var command=xhr.getResponseHeader(\\\'web2py-component-command\\\');\\n      var flash=xhr.getResponseHeader(\\\'web2py-component-flash\\\');\\n      var t = jQuery(\\\'#\\\'+target);\\n      if(content==\\\'prepend\\\') t.prepend(html); \\n      else if(content==\\\'append\\\') t.append(html);\\n      else if(content!=\\\'hide\\\') t.html(html);  \\n      web2py_trap_form(action,target);\\n      web2py_ajax_init();      \\n      if(command) eval(command);\\n      if(flash) jQuery(\\\'.flash\\\').html(flash).slideDown();\\n      }\\n    });\\n}\\nfunction web2py_component(action,target) {\\n  jQuery(document).ready(function(){ web2py_ajax_page(\\\'get\\\',action,null,target); });\\n}\\nfunction web2py_comet(url,onmessage,onopen,onclose) {\\n  if ("WebSocket" in window) {\\n    var ws = new WebSocket(url);\\n    ws.onopen = onopen?onopen:(function(){});\\n    ws.onmessage = onmessage;\\n    ws.onclose = onclose?onclose:(function(){});\\n    return true; // supported\\n  } else return false; // not supported\\n}\\n//--></script>\\n\', escape=False)\nresponse.write(\'\\n\\n    \', escape=False)\n#using sidebars need to know what sidebar you want to use\n#prior of using it, because of static width size of content, you can use\n#left_sidebar, right_sidebar, both or none (False left and right)\nleft_sidebar_enabled = globals().get(\'left_sidebar_enabled\',False)\nright_sidebar_enabled = globals().get(\'right_sidebar_enabled\',False)\nif left_sidebar_enabled and right_sidebar_enabled: width_content=\'63%\'\nelif left_sidebar_enabled != right_sidebar_enabled: width_content=\'740px\'\nelse: width_content=\'100%\'\nif left_sidebar_enabled: left_sidebar_style = \'style="display: block;"\'\nelse: left_sidebar_style = \'style="display: none;"\'\nif right_sidebar_enabled: right_sidebar_style = \'style="display: block;"\'\nelse: right_sidebar_style = \'style="display: none;"\'\nstyle_content = \'style="width: %s"\' % width_content\nresponse.write(\'\\n  </head>\\n  \\n  <!-- paulirish.com/2008/conditional-stylesheets-vs-css-hacks-answer-neither/ -->  \\n  <!--[if lt IE 7 ]> <body class="ie6"> <![endif]-->\\n  <!--[if IE 7 ]>    <body class="ie7"> <![endif]-->\\n  <!--[if IE 8 ]>    <body class="ie8"> <![endif]-->\\n  <!--[if IE 9 ]>    <body class="ie9"> <![endif]-->\\n  <!--[if (gt IE 9)|!(IE)]><!--> <body> <!--<![endif]-->\\n    \\n    <div class="flash">\', escape=False)\nresponse.write(response.flash or \'\')\nresponse.write(\'</div> <!-- notification div -->\\n    \\n    <div id="container">                        \\n      \\n      <div id="wrapper">        \\n    \\n    <div id="header"> <!-- header and login nav -->\\n      \', escape=False)\nresponse.write(\' <!-- this is default header -->\\n      \', escape=False)\n#try:\nresponse.write(auth.navbar(action=URL(\'default\',\'user\')))\n#except:pass\nresponse.write(\'               \\n      <h1>BivApp</h1>\\n      <div style="clear: both;"></div><!-- Clear the divs -->\\n      \', escape=False)\nresponse.write(\'                                     \\n    </div><!-- header  -->\\n    \\n    <div id="statusbar"><!-- statusbar is menu zone -->\\n      \', escape=False)\nresponse.write(\' <!-- this is default statusbar -->\\n      \', escape=False)\n#------ superfish menu ------\nresponse.write(\'\\n      \', escape=False)\nresponse.write(MENU(response.menu,_class=\'sf-menu\'))\nresponse.write(\'\\n      <script type="text/javascript">\\n        jQuery(document).ready(function(){\\n        jQuery(\\\'ul.sf-menu\\\').superfish();});\\n      </script>\\n      <div style="clear: both;"></div><!-- Clear the divs -->   \\n      \', escape=False)\nresponse.write(\'               \\n    </div><!-- statusbar -->\\n    \\n    <div id="page"> <!-- Here my central body -->     \\n\\n      \', escape=False)\nif left_sidebar_enabled:\n    response.write(\'\\n          <div id="left_sidebar" \', escape=False)\n    response.write(XML(left_sidebar_style))\n    response.write(\' >\\n            <div style="padding: 4px;">\\n          \', escape=False)\n    response.write(\'Content Left Sidebar\', escape=False)\n    response.write(\'       \\n            </div>\\n          </div><!-- left_sidebar -->\\n      \', escape=False)\n    pass\nresponse.write(\'\\n\\n      <!-- content -->\\n      <div id="content" \', escape=False)\nresponse.write(XML(style_content))\nresponse.write(\' >\\n        \', escape=False)\nresponse.write(\'\\n<h1>\', escape=False)\nresponse.write(response.subtitle)\nresponse.write(\'</h1>\\n\', escape=False)\nresponse.write(form}\n{{=table)\nresponse.write(\'\\n\', escape=False)\nresponse.write(\' \\n      </div>\\n      <!-- content -->\\n\\n      \', escape=False)\nif right_sidebar_enabled:\n    response.write(\'\\n          <div id="right_sidebar" \', escape=False)\n    response.write(XML(right_sidebar_style))\n    response.write(\' >\\n            <div style="padding: 4px;">\\n              \', escape=False)\n    response.write(\'Content Right Sidebar\', escape=False)\n    response.write(\'\\n            </div>\\n      </div><!-- right_sidebar -->\\n          \', escape=False)\n    pass\nresponse.write(\'\\n\\n\\n      <div style="clear: both;"></div><!-- Clear the divs -->\\n      \\n    </div><!-- page -->                         \\n    \\n    <div id="footer">\\n      \', escape=False)\nresponse.write(\' <!-- this is default footer -->\\n      <a href="http://www.web2py.com/" style="float: left; padding-right: 6px;">\\n        <img src="\', escape=False)\nresponse.write(URL(\'static\',\'images/poweredby.png\'))\nresponse.write(\'"/>\\n      </a>\\n      \', escape=False)\nresponse.write(T(\'Copyright\'))\nresponse.write(\' &#169; 2010               \\n      <div style="clear: both;"></div><!-- Clear the divs -->\\n      \', escape=False)\nresponse.write(\'\\n\\n    </div><!-- footer -->           \\n      </div><!-- wrapper -->\\n    </div><!-- container -->        \\n    \\n    <!--[if lt IE 7 ]>\\n    <script src="\', escape=False)\nresponse.write(URL(\'static\',\'js/dd_belatedpng.js\'))\nresponse.write(\'"></script>\\n    <script> DD_belatedPNG.fix(\\\'img, .png_bg\\\'); //fix any <img> or .png_bg background-images </script>\\n    <![endif]-->\\n    \\n    <!-- asynchronous google analytics: mathiasbynens.be/notes/async-analytics-snippet \\n     change the UA-XXXXX-X to be your site\\\'s ID -->\\n    <!--   \\n       <script>\\n         var _gaq = [[\\\'_setAccount\\\', \\\'UA-XXXXX-X\\\'], [\\\'_trackPageview\\\']];\\n         (function(d, t) {\\n         var g = d.createElement(t),\\n         s = d.getElementsByTagName(t)[0];\\n         g.async = true;\\n         g.src = \\\'//www.google-analytics.com/ga.js\\\';\\n         s.parentNode.insertBefore(g, s);\\n         })(document, \\\'script\\\');\\n       </script>\\n       -->    \\n  </body>\\n</html>\\n\', escape=False)'
p6
sS'snapshot'
p7
(dp8
S'exception'
p9
(dp10
S'__getslice__'
p11
S"<method-wrapper '__getslice__' of exceptions.SyntaxError object>"
p12
sS'text'
p13
S"'response.write(form}\\n'"
p14
sS'__str__'
p15
S"<method-wrapper '__str__' of exceptions.SyntaxError object>"
p16
sS'__reduce__'
p17
S'<built-in method __reduce__ of exceptions.SyntaxError object>'
p18
sS'__dict__'
p19
S'{}'
p20
sS'__sizeof__'
p21
S'<built-in method __sizeof__ of exceptions.SyntaxError object>'
p22
sS'__init__'
p23
S"<method-wrapper '__init__' of exceptions.SyntaxError object>"
p24
sS'__setattr__'
p25
S"<method-wrapper '__setattr__' of exceptions.SyntaxError object>"
p26
sS'__reduce_ex__'
p27
S'<built-in method __reduce_ex__ of exceptions.SyntaxError object>'
p28
sS'__new__'
p29
S'<built-in method __new__ of type object>'
p30
sS'__format__'
p31
S'<built-in method __format__ of exceptions.SyntaxError object>'
p32
sS'__class__'
p33
S"<type 'exceptions.SyntaxError'>"
p34
sS'filename'
p35
S"'/home/www-data/web2py/applications/scrum/views/sprint/editar.html'"
p36
sS'lineno'
p37
S'99'
p38
sS'msg'
p39
S"'invalid syntax'"
p40
sS'__doc__'
p41
S"'Invalid syntax.'"
p42
sS'__getitem__'
p43
S"<method-wrapper '__getitem__' of exceptions.SyntaxError object>"
p44
sS'__setstate__'
p45
S'<built-in method __setstate__ of exceptions.SyntaxError object>'
p46
sS'__getattribute__'
p47
S"<method-wrapper '__getattribute__' of exceptions.SyntaxError object>"
p48
sS'print_file_and_line'
p49
S'None'
p50
sS'args'
p51
S"('invalid syntax', ('/home/www-data/web2py/applications/scrum/views/sprint/editar.html', 99, 20, 'response.write(form}\\n'))"
p52
sS'__subclasshook__'
p53
S'<built-in method __subclasshook__ of type object>'
p54
sS'offset'
p55
S'20'
p56
sS'__unicode__'
p57
S'<built-in method __unicode__ of exceptions.SyntaxError object>'
p58
sS'__delattr__'
p59
S"<method-wrapper '__delattr__' of exceptions.SyntaxError object>"
p60
sS'__repr__'
p61
S"<method-wrapper '__repr__' of exceptions.SyntaxError object>"
p62
sS'__hash__'
p63
S"<method-wrapper '__hash__' of exceptions.SyntaxError object>"
p64
ssS'evalue'
p65
S'invalid syntax (editar.html, line 99)'
p66
sS'request'
p67
ccopy_reg
_reconstructor
p68
(cgluon.html
BEAUTIFY
p69
c__builtin__
object
p70
NtRp71
(dp72
S'attributes'
p73
(dp74
sS'components'
p75
(lp76
g68
(cgluon.html
TABLE
p77
g70
NtRp78
(dp79
g73
(dp80
S'level'
p81
I5
ssS'parent'
p82
Nsg75
(lp83
g68
(cgluon.html
TR
p84
g70
NtRp85
(dp86
g73
(dp87
sg82
g78
sg75
(lp88
g68
(cgluon.html
TD
p89
g70
NtRp90
(dp91
g73
(dp92
S'_style'
p93
S'font-weight:bold;'
p94
ssg82
g85
sg75
(lp95
S'ajax'
p96
asbag68
(g89
g70
NtRp97
(dp98
g73
(dp99
S'_valign'
p100
S'top'
p101
ssg82
g85
sg75
(lp102
S':'
asbag68
(g89
g70
NtRp103
(dp104
g73
(dp105
sg82
g85
sg75
(lp106
g68
(g69
g70
NtRp107
(dp108
g73
(dp109
g81
I5
ssg82
g103
sg75
(lp110
S'False'
p111
asbasbasbag68
(g84
g70
NtRp112
(dp113
g73
(dp114
sg82
g78
sg75
(lp115
g68
(g89
g70
NtRp116
(dp117
g73
(dp118
g93
g94
ssg82
g112
sg75
(lp119
S'application'
p120
asbag68
(g89
g70
NtRp121
(dp122
g73
(dp123
g100
g101
ssg82
g112
sg75
(lp124
S':'
asbag68
(g89
g70
NtRp125
(dp126
g73
(dp127
sg82
g112
sg75
(lp128
g68
(g69
g70
NtRp129
(dp130
g73
(dp131
g81
I5
ssg82
g125
sg75
(lp132
S'scrum'
p133
asbasbasbag68
(g84
g70
NtRp134
(dp135
g73
(dp136
sg82
g78
sg75
(lp137
g68
(g89
g70
NtRp138
(dp139
g73
(dp140
g93
g94
ssg82
g134
sg75
(lp141
g51
asbag68
(g89
g70
NtRp142
(dp143
g73
(dp144
g100
g101
ssg82
g134
sg75
(lp145
S':'
asbag68
(g89
g70
NtRp146
(dp147
g73
(dp148
sg82
g134
sg75
(lp149
g68
(g69
g70
NtRp150
(dp151
g73
(dp152
g81
I5
ssg82
g146
sg75
(lp153
g68
(g77
g70
NtRp154
(dp155
g73
(dp156
g81
I4
ssg82
Nsg75
(lp157
g68
(g84
g70
NtRp158
(dp159
g73
(dp160
sg82
g154
sg75
(lp161
g68
(g89
g70
NtRp162
(dp163
g73
(dp164
sg82
g158
sg75
(lp165
g68
(g69
g70
NtRp166
(dp167
g73
(dp168
g81
I4
ssg82
g162
sg75
(lp169
S'1'
asbasbasbasbasbasbasbag68
(g84
g70
NtRp170
(dp171
g73
(dp172
sg82
g78
sg75
(lp173
g68
(g89
g70
NtRp174
(dp175
g73
(dp176
g93
g94
ssg82
g170
sg75
(lp177
S'body'
p178
asbag68
(g89
g70
NtRp179
(dp180
g73
(dp181
g100
g101
ssg82
g170
sg75
(lp182
S':'
asbag68
(g89
g70
NtRp183
(dp184
g73
(dp185
sg82
g170
sg75
(lp186
g68
(g69
g70
NtRp187
(dp188
g73
(dp189
g81
I5
ssg82
g183
sg75
(lp190
S'<cStringIO.StringO object at 0xb9576ba0>'
p191
asbasbasbag68
(g84
g70
NtRp192
(dp193
g73
(dp194
sg82
g78
sg75
(lp195
g68
(g89
g70
NtRp196
(dp197
g73
(dp198
g93
g94
ssg82
g192
sg75
(lp199
S'client'
p200
asbag68
(g89
g70
NtRp201
(dp202
g73
(dp203
g100
g101
ssg82
g192
sg75
(lp204
S':'
asbag68
(g89
g70
NtRp205
(dp206
g73
(dp207
sg82
g192
sg75
(lp208
g68
(g69
g70
NtRp209
(dp210
g73
(dp211
g81
I5
ssg82
g205
sg75
(lp212
S'127.0.0.1'
p213
asbasbasbag68
(g84
g70
NtRp214
(dp215
g73
(dp216
sg82
g78
sg75
(lp217
g68
(g89
g70
NtRp218
(dp219
g73
(dp220
g93
g94
ssg82
g214
sg75
(lp221
S'controller'
p222
asbag68
(g89
g70
NtRp223
(dp224
g73
(dp225
g100
g101
ssg82
g214
sg75
(lp226
S':'
asbag68
(g89
g70
NtRp227
(dp228
g73
(dp229
sg82
g214
sg75
(lp230
g68
(g69
g70
NtRp231
(dp232
g73
(dp233
g81
I5
ssg82
g227
sg75
(lp234
S'sprint'
p235
asbasbasbag68
(g84
g70
NtRp236
(dp237
g73
(dp238
sg82
g78
sg75
(lp239
g68
(g89
g70
NtRp240
(dp241
g73
(dp242
g93
g94
ssg82
g236
sg75
(lp243
S'cookies'
p244
asbag68
(g89
g70
NtRp245
(dp246
g73
(dp247
g100
g101
ssg82
g236
sg75
(lp248
S':'
asbag68
(g89
g70
NtRp249
(dp250
g73
(dp251
sg82
g236
sg75
(lp252
g68
(g69
g70
NtRp253
(dp254
g73
(dp255
g81
I5
ssg82
g249
sg75
(lp256
g68
(g77
g70
NtRp257
(dp258
g73
(dp259
g81
I4
ssg82
Nsg75
(lp260
g68
(g84
g70
NtRp261
(dp262
g73
(dp263
sg82
g257
sg75
(lp264
g68
(g89
g70
NtRp265
(dp266
g73
(dp267
g93
g94
ssg82
g261
sg75
(lp268
S'session_id_admin'
p269
asbag68
(g89
g70
NtRp270
(dp271
g73
(dp272
g100
g101
ssg82
g261
sg75
(lp273
S':'
asbag68
(g89
g70
NtRp274
(dp275
g73
(dp276
sg82
g261
sg75
(lp277
g68
(g69
g70
NtRp278
(dp279
g73
(dp280
g81
I4
ssg82
g274
sg75
(lp281
g68
(g77
g70
NtRp282
(dp283
g73
(dp284
g81
I3
ssg82
Nsg75
(lp285
g68
(g84
g70
NtRp286
(dp287
g73
(dp288
sg82
g282
sg75
(lp289
g68
(g89
g70
NtRp290
(dp291
g73
(dp292
g93
g94
ssg82
g286
sg75
(lp293
S'comment'
p294
asbag68
(g89
g70
NtRp295
(dp296
g73
(dp297
g100
g101
ssg82
g286
sg75
(lp298
S':'
asbag68
(g89
g70
NtRp299
(dp300
g73
(dp301
sg82
g286
sg75
(lp302
g68
(g69
g70
NtRp303
(dp304
g73
(dp305
g81
I3
ssg82
g299
sg75
(lp306
S''
asbasbasbag68
(g84
g70
NtRp307
(dp308
g73
(dp309
sg82
g282
sg75
(lp310
g68
(g89
g70
NtRp311
(dp312
g73
(dp313
g93
g94
ssg82
g307
sg75
(lp314
S'domain'
p315
asbag68
(g89
g70
NtRp316
(dp317
g73
(dp318
g100
g101
ssg82
g307
sg75
(lp319
S':'
asbag68
(g89
g70
NtRp320
(dp321
g73
(dp322
sg82
g307
sg75
(lp323
g68
(g69
g70
NtRp324
(dp325
g73
(dp326
g81
I3
ssg82
g320
sg75
(lp327
S''
asbasbasbag68
(g84
g70
NtRp328
(dp329
g73
(dp330
sg82
g282
sg75
(lp331
g68
(g89
g70
NtRp332
(dp333
g73
(dp334
g93
g94
ssg82
g328
sg75
(lp335
S'expires'
p336
asbag68
(g89
g70
NtRp337
(dp338
g73
(dp339
g100
g101
ssg82
g328
sg75
(lp340
S':'
asbag68
(g89
g70
NtRp341
(dp342
g73
(dp343
sg82
g328
sg75
(lp344
g68
(g69
g70
NtRp345
(dp346
g73
(dp347
g81
I3
ssg82
g341
sg75
(lp348
S''
asbasbasbag68
(g84
g70
NtRp349
(dp350
g73
(dp351
sg82
g282
sg75
(lp352
g68
(g89
g70
NtRp353
(dp354
g73
(dp355
g93
g94
ssg82
g349
sg75
(lp356
S'httponly'
p357
asbag68
(g89
g70
NtRp358
(dp359
g73
(dp360
g100
g101
ssg82
g349
sg75
(lp361
S':'
asbag68
(g89
g70
NtRp362
(dp363
g73
(dp364
sg82
g349
sg75
(lp365
g68
(g69
g70
NtRp366
(dp367
g73
(dp368
g81
I3
ssg82
g362
sg75
(lp369
S''
asbasbasbag68
(g84
g70
NtRp370
(dp371
g73
(dp372
sg82
g282
sg75
(lp373
g68
(g89
g70
NtRp374
(dp375
g73
(dp376
g93
g94
ssg82
g370
sg75
(lp377
S'max-age'
p378
asbag68
(g89
g70
NtRp379
(dp380
g73
(dp381
g100
g101
ssg82
g370
sg75
(lp382
S':'
asbag68
(g89
g70
NtRp383
(dp384
g73
(dp385
sg82
g370
sg75
(lp386
g68
(g69
g70
NtRp387
(dp388
g73
(dp389
g81
I3
ssg82
g383
sg75
(lp390
S''
asbasbasbag68
(g84
g70
NtRp391
(dp392
g73
(dp393
sg82
g282
sg75
(lp394
g68
(g89
g70
NtRp395
(dp396
g73
(dp397
g93
g94
ssg82
g391
sg75
(lp398
S'path'
p399
asbag68
(g89
g70
NtRp400
(dp401
g73
(dp402
g100
g101
ssg82
g391
sg75
(lp403
S':'
asbag68
(g89
g70
NtRp404
(dp405
g73
(dp406
sg82
g391
sg75
(lp407
g68
(g69
g70
NtRp408
(dp409
g73
(dp410
g81
I3
ssg82
g404
sg75
(lp411
S''
asbasbasbag68
(g84
g70
NtRp412
(dp413
g73
(dp414
sg82
g282
sg75
(lp415
g68
(g89
g70
NtRp416
(dp417
g73
(dp418
g93
g94
ssg82
g412
sg75
(lp419
S'secure'
p420
asbag68
(g89
g70
NtRp421
(dp422
g73
(dp423
g100
g101
ssg82
g412
sg75
(lp424
S':'
asbag68
(g89
g70
NtRp425
(dp426
g73
(dp427
sg82
g412
sg75
(lp428
g68
(g69
g70
NtRp429
(dp430
g73
(dp431
g81
I3
ssg82
g425
sg75
(lp432
S''
asbasbasbag68
(g84
g70
NtRp433
(dp434
g73
(dp435
sg82
g282
sg75
(lp436
g68
(g89
g70
NtRp437
(dp438
g73
(dp439
g93
g94
ssg82
g433
sg75
(lp440
S'version'
p441
asbag68
(g89
g70
NtRp442
(dp443
g73
(dp444
g100
g101
ssg82
g433
sg75
(lp445
S':'
asbag68
(g89
g70
NtRp446
(dp447
g73
(dp448
sg82
g433
sg75
(lp449
g68
(g69
g70
NtRp450
(dp451
g73
(dp452
g81
I3
ssg82
g446
sg75
(lp453
S''
asbasbasbasbasbasbasbag68
(g84
g70
NtRp454
(dp455
g73
(dp456
sg82
g257
sg75
(lp457
g68
(g89
g70
NtRp458
(dp459
g73
(dp460
g93
g94
ssg82
g454
sg75
(lp461
S'session_id_scrum'
p462
asbag68
(g89
g70
NtRp463
(dp464
g73
(dp465
g100
g101
ssg82
g454
sg75
(lp466
S':'
asbag68
(g89
g70
NtRp467
(dp468
g73
(dp469
sg82
g454
sg75
(lp470
g68
(g69
g70
NtRp471
(dp472
g73
(dp473
g81
I4
ssg82
g467
sg75
(lp474
g68
(g77
g70
NtRp475
(dp476
g73
(dp477
g81
I3
ssg82
Nsg75
(lp478
g68
(g84
g70
NtRp479
(dp480
g73
(dp481
sg82
g475
sg75
(lp482
g68
(g89
g70
NtRp483
(dp484
g73
(dp485
g93
g94
ssg82
g479
sg75
(lp486
g294
asbag68
(g89
g70
NtRp487
(dp488
g73
(dp489
g100
g101
ssg82
g479
sg75
(lp490
S':'
asbag68
(g89
g70
NtRp491
(dp492
g73
(dp493
sg82
g479
sg75
(lp494
g68
(g69
g70
NtRp495
(dp496
g73
(dp497
g81
I3
ssg82
g491
sg75
(lp498
S''
asbasbasbag68
(g84
g70
NtRp499
(dp500
g73
(dp501
sg82
g475
sg75
(lp502
g68
(g89
g70
NtRp503
(dp504
g73
(dp505
g93
g94
ssg82
g499
sg75
(lp506
g315
asbag68
(g89
g70
NtRp507
(dp508
g73
(dp509
g100
g101
ssg82
g499
sg75
(lp510
S':'
asbag68
(g89
g70
NtRp511
(dp512
g73
(dp513
sg82
g499
sg75
(lp514
g68
(g69
g70
NtRp515
(dp516
g73
(dp517
g81
I3
ssg82
g511
sg75
(lp518
S''
asbasbasbag68
(g84
g70
NtRp519
(dp520
g73
(dp521
sg82
g475
sg75
(lp522
g68
(g89
g70
NtRp523
(dp524
g73
(dp525
g93
g94
ssg82
g519
sg75
(lp526
g336
asbag68
(g89
g70
NtRp527
(dp528
g73
(dp529
g100
g101
ssg82
g519
sg75
(lp530
S':'
asbag68
(g89
g70
NtRp531
(dp532
g73
(dp533
sg82
g519
sg75
(lp534
g68
(g69
g70
NtRp535
(dp536
g73
(dp537
g81
I3
ssg82
g531
sg75
(lp538
S''
asbasbasbag68
(g84
g70
NtRp539
(dp540
g73
(dp541
sg82
g475
sg75
(lp542
g68
(g89
g70
NtRp543
(dp544
g73
(dp545
g93
g94
ssg82
g539
sg75
(lp546
g357
asbag68
(g89
g70
NtRp547
(dp548
g73
(dp549
g100
g101
ssg82
g539
sg75
(lp550
S':'
asbag68
(g89
g70
NtRp551
(dp552
g73
(dp553
sg82
g539
sg75
(lp554
g68
(g69
g70
NtRp555
(dp556
g73
(dp557
g81
I3
ssg82
g551
sg75
(lp558
S''
asbasbasbag68
(g84
g70
NtRp559
(dp560
g73
(dp561
sg82
g475
sg75
(lp562
g68
(g89
g70
NtRp563
(dp564
g73
(dp565
g93
g94
ssg82
g559
sg75
(lp566
g378
asbag68
(g89
g70
NtRp567
(dp568
g73
(dp569
g100
g101
ssg82
g559
sg75
(lp570
S':'
asbag68
(g89
g70
NtRp571
(dp572
g73
(dp573
sg82
g559
sg75
(lp574
g68
(g69
g70
NtRp575
(dp576
g73
(dp577
g81
I3
ssg82
g571
sg75
(lp578
S''
asbasbasbag68
(g84
g70
NtRp579
(dp580
g73
(dp581
sg82
g475
sg75
(lp582
g68
(g89
g70
NtRp583
(dp584
g73
(dp585
g93
g94
ssg82
g579
sg75
(lp586
g399
asbag68
(g89
g70
NtRp587
(dp588
g73
(dp589
g100
g101
ssg82
g579
sg75
(lp590
S':'
asbag68
(g89
g70
NtRp591
(dp592
g73
(dp593
sg82
g579
sg75
(lp594
g68
(g69
g70
NtRp595
(dp596
g73
(dp597
g81
I3
ssg82
g591
sg75
(lp598
S''
asbasbasbag68
(g84
g70
NtRp599
(dp600
g73
(dp601
sg82
g475
sg75
(lp602
g68
(g89
g70
NtRp603
(dp604
g73
(dp605
g93
g94
ssg82
g599
sg75
(lp606
g420
asbag68
(g89
g70
NtRp607
(dp608
g73
(dp609
g100
g101
ssg82
g599
sg75
(lp610
S':'
asbag68
(g89
g70
NtRp611
(dp612
g73
(dp613
sg82
g599
sg75
(lp614
g68
(g69
g70
NtRp615
(dp616
g73
(dp617
g81
I3
ssg82
g611
sg75
(lp618
S''
asbasbasbag68
(g84
g70
NtRp619
(dp620
g73
(dp621
sg82
g475
sg75
(lp622
g68
(g89
g70
NtRp623
(dp624
g73
(dp625
g93
g94
ssg82
g619
sg75
(lp626
g441
asbag68
(g89
g70
NtRp627
(dp628
g73
(dp629
g100
g101
ssg82
g619
sg75
(lp630
S':'
asbag68
(g89
g70
NtRp631
(dp632
g73
(dp633
sg82
g619
sg75
(lp634
g68
(g69
g70
NtRp635
(dp636
g73
(dp637
g81
I3
ssg82
g631
sg75
(lp638
S''
asbasbasbasbasbasbasbasbasbasbasbag68
(g84
g70
NtRp639
(dp640
g73
(dp641
sg82
g78
sg75
(lp642
g68
(g89
g70
NtRp643
(dp644
g73
(dp645
g93
g94
ssg82
g639
sg75
(lp646
S'env'
p647
asbag68
(g89
g70
NtRp648
(dp649
g73
(dp650
g100
g101
ssg82
g639
sg75
(lp651
S':'
asbag68
(g89
g70
NtRp652
(dp653
g73
(dp654
sg82
g639
sg75
(lp655
g68
(g69
g70
NtRp656
(dp657
g73
(dp658
g81
I5
ssg82
g652
sg75
(lp659
g68
(g77
g70
NtRp660
(dp661
g73
(dp662
g81
I4
ssg82
Nsg75
(lp663
g68
(g84
g70
NtRp664
(dp665
g73
(dp666
sg82
g660
sg75
(lp667
g68
(g89
g70
NtRp668
(dp669
g73
(dp670
g93
g94
ssg82
g664
sg75
(lp671
S'app_folders'
p672
asbag68
(g89
g70
NtRp673
(dp674
g73
(dp675
g100
g101
ssg82
g664
sg75
(lp676
S':'
asbag68
(g89
g70
NtRp677
(dp678
g73
(dp679
sg82
g664
sg75
(lp680
g68
(g69
g70
NtRp681
(dp682
g73
(dp683
g81
I4
ssg82
g677
sg75
(lp684
S"set(['/home/www-data/web2py/applications/scrum/', '/home/www-data/web2py/applications/admin/'])"
p685
asbasbasbag68
(g84
g70
NtRp686
(dp687
g73
(dp688
sg82
g660
sg75
(lp689
g68
(g89
g70
NtRp690
(dp691
g73
(dp692
g93
g94
ssg82
g686
sg75
(lp693
S'applications_parent'
p694
asbag68
(g89
g70
NtRp695
(dp696
g73
(dp697
g100
g101
ssg82
g686
sg75
(lp698
S':'
asbag68
(g89
g70
NtRp699
(dp700
g73
(dp701
sg82
g686
sg75
(lp702
g68
(g69
g70
NtRp703
(dp704
g73
(dp705
g81
I4
ssg82
g699
sg75
(lp706
S'/home/www-data/web2py'
p707
asbasbasbag68
(g84
g70
NtRp708
(dp709
g73
(dp710
sg82
g660
sg75
(lp711
g68
(g89
g70
NtRp712
(dp713
g73
(dp714
g93
g94
ssg82
g708
sg75
(lp715
S'db_sessions'
p716
asbag68
(g89
g70
NtRp717
(dp718
g73
(dp719
g100
g101
ssg82
g708
sg75
(lp720
S':'
asbag68
(g89
g70
NtRp721
(dp722
g73
(dp723
sg82
g708
sg75
(lp724
g68
(g69
g70
NtRp725
(dp726
g73
(dp727
g81
I4
ssg82
g721
sg75
(lp728
S'set([])'
p729
asbasbasbag68
(g84
g70
NtRp730
(dp731
g73
(dp732
sg82
g660
sg75
(lp733
g68
(g89
g70
NtRp734
(dp735
g73
(dp736
g93
g94
ssg82
g730
sg75
(lp737
S'debugging'
p738
asbag68
(g89
g70
NtRp739
(dp740
g73
(dp741
g100
g101
ssg82
g730
sg75
(lp742
S':'
asbag68
(g89
g70
NtRp743
(dp744
g73
(dp745
sg82
g730
sg75
(lp746
g68
(g69
g70
NtRp747
(dp748
g73
(dp749
g81
I4
ssg82
g743
sg75
(lp750
g111
asbasbasbag68
(g84
g70
NtRp751
(dp752
g73
(dp753
sg82
g660
sg75
(lp754
g68
(g89
g70
NtRp755
(dp756
g73
(dp757
g93
g94
ssg82
g751
sg75
(lp758
S'document_root'
p759
asbag68
(g89
g70
NtRp760
(dp761
g73
(dp762
g100
g101
ssg82
g751
sg75
(lp763
S':'
asbag68
(g89
g70
NtRp764
(dp765
g73
(dp766
sg82
g751
sg75
(lp767
g68
(g69
g70
NtRp768
(dp769
g73
(dp770
g81
I4
ssg82
g764
sg75
(lp771
S'/etc/apache2/htdocs'
p772
asbasbasbag68
(g84
g70
NtRp773
(dp774
g73
(dp775
sg82
g660
sg75
(lp776
g68
(g89
g70
NtRp777
(dp778
g73
(dp779
g93
g94
ssg82
g773
sg75
(lp780
S'gateway_interface'
p781
asbag68
(g89
g70
NtRp782
(dp783
g73
(dp784
g100
g101
ssg82
g773
sg75
(lp785
S':'
asbag68
(g89
g70
NtRp786
(dp787
g73
(dp788
sg82
g773
sg75
(lp789
g68
(g69
g70
NtRp790
(dp791
g73
(dp792
g81
I4
ssg82
g786
sg75
(lp793
S'CGI/1.1'
p794
asbasbasbag68
(g84
g70
NtRp795
(dp796
g73
(dp797
sg82
g660
sg75
(lp798
g68
(g89
g70
NtRp799
(dp800
g73
(dp801
g93
g94
ssg82
g795
sg75
(lp802
S'gluon_parent'
p803
asbag68
(g89
g70
NtRp804
(dp805
g73
(dp806
g100
g101
ssg82
g795
sg75
(lp807
S':'
asbag68
(g89
g70
NtRp808
(dp809
g73
(dp810
sg82
g795
sg75
(lp811
g68
(g69
g70
NtRp812
(dp813
g73
(dp814
g81
I4
ssg82
g808
sg75
(lp815
g707
asbasbasbag68
(g84
g70
NtRp816
(dp817
g73
(dp818
sg82
g660
sg75
(lp819
g68
(g89
g70
NtRp820
(dp821
g73
(dp822
g93
g94
ssg82
g816
sg75
(lp823
S'http_accept'
p824
asbag68
(g89
g70
NtRp825
(dp826
g73
(dp827
g100
g101
ssg82
g816
sg75
(lp828
S':'
asbag68
(g89
g70
NtRp829
(dp830
g73
(dp831
sg82
g816
sg75
(lp832
g68
(g69
g70
NtRp833
(dp834
g73
(dp835
g81
I4
ssg82
g829
sg75
(lp836
S'text/html,application/xhtml+xml,application/xml;q=0.9,*/*;q=0.8'
p837
asbasbasbag68
(g84
g70
NtRp838
(dp839
g73
(dp840
sg82
g660
sg75
(lp841
g68
(g89
g70
NtRp842
(dp843
g73
(dp844
g93
g94
ssg82
g838
sg75
(lp845
S'http_accept_charset'
p846
asbag68
(g89
g70
NtRp847
(dp848
g73
(dp849
g100
g101
ssg82
g838
sg75
(lp850
S':'
asbag68
(g89
g70
NtRp851
(dp852
g73
(dp853
sg82
g838
sg75
(lp854
g68
(g69
g70
NtRp855
(dp856
g73
(dp857
g81
I4
ssg82
g851
sg75
(lp858
S'ISO-8859-1,utf-8;q=0.7,*;q=0.7'
p859
asbasbasbag68
(g84
g70
NtRp860
(dp861
g73
(dp862
sg82
g660
sg75
(lp863
g68
(g89
g70
NtRp864
(dp865
g73
(dp866
g93
g94
ssg82
g860
sg75
(lp867
S'http_accept_encoding'
p868
asbag68
(g89
g70
NtRp869
(dp870
g73
(dp871
g100
g101
ssg82
g860
sg75
(lp872
S':'
asbag68
(g89
g70
NtRp873
(dp874
g73
(dp875
sg82
g860
sg75
(lp876
g68
(g69
g70
NtRp877
(dp878
g73
(dp879
g81
I4
ssg82
g873
sg75
(lp880
S'gzip, deflate'
p881
asbasbasbag68
(g84
g70
NtRp882
(dp883
g73
(dp884
sg82
g660
sg75
(lp885
g68
(g89
g70
NtRp886
(dp887
g73
(dp888
g93
g94
ssg82
g882
sg75
(lp889
S'http_accept_language'
p890
asbag68
(g89
g70
NtRp891
(dp892
g73
(dp893
g100
g101
ssg82
g882
sg75
(lp894
S':'
asbag68
(g89
g70
NtRp895
(dp896
g73
(dp897
sg82
g882
sg75
(lp898
g68
(g69
g70
NtRp899
(dp900
g73
(dp901
g81
I4
ssg82
g895
sg75
(lp902
S'pt-br,pt;q=0.8,en-us;q=0.5,en;q=0.3'
p903
asbasbasbag68
(g84
g70
NtRp904
(dp905
g73
(dp906
sg82
g660
sg75
(lp907
g68
(g89
g70
NtRp908
(dp909
g73
(dp910
g93
g94
ssg82
g904
sg75
(lp911
S'http_connection'
p912
asbag68
(g89
g70
NtRp913
(dp914
g73
(dp915
g100
g101
ssg82
g904
sg75
(lp916
S':'
asbag68
(g89
g70
NtRp917
(dp918
g73
(dp919
sg82
g904
sg75
(lp920
g68
(g69
g70
NtRp921
(dp922
g73
(dp923
g81
I4
ssg82
g917
sg75
(lp924
S'keep-alive'
p925
asbasbasbag68
(g84
g70
NtRp926
(dp927
g73
(dp928
sg82
g660
sg75
(lp929
g68
(g89
g70
NtRp930
(dp931
g73
(dp932
g93
g94
ssg82
g926
sg75
(lp933
S'http_cookie'
p934
asbag68
(g89
g70
NtRp935
(dp936
g73
(dp937
g100
g101
ssg82
g926
sg75
(lp938
S':'
asbag68
(g89
g70
NtRp939
(dp940
g73
(dp941
sg82
g926
sg75
(lp942
g68
(g69
g70
NtRp943
(dp944
g73
(dp945
g81
I4
ssg82
g939
sg75
(lp946
S'session_id_admin=127.0.0.1-e5192660-39ef-4b4b-a6d6-48f8215e8275; session_id_scrum=127.0.0.1-8741b6aa-dd8d-45b3-88a3-6f21c23a3c79'
p947
asbasbasbag68
(g84
g70
NtRp948
(dp949
g73
(dp950
sg82
g660
sg75
(lp951
g68
(g89
g70
NtRp952
(dp953
g73
(dp954
g93
g94
ssg82
g948
sg75
(lp955
S'http_host'
p956
asbag68
(g89
g70
NtRp957
(dp958
g73
(dp959
g100
g101
ssg82
g948
sg75
(lp960
S':'
asbag68
(g89
g70
NtRp961
(dp962
g73
(dp963
sg82
g948
sg75
(lp964
g68
(g69
g70
NtRp965
(dp966
g73
(dp967
g81
I4
ssg82
g961
sg75
(lp968
S'localhost'
p969
asbasbasbag68
(g84
g70
NtRp970
(dp971
g73
(dp972
sg82
g660
sg75
(lp973
g68
(g89
g70
NtRp974
(dp975
g73
(dp976
g93
g94
ssg82
g970
sg75
(lp977
S'http_user_agent'
p978
asbag68
(g89
g70
NtRp979
(dp980
g73
(dp981
g100
g101
ssg82
g970
sg75
(lp982
S':'
asbag68
(g89
g70
NtRp983
(dp984
g73
(dp985
sg82
g970
sg75
(lp986
g68
(g69
g70
NtRp987
(dp988
g73
(dp989
g81
I4
ssg82
g983
sg75
(lp990
S'Mozilla/5.0 (X11; Linux i686; rv:6.0.2) Gecko/20100101 Firefox/6.0.2'
p991
asbasbasbag68
(g84
g70
NtRp992
(dp993
g73
(dp994
sg82
g660
sg75
(lp995
g68
(g89
g70
NtRp996
(dp997
g73
(dp998
g93
g94
ssg82
g992
sg75
(lp999
S'https'
p1000
asbag68
(g89
g70
NtRp1001
(dp1002
g73
(dp1003
g100
g101
ssg82
g992
sg75
(lp1004
S':'
asbag68
(g89
g70
NtRp1005
(dp1006
g73
(dp1007
sg82
g992
sg75
(lp1008
g68
(g69
g70
NtRp1009
(dp1010
g73
(dp1011
g81
I4
ssg82
g1005
sg75
(lp1012
S'1'
asbasbasbag68
(g84
g70
NtRp1013
(dp1014
g73
(dp1015
sg82
g660
sg75
(lp1016
g68
(g89
g70
NtRp1017
(dp1018
g73
(dp1019
g93
g94
ssg82
g1013
sg75
(lp1020
S'is_jython'
p1021
asbag68
(g89
g70
NtRp1022
(dp1023
g73
(dp1024
g100
g101
ssg82
g1013
sg75
(lp1025
S':'
asbag68
(g89
g70
NtRp1026
(dp1027
g73
(dp1028
sg82
g1013
sg75
(lp1029
g68
(g69
g70
NtRp1030
(dp1031
g73
(dp1032
g81
I4
ssg82
g1026
sg75
(lp1033
g111
asbasbasbag68
(g84
g70
NtRp1034
(dp1035
g73
(dp1036
sg82
g660
sg75
(lp1037
g68
(g89
g70
NtRp1038
(dp1039
g73
(dp1040
g93
g94
ssg82
g1034
sg75
(lp1041
S'mod_wsgi_application_group'
p1042
asbag68
(g89
g70
NtRp1043
(dp1044
g73
(dp1045
g100
g101
ssg82
g1034
sg75
(lp1046
S':'
asbag68
(g89
g70
NtRp1047
(dp1048
g73
(dp1049
sg82
g1034
sg75
(lp1050
g68
(g69
g70
NtRp1051
(dp1052
g73
(dp1053
g81
I4
ssg82
g1047
sg75
(lp1054
S'localhost.localdomain|'
p1055
asbasbasbag68
(g84
g70
NtRp1056
(dp1057
g73
(dp1058
sg82
g660
sg75
(lp1059
g68
(g89
g70
NtRp1060
(dp1061
g73
(dp1062
g93
g94
ssg82
g1056
sg75
(lp1063
S'mod_wsgi_callable_object'
p1064
asbag68
(g89
g70
NtRp1065
(dp1066
g73
(dp1067
g100
g101
ssg82
g1056
sg75
(lp1068
S':'
asbag68
(g89
g70
NtRp1069
(dp1070
g73
(dp1071
sg82
g1056
sg75
(lp1072
g68
(g69
g70
NtRp1073
(dp1074
g73
(dp1075
g81
I4
ssg82
g1069
sg75
(lp1076
S'application'
p1077
asbasbasbag68
(g84
g70
NtRp1078
(dp1079
g73
(dp1080
sg82
g660
sg75
(lp1081
g68
(g89
g70
NtRp1082
(dp1083
g73
(dp1084
g93
g94
ssg82
g1078
sg75
(lp1085
S'mod_wsgi_handler_script'
p1086
asbag68
(g89
g70
NtRp1087
(dp1088
g73
(dp1089
g100
g101
ssg82
g1078
sg75
(lp1090
S':'
asbag68
(g89
g70
NtRp1091
(dp1092
g73
(dp1093
sg82
g1078
sg75
(lp1094
g68
(g69
g70
NtRp1095
(dp1096
g73
(dp1097
g81
I4
ssg82
g1091
sg75
(lp1098
S''
asbasbasbag68
(g84
g70
NtRp1099
(dp1100
g73
(dp1101
sg82
g660
sg75
(lp1102
g68
(g89
g70
NtRp1103
(dp1104
g73
(dp1105
g93
g94
ssg82
g1099
sg75
(lp1106
S'mod_wsgi_input_chunked'
p1107
asbag68
(g89
g70
NtRp1108
(dp1109
g73
(dp1110
g100
g101
ssg82
g1099
sg75
(lp1111
S':'
asbag68
(g89
g70
NtRp1112
(dp1113
g73
(dp1114
sg82
g1099
sg75
(lp1115
g68
(g69
g70
NtRp1116
(dp1117
g73
(dp1118
g81
I4
ssg82
g1112
sg75
(lp1119
S'0'
asbasbasbag68
(g84
g70
NtRp1120
(dp1121
g73
(dp1122
sg82
g660
sg75
(lp1123
g68
(g89
g70
NtRp1124
(dp1125
g73
(dp1126
g93
g94
ssg82
g1120
sg75
(lp1127
S'mod_wsgi_listener_host'
p1128
asbag68
(g89
g70
NtRp1129
(dp1130
g73
(dp1131
g100
g101
ssg82
g1120
sg75
(lp1132
S':'
asbag68
(g89
g70
NtRp1133
(dp1134
g73
(dp1135
sg82
g1120
sg75
(lp1136
g68
(g69
g70
NtRp1137
(dp1138
g73
(dp1139
g81
I4
ssg82
g1133
sg75
(lp1140
S''
asbasbasbag68
(g84
g70
NtRp1141
(dp1142
g73
(dp1143
sg82
g660
sg75
(lp1144
g68
(g89
g70
NtRp1145
(dp1146
g73
(dp1147
g93
g94
ssg82
g1141
sg75
(lp1148
S'mod_wsgi_listener_port'
p1149
asbag68
(g89
g70
NtRp1150
(dp1151
g73
(dp1152
g100
g101
ssg82
g1141
sg75
(lp1153
S':'
asbag68
(g89
g70
NtRp1154
(dp1155
g73
(dp1156
sg82
g1141
sg75
(lp1157
g68
(g69
g70
NtRp1158
(dp1159
g73
(dp1160
g81
I4
ssg82
g1154
sg75
(lp1161
S'443'
p1162
asbasbasbag68
(g84
g70
NtRp1163
(dp1164
g73
(dp1165
sg82
g660
sg75
(lp1166
g68
(g89
g70
NtRp1167
(dp1168
g73
(dp1169
g93
g94
ssg82
g1163
sg75
(lp1170
S'mod_wsgi_process_group'
p1171
asbag68
(g89
g70
NtRp1172
(dp1173
g73
(dp1174
g100
g101
ssg82
g1163
sg75
(lp1175
S':'
asbag68
(g89
g70
NtRp1176
(dp1177
g73
(dp1178
sg82
g1163
sg75
(lp1179
g68
(g69
g70
NtRp1180
(dp1181
g73
(dp1182
g81
I4
ssg82
g1176
sg75
(lp1183
S'web2py'
p1184
asbasbasbag68
(g84
g70
NtRp1185
(dp1186
g73
(dp1187
sg82
g660
sg75
(lp1188
g68
(g89
g70
NtRp1189
(dp1190
g73
(dp1191
g93
g94
ssg82
g1185
sg75
(lp1192
S'mod_wsgi_request_handler'
p1193
asbag68
(g89
g70
NtRp1194
(dp1195
g73
(dp1196
g100
g101
ssg82
g1185
sg75
(lp1197
S':'
asbag68
(g89
g70
NtRp1198
(dp1199
g73
(dp1200
sg82
g1185
sg75
(lp1201
g68
(g69
g70
NtRp1202
(dp1203
g73
(dp1204
g81
I4
ssg82
g1198
sg75
(lp1205
S'wsgi-script'
p1206
asbasbasbag68
(g84
g70
NtRp1207
(dp1208
g73
(dp1209
sg82
g660
sg75
(lp1210
g68
(g89
g70
NtRp1211
(dp1212
g73
(dp1213
g93
g94
ssg82
g1207
sg75
(lp1214
S'mod_wsgi_script_reloading'
p1215
asbag68
(g89
g70
NtRp1216
(dp1217
g73
(dp1218
g100
g101
ssg82
g1207
sg75
(lp1219
S':'
asbag68
(g89
g70
NtRp1220
(dp1221
g73
(dp1222
sg82
g1207
sg75
(lp1223
g68
(g69
g70
NtRp1224
(dp1225
g73
(dp1226
g81
I4
ssg82
g1220
sg75
(lp1227
S'1'
asbasbasbag68
(g84
g70
NtRp1228
(dp1229
g73
(dp1230
sg82
g660
sg75
(lp1231
g68
(g89
g70
NtRp1232
(dp1233
g73
(dp1234
g93
g94
ssg82
g1228
sg75
(lp1235
S'mod_wsgi_version'
p1236
asbag68
(g89
g70
NtRp1237
(dp1238
g73
(dp1239
g100
g101
ssg82
g1228
sg75
(lp1240
S':'
asbag68
(g89
g70
NtRp1241
(dp1242
g73
(dp1243
sg82
g1228
sg75
(lp1244
g68
(g69
g70
NtRp1245
(dp1246
g73
(dp1247
g81
I4
ssg82
g1241
sg75
(lp1248
g68
(g77
g70
NtRp1249
(dp1250
g73
(dp1251
g81
I3
ssg82
Nsg75
(lp1252
g68
(g84
g70
NtRp1253
(dp1254
g73
(dp1255
sg82
g1249
sg75
(lp1256
g68
(g89
g70
NtRp1257
(dp1258
g73
(dp1259
sg82
g1253
sg75
(lp1260
g68
(g69
g70
NtRp1261
(dp1262
g73
(dp1263
g81
I3
ssg82
g1257
sg75
(lp1264
S'3'
asbasbasbag68
(g84
g70
NtRp1265
(dp1266
g73
(dp1267
sg82
g1249
sg75
(lp1268
g68
(g89
g70
NtRp1269
(dp1270
g73
(dp1271
sg82
g1265
sg75
(lp1272
g68
(g69
g70
NtRp1273
(dp1274
g73
(dp1275
g81
I3
ssg82
g1269
sg75
(lp1276
S'3'
asbasbasbasbasbasbasbag68
(g84
g70
NtRp1277
(dp1278
g73
(dp1279
sg82
g660
sg75
(lp1280
g68
(g89
g70
NtRp1281
(dp1282
g73
(dp1283
g93
g94
ssg82
g1277
sg75
(lp1284
S'path_info'
p1285
asbag68
(g89
g70
NtRp1286
(dp1287
g73
(dp1288
g100
g101
ssg82
g1277
sg75
(lp1289
S':'
asbag68
(g89
g70
NtRp1290
(dp1291
g73
(dp1292
sg82
g1277
sg75
(lp1293
g68
(g69
g70
NtRp1294
(dp1295
g73
(dp1296
g81
I4
ssg82
g1290
sg75
(lp1297
S'/scrum/sprint/editar/1'
p1298
asbasbasbag68
(g84
g70
NtRp1299
(dp1300
g73
(dp1301
sg82
g660
sg75
(lp1302
g68
(g89
g70
NtRp1303
(dp1304
g73
(dp1305
g93
g94
ssg82
g1299
sg75
(lp1306
S'path_translated'
p1307
asbag68
(g89
g70
NtRp1308
(dp1309
g73
(dp1310
g100
g101
ssg82
g1299
sg75
(lp1311
S':'
asbag68
(g89
g70
NtRp1312
(dp1313
g73
(dp1314
sg82
g1299
sg75
(lp1315
g68
(g69
g70
NtRp1316
(dp1317
g73
(dp1318
g81
I4
ssg82
g1312
sg75
(lp1319
S'/home/www-data/web2py/wsgihandler.py/scrum/sprint/editar/1'
p1320
asbasbasbag68
(g84
g70
NtRp1321
(dp1322
g73
(dp1323
sg82
g660
sg75
(lp1324
g68
(g89
g70
NtRp1325
(dp1326
g73
(dp1327
g93
g94
ssg82
g1321
sg75
(lp1328
S'query_string'
p1329
asbag68
(g89
g70
NtRp1330
(dp1331
g73
(dp1332
g100
g101
ssg82
g1321
sg75
(lp1333
S':'
asbag68
(g89
g70
NtRp1334
(dp1335
g73
(dp1336
sg82
g1321
sg75
(lp1337
g68
(g69
g70
NtRp1338
(dp1339
g73
(dp1340
g81
I4
ssg82
g1334
sg75
(lp1341
S''
asbasbasbag68
(g84
g70
NtRp1342
(dp1343
g73
(dp1344
sg82
g660
sg75
(lp1345
g68
(g89
g70
NtRp1346
(dp1347
g73
(dp1348
g93
g94
ssg82
g1342
sg75
(lp1349
S'remote_addr'
p1350
asbag68
(g89
g70
NtRp1351
(dp1352
g73
(dp1353
g100
g101
ssg82
g1342
sg75
(lp1354
S':'
asbag68
(g89
g70
NtRp1355
(dp1356
g73
(dp1357
sg82
g1342
sg75
(lp1358
g68
(g69
g70
NtRp1359
(dp1360
g73
(dp1361
g81
I4
ssg82
g1355
sg75
(lp1362
g213
asbasbasbag68
(g84
g70
NtRp1363
(dp1364
g73
(dp1365
sg82
g660
sg75
(lp1366
g68
(g89
g70
NtRp1367
(dp1368
g73
(dp1369
g93
g94
ssg82
g1363
sg75
(lp1370
S'remote_port'
p1371
asbag68
(g89
g70
NtRp1372
(dp1373
g73
(dp1374
g100
g101
ssg82
g1363
sg75
(lp1375
S':'
asbag68
(g89
g70
NtRp1376
(dp1377
g73
(dp1378
sg82
g1363
sg75
(lp1379
g68
(g69
g70
NtRp1380
(dp1381
g73
(dp1382
g81
I4
ssg82
g1376
sg75
(lp1383
S'47174'
p1384
asbasbasbag68
(g84
g70
NtRp1385
(dp1386
g73
(dp1387
sg82
g660
sg75
(lp1388
g68
(g89
g70
NtRp1389
(dp1390
g73
(dp1391
g93
g94
ssg82
g1385
sg75
(lp1392
S'request_method'
p1393
asbag68
(g89
g70
NtRp1394
(dp1395
g73
(dp1396
g100
g101
ssg82
g1385
sg75
(lp1397
S':'
asbag68
(g89
g70
NtRp1398
(dp1399
g73
(dp1400
sg82
g1385
sg75
(lp1401
g68
(g69
g70
NtRp1402
(dp1403
g73
(dp1404
g81
I4
ssg82
g1398
sg75
(lp1405
S'GET'
p1406
asbasbasbag68
(g84
g70
NtRp1407
(dp1408
g73
(dp1409
sg82
g660
sg75
(lp1410
g68
(g89
g70
NtRp1411
(dp1412
g73
(dp1413
g93
g94
ssg82
g1407
sg75
(lp1414
S'request_uri'
p1415
asbag68
(g89
g70
NtRp1416
(dp1417
g73
(dp1418
g100
g101
ssg82
g1407
sg75
(lp1419
S':'
asbag68
(g89
g70
NtRp1420
(dp1421
g73
(dp1422
sg82
g1407
sg75
(lp1423
g68
(g69
g70
NtRp1424
(dp1425
g73
(dp1426
g81
I4
ssg82
g1420
sg75
(lp1427
S'/scrum/sprint/editar/1'
p1428
asbasbasbag68
(g84
g70
NtRp1429
(dp1430
g73
(dp1431
sg82
g660
sg75
(lp1432
g68
(g89
g70
NtRp1433
(dp1434
g73
(dp1435
g93
g94
ssg82
g1429
sg75
(lp1436
S'script_filename'
p1437
asbag68
(g89
g70
NtRp1438
(dp1439
g73
(dp1440
g100
g101
ssg82
g1429
sg75
(lp1441
S':'
asbag68
(g89
g70
NtRp1442
(dp1443
g73
(dp1444
sg82
g1429
sg75
(lp1445
g68
(g69
g70
NtRp1446
(dp1447
g73
(dp1448
g81
I4
ssg82
g1442
sg75
(lp1449
S'/home/www-data/web2py/wsgihandler.py'
p1450
asbasbasbag68
(g84
g70
NtRp1451
(dp1452
g73
(dp1453
sg82
g660
sg75
(lp1454
g68
(g89
g70
NtRp1455
(dp1456
g73
(dp1457
g93
g94
ssg82
g1451
sg75
(lp1458
S'script_name'
p1459
asbag68
(g89
g70
NtRp1460
(dp1461
g73
(dp1462
g100
g101
ssg82
g1451
sg75
(lp1463
S':'
asbag68
(g89
g70
NtRp1464
(dp1465
g73
(dp1466
sg82
g1451
sg75
(lp1467
g68
(g69
g70
NtRp1468
(dp1469
g73
(dp1470
g81
I4
ssg82
g1464
sg75
(lp1471
S''
asbasbasbag68
(g84
g70
NtRp1472
(dp1473
g73
(dp1474
sg82
g660
sg75
(lp1475
g68
(g89
g70
NtRp1476
(dp1477
g73
(dp1478
g93
g94
ssg82
g1472
sg75
(lp1479
S'server_addr'
p1480
asbag68
(g89
g70
NtRp1481
(dp1482
g73
(dp1483
g100
g101
ssg82
g1472
sg75
(lp1484
S':'
asbag68
(g89
g70
NtRp1485
(dp1486
g73
(dp1487
sg82
g1472
sg75
(lp1488
g68
(g69
g70
NtRp1489
(dp1490
g73
(dp1491
g81
I4
ssg82
g1485
sg75
(lp1492
S'127.0.0.1'
p1493
asbasbasbag68
(g84
g70
NtRp1494
(dp1495
g73
(dp1496
sg82
g660
sg75
(lp1497
g68
(g89
g70
NtRp1498
(dp1499
g73
(dp1500
g93
g94
ssg82
g1494
sg75
(lp1501
S'server_admin'
p1502
asbag68
(g89
g70
NtRp1503
(dp1504
g73
(dp1505
g100
g101
ssg82
g1494
sg75
(lp1506
S':'
asbag68
(g89
g70
NtRp1507
(dp1508
g73
(dp1509
sg82
g1494
sg75
(lp1510
g68
(g69
g70
NtRp1511
(dp1512
g73
(dp1513
g81
I4
ssg82
g1507
sg75
(lp1514
S'[no address given]'
p1515
asbasbasbag68
(g84
g70
NtRp1516
(dp1517
g73
(dp1518
sg82
g660
sg75
(lp1519
g68
(g89
g70
NtRp1520
(dp1521
g73
(dp1522
g93
g94
ssg82
g1516
sg75
(lp1523
S'server_name'
p1524
asbag68
(g89
g70
NtRp1525
(dp1526
g73
(dp1527
g100
g101
ssg82
g1516
sg75
(lp1528
S':'
asbag68
(g89
g70
NtRp1529
(dp1530
g73
(dp1531
sg82
g1516
sg75
(lp1532
g68
(g69
g70
NtRp1533
(dp1534
g73
(dp1535
g81
I4
ssg82
g1529
sg75
(lp1536
S'localhost'
p1537
asbasbasbag68
(g84
g70
NtRp1538
(dp1539
g73
(dp1540
sg82
g660
sg75
(lp1541
g68
(g89
g70
NtRp1542
(dp1543
g73
(dp1544
g93
g94
ssg82
g1538
sg75
(lp1545
S'server_port'
p1546
asbag68
(g89
g70
NtRp1547
(dp1548
g73
(dp1549
g100
g101
ssg82
g1538
sg75
(lp1550
S':'
asbag68
(g89
g70
NtRp1551
(dp1552
g73
(dp1553
sg82
g1538
sg75
(lp1554
g68
(g69
g70
NtRp1555
(dp1556
g73
(dp1557
g81
I4
ssg82
g1551
sg75
(lp1558
S'443'
p1559
asbasbasbag68
(g84
g70
NtRp1560
(dp1561
g73
(dp1562
sg82
g660
sg75
(lp1563
g68
(g89
g70
NtRp1564
(dp1565
g73
(dp1566
g93
g94
ssg82
g1560
sg75
(lp1567
S'server_protocol'
p1568
asbag68
(g89
g70
NtRp1569
(dp1570
g73
(dp1571
g100
g101
ssg82
g1560
sg75
(lp1572
S':'
asbag68
(g89
g70
NtRp1573
(dp1574
g73
(dp1575
sg82
g1560
sg75
(lp1576
g68
(g69
g70
NtRp1577
(dp1578
g73
(dp1579
g81
I4
ssg82
g1573
sg75
(lp1580
S'HTTP/1.1'
p1581
asbasbasbag68
(g84
g70
NtRp1582
(dp1583
g73
(dp1584
sg82
g660
sg75
(lp1585
g68
(g89
g70
NtRp1586
(dp1587
g73
(dp1588
g93
g94
ssg82
g1582
sg75
(lp1589
S'server_signature'
p1590
asbag68
(g89
g70
NtRp1591
(dp1592
g73
(dp1593
g100
g101
ssg82
g1582
sg75
(lp1594
S':'
asbag68
(g89
g70
NtRp1595
(dp1596
g73
(dp1597
sg82
g1582
sg75
(lp1598
g68
(g69
g70
NtRp1599
(dp1600
g73
(dp1601
g81
I4
ssg82
g1595
sg75
(lp1602
S'<address>Apache/2.2.17 (Ubuntu) Server at localhost Port 443</address>\n'
p1603
asbasbasbag68
(g84
g70
NtRp1604
(dp1605
g73
(dp1606
sg82
g660
sg75
(lp1607
g68
(g89
g70
NtRp1608
(dp1609
g73
(dp1610
g93
g94
ssg82
g1604
sg75
(lp1611
S'server_software'
p1612
asbag68
(g89
g70
NtRp1613
(dp1614
g73
(dp1615
g100
g101
ssg82
g1604
sg75
(lp1616
S':'
asbag68
(g89
g70
NtRp1617
(dp1618
g73
(dp1619
sg82
g1604
sg75
(lp1620
g68
(g69
g70
NtRp1621
(dp1622
g73
(dp1623
g81
I4
ssg82
g1617
sg75
(lp1624
S'Apache/2.2.17 (Ubuntu)'
p1625
asbasbasbag68
(g84
g70
NtRp1626
(dp1627
g73
(dp1628
sg82
g660
sg75
(lp1629
g68
(g89
g70
NtRp1630
(dp1631
g73
(dp1632
g93
g94
ssg82
g1626
sg75
(lp1633
S'ssl_tls_sni'
p1634
asbag68
(g89
g70
NtRp1635
(dp1636
g73
(dp1637
g100
g101
ssg82
g1626
sg75
(lp1638
S':'
asbag68
(g89
g70
NtRp1639
(dp1640
g73
(dp1641
sg82
g1626
sg75
(lp1642
g68
(g69
g70
NtRp1643
(dp1644
g73
(dp1645
g81
I4
ssg82
g1639
sg75
(lp1646
S'localhost'
p1647
asbasbasbag68
(g84
g70
NtRp1648
(dp1649
g73
(dp1650
sg82
g660
sg75
(lp1651
g68
(g89
g70
NtRp1652
(dp1653
g73
(dp1654
g93
g94
ssg82
g1648
sg75
(lp1655
S'web2py_path'
p1656
asbag68
(g89
g70
NtRp1657
(dp1658
g73
(dp1659
g100
g101
ssg82
g1648
sg75
(lp1660
S':'
asbag68
(g89
g70
NtRp1661
(dp1662
g73
(dp1663
sg82
g1648
sg75
(lp1664
g68
(g69
g70
NtRp1665
(dp1666
g73
(dp1667
g81
I4
ssg82
g1661
sg75
(lp1668
g707
asbasbasbag68
(g84
g70
NtRp1669
(dp1670
g73
(dp1671
sg82
g660
sg75
(lp1672
g68
(g89
g70
NtRp1673
(dp1674
g73
(dp1675
g93
g94
ssg82
g1669
sg75
(lp1676
S'web2py_version'
p1677
asbag68
(g89
g70
NtRp1678
(dp1679
g73
(dp1680
g100
g101
ssg82
g1669
sg75
(lp1681
S':'
asbag68
(g89
g70
NtRp1682
(dp1683
g73
(dp1684
sg82
g1669
sg75
(lp1685
g68
(g69
g70
NtRp1686
(dp1687
g73
(dp1688
g81
I4
ssg82
g1682
sg75
(lp1689
S'Version 1.98.2 (2011-08-04 00:47:09)\n'
p1690
asbasbasbag68
(g84
g70
NtRp1691
(dp1692
g73
(dp1693
sg82
g660
sg75
(lp1694
g68
(g89
g70
NtRp1695
(dp1696
g73
(dp1697
g93
g94
ssg82
g1691
sg75
(lp1698
S'wsgi_errors'
p1699
asbag68
(g89
g70
NtRp1700
(dp1701
g73
(dp1702
g100
g101
ssg82
g1691
sg75
(lp1703
S':'
asbag68
(g89
g70
NtRp1704
(dp1705
g73
(dp1706
sg82
g1691
sg75
(lp1707
g68
(g69
g70
NtRp1708
(dp1709
g73
(dp1710
g81
I4
ssg82
g1704
sg75
(lp1711
S'<mod_wsgi.Log object at 0xb8bcb958>'
p1712
asbasbasbag68
(g84
g70
NtRp1713
(dp1714
g73
(dp1715
sg82
g660
sg75
(lp1716
g68
(g89
g70
NtRp1717
(dp1718
g73
(dp1719
g93
g94
ssg82
g1713
sg75
(lp1720
S'wsgi_file_wrapper'
p1721
asbag68
(g89
g70
NtRp1722
(dp1723
g73
(dp1724
g100
g101
ssg82
g1713
sg75
(lp1725
S':'
asbag68
(g89
g70
NtRp1726
(dp1727
g73
(dp1728
sg82
g1713
sg75
(lp1729
g68
(g69
g70
NtRp1730
(dp1731
g73
(dp1732
g81
I4
ssg82
g1726
sg75
(lp1733
S'<built-in method file_wrapper of mod_wsgi.Adapter object at 0xb8e556e0>'
p1734
asbasbasbag68
(g84
g70
NtRp1735
(dp1736
g73
(dp1737
sg82
g660
sg75
(lp1738
g68
(g89
g70
NtRp1739
(dp1740
g73
(dp1741
g93
g94
ssg82
g1735
sg75
(lp1742
S'wsgi_input'
p1743
asbag68
(g89
g70
NtRp1744
(dp1745
g73
(dp1746
g100
g101
ssg82
g1735
sg75
(lp1747
S':'
asbag68
(g89
g70
NtRp1748
(dp1749
g73
(dp1750
sg82
g1735
sg75
(lp1751
g68
(g69
g70
NtRp1752
(dp1753
g73
(dp1754
g81
I4
ssg82
g1748
sg75
(lp1755
S'<mod_wsgi.Input object at 0xb91f9930>'
p1756
asbasbasbag68
(g84
g70
NtRp1757
(dp1758
g73
(dp1759
sg82
g660
sg75
(lp1760
g68
(g89
g70
NtRp1761
(dp1762
g73
(dp1763
g93
g94
ssg82
g1757
sg75
(lp1764
S'wsgi_multiprocess'
p1765
asbag68
(g89
g70
NtRp1766
(dp1767
g73
(dp1768
g100
g101
ssg82
g1757
sg75
(lp1769
S':'
asbag68
(g89
g70
NtRp1770
(dp1771
g73
(dp1772
sg82
g1757
sg75
(lp1773
g68
(g69
g70
NtRp1774
(dp1775
g73
(dp1776
g81
I4
ssg82
g1770
sg75
(lp1777
g111
asbasbasbag68
(g84
g70
NtRp1778
(dp1779
g73
(dp1780
sg82
g660
sg75
(lp1781
g68
(g89
g70
NtRp1782
(dp1783
g73
(dp1784
g93
g94
ssg82
g1778
sg75
(lp1785
S'wsgi_multithread'
p1786
asbag68
(g89
g70
NtRp1787
(dp1788
g73
(dp1789
g100
g101
ssg82
g1778
sg75
(lp1790
S':'
asbag68
(g89
g70
NtRp1791
(dp1792
g73
(dp1793
sg82
g1778
sg75
(lp1794
g68
(g69
g70
NtRp1795
(dp1796
g73
(dp1797
g81
I4
ssg82
g1791
sg75
(lp1798
S'True'
p1799
asbasbasbag68
(g84
g70
NtRp1800
(dp1801
g73
(dp1802
sg82
g660
sg75
(lp1803
g68
(g89
g70
NtRp1804
(dp1805
g73
(dp1806
g93
g94
ssg82
g1800
sg75
(lp1807
S'wsgi_run_once'
p1808
asbag68
(g89
g70
NtRp1809
(dp1810
g73
(dp1811
g100
g101
ssg82
g1800
sg75
(lp1812
S':'
asbag68
(g89
g70
NtRp1813
(dp1814
g73
(dp1815
sg82
g1800
sg75
(lp1816
g68
(g69
g70
NtRp1817
(dp1818
g73
(dp1819
g81
I4
ssg82
g1813
sg75
(lp1820
g111
asbasbasbag68
(g84
g70
NtRp1821
(dp1822
g73
(dp1823
sg82
g660
sg75
(lp1824
g68
(g89
g70
NtRp1825
(dp1826
g73
(dp1827
g93
g94
ssg82
g1821
sg75
(lp1828
S'wsgi_url_scheme'
p1829
asbag68
(g89
g70
NtRp1830
(dp1831
g73
(dp1832
g100
g101
ssg82
g1821
sg75
(lp1833
S':'
asbag68
(g89
g70
NtRp1834
(dp1835
g73
(dp1836
sg82
g1821
sg75
(lp1837
g68
(g69
g70
NtRp1838
(dp1839
g73
(dp1840
g81
I4
ssg82
g1834
sg75
(lp1841
S'https'
p1842
asbasbasbag68
(g84
g70
NtRp1843
(dp1844
g73
(dp1845
sg82
g660
sg75
(lp1846
g68
(g89
g70
NtRp1847
(dp1848
g73
(dp1849
g93
g94
ssg82
g1843
sg75
(lp1850
S'wsgi_version'
p1851
asbag68
(g89
g70
NtRp1852
(dp1853
g73
(dp1854
g100
g101
ssg82
g1843
sg75
(lp1855
S':'
asbag68
(g89
g70
NtRp1856
(dp1857
g73
(dp1858
sg82
g1843
sg75
(lp1859
g68
(g69
g70
NtRp1860
(dp1861
g73
(dp1862
g81
I4
ssg82
g1856
sg75
(lp1863
g68
(g77
g70
NtRp1864
(dp1865
g73
(dp1866
g81
I3
ssg82
Nsg75
(lp1867
g68
(g84
g70
NtRp1868
(dp1869
g73
(dp1870
sg82
g1864
sg75
(lp1871
g68
(g89
g70
NtRp1872
(dp1873
g73
(dp1874
sg82
g1868
sg75
(lp1875
g68
(g69
g70
NtRp1876
(dp1877
g73
(dp1878
g81
I3
ssg82
g1872
sg75
(lp1879
S'1'
asbasbasbag68
(g84
g70
NtRp1880
(dp1881
g73
(dp1882
sg82
g1864
sg75
(lp1883
g68
(g89
g70
NtRp1884
(dp1885
g73
(dp1886
sg82
g1880
sg75
(lp1887
g68
(g69
g70
NtRp1888
(dp1889
g73
(dp1890
g81
I3
ssg82
g1884
sg75
(lp1891
S'1'
asbasbasbasbasbasbasbasbasbasbasbag68
(g84
g70
NtRp1892
(dp1893
g73
(dp1894
sg82
g78
sg75
(lp1895
g68
(g89
g70
NtRp1896
(dp1897
g73
(dp1898
g93
g94
ssg82
g1892
sg75
(lp1899
S'extension'
p1900
asbag68
(g89
g70
NtRp1901
(dp1902
g73
(dp1903
g100
g101
ssg82
g1892
sg75
(lp1904
S':'
asbag68
(g89
g70
NtRp1905
(dp1906
g73
(dp1907
sg82
g1892
sg75
(lp1908
g68
(g69
g70
NtRp1909
(dp1910
g73
(dp1911
g81
I5
ssg82
g1905
sg75
(lp1912
S'html'
p1913
asbasbasbag68
(g84
g70
NtRp1914
(dp1915
g73
(dp1916
sg82
g78
sg75
(lp1917
g68
(g89
g70
NtRp1918
(dp1919
g73
(dp1920
g93
g94
ssg82
g1914
sg75
(lp1921
S'folder'
p1922
asbag68
(g89
g70
NtRp1923
(dp1924
g73
(dp1925
g100
g101
ssg82
g1914
sg75
(lp1926
S':'
asbag68
(g89
g70
NtRp1927
(dp1928
g73
(dp1929
sg82
g1914
sg75
(lp1930
g68
(g69
g70
NtRp1931
(dp1932
g73
(dp1933
g81
I5
ssg82
g1927
sg75
(lp1934
S'/home/www-data/web2py/applications/scrum/'
p1935
asbasbasbag68
(g84
g70
NtRp1936
(dp1937
g73
(dp1938
sg82
g78
sg75
(lp1939
g68
(g89
g70
NtRp1940
(dp1941
g73
(dp1942
g93
g94
ssg82
g1936
sg75
(lp1943
S'function'
p1944
asbag68
(g89
g70
NtRp1945
(dp1946
g73
(dp1947
g100
g101
ssg82
g1936
sg75
(lp1948
S':'
asbag68
(g89
g70
NtRp1949
(dp1950
g73
(dp1951
sg82
g1936
sg75
(lp1952
g68
(g69
g70
NtRp1953
(dp1954
g73
(dp1955
g81
I5
ssg82
g1949
sg75
(lp1956
S'editar'
p1957
asbasbasbag68
(g84
g70
NtRp1958
(dp1959
g73
(dp1960
sg82
g78
sg75
(lp1961
g68
(g89
g70
NtRp1962
(dp1963
g73
(dp1964
g93
g94
ssg82
g1958
sg75
(lp1965
S'get_vars'
p1966
asbag68
(g89
g70
NtRp1967
(dp1968
g73
(dp1969
g100
g101
ssg82
g1958
sg75
(lp1970
S':'
asbag68
(g89
g70
NtRp1971
(dp1972
g73
(dp1973
sg82
g1958
sg75
(lp1974
g68
(g69
g70
NtRp1975
(dp1976
g73
(dp1977
g81
I5
ssg82
g1971
sg75
(lp1978
g68
(g77
g70
NtRp1979
(dp1980
g73
(dp1981
g81
I4
ssg82
Nsg75
(lp1982
sbasbasbasbag68
(g84
g70
NtRp1983
(dp1984
g73
(dp1985
sg82
g78
sg75
(lp1986
g68
(g89
g70
NtRp1987
(dp1988
g73
(dp1989
g93
g94
ssg82
g1983
sg75
(lp1990
S'is_https'
p1991
asbag68
(g89
g70
NtRp1992
(dp1993
g73
(dp1994
g100
g101
ssg82
g1983
sg75
(lp1995
S':'
asbag68
(g89
g70
NtRp1996
(dp1997
g73
(dp1998
sg82
g1983
sg75
(lp1999
g68
(g69
g70
NtRp2000
(dp2001
g73
(dp2002
g81
I5
ssg82
g1996
sg75
(lp2003
g1799
asbasbasbag68
(g84
g70
NtRp2004
(dp2005
g73
(dp2006
sg82
g78
sg75
(lp2007
g68
(g89
g70
NtRp2008
(dp2009
g73
(dp2010
g93
g94
ssg82
g2004
sg75
(lp2011
S'is_local'
p2012
asbag68
(g89
g70
NtRp2013
(dp2014
g73
(dp2015
g100
g101
ssg82
g2004
sg75
(lp2016
S':'
asbag68
(g89
g70
NtRp2017
(dp2018
g73
(dp2019
sg82
g2004
sg75
(lp2020
g68
(g69
g70
NtRp2021
(dp2022
g73
(dp2023
g81
I5
ssg82
g2017
sg75
(lp2024
g1799
asbasbasbag68
(g84
g70
NtRp2025
(dp2026
g73
(dp2027
sg82
g78
sg75
(lp2028
g68
(g89
g70
NtRp2029
(dp2030
g73
(dp2031
g93
g94
ssg82
g2025
sg75
(lp2032
S'is_restful'
p2033
asbag68
(g89
g70
NtRp2034
(dp2035
g73
(dp2036
g100
g101
ssg82
g2025
sg75
(lp2037
S':'
asbag68
(g89
g70
NtRp2038
(dp2039
g73
(dp2040
sg82
g2025
sg75
(lp2041
g68
(g69
g70
NtRp2042
(dp2043
g73
(dp2044
g81
I5
ssg82
g2038
sg75
(lp2045
g111
asbasbasbag68
(g84
g70
NtRp2046
(dp2047
g73
(dp2048
sg82
g78
sg75
(lp2049
g68
(g89
g70
NtRp2050
(dp2051
g73
(dp2052
g93
g94
ssg82
g2046
sg75
(lp2053
S'now'
p2054
asbag68
(g89
g70
NtRp2055
(dp2056
g73
(dp2057
g100
g101
ssg82
g2046
sg75
(lp2058
S':'
asbag68
(g89
g70
NtRp2059
(dp2060
g73
(dp2061
sg82
g2046
sg75
(lp2062
g68
(g69
g70
NtRp2063
(dp2064
g73
(dp2065
g81
I5
ssg82
g2059
sg75
(lp2066
S'datetime.datetime(2011, 9, 12, 16, 12, 10, 305589)'
p2067
asbasbasbag68
(g84
g70
NtRp2068
(dp2069
g73
(dp2070
sg82
g78
sg75
(lp2071
g68
(g89
g70
NtRp2072
(dp2073
g73
(dp2074
g93
g94
ssg82
g2068
sg75
(lp2075
S'post_vars'
p2076
asbag68
(g89
g70
NtRp2077
(dp2078
g73
(dp2079
g100
g101
ssg82
g2068
sg75
(lp2080
S':'
asbag68
(g89
g70
NtRp2081
(dp2082
g73
(dp2083
sg82
g2068
sg75
(lp2084
g68
(g69
g70
NtRp2085
(dp2086
g73
(dp2087
g81
I5
ssg82
g2081
sg75
(lp2088
g68
(g77
g70
NtRp2089
(dp2090
g73
(dp2091
g81
I4
ssg82
Nsg75
(lp2092
sbasbasbasbag68
(g84
g70
NtRp2093
(dp2094
g73
(dp2095
sg82
g78
sg75
(lp2096
g68
(g89
g70
NtRp2097
(dp2098
g73
(dp2099
g93
g94
ssg82
g2093
sg75
(lp2100
S'raw_args'
p2101
asbag68
(g89
g70
NtRp2102
(dp2103
g73
(dp2104
g100
g101
ssg82
g2093
sg75
(lp2105
S':'
asbag68
(g89
g70
NtRp2106
(dp2107
g73
(dp2108
sg82
g2093
sg75
(lp2109
g68
(g69
g70
NtRp2110
(dp2111
g73
(dp2112
g81
I5
ssg82
g2106
sg75
(lp2113
S'1'
asbasbasbag68
(g84
g70
NtRp2114
(dp2115
g73
(dp2116
sg82
g78
sg75
(lp2117
g68
(g89
g70
NtRp2118
(dp2119
g73
(dp2120
g93
g94
ssg82
g2114
sg75
(lp2121
S'url'
p2122
asbag68
(g89
g70
NtRp2123
(dp2124
g73
(dp2125
g100
g101
ssg82
g2114
sg75
(lp2126
S':'
asbag68
(g89
g70
NtRp2127
(dp2128
g73
(dp2129
sg82
g2114
sg75
(lp2130
g68
(g69
g70
NtRp2131
(dp2132
g73
(dp2133
g81
I5
ssg82
g2127
sg75
(lp2134
S'/scrum/sprint/editar/1'
p2135
asbasbasbag68
(g84
g70
NtRp2136
(dp2137
g73
(dp2138
sg82
g78
sg75
(lp2139
g68
(g89
g70
NtRp2140
(dp2141
g73
(dp2142
g93
g94
ssg82
g2136
sg75
(lp2143
S'uuid'
p2144
asbag68
(g89
g70
NtRp2145
(dp2146
g73
(dp2147
g100
g101
ssg82
g2136
sg75
(lp2148
S':'
asbag68
(g89
g70
NtRp2149
(dp2150
g73
(dp2151
sg82
g2136
sg75
(lp2152
g68
(g69
g70
NtRp2153
(dp2154
g73
(dp2155
g81
I5
ssg82
g2149
sg75
(lp2156
S'scrum/127.0.0.1.2011-09-12.16-12-10.bc6b9272-6c17-48e7-98a2-64d861a5b4c3'
p2157
asbasbasbag68
(g84
g70
NtRp2158
(dp2159
g73
(dp2160
sg82
g78
sg75
(lp2161
g68
(g89
g70
NtRp2162
(dp2163
g73
(dp2164
g93
g94
ssg82
g2158
sg75
(lp2165
S'vars'
p2166
asbag68
(g89
g70
NtRp2167
(dp2168
g73
(dp2169
g100
g101
ssg82
g2158
sg75
(lp2170
S':'
asbag68
(g89
g70
NtRp2171
(dp2172
g73
(dp2173
sg82
g2158
sg75
(lp2174
g68
(g69
g70
NtRp2175
(dp2176
g73
(dp2177
g81
I5
ssg82
g2171
sg75
(lp2178
g68
(g77
g70
NtRp2179
(dp2180
g73
(dp2181
g81
I4
ssg82
Nsg75
(lp2182
sbasbasbasbag68
(g84
g70
NtRp2183
(dp2184
g73
(dp2185
sg82
g78
sg75
(lp2186
g68
(g89
g70
NtRp2187
(dp2188
g73
(dp2189
g93
g94
ssg82
g2183
sg75
(lp2190
S'wsgi'
p2191
asbag68
(g89
g70
NtRp2192
(dp2193
g73
(dp2194
g100
g101
ssg82
g2183
sg75
(lp2195
S':'
asbag68
(g89
g70
NtRp2196
(dp2197
g73
(dp2198
sg82
g2183
sg75
(lp2199
g68
(g69
g70
NtRp2200
(dp2201
g73
(dp2202
g81
I5
ssg82
g2196
sg75
(lp2203
g68
(g77
g70
NtRp2204
(dp2205
g73
(dp2206
g81
I4
ssg82
Nsg75
(lp2207
g68
(g84
g70
NtRp2208
(dp2209
g73
(dp2210
sg82
g2204
sg75
(lp2211
g68
(g89
g70
NtRp2212
(dp2213
g73
(dp2214
g93
g94
ssg82
g2208
sg75
(lp2215
S'environ'
p2216
asbag68
(g89
g70
NtRp2217
(dp2218
g73
(dp2219
g100
g101
ssg82
g2208
sg75
(lp2220
S':'
asbag68
(g89
g70
NtRp2221
(dp2222
g73
(dp2223
sg82
g2208
sg75
(lp2224
g68
(g69
g70
NtRp2225
(dp2226
g73
(dp2227
g81
I4
ssg82
g2221
sg75
(lp2228
g68
(g77
g70
NtRp2229
(dp2230
g73
(dp2231
g81
I3
ssg82
Nsg75
(lp2232
g68
(g84
g70
NtRp2233
(dp2234
g73
(dp2235
sg82
g2229
sg75
(lp2236
g68
(g89
g70
NtRp2237
(dp2238
g73
(dp2239
g93
g94
ssg82
g2233
sg75
(lp2240
S'DOCUMENT_ROOT'
p2241
asbag68
(g89
g70
NtRp2242
(dp2243
g73
(dp2244
g100
g101
ssg82
g2233
sg75
(lp2245
S':'
asbag68
(g89
g70
NtRp2246
(dp2247
g73
(dp2248
sg82
g2233
sg75
(lp2249
g68
(g69
g70
NtRp2250
(dp2251
g73
(dp2252
g81
I3
ssg82
g2246
sg75
(lp2253
g772
asbasbasbag68
(g84
g70
NtRp2254
(dp2255
g73
(dp2256
sg82
g2229
sg75
(lp2257
g68
(g89
g70
NtRp2258
(dp2259
g73
(dp2260
g93
g94
ssg82
g2254
sg75
(lp2261
S'GATEWAY_INTERFACE'
p2262
asbag68
(g89
g70
NtRp2263
(dp2264
g73
(dp2265
g100
g101
ssg82
g2254
sg75
(lp2266
S':'
asbag68
(g89
g70
NtRp2267
(dp2268
g73
(dp2269
sg82
g2254
sg75
(lp2270
g68
(g69
g70
NtRp2271
(dp2272
g73
(dp2273
g81
I3
ssg82
g2267
sg75
(lp2274
g794
asbasbasbag68
(g84
g70
NtRp2275
(dp2276
g73
(dp2277
sg82
g2229
sg75
(lp2278
g68
(g89
g70
NtRp2279
(dp2280
g73
(dp2281
g93
g94
ssg82
g2275
sg75
(lp2282
S'HTTPS'
p2283
asbag68
(g89
g70
NtRp2284
(dp2285
g73
(dp2286
g100
g101
ssg82
g2275
sg75
(lp2287
S':'
asbag68
(g89
g70
NtRp2288
(dp2289
g73
(dp2290
sg82
g2275
sg75
(lp2291
g68
(g69
g70
NtRp2292
(dp2293
g73
(dp2294
g81
I3
ssg82
g2288
sg75
(lp2295
S'1'
asbasbasbag68
(g84
g70
NtRp2296
(dp2297
g73
(dp2298
sg82
g2229
sg75
(lp2299
g68
(g89
g70
NtRp2300
(dp2301
g73
(dp2302
g93
g94
ssg82
g2296
sg75
(lp2303
S'HTTP_ACCEPT'
p2304
asbag68
(g89
g70
NtRp2305
(dp2306
g73
(dp2307
g100
g101
ssg82
g2296
sg75
(lp2308
S':'
asbag68
(g89
g70
NtRp2309
(dp2310
g73
(dp2311
sg82
g2296
sg75
(lp2312
g68
(g69
g70
NtRp2313
(dp2314
g73
(dp2315
g81
I3
ssg82
g2309
sg75
(lp2316
g837
asbasbasbag68
(g84
g70
NtRp2317
(dp2318
g73
(dp2319
sg82
g2229
sg75
(lp2320
g68
(g89
g70
NtRp2321
(dp2322
g73
(dp2323
g93
g94
ssg82
g2317
sg75
(lp2324
S'HTTP_ACCEPT_CHARSET'
p2325
asbag68
(g89
g70
NtRp2326
(dp2327
g73
(dp2328
g100
g101
ssg82
g2317
sg75
(lp2329
S':'
asbag68
(g89
g70
NtRp2330
(dp2331
g73
(dp2332
sg82
g2317
sg75
(lp2333
g68
(g69
g70
NtRp2334
(dp2335
g73
(dp2336
g81
I3
ssg82
g2330
sg75
(lp2337
g859
asbasbasbag68
(g84
g70
NtRp2338
(dp2339
g73
(dp2340
sg82
g2229
sg75
(lp2341
g68
(g89
g70
NtRp2342
(dp2343
g73
(dp2344
g93
g94
ssg82
g2338
sg75
(lp2345
S'HTTP_ACCEPT_ENCODING'
p2346
asbag68
(g89
g70
NtRp2347
(dp2348
g73
(dp2349
g100
g101
ssg82
g2338
sg75
(lp2350
S':'
asbag68
(g89
g70
NtRp2351
(dp2352
g73
(dp2353
sg82
g2338
sg75
(lp2354
g68
(g69
g70
NtRp2355
(dp2356
g73
(dp2357
g81
I3
ssg82
g2351
sg75
(lp2358
g881
asbasbasbag68
(g84
g70
NtRp2359
(dp2360
g73
(dp2361
sg82
g2229
sg75
(lp2362
g68
(g89
g70
NtRp2363
(dp2364
g73
(dp2365
g93
g94
ssg82
g2359
sg75
(lp2366
S'HTTP_ACCEPT_LANGUAGE'
p2367
asbag68
(g89
g70
NtRp2368
(dp2369
g73
(dp2370
g100
g101
ssg82
g2359
sg75
(lp2371
S':'
asbag68
(g89
g70
NtRp2372
(dp2373
g73
(dp2374
sg82
g2359
sg75
(lp2375
g68
(g69
g70
NtRp2376
(dp2377
g73
(dp2378
g81
I3
ssg82
g2372
sg75
(lp2379
g903
asbasbasbag68
(g84
g70
NtRp2380
(dp2381
g73
(dp2382
sg82
g2229
sg75
(lp2383
g68
(g89
g70
NtRp2384
(dp2385
g73
(dp2386
g93
g94
ssg82
g2380
sg75
(lp2387
S'HTTP_CONNECTION'
p2388
asbag68
(g89
g70
NtRp2389
(dp2390
g73
(dp2391
g100
g101
ssg82
g2380
sg75
(lp2392
S':'
asbag68
(g89
g70
NtRp2393
(dp2394
g73
(dp2395
sg82
g2380
sg75
(lp2396
g68
(g69
g70
NtRp2397
(dp2398
g73
(dp2399
g81
I3
ssg82
g2393
sg75
(lp2400
g925
asbasbasbag68
(g84
g70
NtRp2401
(dp2402
g73
(dp2403
sg82
g2229
sg75
(lp2404
g68
(g89
g70
NtRp2405
(dp2406
g73
(dp2407
g93
g94
ssg82
g2401
sg75
(lp2408
S'HTTP_COOKIE'
p2409
asbag68
(g89
g70
NtRp2410
(dp2411
g73
(dp2412
g100
g101
ssg82
g2401
sg75
(lp2413
S':'
asbag68
(g89
g70
NtRp2414
(dp2415
g73
(dp2416
sg82
g2401
sg75
(lp2417
g68
(g69
g70
NtRp2418
(dp2419
g73
(dp2420
g81
I3
ssg82
g2414
sg75
(lp2421
g947
asbasbasbag68
(g84
g70
NtRp2422
(dp2423
g73
(dp2424
sg82
g2229
sg75
(lp2425
g68
(g89
g70
NtRp2426
(dp2427
g73
(dp2428
g93
g94
ssg82
g2422
sg75
(lp2429
S'HTTP_HOST'
p2430
asbag68
(g89
g70
NtRp2431
(dp2432
g73
(dp2433
g100
g101
ssg82
g2422
sg75
(lp2434
S':'
asbag68
(g89
g70
NtRp2435
(dp2436
g73
(dp2437
sg82
g2422
sg75
(lp2438
g68
(g69
g70
NtRp2439
(dp2440
g73
(dp2441
g81
I3
ssg82
g2435
sg75
(lp2442
g969
asbasbasbag68
(g84
g70
NtRp2443
(dp2444
g73
(dp2445
sg82
g2229
sg75
(lp2446
g68
(g89
g70
NtRp2447
(dp2448
g73
(dp2449
g93
g94
ssg82
g2443
sg75
(lp2450
S'HTTP_USER_AGENT'
p2451
asbag68
(g89
g70
NtRp2452
(dp2453
g73
(dp2454
g100
g101
ssg82
g2443
sg75
(lp2455
S':'
asbag68
(g89
g70
NtRp2456
(dp2457
g73
(dp2458
sg82
g2443
sg75
(lp2459
g68
(g69
g70
NtRp2460
(dp2461
g73
(dp2462
g81
I3
ssg82
g2456
sg75
(lp2463
g991
asbasbasbag68
(g84
g70
NtRp2464
(dp2465
g73
(dp2466
sg82
g2229
sg75
(lp2467
g68
(g89
g70
NtRp2468
(dp2469
g73
(dp2470
g93
g94
ssg82
g2464
sg75
(lp2471
S'PATH_INFO'
p2472
asbag68
(g89
g70
NtRp2473
(dp2474
g73
(dp2475
g100
g101
ssg82
g2464
sg75
(lp2476
S':'
asbag68
(g89
g70
NtRp2477
(dp2478
g73
(dp2479
sg82
g2464
sg75
(lp2480
g68
(g69
g70
NtRp2481
(dp2482
g73
(dp2483
g81
I3
ssg82
g2477
sg75
(lp2484
g1298
asbasbasbag68
(g84
g70
NtRp2485
(dp2486
g73
(dp2487
sg82
g2229
sg75
(lp2488
g68
(g89
g70
NtRp2489
(dp2490
g73
(dp2491
g93
g94
ssg82
g2485
sg75
(lp2492
S'PATH_TRANSLATED'
p2493
asbag68
(g89
g70
NtRp2494
(dp2495
g73
(dp2496
g100
g101
ssg82
g2485
sg75
(lp2497
S':'
asbag68
(g89
g70
NtRp2498
(dp2499
g73
(dp2500
sg82
g2485
sg75
(lp2501
g68
(g69
g70
NtRp2502
(dp2503
g73
(dp2504
g81
I3
ssg82
g2498
sg75
(lp2505
g1320
asbasbasbag68
(g84
g70
NtRp2506
(dp2507
g73
(dp2508
sg82
g2229
sg75
(lp2509
g68
(g89
g70
NtRp2510
(dp2511
g73
(dp2512
g93
g94
ssg82
g2506
sg75
(lp2513
S'QUERY_STRING'
p2514
asbag68
(g89
g70
NtRp2515
(dp2516
g73
(dp2517
g100
g101
ssg82
g2506
sg75
(lp2518
S':'
asbag68
(g89
g70
NtRp2519
(dp2520
g73
(dp2521
sg82
g2506
sg75
(lp2522
g68
(g69
g70
NtRp2523
(dp2524
g73
(dp2525
g81
I3
ssg82
g2519
sg75
(lp2526
S''
asbasbasbag68
(g84
g70
NtRp2527
(dp2528
g73
(dp2529
sg82
g2229
sg75
(lp2530
g68
(g89
g70
NtRp2531
(dp2532
g73
(dp2533
g93
g94
ssg82
g2527
sg75
(lp2534
S'REMOTE_ADDR'
p2535
asbag68
(g89
g70
NtRp2536
(dp2537
g73
(dp2538
g100
g101
ssg82
g2527
sg75
(lp2539
S':'
asbag68
(g89
g70
NtRp2540
(dp2541
g73
(dp2542
sg82
g2527
sg75
(lp2543
g68
(g69
g70
NtRp2544
(dp2545
g73
(dp2546
g81
I3
ssg82
g2540
sg75
(lp2547
g213
asbasbasbag68
(g84
g70
NtRp2548
(dp2549
g73
(dp2550
sg82
g2229
sg75
(lp2551
g68
(g89
g70
NtRp2552
(dp2553
g73
(dp2554
g93
g94
ssg82
g2548
sg75
(lp2555
S'REMOTE_PORT'
p2556
asbag68
(g89
g70
NtRp2557
(dp2558
g73
(dp2559
g100
g101
ssg82
g2548
sg75
(lp2560
S':'
asbag68
(g89
g70
NtRp2561
(dp2562
g73
(dp2563
sg82
g2548
sg75
(lp2564
g68
(g69
g70
NtRp2565
(dp2566
g73
(dp2567
g81
I3
ssg82
g2561
sg75
(lp2568
g1384
asbasbasbag68
(g84
g70
NtRp2569
(dp2570
g73
(dp2571
sg82
g2229
sg75
(lp2572
g68
(g89
g70
NtRp2573
(dp2574
g73
(dp2575
g93
g94
ssg82
g2569
sg75
(lp2576
S'REQUEST_METHOD'
p2577
asbag68
(g89
g70
NtRp2578
(dp2579
g73
(dp2580
g100
g101
ssg82
g2569
sg75
(lp2581
S':'
asbag68
(g89
g70
NtRp2582
(dp2583
g73
(dp2584
sg82
g2569
sg75
(lp2585
g68
(g69
g70
NtRp2586
(dp2587
g73
(dp2588
g81
I3
ssg82
g2582
sg75
(lp2589
g1406
asbasbasbag68
(g84
g70
NtRp2590
(dp2591
g73
(dp2592
sg82
g2229
sg75
(lp2593
g68
(g89
g70
NtRp2594
(dp2595
g73
(dp2596
g93
g94
ssg82
g2590
sg75
(lp2597
S'REQUEST_URI'
p2598
asbag68
(g89
g70
NtRp2599
(dp2600
g73
(dp2601
g100
g101
ssg82
g2590
sg75
(lp2602
S':'
asbag68
(g89
g70
NtRp2603
(dp2604
g73
(dp2605
sg82
g2590
sg75
(lp2606
g68
(g69
g70
NtRp2607
(dp2608
g73
(dp2609
g81
I3
ssg82
g2603
sg75
(lp2610
g1428
asbasbasbag68
(g84
g70
NtRp2611
(dp2612
g73
(dp2613
sg82
g2229
sg75
(lp2614
g68
(g89
g70
NtRp2615
(dp2616
g73
(dp2617
g93
g94
ssg82
g2611
sg75
(lp2618
S'SCRIPT_FILENAME'
p2619
asbag68
(g89
g70
NtRp2620
(dp2621
g73
(dp2622
g100
g101
ssg82
g2611
sg75
(lp2623
S':'
asbag68
(g89
g70
NtRp2624
(dp2625
g73
(dp2626
sg82
g2611
sg75
(lp2627
g68
(g69
g70
NtRp2628
(dp2629
g73
(dp2630
g81
I3
ssg82
g2624
sg75
(lp2631
g1450
asbasbasbag68
(g84
g70
NtRp2632
(dp2633
g73
(dp2634
sg82
g2229
sg75
(lp2635
g68
(g89
g70
NtRp2636
(dp2637
g73
(dp2638
g93
g94
ssg82
g2632
sg75
(lp2639
S'SCRIPT_NAME'
p2640
asbag68
(g89
g70
NtRp2641
(dp2642
g73
(dp2643
g100
g101
ssg82
g2632
sg75
(lp2644
S':'
asbag68
(g89
g70
NtRp2645
(dp2646
g73
(dp2647
sg82
g2632
sg75
(lp2648
g68
(g69
g70
NtRp2649
(dp2650
g73
(dp2651
g81
I3
ssg82
g2645
sg75
(lp2652
S''
asbasbasbag68
(g84
g70
NtRp2653
(dp2654
g73
(dp2655
sg82
g2229
sg75
(lp2656
g68
(g89
g70
NtRp2657
(dp2658
g73
(dp2659
g93
g94
ssg82
g2653
sg75
(lp2660
S'SERVER_ADDR'
p2661
asbag68
(g89
g70
NtRp2662
(dp2663
g73
(dp2664
g100
g101
ssg82
g2653
sg75
(lp2665
S':'
asbag68
(g89
g70
NtRp2666
(dp2667
g73
(dp2668
sg82
g2653
sg75
(lp2669
g68
(g69
g70
NtRp2670
(dp2671
g73
(dp2672
g81
I3
ssg82
g2666
sg75
(lp2673
g1493
asbasbasbag68
(g84
g70
NtRp2674
(dp2675
g73
(dp2676
sg82
g2229
sg75
(lp2677
g68
(g89
g70
NtRp2678
(dp2679
g73
(dp2680
g93
g94
ssg82
g2674
sg75
(lp2681
S'SERVER_ADMIN'
p2682
asbag68
(g89
g70
NtRp2683
(dp2684
g73
(dp2685
g100
g101
ssg82
g2674
sg75
(lp2686
S':'
asbag68
(g89
g70
NtRp2687
(dp2688
g73
(dp2689
sg82
g2674
sg75
(lp2690
g68
(g69
g70
NtRp2691
(dp2692
g73
(dp2693
g81
I3
ssg82
g2687
sg75
(lp2694
g1515
asbasbasbag68
(g84
g70
NtRp2695
(dp2696
g73
(dp2697
sg82
g2229
sg75
(lp2698
g68
(g89
g70
NtRp2699
(dp2700
g73
(dp2701
g93
g94
ssg82
g2695
sg75
(lp2702
S'SERVER_NAME'
p2703
asbag68
(g89
g70
NtRp2704
(dp2705
g73
(dp2706
g100
g101
ssg82
g2695
sg75
(lp2707
S':'
asbag68
(g89
g70
NtRp2708
(dp2709
g73
(dp2710
sg82
g2695
sg75
(lp2711
g68
(g69
g70
NtRp2712
(dp2713
g73
(dp2714
g81
I3
ssg82
g2708
sg75
(lp2715
g1537
asbasbasbag68
(g84
g70
NtRp2716
(dp2717
g73
(dp2718
sg82
g2229
sg75
(lp2719
g68
(g89
g70
NtRp2720
(dp2721
g73
(dp2722
g93
g94
ssg82
g2716
sg75
(lp2723
S'SERVER_PORT'
p2724
asbag68
(g89
g70
NtRp2725
(dp2726
g73
(dp2727
g100
g101
ssg82
g2716
sg75
(lp2728
S':'
asbag68
(g89
g70
NtRp2729
(dp2730
g73
(dp2731
sg82
g2716
sg75
(lp2732
g68
(g69
g70
NtRp2733
(dp2734
g73
(dp2735
g81
I3
ssg82
g2729
sg75
(lp2736
g1559
asbasbasbag68
(g84
g70
NtRp2737
(dp2738
g73
(dp2739
sg82
g2229
sg75
(lp2740
g68
(g89
g70
NtRp2741
(dp2742
g73
(dp2743
g93
g94
ssg82
g2737
sg75
(lp2744
S'SERVER_PROTOCOL'
p2745
asbag68
(g89
g70
NtRp2746
(dp2747
g73
(dp2748
g100
g101
ssg82
g2737
sg75
(lp2749
S':'
asbag68
(g89
g70
NtRp2750
(dp2751
g73
(dp2752
sg82
g2737
sg75
(lp2753
g68
(g69
g70
NtRp2754
(dp2755
g73
(dp2756
g81
I3
ssg82
g2750
sg75
(lp2757
g1581
asbasbasbag68
(g84
g70
NtRp2758
(dp2759
g73
(dp2760
sg82
g2229
sg75
(lp2761
g68
(g89
g70
NtRp2762
(dp2763
g73
(dp2764
g93
g94
ssg82
g2758
sg75
(lp2765
S'SERVER_SIGNATURE'
p2766
asbag68
(g89
g70
NtRp2767
(dp2768
g73
(dp2769
g100
g101
ssg82
g2758
sg75
(lp2770
S':'
asbag68
(g89
g70
NtRp2771
(dp2772
g73
(dp2773
sg82
g2758
sg75
(lp2774
g68
(g69
g70
NtRp2775
(dp2776
g73
(dp2777
g81
I3
ssg82
g2771
sg75
(lp2778
g1603
asbasbasbag68
(g84
g70
NtRp2779
(dp2780
g73
(dp2781
sg82
g2229
sg75
(lp2782
g68
(g89
g70
NtRp2783
(dp2784
g73
(dp2785
g93
g94
ssg82
g2779
sg75
(lp2786
S'SERVER_SOFTWARE'
p2787
asbag68
(g89
g70
NtRp2788
(dp2789
g73
(dp2790
g100
g101
ssg82
g2779
sg75
(lp2791
S':'
asbag68
(g89
g70
NtRp2792
(dp2793
g73
(dp2794
sg82
g2779
sg75
(lp2795
g68
(g69
g70
NtRp2796
(dp2797
g73
(dp2798
g81
I3
ssg82
g2792
sg75
(lp2799
g1625
asbasbasbag68
(g84
g70
NtRp2800
(dp2801
g73
(dp2802
sg82
g2229
sg75
(lp2803
g68
(g89
g70
NtRp2804
(dp2805
g73
(dp2806
g93
g94
ssg82
g2800
sg75
(lp2807
S'SSL_TLS_SNI'
p2808
asbag68
(g89
g70
NtRp2809
(dp2810
g73
(dp2811
g100
g101
ssg82
g2800
sg75
(lp2812
S':'
asbag68
(g89
g70
NtRp2813
(dp2814
g73
(dp2815
sg82
g2800
sg75
(lp2816
g68
(g69
g70
NtRp2817
(dp2818
g73
(dp2819
g81
I3
ssg82
g2813
sg75
(lp2820
g1647
asbasbasbag68
(g84
g70
NtRp2821
(dp2822
g73
(dp2823
sg82
g2229
sg75
(lp2824
g68
(g89
g70
NtRp2825
(dp2826
g73
(dp2827
g93
g94
ssg82
g2821
sg75
(lp2828
S'mod_wsgi.application_group'
p2829
asbag68
(g89
g70
NtRp2830
(dp2831
g73
(dp2832
g100
g101
ssg82
g2821
sg75
(lp2833
S':'
asbag68
(g89
g70
NtRp2834
(dp2835
g73
(dp2836
sg82
g2821
sg75
(lp2837
g68
(g69
g70
NtRp2838
(dp2839
g73
(dp2840
g81
I3
ssg82
g2834
sg75
(lp2841
g1055
asbasbasbag68
(g84
g70
NtRp2842
(dp2843
g73
(dp2844
sg82
g2229
sg75
(lp2845
g68
(g89
g70
NtRp2846
(dp2847
g73
(dp2848
g93
g94
ssg82
g2842
sg75
(lp2849
S'mod_wsgi.callable_object'
p2850
asbag68
(g89
g70
NtRp2851
(dp2852
g73
(dp2853
g100
g101
ssg82
g2842
sg75
(lp2854
S':'
asbag68
(g89
g70
NtRp2855
(dp2856
g73
(dp2857
sg82
g2842
sg75
(lp2858
g68
(g69
g70
NtRp2859
(dp2860
g73
(dp2861
g81
I3
ssg82
g2855
sg75
(lp2862
g1077
asbasbasbag68
(g84
g70
NtRp2863
(dp2864
g73
(dp2865
sg82
g2229
sg75
(lp2866
g68
(g89
g70
NtRp2867
(dp2868
g73
(dp2869
g93
g94
ssg82
g2863
sg75
(lp2870
S'mod_wsgi.handler_script'
p2871
asbag68
(g89
g70
NtRp2872
(dp2873
g73
(dp2874
g100
g101
ssg82
g2863
sg75
(lp2875
S':'
asbag68
(g89
g70
NtRp2876
(dp2877
g73
(dp2878
sg82
g2863
sg75
(lp2879
g68
(g69
g70
NtRp2880
(dp2881
g73
(dp2882
g81
I3
ssg82
g2876
sg75
(lp2883
S''
asbasbasbag68
(g84
g70
NtRp2884
(dp2885
g73
(dp2886
sg82
g2229
sg75
(lp2887
g68
(g89
g70
NtRp2888
(dp2889
g73
(dp2890
g93
g94
ssg82
g2884
sg75
(lp2891
S'mod_wsgi.input_chunked'
p2892
asbag68
(g89
g70
NtRp2893
(dp2894
g73
(dp2895
g100
g101
ssg82
g2884
sg75
(lp2896
S':'
asbag68
(g89
g70
NtRp2897
(dp2898
g73
(dp2899
sg82
g2884
sg75
(lp2900
g68
(g69
g70
NtRp2901
(dp2902
g73
(dp2903
g81
I3
ssg82
g2897
sg75
(lp2904
S'0'
asbasbasbag68
(g84
g70
NtRp2905
(dp2906
g73
(dp2907
sg82
g2229
sg75
(lp2908
g68
(g89
g70
NtRp2909
(dp2910
g73
(dp2911
g93
g94
ssg82
g2905
sg75
(lp2912
S'mod_wsgi.listener_host'
p2913
asbag68
(g89
g70
NtRp2914
(dp2915
g73
(dp2916
g100
g101
ssg82
g2905
sg75
(lp2917
S':'
asbag68
(g89
g70
NtRp2918
(dp2919
g73
(dp2920
sg82
g2905
sg75
(lp2921
g68
(g69
g70
NtRp2922
(dp2923
g73
(dp2924
g81
I3
ssg82
g2918
sg75
(lp2925
S''
asbasbasbag68
(g84
g70
NtRp2926
(dp2927
g73
(dp2928
sg82
g2229
sg75
(lp2929
g68
(g89
g70
NtRp2930
(dp2931
g73
(dp2932
g93
g94
ssg82
g2926
sg75
(lp2933
S'mod_wsgi.listener_port'
p2934
asbag68
(g89
g70
NtRp2935
(dp2936
g73
(dp2937
g100
g101
ssg82
g2926
sg75
(lp2938
S':'
asbag68
(g89
g70
NtRp2939
(dp2940
g73
(dp2941
sg82
g2926
sg75
(lp2942
g68
(g69
g70
NtRp2943
(dp2944
g73
(dp2945
g81
I3
ssg82
g2939
sg75
(lp2946
g1162
asbasbasbag68
(g84
g70
NtRp2947
(dp2948
g73
(dp2949
sg82
g2229
sg75
(lp2950
g68
(g89
g70
NtRp2951
(dp2952
g73
(dp2953
g93
g94
ssg82
g2947
sg75
(lp2954
S'mod_wsgi.process_group'
p2955
asbag68
(g89
g70
NtRp2956
(dp2957
g73
(dp2958
g100
g101
ssg82
g2947
sg75
(lp2959
S':'
asbag68
(g89
g70
NtRp2960
(dp2961
g73
(dp2962
sg82
g2947
sg75
(lp2963
g68
(g69
g70
NtRp2964
(dp2965
g73
(dp2966
g81
I3
ssg82
g2960
sg75
(lp2967
g1184
asbasbasbag68
(g84
g70
NtRp2968
(dp2969
g73
(dp2970
sg82
g2229
sg75
(lp2971
g68
(g89
g70
NtRp2972
(dp2973
g73
(dp2974
g93
g94
ssg82
g2968
sg75
(lp2975
S'mod_wsgi.request_handler'
p2976
asbag68
(g89
g70
NtRp2977
(dp2978
g73
(dp2979
g100
g101
ssg82
g2968
sg75
(lp2980
S':'
asbag68
(g89
g70
NtRp2981
(dp2982
g73
(dp2983
sg82
g2968
sg75
(lp2984
g68
(g69
g70
NtRp2985
(dp2986
g73
(dp2987
g81
I3
ssg82
g2981
sg75
(lp2988
g1206
asbasbasbag68
(g84
g70
NtRp2989
(dp2990
g73
(dp2991
sg82
g2229
sg75
(lp2992
g68
(g89
g70
NtRp2993
(dp2994
g73
(dp2995
g93
g94
ssg82
g2989
sg75
(lp2996
S'mod_wsgi.script_reloading'
p2997
asbag68
(g89
g70
NtRp2998
(dp2999
g73
(dp3000
g100
g101
ssg82
g2989
sg75
(lp3001
S':'
asbag68
(g89
g70
NtRp3002
(dp3003
g73
(dp3004
sg82
g2989
sg75
(lp3005
g68
(g69
g70
NtRp3006
(dp3007
g73
(dp3008
g81
I3
ssg82
g3002
sg75
(lp3009
S'1'
asbasbasbag68
(g84
g70
NtRp3010
(dp3011
g73
(dp3012
sg82
g2229
sg75
(lp3013
g68
(g89
g70
NtRp3014
(dp3015
g73
(dp3016
g93
g94
ssg82
g3010
sg75
(lp3017
S'mod_wsgi.version'
p3018
asbag68
(g89
g70
NtRp3019
(dp3020
g73
(dp3021
g100
g101
ssg82
g3010
sg75
(lp3022
S':'
asbag68
(g89
g70
NtRp3023
(dp3024
g73
(dp3025
sg82
g3010
sg75
(lp3026
g68
(g69
g70
NtRp3027
(dp3028
g73
(dp3029
g81
I3
ssg82
g3023
sg75
(lp3030
g68
(g77
g70
NtRp3031
(dp3032
g73
(dp3033
g81
I2
ssg82
Nsg75
(lp3034
g68
(g84
g70
NtRp3035
(dp3036
g73
(dp3037
sg82
g3031
sg75
(lp3038
g68
(g89
g70
NtRp3039
(dp3040
g73
(dp3041
sg82
g3035
sg75
(lp3042
g68
(g69
g70
NtRp3043
(dp3044
g73
(dp3045
g81
I2
ssg82
g3039
sg75
(lp3046
S'3'
asbasbasbag68
(g84
g70
NtRp3047
(dp3048
g73
(dp3049
sg82
g3031
sg75
(lp3050
g68
(g89
g70
NtRp3051
(dp3052
g73
(dp3053
sg82
g3047
sg75
(lp3054
g68
(g69
g70
NtRp3055
(dp3056
g73
(dp3057
g81
I2
ssg82
g3051
sg75
(lp3058
S'3'
asbasbasbasbasbasbasbag68
(g84
g70
NtRp3059
(dp3060
g73
(dp3061
sg82
g2229
sg75
(lp3062
g68
(g89
g70
NtRp3063
(dp3064
g73
(dp3065
g93
g94
ssg82
g3059
sg75
(lp3066
S'wsgi.errors'
p3067
asbag68
(g89
g70
NtRp3068
(dp3069
g73
(dp3070
g100
g101
ssg82
g3059
sg75
(lp3071
S':'
asbag68
(g89
g70
NtRp3072
(dp3073
g73
(dp3074
sg82
g3059
sg75
(lp3075
g68
(g69
g70
NtRp3076
(dp3077
g73
(dp3078
g81
I3
ssg82
g3072
sg75
(lp3079
S'<mod_wsgi.Log object at 0xb8bcb958>'
p3080
asbasbasbag68
(g84
g70
NtRp3081
(dp3082
g73
(dp3083
sg82
g2229
sg75
(lp3084
g68
(g89
g70
NtRp3085
(dp3086
g73
(dp3087
g93
g94
ssg82
g3081
sg75
(lp3088
S'wsgi.file_wrapper'
p3089
asbag68
(g89
g70
NtRp3090
(dp3091
g73
(dp3092
g100
g101
ssg82
g3081
sg75
(lp3093
S':'
asbag68
(g89
g70
NtRp3094
(dp3095
g73
(dp3096
sg82
g3081
sg75
(lp3097
g68
(g69
g70
NtRp3098
(dp3099
g73
(dp3100
g81
I3
ssg82
g3094
sg75
(lp3101
S'<built-in method file_wrapper of mod_wsgi.Adapter object at 0xb8e556e0>'
p3102
asbasbasbag68
(g84
g70
NtRp3103
(dp3104
g73
(dp3105
sg82
g2229
sg75
(lp3106
g68
(g89
g70
NtRp3107
(dp3108
g73
(dp3109
g93
g94
ssg82
g3103
sg75
(lp3110
S'wsgi.input'
p3111
asbag68
(g89
g70
NtRp3112
(dp3113
g73
(dp3114
g100
g101
ssg82
g3103
sg75
(lp3115
S':'
asbag68
(g89
g70
NtRp3116
(dp3117
g73
(dp3118
sg82
g3103
sg75
(lp3119
g68
(g69
g70
NtRp3120
(dp3121
g73
(dp3122
g81
I3
ssg82
g3116
sg75
(lp3123
S'<cStringIO.StringO object at 0xb9576ba0>'
p3124
asbasbasbag68
(g84
g70
NtRp3125
(dp3126
g73
(dp3127
sg82
g2229
sg75
(lp3128
g68
(g89
g70
NtRp3129
(dp3130
g73
(dp3131
g93
g94
ssg82
g3125
sg75
(lp3132
S'wsgi.multiprocess'
p3133
asbag68
(g89
g70
NtRp3134
(dp3135
g73
(dp3136
g100
g101
ssg82
g3125
sg75
(lp3137
S':'
asbag68
(g89
g70
NtRp3138
(dp3139
g73
(dp3140
sg82
g3125
sg75
(lp3141
g68
(g69
g70
NtRp3142
(dp3143
g73
(dp3144
g81
I3
ssg82
g3138
sg75
(lp3145
g111
asbasbasbag68
(g84
g70
NtRp3146
(dp3147
g73
(dp3148
sg82
g2229
sg75
(lp3149
g68
(g89
g70
NtRp3150
(dp3151
g73
(dp3152
g93
g94
ssg82
g3146
sg75
(lp3153
S'wsgi.multithread'
p3154
asbag68
(g89
g70
NtRp3155
(dp3156
g73
(dp3157
g100
g101
ssg82
g3146
sg75
(lp3158
S':'
asbag68
(g89
g70
NtRp3159
(dp3160
g73
(dp3161
sg82
g3146
sg75
(lp3162
g68
(g69
g70
NtRp3163
(dp3164
g73
(dp3165
g81
I3
ssg82
g3159
sg75
(lp3166
g1799
asbasbasbag68
(g84
g70
NtRp3167
(dp3168
g73
(dp3169
sg82
g2229
sg75
(lp3170
g68
(g89
g70
NtRp3171
(dp3172
g73
(dp3173
g93
g94
ssg82
g3167
sg75
(lp3174
S'wsgi.run_once'
p3175
asbag68
(g89
g70
NtRp3176
(dp3177
g73
(dp3178
g100
g101
ssg82
g3167
sg75
(lp3179
S':'
asbag68
(g89
g70
NtRp3180
(dp3181
g73
(dp3182
sg82
g3167
sg75
(lp3183
g68
(g69
g70
NtRp3184
(dp3185
g73
(dp3186
g81
I3
ssg82
g3180
sg75
(lp3187
g111
asbasbasbag68
(g84
g70
NtRp3188
(dp3189
g73
(dp3190
sg82
g2229
sg75
(lp3191
g68
(g89
g70
NtRp3192
(dp3193
g73
(dp3194
g93
g94
ssg82
g3188
sg75
(lp3195
S'wsgi.url_scheme'
p3196
asbag68
(g89
g70
NtRp3197
(dp3198
g73
(dp3199
g100
g101
ssg82
g3188
sg75
(lp3200
S':'
asbag68
(g89
g70
NtRp3201
(dp3202
g73
(dp3203
sg82
g3188
sg75
(lp3204
g68
(g69
g70
NtRp3205
(dp3206
g73
(dp3207
g81
I3
ssg82
g3201
sg75
(lp3208
g1842
asbasbasbag68
(g84
g70
NtRp3209
(dp3210
g73
(dp3211
sg82
g2229
sg75
(lp3212
g68
(g89
g70
NtRp3213
(dp3214
g73
(dp3215
g93
g94
ssg82
g3209
sg75
(lp3216
S'wsgi.version'
p3217
asbag68
(g89
g70
NtRp3218
(dp3219
g73
(dp3220
g100
g101
ssg82
g3209
sg75
(lp3221
S':'
asbag68
(g89
g70
NtRp3222
(dp3223
g73
(dp3224
sg82
g3209
sg75
(lp3225
g68
(g69
g70
NtRp3226
(dp3227
g73
(dp3228
g81
I3
ssg82
g3222
sg75
(lp3229
S'1'
asbasbasbasbasbasbasbasbasbasbasbasbasbsS'frames'
p3230
(lp3231
(dp3232
S'file'
p3233
S'/home/www-data/web2py/gluon/restricted.py'
p3234
sS'dump'
p3235
(dp3236
S'code'
p3237
S'\'response.write(\\\'<!DOCTYPE html>\\\\n<html lang="\\\', ...    -->    \\\\n  </body>\\\\n</html>\\\\n\\\', escape=False)\''
p3238
sS'layer'
p3239
S"'/home/www-data/web2py/applications/scrum/views/sprint/editar.html'"
p3240
sS'global compile2'
p3241
S'<function compile2>'
p3242
sS'ccode'
p3243
S'undefined'
p3244
ssS'lnum'
p3245
I191
sS'lines'
p3246
(dp3247
I192
S'        exec ccode in environment'
p3248
sI193
S'    except HTTP:'
p3249
sI194
S'        raise'
p3250
sI195
S'    except Exception, error:'
p3251
sI186
S"    environment['__file__'] = layer"
p3252
sI187
S'    try:'
p3253
sI188
S'        if type(code) == types.CodeType:'
p3254
sI189
S'            ccode = code'
p3255
sI190
S'        else:'
p3256
sI191
S'            ccode = compile2(code,layer)'
p3257
ssS'call'
p3258
S'(code=\'response.write(\\\'<!DOCTYPE html>\\\\n<html lang="\\\', ...    -->    \\\\n  </body>\\\\n</html>\\\\n\\\', escape=False)\', environment={\'A\': <class \'gluon.html.A\'>, \'Auth\': <class \'gluon.tools.Auth\'>, \'B\': <class \'gluon.html.B\'>, \'BEAUTIFY\': <class \'gluon.html.BEAUTIFY\'>, \'BODY\': <class \'gluon.html.BODY\'>, \'BR\': <class \'gluon.html.BR\'>, \'BRAZILIAN_DATE\': <gluon.validators.IS_DATE object>, \'BUTTON\': <class \'gluon.html.BUTTON\'>, \'CAT\': <class \'gluon.html.CAT\'>, \'CENTER\': <class \'gluon.html.CENTER\'>, ...}, layer=\'/home/www-data/web2py/applications/scrum/views/sprint/editar.html\')'
p3259
sS'func'
p3260
S'restricted'
p3261
sa(dp3262
g3233
S'/home/www-data/web2py/gluon/restricted.py'
p3263
sg3235
(dp3264
S'builtincompile'
p3265
S'<built-in function compile>'
p3266
sS'code'
p3267
S'\'response.write(\\\'<!DOCTYPE html>\\\\n<html lang="\\\', ...    -->    \\\\n  </body>\\\\n</html>\\\\n\\\', escape=False)\''
p3268
sS'code.rstrip'
p3269
S'<built-in method rstrip of str object>'
p3270
sS').replace'
p3271
g3244
sS'layer'
p3272
S"'/home/www-data/web2py/applications/scrum/views/sprint/editar.html'"
p3273
ssg3245
I178
sg3246
(dp3274
I173
S''
sI174
S'def compile2(code,layer):'
p3275
sI175
S'    """'
p3276
sI176
S"    The +'\\n' is necessary else compile fails when code ends in a comment."
p3277
sI177
S'    """'
p3278
sI178
S"    return compile(code.rstrip().replace('\\r\\n','\\n')+'\\n', layer, 'exec')"
p3279
sI179
S''
sI180
S"def restricted(code, environment={}, layer='Unknown'):"
p3280
sI181
S'    """'
p3281
sI182
S'    runs code in environment and returns the output. if an exception occurs'
p3282
ssg3258
S'(code=\'response.write(\\\'<!DOCTYPE html>\\\\n<html lang="\\\', ...    -->    \\\\n  </body>\\\\n</html>\\\\n\\\', escape=False)\', layer=\'/home/www-data/web2py/applications/scrum/views/sprint/editar.html\')'
p3283
sg3260
S'compile2'
p3284
sasS'pyver'
p3285
S'Python 2.7.1+: /usr/bin/python'
p3286
sS'session'
p3287
g68
(g69
g70
NtRp3288
(dp3289
g73
(dp3290
sg75
(lp3291
g68
(g77
g70
NtRp3292
(dp3293
g73
(dp3294
g81
I5
ssg82
Nsg75
(lp3295
g68
(g84
g70
NtRp3296
(dp3297
g73
(dp3298
sg82
g3292
sg75
(lp3299
g68
(g89
g70
NtRp3300
(dp3301
g73
(dp3302
g93
g94
ssg82
g3296
sg75
(lp3303
S'auth'
p3304
asbag68
(g89
g70
NtRp3305
(dp3306
g73
(dp3307
g100
g101
ssg82
g3296
sg75
(lp3308
S':'
asbag68
(g89
g70
NtRp3309
(dp3310
g73
(dp3311
sg82
g3296
sg75
(lp3312
g68
(g69
g70
NtRp3313
(dp3314
g73
(dp3315
g81
I5
ssg82
g3309
sg75
(lp3316
g68
(g77
g70
NtRp3317
(dp3318
g73
(dp3319
g81
I4
ssg82
Nsg75
(lp3320
g68
(g84
g70
NtRp3321
(dp3322
g73
(dp3323
sg82
g3317
sg75
(lp3324
g68
(g89
g70
NtRp3325
(dp3326
g73
(dp3327
g93
g94
ssg82
g3321
sg75
(lp3328
S'expiration'
p3329
asbag68
(g89
g70
NtRp3330
(dp3331
g73
(dp3332
g100
g101
ssg82
g3321
sg75
(lp3333
S':'
asbag68
(g89
g70
NtRp3334
(dp3335
g73
(dp3336
sg82
g3321
sg75
(lp3337
g68
(g69
g70
NtRp3338
(dp3339
g73
(dp3340
g81
I4
ssg82
g3334
sg75
(lp3341
S'2592000'
p3342
asbasbasbag68
(g84
g70
NtRp3343
(dp3344
g73
(dp3345
sg82
g3317
sg75
(lp3346
g68
(g89
g70
NtRp3347
(dp3348
g73
(dp3349
g93
g94
ssg82
g3343
sg75
(lp3350
S'hmac_key'
p3351
asbag68
(g89
g70
NtRp3352
(dp3353
g73
(dp3354
g100
g101
ssg82
g3343
sg75
(lp3355
S':'
asbag68
(g89
g70
NtRp3356
(dp3357
g73
(dp3358
sg82
g3343
sg75
(lp3359
g68
(g69
g70
NtRp3360
(dp3361
g73
(dp3362
g81
I4
ssg82
g3356
sg75
(lp3363
S'0eb5913b-5067-4036-a2e3-0b783a415d41'
p3364
asbasbasbag68
(g84
g70
NtRp3365
(dp3366
g73
(dp3367
sg82
g3317
sg75
(lp3368
g68
(g89
g70
NtRp3369
(dp3370
g73
(dp3371
g93
g94
ssg82
g3365
sg75
(lp3372
S'last_visit'
p3373
asbag68
(g89
g70
NtRp3374
(dp3375
g73
(dp3376
g100
g101
ssg82
g3365
sg75
(lp3377
S':'
asbag68
(g89
g70
NtRp3378
(dp3379
g73
(dp3380
sg82
g3365
sg75
(lp3381
g68
(g69
g70
NtRp3382
(dp3383
g73
(dp3384
g81
I4
ssg82
g3378
sg75
(lp3385
S'datetime.datetime(2011, 9, 12, 16, 10, 17, 480100)'
p3386
asbasbasbag68
(g84
g70
NtRp3387
(dp3388
g73
(dp3389
sg82
g3317
sg75
(lp3390
g68
(g89
g70
NtRp3391
(dp3392
g73
(dp3393
g93
g94
ssg82
g3387
sg75
(lp3394
S'remember'
p3395
asbag68
(g89
g70
NtRp3396
(dp3397
g73
(dp3398
g100
g101
ssg82
g3387
sg75
(lp3399
S':'
asbag68
(g89
g70
NtRp3400
(dp3401
g73
(dp3402
sg82
g3387
sg75
(lp3403
g68
(g69
g70
NtRp3404
(dp3405
g73
(dp3406
g81
I4
ssg82
g3400
sg75
(lp3407
g111
asbasbasbag68
(g84
g70
NtRp3408
(dp3409
g73
(dp3410
sg82
g3317
sg75
(lp3411
g68
(g89
g70
NtRp3412
(dp3413
g73
(dp3414
g93
g94
ssg82
g3408
sg75
(lp3415
S'user'
p3416
asbag68
(g89
g70
NtRp3417
(dp3418
g73
(dp3419
g100
g101
ssg82
g3408
sg75
(lp3420
S':'
asbag68
(g89
g70
NtRp3421
(dp3422
g73
(dp3423
sg82
g3408
sg75
(lp3424
g68
(g69
g70
NtRp3425
(dp3426
g73
(dp3427
g81
I4
ssg82
g3421
sg75
(lp3428
g68
(g77
g70
NtRp3429
(dp3430
g73
(dp3431
g81
I3
ssg82
Nsg75
(lp3432
g68
(g84
g70
NtRp3433
(dp3434
g73
(dp3435
sg82
g3429
sg75
(lp3436
g68
(g89
g70
NtRp3437
(dp3438
g73
(dp3439
g93
g94
ssg82
g3433
sg75
(lp3440
S'email'
p3441
asbag68
(g89
g70
NtRp3442
(dp3443
g73
(dp3444
g100
g101
ssg82
g3433
sg75
(lp3445
S':'
asbag68
(g89
g70
NtRp3446
(dp3447
g73
(dp3448
sg82
g3433
sg75
(lp3449
g68
(g69
g70
NtRp3450
(dp3451
g73
(dp3452
g81
I3
ssg82
g3446
sg75
(lp3453
S'yamandu.costa@gmail.com'
p3454
asbasbasbag68
(g84
g70
NtRp3455
(dp3456
g73
(dp3457
sg82
g3429
sg75
(lp3458
g68
(g89
g70
NtRp3459
(dp3460
g73
(dp3461
g93
g94
ssg82
g3455
sg75
(lp3462
S'first_name'
p3463
asbag68
(g89
g70
NtRp3464
(dp3465
g73
(dp3466
g100
g101
ssg82
g3455
sg75
(lp3467
S':'
asbag68
(g89
g70
NtRp3468
(dp3469
g73
(dp3470
sg82
g3455
sg75
(lp3471
g68
(g69
g70
NtRp3472
(dp3473
g73
(dp3474
g81
I3
ssg82
g3468
sg75
(lp3475
S'Carlos'
p3476
asbasbasbag68
(g84
g70
NtRp3477
(dp3478
g73
(dp3479
sg82
g3429
sg75
(lp3480
g68
(g89
g70
NtRp3481
(dp3482
g73
(dp3483
g93
g94
ssg82
g3477
sg75
(lp3484
S'id'
p3485
asbag68
(g89
g70
NtRp3486
(dp3487
g73
(dp3488
g100
g101
ssg82
g3477
sg75
(lp3489
S':'
asbag68
(g89
g70
NtRp3490
(dp3491
g73
(dp3492
sg82
g3477
sg75
(lp3493
g68
(g69
g70
NtRp3494
(dp3495
g73
(dp3496
g81
I3
ssg82
g3490
sg75
(lp3497
S'2'
asbasbasbag68
(g84
g70
NtRp3498
(dp3499
g73
(dp3500
sg82
g3429
sg75
(lp3501
g68
(g89
g70
NtRp3502
(dp3503
g73
(dp3504
g93
g94
ssg82
g3498
sg75
(lp3505
S'last_name'
p3506
asbag68
(g89
g70
NtRp3507
(dp3508
g73
(dp3509
g100
g101
ssg82
g3498
sg75
(lp3510
S':'
asbag68
(g89
g70
NtRp3511
(dp3512
g73
(dp3513
sg82
g3498
sg75
(lp3514
g68
(g69
g70
NtRp3515
(dp3516
g73
(dp3517
g81
I3
ssg82
g3511
sg75
(lp3518
S'costa'
p3519
asbasbasbag68
(g84
g70
NtRp3520
(dp3521
g73
(dp3522
sg82
g3429
sg75
(lp3523
g68
(g89
g70
NtRp3524
(dp3525
g73
(dp3526
g93
g94
ssg82
g3520
sg75
(lp3527
S'password'
p3528
asbag68
(g89
g70
NtRp3529
(dp3530
g73
(dp3531
g100
g101
ssg82
g3520
sg75
(lp3532
S':'
asbag68
(g89
g70
NtRp3533
(dp3534
g73
(dp3535
sg82
g3520
sg75
(lp3536
g68
(g69
g70
NtRp3537
(dp3538
g73
(dp3539
g81
I3
ssg82
g3533
sg75
(lp3540
S'00a7a128f71552b063e36943370dd0944d5adb4000c6382d33eb3e1a93dc679cb99beb47e3003d318803f96ef839a18a379eae2e2bb917ca3c52c4e45231b331'
p3541
asbasbasbag68
(g84
g70
NtRp3542
(dp3543
g73
(dp3544
sg82
g3429
sg75
(lp3545
g68
(g89
g70
NtRp3546
(dp3547
g73
(dp3548
g93
g94
ssg82
g3542
sg75
(lp3549
S'registration_key'
p3550
asbag68
(g89
g70
NtRp3551
(dp3552
g73
(dp3553
g100
g101
ssg82
g3542
sg75
(lp3554
S':'
asbag68
(g89
g70
NtRp3555
(dp3556
g73
(dp3557
sg82
g3542
sg75
(lp3558
g68
(g69
g70
NtRp3559
(dp3560
g73
(dp3561
g81
I3
ssg82
g3555
sg75
(lp3562
S''
asbasbasbag68
(g84
g70
NtRp3563
(dp3564
g73
(dp3565
sg82
g3429
sg75
(lp3566
g68
(g89
g70
NtRp3567
(dp3568
g73
(dp3569
g93
g94
ssg82
g3563
sg75
(lp3570
S'reset_password_key'
p3571
asbag68
(g89
g70
NtRp3572
(dp3573
g73
(dp3574
g100
g101
ssg82
g3563
sg75
(lp3575
S':'
asbag68
(g89
g70
NtRp3576
(dp3577
g73
(dp3578
sg82
g3563
sg75
(lp3579
g68
(g69
g70
NtRp3580
(dp3581
g73
(dp3582
g81
I3
ssg82
g3576
sg75
(lp3583
S''
asbasbasbasbasbasbasbasbasbasbasbasbasbsS'etype'
p3584
S"<type 'exceptions.SyntaxError'>"
p3585
sS'date'
p3586
S'Mon Sep 12 16:12:10 2011'
p3587
sS'response'
p3588
g68
(g69
g70
NtRp3589
(dp3590
g73
(dp3591
sg75
(lp3592
g68
(g77
g70
NtRp3593
(dp3594
g73
(dp3595
g81
I5
ssg82
Nsg75
(lp3596
g68
(g84
g70
NtRp3597
(dp3598
g73
(dp3599
sg82
g3593
sg75
(lp3600
g68
(g89
g70
NtRp3601
(dp3602
g73
(dp3603
g93
g94
ssg82
g3597
sg75
(lp3604
g178
asbag68
(g89
g70
NtRp3605
(dp3606
g73
(dp3607
g100
g101
ssg82
g3597
sg75
(lp3608
S':'
asbag68
(g89
g70
NtRp3609
(dp3610
g73
(dp3611
sg82
g3597
sg75
(lp3612
g68
(g69
g70
NtRp3613
(dp3614
g73
(dp3615
g81
I5
ssg82
g3609
sg75
(lp3616
S'<cStringIO.StringO object at 0xb952d780>'
p3617
asbasbasbag68
(g84
g70
NtRp3618
(dp3619
g73
(dp3620
sg82
g3593
sg75
(lp3621
g68
(g89
g70
NtRp3622
(dp3623
g73
(dp3624
g93
g94
ssg82
g3618
sg75
(lp3625
g244
asbag68
(g89
g70
NtRp3626
(dp3627
g73
(dp3628
g100
g101
ssg82
g3618
sg75
(lp3629
S':'
asbag68
(g89
g70
NtRp3630
(dp3631
g73
(dp3632
sg82
g3618
sg75
(lp3633
g68
(g69
g70
NtRp3634
(dp3635
g73
(dp3636
g81
I5
ssg82
g3630
sg75
(lp3637
g68
(g77
g70
NtRp3638
(dp3639
g73
(dp3640
g81
I4
ssg82
Nsg75
(lp3641
g68
(g84
g70
NtRp3642
(dp3643
g73
(dp3644
sg82
g3638
sg75
(lp3645
g68
(g89
g70
NtRp3646
(dp3647
g73
(dp3648
g93
g94
ssg82
g3642
sg75
(lp3649
S'session_id_scrum'
p3650
asbag68
(g89
g70
NtRp3651
(dp3652
g73
(dp3653
g100
g101
ssg82
g3642
sg75
(lp3654
S':'
asbag68
(g89
g70
NtRp3655
(dp3656
g73
(dp3657
sg82
g3642
sg75
(lp3658
g68
(g69
g70
NtRp3659
(dp3660
g73
(dp3661
g81
I4
ssg82
g3655
sg75
(lp3662
g68
(g77
g70
NtRp3663
(dp3664
g73
(dp3665
g81
I3
ssg82
Nsg75
(lp3666
g68
(g84
g70
NtRp3667
(dp3668
g73
(dp3669
sg82
g3663
sg75
(lp3670
g68
(g89
g70
NtRp3671
(dp3672
g73
(dp3673
g93
g94
ssg82
g3667
sg75
(lp3674
g294
asbag68
(g89
g70
NtRp3675
(dp3676
g73
(dp3677
g100
g101
ssg82
g3667
sg75
(lp3678
S':'
asbag68
(g89
g70
NtRp3679
(dp3680
g73
(dp3681
sg82
g3667
sg75
(lp3682
g68
(g69
g70
NtRp3683
(dp3684
g73
(dp3685
g81
I3
ssg82
g3679
sg75
(lp3686
S''
asbasbasbag68
(g84
g70
NtRp3687
(dp3688
g73
(dp3689
sg82
g3663
sg75
(lp3690
g68
(g89
g70
NtRp3691
(dp3692
g73
(dp3693
g93
g94
ssg82
g3687
sg75
(lp3694
g315
asbag68
(g89
g70
NtRp3695
(dp3696
g73
(dp3697
g100
g101
ssg82
g3687
sg75
(lp3698
S':'
asbag68
(g89
g70
NtRp3699
(dp3700
g73
(dp3701
sg82
g3687
sg75
(lp3702
g68
(g69
g70
NtRp3703
(dp3704
g73
(dp3705
g81
I3
ssg82
g3699
sg75
(lp3706
S''
asbasbasbag68
(g84
g70
NtRp3707
(dp3708
g73
(dp3709
sg82
g3663
sg75
(lp3710
g68
(g89
g70
NtRp3711
(dp3712
g73
(dp3713
g93
g94
ssg82
g3707
sg75
(lp3714
g336
asbag68
(g89
g70
NtRp3715
(dp3716
g73
(dp3717
g100
g101
ssg82
g3707
sg75
(lp3718
S':'
asbag68
(g89
g70
NtRp3719
(dp3720
g73
(dp3721
sg82
g3707
sg75
(lp3722
g68
(g69
g70
NtRp3723
(dp3724
g73
(dp3725
g81
I3
ssg82
g3719
sg75
(lp3726
S''
asbasbasbag68
(g84
g70
NtRp3727
(dp3728
g73
(dp3729
sg82
g3663
sg75
(lp3730
g68
(g89
g70
NtRp3731
(dp3732
g73
(dp3733
g93
g94
ssg82
g3727
sg75
(lp3734
g357
asbag68
(g89
g70
NtRp3735
(dp3736
g73
(dp3737
g100
g101
ssg82
g3727
sg75
(lp3738
S':'
asbag68
(g89
g70
NtRp3739
(dp3740
g73
(dp3741
sg82
g3727
sg75
(lp3742
g68
(g69
g70
NtRp3743
(dp3744
g73
(dp3745
g81
I3
ssg82
g3739
sg75
(lp3746
S''
asbasbasbag68
(g84
g70
NtRp3747
(dp3748
g73
(dp3749
sg82
g3663
sg75
(lp3750
g68
(g89
g70
NtRp3751
(dp3752
g73
(dp3753
g93
g94
ssg82
g3747
sg75
(lp3754
g378
asbag68
(g89
g70
NtRp3755
(dp3756
g73
(dp3757
g100
g101
ssg82
g3747
sg75
(lp3758
S':'
asbag68
(g89
g70
NtRp3759
(dp3760
g73
(dp3761
sg82
g3747
sg75
(lp3762
g68
(g69
g70
NtRp3763
(dp3764
g73
(dp3765
g81
I3
ssg82
g3759
sg75
(lp3766
S''
asbasbasbag68
(g84
g70
NtRp3767
(dp3768
g73
(dp3769
sg82
g3663
sg75
(lp3770
g68
(g89
g70
NtRp3771
(dp3772
g73
(dp3773
g93
g94
ssg82
g3767
sg75
(lp3774
g399
asbag68
(g89
g70
NtRp3775
(dp3776
g73
(dp3777
g100
g101
ssg82
g3767
sg75
(lp3778
S':'
asbag68
(g89
g70
NtRp3779
(dp3780
g73
(dp3781
sg82
g3767
sg75
(lp3782
g68
(g69
g70
NtRp3783
(dp3784
g73
(dp3785
g81
I3
ssg82
g3779
sg75
(lp3786
S'/'
asbasbasbag68
(g84
g70
NtRp3787
(dp3788
g73
(dp3789
sg82
g3663
sg75
(lp3790
g68
(g89
g70
NtRp3791
(dp3792
g73
(dp3793
g93
g94
ssg82
g3787
sg75
(lp3794
g420
asbag68
(g89
g70
NtRp3795
(dp3796
g73
(dp3797
g100
g101
ssg82
g3787
sg75
(lp3798
S':'
asbag68
(g89
g70
NtRp3799
(dp3800
g73
(dp3801
sg82
g3787
sg75
(lp3802
g68
(g69
g70
NtRp3803
(dp3804
g73
(dp3805
g81
I3
ssg82
g3799
sg75
(lp3806
S''
asbasbasbag68
(g84
g70
NtRp3807
(dp3808
g73
(dp3809
sg82
g3663
sg75
(lp3810
g68
(g89
g70
NtRp3811
(dp3812
g73
(dp3813
g93
g94
ssg82
g3807
sg75
(lp3814
g441
asbag68
(g89
g70
NtRp3815
(dp3816
g73
(dp3817
g100
g101
ssg82
g3807
sg75
(lp3818
S':'
asbag68
(g89
g70
NtRp3819
(dp3820
g73
(dp3821
sg82
g3807
sg75
(lp3822
g68
(g69
g70
NtRp3823
(dp3824
g73
(dp3825
g81
I3
ssg82
g3819
sg75
(lp3826
S''
asbasbasbasbasbasbasbasbasbasbasbag68
(g84
g70
NtRp3827
(dp3828
g73
(dp3829
sg82
g3593
sg75
(lp3830
g68
(g89
g70
NtRp3831
(dp3832
g73
(dp3833
g93
g94
ssg82
g3827
sg75
(lp3834
S'files'
p3835
asbag68
(g89
g70
NtRp3836
(dp3837
g73
(dp3838
g100
g101
ssg82
g3827
sg75
(lp3839
S':'
asbag68
(g89
g70
NtRp3840
(dp3841
g73
(dp3842
sg82
g3827
sg75
(lp3843
g68
(g69
g70
NtRp3844
(dp3845
g73
(dp3846
g81
I5
ssg82
g3840
sg75
(lp3847
g68
(g77
g70
NtRp3848
(dp3849
g73
(dp3850
g81
I4
ssg82
Nsg75
(lp3851
sbasbasbasbag68
(g84
g70
NtRp3852
(dp3853
g73
(dp3854
sg82
g3593
sg75
(lp3855
g68
(g89
g70
NtRp3856
(dp3857
g73
(dp3858
g93
g94
ssg82
g3852
sg75
(lp3859
S'flash'
p3860
asbag68
(g89
g70
NtRp3861
(dp3862
g73
(dp3863
g100
g101
ssg82
g3852
sg75
(lp3864
S':'
asbag68
(g89
g70
NtRp3865
(dp3866
g73
(dp3867
sg82
g3852
sg75
(lp3868
g68
(g69
g70
NtRp3869
(dp3870
g73
(dp3871
g81
I5
ssg82
g3865
sg75
(lp3872
S''
asbasbasbag68
(g84
g70
NtRp3873
(dp3874
g73
(dp3875
sg82
g3593
sg75
(lp3876
g68
(g89
g70
NtRp3877
(dp3878
g73
(dp3879
g93
g94
ssg82
g3873
sg75
(lp3880
S'generic_patterns'
p3881
asbag68
(g89
g70
NtRp3882
(dp3883
g73
(dp3884
g100
g101
ssg82
g3873
sg75
(lp3885
S':'
asbag68
(g89
g70
NtRp3886
(dp3887
g73
(dp3888
sg82
g3873
sg75
(lp3889
g68
(g69
g70
NtRp3890
(dp3891
g73
(dp3892
g81
I5
ssg82
g3886
sg75
(lp3893
g68
(g77
g70
NtRp3894
(dp3895
g73
(dp3896
g81
I4
ssg82
Nsg75
(lp3897
sbasbasbasbag68
(g84
g70
NtRp3898
(dp3899
g73
(dp3900
sg82
g3593
sg75
(lp3901
g68
(g89
g70
NtRp3902
(dp3903
g73
(dp3904
g93
g94
ssg82
g3898
sg75
(lp3905
S'headers'
p3906
asbag68
(g89
g70
NtRp3907
(dp3908
g73
(dp3909
g100
g101
ssg82
g3898
sg75
(lp3910
S':'
asbag68
(g89
g70
NtRp3911
(dp3912
g73
(dp3913
sg82
g3898
sg75
(lp3914
g68
(g69
g70
NtRp3915
(dp3916
g73
(dp3917
g81
I5
ssg82
g3911
sg75
(lp3918
g68
(g77
g70
NtRp3919
(dp3920
g73
(dp3921
g81
I4
ssg82
Nsg75
(lp3922
g68
(g84
g70
NtRp3923
(dp3924
g73
(dp3925
sg82
g3919
sg75
(lp3926
g68
(g89
g70
NtRp3927
(dp3928
g73
(dp3929
g93
g94
ssg82
g3923
sg75
(lp3930
S'Cache-Control'
p3931
asbag68
(g89
g70
NtRp3932
(dp3933
g73
(dp3934
g100
g101
ssg82
g3923
sg75
(lp3935
S':'
asbag68
(g89
g70
NtRp3936
(dp3937
g73
(dp3938
sg82
g3923
sg75
(lp3939
g68
(g69
g70
NtRp3940
(dp3941
g73
(dp3942
g81
I4
ssg82
g3936
sg75
(lp3943
S'no-store, no-cache, must-revalidate, post-check=0, pre-check=0'
p3944
asbasbasbag68
(g84
g70
NtRp3945
(dp3946
g73
(dp3947
sg82
g3919
sg75
(lp3948
g68
(g89
g70
NtRp3949
(dp3950
g73
(dp3951
g93
g94
ssg82
g3945
sg75
(lp3952
S'Content-Type'
p3953
asbag68
(g89
g70
NtRp3954
(dp3955
g73
(dp3956
g100
g101
ssg82
g3945
sg75
(lp3957
S':'
asbag68
(g89
g70
NtRp3958
(dp3959
g73
(dp3960
sg82
g3945
sg75
(lp3961
g68
(g69
g70
NtRp3962
(dp3963
g73
(dp3964
g81
I4
ssg82
g3958
sg75
(lp3965
S'text/html; charset=utf-8'
p3966
asbasbasbag68
(g84
g70
NtRp3967
(dp3968
g73
(dp3969
sg82
g3919
sg75
(lp3970
g68
(g89
g70
NtRp3971
(dp3972
g73
(dp3973
g93
g94
ssg82
g3967
sg75
(lp3974
S'Expires'
p3975
asbag68
(g89
g70
NtRp3976
(dp3977
g73
(dp3978
g100
g101
ssg82
g3967
sg75
(lp3979
S':'
asbag68
(g89
g70
NtRp3980
(dp3981
g73
(dp3982
sg82
g3967
sg75
(lp3983
g68
(g69
g70
NtRp3984
(dp3985
g73
(dp3986
g81
I4
ssg82
g3980
sg75
(lp3987
S'Mon, 12 Sep 2011 19:12:10 GMT'
p3988
asbasbasbag68
(g84
g70
NtRp3989
(dp3990
g73
(dp3991
sg82
g3919
sg75
(lp3992
g68
(g89
g70
NtRp3993
(dp3994
g73
(dp3995
g93
g94
ssg82
g3989
sg75
(lp3996
S'Pragma'
p3997
asbag68
(g89
g70
NtRp3998
(dp3999
g73
(dp4000
g100
g101
ssg82
g3989
sg75
(lp4001
S':'
asbag68
(g89
g70
NtRp4002
(dp4003
g73
(dp4004
sg82
g3989
sg75
(lp4005
g68
(g69
g70
NtRp4006
(dp4007
g73
(dp4008
g81
I4
ssg82
g4002
sg75
(lp4009
S'no-cache'
p4010
asbasbasbag68
(g84
g70
NtRp4011
(dp4012
g73
(dp4013
sg82
g3919
sg75
(lp4014
g68
(g89
g70
NtRp4015
(dp4016
g73
(dp4017
g93
g94
ssg82
g4011
sg75
(lp4018
S'X-Powered-By'
p4019
asbag68
(g89
g70
NtRp4020
(dp4021
g73
(dp4022
g100
g101
ssg82
g4011
sg75
(lp4023
S':'
asbag68
(g89
g70
NtRp4024
(dp4025
g73
(dp4026
sg82
g4011
sg75
(lp4027
g68
(g69
g70
NtRp4028
(dp4029
g73
(dp4030
g81
I4
ssg82
g4024
sg75
(lp4031
S'web2py'
p4032
asbasbasbasbasbasbasbag68
(g84
g70
NtRp4033
(dp4034
g73
(dp4035
sg82
g3593
sg75
(lp4036
g68
(g89
g70
NtRp4037
(dp4038
g73
(dp4039
g93
g94
ssg82
g4033
sg75
(lp4040
S'menu'
p4041
asbag68
(g89
g70
NtRp4042
(dp4043
g73
(dp4044
g100
g101
ssg82
g4033
sg75
(lp4045
S':'
asbag68
(g89
g70
NtRp4046
(dp4047
g73
(dp4048
sg82
g4033
sg75
(lp4049
g68
(g69
g70
NtRp4050
(dp4051
g73
(dp4052
g81
I5
ssg82
g4046
sg75
(lp4053
g68
(g77
g70
NtRp4054
(dp4055
g73
(dp4056
g81
I4
ssg82
Nsg75
(lp4057
g68
(g84
g70
NtRp4058
(dp4059
g73
(dp4060
sg82
g4054
sg75
(lp4061
g68
(g89
g70
NtRp4062
(dp4063
g73
(dp4064
sg82
g4058
sg75
(lp4065
g68
(g69
g70
NtRp4066
(dp4067
g73
(dp4068
g81
I4
ssg82
g4062
sg75
(lp4069
g68
(g77
g70
NtRp4070
(dp4071
g73
(dp4072
g81
I3
ssg82
Nsg75
(lp4073
g68
(g84
g70
NtRp4074
(dp4075
g73
(dp4076
sg82
g4070
sg75
(lp4077
g68
(g89
g70
NtRp4078
(dp4079
g73
(dp4080
sg82
g4074
sg75
(lp4081
g68
(g69
g70
NtRp4082
(dp4083
g73
(dp4084
g81
I3
ssg82
g4078
sg75
(lp4085
cgluon.languages
lazyT_unpickle
p4086
(S't\x04\x00\x00\x00Home'
tRp4087
asbasbasbag68
(g84
g70
NtRp4088
(dp4089
g73
(dp4090
sg82
g4070
sg75
(lp4091
g68
(g89
g70
NtRp4092
(dp4093
g73
(dp4094
sg82
g4088
sg75
(lp4095
g68
(g69
g70
NtRp4096
(dp4097
g73
(dp4098
g81
I3
ssg82
g4092
sg75
(lp4099
g111
asbasbasbag68
(g84
g70
NtRp4100
(dp4101
g73
(dp4102
sg82
g4070
sg75
(lp4103
g68
(g89
g70
NtRp4104
(dp4105
g73
(dp4106
sg82
g4100
sg75
(lp4107
g68
(g69
g70
NtRp4108
(dp4109
g73
(dp4110
g81
I3
ssg82
g4104
sg75
(lp4111
S'/scrum/default/index'
p4112
asbasbasbag68
(g84
g70
NtRp4113
(dp4114
g73
(dp4115
sg82
g4070
sg75
(lp4116
g68
(g89
g70
NtRp4117
(dp4118
g73
(dp4119
sg82
g4113
sg75
(lp4120
g68
(g69
g70
NtRp4121
(dp4122
g73
(dp4123
g81
I3
ssg82
g4117
sg75
(lp4124
g68
(g77
g70
NtRp4125
(dp4126
g73
(dp4127
g81
I2
ssg82
Nsg75
(lp4128
sbasbasbasbasbasbasbasbag68
(g84
g70
NtRp4129
(dp4130
g73
(dp4131
sg82
g4054
sg75
(lp4132
g68
(g89
g70
NtRp4133
(dp4134
g73
(dp4135
sg82
g4129
sg75
(lp4136
g68
(g69
g70
NtRp4137
(dp4138
g73
(dp4139
g81
I4
ssg82
g4133
sg75
(lp4140
g68
(g77
g70
NtRp4141
(dp4142
g73
(dp4143
g81
I3
ssg82
Nsg75
(lp4144
g68
(g84
g70
NtRp4145
(dp4146
g73
(dp4147
sg82
g4141
sg75
(lp4148
g68
(g89
g70
NtRp4149
(dp4150
g73
(dp4151
sg82
g4145
sg75
(lp4152
g68
(g69
g70
NtRp4153
(dp4154
g73
(dp4155
g81
I3
ssg82
g4149
sg75
(lp4156
g4086
(S't\x03\x00\x00\x00BIV'
tRp4157
asbasbasbag68
(g84
g70
NtRp4158
(dp4159
g73
(dp4160
sg82
g4141
sg75
(lp4161
g68
(g89
g70
NtRp4162
(dp4163
g73
(dp4164
sg82
g4158
sg75
(lp4165
g68
(g69
g70
NtRp4166
(dp4167
g73
(dp4168
g81
I3
ssg82
g4162
sg75
(lp4169
g111
asbasbasbag68
(g84
g70
NtRp4170
(dp4171
g73
(dp4172
sg82
g4141
sg75
(lp4173
g68
(g89
g70
NtRp4174
(dp4175
g73
(dp4176
sg82
g4170
sg75
(lp4177
g68
(g69
g70
NtRp4178
(dp4179
g73
(dp4180
g81
I3
ssg82
g4174
sg75
(lp4181
S''
asbasbasbag68
(g84
g70
NtRp4182
(dp4183
g73
(dp4184
sg82
g4141
sg75
(lp4185
g68
(g89
g70
NtRp4186
(dp4187
g73
(dp4188
sg82
g4182
sg75
(lp4189
g68
(g69
g70
NtRp4190
(dp4191
g73
(dp4192
g81
I3
ssg82
g4186
sg75
(lp4193
g68
(g77
g70
NtRp4194
(dp4195
g73
(dp4196
g81
I2
ssg82
Nsg75
(lp4197
g68
(g84
g70
NtRp4198
(dp4199
g73
(dp4200
sg82
g4194
sg75
(lp4201
g68
(g89
g70
NtRp4202
(dp4203
g73
(dp4204
sg82
g4198
sg75
(lp4205
g68
(g69
g70
NtRp4206
(dp4207
g73
(dp4208
g81
I2
ssg82
g4202
sg75
(lp4209
g68
(g77
g70
NtRp4210
(dp4211
g73
(dp4212
g81
I1
ssg82
Nsg75
(lp4213
g68
(g84
g70
NtRp4214
(dp4215
g73
(dp4216
sg82
g4210
sg75
(lp4217
g68
(g89
g70
NtRp4218
(dp4219
g73
(dp4220
sg82
g4214
sg75
(lp4221
g68
(g69
g70
NtRp4222
(dp4223
g73
(dp4224
g81
I1
ssg82
g4218
sg75
(lp4225
g4086
(S't\x04\x00\x00\x00Novo'
tRp4226
asbasbasbag68
(g84
g70
NtRp4227
(dp4228
g73
(dp4229
sg82
g4210
sg75
(lp4230
g68
(g89
g70
NtRp4231
(dp4232
g73
(dp4233
sg82
g4227
sg75
(lp4234
g68
(g69
g70
NtRp4235
(dp4236
g73
(dp4237
g81
I1
ssg82
g4231
sg75
(lp4238
I00
asbasbasbag68
(g84
g70
NtRp4239
(dp4240
g73
(dp4241
sg82
g4210
sg75
(lp4242
g68
(g89
g70
NtRp4243
(dp4244
g73
(dp4245
sg82
g4239
sg75
(lp4246
g68
(g69
g70
NtRp4247
(dp4248
g73
(dp4249
g81
I1
ssg82
g4243
sg75
(lp4250
S'/scrum/default/novo_biv'
p4251
asbasbasbag68
(g84
g70
NtRp4252
(dp4253
g73
(dp4254
sg82
g4210
sg75
(lp4255
g68
(g89
g70
NtRp4256
(dp4257
g73
(dp4258
sg82
g4252
sg75
(lp4259
g68
(g69
g70
NtRp4260
(dp4261
g73
(dp4262
g81
I1
ssg82
g4256
sg75
(lp4263
(lp4264
asbasbasbasbasbasbasbag68
(g84
g70
NtRp4265
(dp4266
g73
(dp4267
sg82
g4194
sg75
(lp4268
g68
(g89
g70
NtRp4269
(dp4270
g73
(dp4271
sg82
g4265
sg75
(lp4272
g68
(g69
g70
NtRp4273
(dp4274
g73
(dp4275
g81
I2
ssg82
g4269
sg75
(lp4276
g68
(g77
g70
NtRp4277
(dp4278
g73
(dp4279
g81
I1
ssg82
Nsg75
(lp4280
g68
(g84
g70
NtRp4281
(dp4282
g73
(dp4283
sg82
g4277
sg75
(lp4284
g68
(g89
g70
NtRp4285
(dp4286
g73
(dp4287
sg82
g4281
sg75
(lp4288
g68
(g69
g70
NtRp4289
(dp4290
g73
(dp4291
g81
I1
ssg82
g4285
sg75
(lp4292
g4086
(S't\n\x00\x00\x00Selecionar'
tRp4293
asbasbasbag68
(g84
g70
NtRp4294
(dp4295
g73
(dp4296
sg82
g4277
sg75
(lp4297
g68
(g89
g70
NtRp4298
(dp4299
g73
(dp4300
sg82
g4294
sg75
(lp4301
g68
(g69
g70
NtRp4302
(dp4303
g73
(dp4304
g81
I1
ssg82
g4298
sg75
(lp4305
I00
asbasbasbag68
(g84
g70
NtRp4306
(dp4307
g73
(dp4308
sg82
g4277
sg75
(lp4309
g68
(g89
g70
NtRp4310
(dp4311
g73
(dp4312
sg82
g4306
sg75
(lp4313
g68
(g69
g70
NtRp4314
(dp4315
g73
(dp4316
g81
I1
ssg82
g4310
sg75
(lp4317
S'/scrum/default/selecionar_biv'
p4318
asbasbasbag68
(g84
g70
NtRp4319
(dp4320
g73
(dp4321
sg82
g4277
sg75
(lp4322
g68
(g89
g70
NtRp4323
(dp4324
g73
(dp4325
sg82
g4319
sg75
(lp4326
g68
(g69
g70
NtRp4327
(dp4328
g73
(dp4329
g81
I1
ssg82
g4323
sg75
(lp4330
(lp4331
asbasbasbasbasbasbasbasbasbasbasbasbasbasbasbag68
(g84
g70
NtRp4332
(dp4333
g73
(dp4334
sg82
g4054
sg75
(lp4335
g68
(g89
g70
NtRp4336
(dp4337
g73
(dp4338
sg82
g4332
sg75
(lp4339
g68
(g69
g70
NtRp4340
(dp4341
g73
(dp4342
g81
I4
ssg82
g4336
sg75
(lp4343
g68
(g77
g70
NtRp4344
(dp4345
g73
(dp4346
g81
I3
ssg82
Nsg75
(lp4347
g68
(g84
g70
NtRp4348
(dp4349
g73
(dp4350
sg82
g4344
sg75
(lp4351
g68
(g89
g70
NtRp4352
(dp4353
g73
(dp4354
sg82
g4348
sg75
(lp4355
g68
(g69
g70
NtRp4356
(dp4357
g73
(dp4358
g81
I3
ssg82
g4352
sg75
(lp4359
g4086
(S't\x07\x00\x00\x00Tickets'
tRp4360
asbasbasbag68
(g84
g70
NtRp4361
(dp4362
g73
(dp4363
sg82
g4344
sg75
(lp4364
g68
(g89
g70
NtRp4365
(dp4366
g73
(dp4367
sg82
g4361
sg75
(lp4368
g68
(g69
g70
NtRp4369
(dp4370
g73
(dp4371
g81
I3
ssg82
g4365
sg75
(lp4372
g111
asbasbasbag68
(g84
g70
NtRp4373
(dp4374
g73
(dp4375
sg82
g4344
sg75
(lp4376
g68
(g89
g70
NtRp4377
(dp4378
g73
(dp4379
sg82
g4373
sg75
(lp4380
g68
(g69
g70
NtRp4381
(dp4382
g73
(dp4383
g81
I3
ssg82
g4377
sg75
(lp4384
S'/scrum/ticket/index'
p4385
asbasbasbag68
(g84
g70
NtRp4386
(dp4387
g73
(dp4388
sg82
g4344
sg75
(lp4389
g68
(g89
g70
NtRp4390
(dp4391
g73
(dp4392
sg82
g4386
sg75
(lp4393
g68
(g69
g70
NtRp4394
(dp4395
g73
(dp4396
g81
I3
ssg82
g4390
sg75
(lp4397
g68
(g77
g70
NtRp4398
(dp4399
g73
(dp4400
g81
I2
ssg82
Nsg75
(lp4401
g68
(g84
g70
NtRp4402
(dp4403
g73
(dp4404
sg82
g4398
sg75
(lp4405
g68
(g89
g70
NtRp4406
(dp4407
g73
(dp4408
sg82
g4402
sg75
(lp4409
g68
(g69
g70
NtRp4410
(dp4411
g73
(dp4412
g81
I2
ssg82
g4406
sg75
(lp4413
g68
(g77
g70
NtRp4414
(dp4415
g73
(dp4416
g81
I1
ssg82
Nsg75
(lp4417
g68
(g84
g70
NtRp4418
(dp4419
g73
(dp4420
sg82
g4414
sg75
(lp4421
g68
(g89
g70
NtRp4422
(dp4423
g73
(dp4424
sg82
g4418
sg75
(lp4425
g68
(g69
g70
NtRp4426
(dp4427
g73
(dp4428
g81
I1
ssg82
g4422
sg75
(lp4429
g4086
(S't\x04\x00\x00\x00Novo'
tRp4430
asbasbasbag68
(g84
g70
NtRp4431
(dp4432
g73
(dp4433
sg82
g4414
sg75
(lp4434
g68
(g89
g70
NtRp4435
(dp4436
g73
(dp4437
sg82
g4431
sg75
(lp4438
g68
(g69
g70
NtRp4439
(dp4440
g73
(dp4441
g81
I1
ssg82
g4435
sg75
(lp4442
I00
asbasbasbag68
(g84
g70
NtRp4443
(dp4444
g73
(dp4445
sg82
g4414
sg75
(lp4446
g68
(g89
g70
NtRp4447
(dp4448
g73
(dp4449
sg82
g4443
sg75
(lp4450
g68
(g69
g70
NtRp4451
(dp4452
g73
(dp4453
g81
I1
ssg82
g4447
sg75
(lp4454
S'/scrum/ticket/novo'
p4455
asbasbasbag68
(g84
g70
NtRp4456
(dp4457
g73
(dp4458
sg82
g4414
sg75
(lp4459
g68
(g89
g70
NtRp4460
(dp4461
g73
(dp4462
sg82
g4456
sg75
(lp4463
g68
(g69
g70
NtRp4464
(dp4465
g73
(dp4466
g81
I1
ssg82
g4460
sg75
(lp4467
(lp4468
asbasbasbasbasbasbasbag68
(g84
g70
NtRp4469
(dp4470
g73
(dp4471
sg82
g4398
sg75
(lp4472
g68
(g89
g70
NtRp4473
(dp4474
g73
(dp4475
sg82
g4469
sg75
(lp4476
g68
(g69
g70
NtRp4477
(dp4478
g73
(dp4479
g81
I2
ssg82
g4473
sg75
(lp4480
g68
(g77
g70
NtRp4481
(dp4482
g73
(dp4483
g81
I1
ssg82
Nsg75
(lp4484
g68
(g84
g70
NtRp4485
(dp4486
g73
(dp4487
sg82
g4481
sg75
(lp4488
g68
(g89
g70
NtRp4489
(dp4490
g73
(dp4491
sg82
g4485
sg75
(lp4492
g68
(g69
g70
NtRp4493
(dp4494
g73
(dp4495
g81
I1
ssg82
g4489
sg75
(lp4496
g4086
(S't\n\x00\x00\x00Selecionar'
tRp4497
asbasbasbag68
(g84
g70
NtRp4498
(dp4499
g73
(dp4500
sg82
g4481
sg75
(lp4501
g68
(g89
g70
NtRp4502
(dp4503
g73
(dp4504
sg82
g4498
sg75
(lp4505
g68
(g69
g70
NtRp4506
(dp4507
g73
(dp4508
g81
I1
ssg82
g4502
sg75
(lp4509
I00
asbasbasbag68
(g84
g70
NtRp4510
(dp4511
g73
(dp4512
sg82
g4481
sg75
(lp4513
g68
(g89
g70
NtRp4514
(dp4515
g73
(dp4516
sg82
g4510
sg75
(lp4517
g68
(g69
g70
NtRp4518
(dp4519
g73
(dp4520
g81
I1
ssg82
g4514
sg75
(lp4521
S'/scrum/ticket/index'
p4522
asbasbasbag68
(g84
g70
NtRp4523
(dp4524
g73
(dp4525
sg82
g4481
sg75
(lp4526
g68
(g89
g70
NtRp4527
(dp4528
g73
(dp4529
sg82
g4523
sg75
(lp4530
g68
(g69
g70
NtRp4531
(dp4532
g73
(dp4533
g81
I1
ssg82
g4527
sg75
(lp4534
(lp4535
asbasbasbasbasbasbasbasbasbasbasbasbasbasbasbag68
(g84
g70
NtRp4536
(dp4537
g73
(dp4538
sg82
g4054
sg75
(lp4539
g68
(g89
g70
NtRp4540
(dp4541
g73
(dp4542
sg82
g4536
sg75
(lp4543
g68
(g69
g70
NtRp4544
(dp4545
g73
(dp4546
g81
I4
ssg82
g4540
sg75
(lp4547
g68
(g77
g70
NtRp4548
(dp4549
g73
(dp4550
g81
I3
ssg82
Nsg75
(lp4551
g68
(g84
g70
NtRp4552
(dp4553
g73
(dp4554
sg82
g4548
sg75
(lp4555
g68
(g89
g70
NtRp4556
(dp4557
g73
(dp4558
sg82
g4552
sg75
(lp4559
g68
(g69
g70
NtRp4560
(dp4561
g73
(dp4562
g81
I3
ssg82
g4556
sg75
(lp4563
g4086
(S't\x06\x00\x00\x00Sprint'
tRp4564
asbasbasbag68
(g84
g70
NtRp4565
(dp4566
g73
(dp4567
sg82
g4548
sg75
(lp4568
g68
(g89
g70
NtRp4569
(dp4570
g73
(dp4571
sg82
g4565
sg75
(lp4572
g68
(g69
g70
NtRp4573
(dp4574
g73
(dp4575
g81
I3
ssg82
g4569
sg75
(lp4576
g111
asbasbasbag68
(g84
g70
NtRp4577
(dp4578
g73
(dp4579
sg82
g4548
sg75
(lp4580
g68
(g89
g70
NtRp4581
(dp4582
g73
(dp4583
sg82
g4577
sg75
(lp4584
g68
(g69
g70
NtRp4585
(dp4586
g73
(dp4587
g81
I3
ssg82
g4581
sg75
(lp4588
S''
asbasbasbag68
(g84
g70
NtRp4589
(dp4590
g73
(dp4591
sg82
g4548
sg75
(lp4592
g68
(g89
g70
NtRp4593
(dp4594
g73
(dp4595
sg82
g4589
sg75
(lp4596
g68
(g69
g70
NtRp4597
(dp4598
g73
(dp4599
g81
I3
ssg82
g4593
sg75
(lp4600
g68
(g77
g70
NtRp4601
(dp4602
g73
(dp4603
g81
I2
ssg82
Nsg75
(lp4604
g68
(g84
g70
NtRp4605
(dp4606
g73
(dp4607
sg82
g4601
sg75
(lp4608
g68
(g89
g70
NtRp4609
(dp4610
g73
(dp4611
sg82
g4605
sg75
(lp4612
g68
(g69
g70
NtRp4613
(dp4614
g73
(dp4615
g81
I2
ssg82
g4609
sg75
(lp4616
g68
(g77
g70
NtRp4617
(dp4618
g73
(dp4619
g81
I1
ssg82
Nsg75
(lp4620
g68
(g84
g70
NtRp4621
(dp4622
g73
(dp4623
sg82
g4617
sg75
(lp4624
g68
(g89
g70
NtRp4625
(dp4626
g73
(dp4627
sg82
g4621
sg75
(lp4628
g68
(g69
g70
NtRp4629
(dp4630
g73
(dp4631
g81
I1
ssg82
g4625
sg75
(lp4632
g4086
(S't\x04\x00\x00\x00Novo'
tRp4633
asbasbasbag68
(g84
g70
NtRp4634
(dp4635
g73
(dp4636
sg82
g4617
sg75
(lp4637
g68
(g89
g70
NtRp4638
(dp4639
g73
(dp4640
sg82
g4634
sg75
(lp4641
g68
(g69
g70
NtRp4642
(dp4643
g73
(dp4644
g81
I1
ssg82
g4638
sg75
(lp4645
I00
asbasbasbag68
(g84
g70
NtRp4646
(dp4647
g73
(dp4648
sg82
g4617
sg75
(lp4649
g68
(g89
g70
NtRp4650
(dp4651
g73
(dp4652
sg82
g4646
sg75
(lp4653
g68
(g69
g70
NtRp4654
(dp4655
g73
(dp4656
g81
I1
ssg82
g4650
sg75
(lp4657
S'/scrum/sprint/novo'
p4658
asbasbasbag68
(g84
g70
NtRp4659
(dp4660
g73
(dp4661
sg82
g4617
sg75
(lp4662
g68
(g89
g70
NtRp4663
(dp4664
g73
(dp4665
sg82
g4659
sg75
(lp4666
g68
(g69
g70
NtRp4667
(dp4668
g73
(dp4669
g81
I1
ssg82
g4663
sg75
(lp4670
(lp4671
asbasbasbasbasbasbasbag68
(g84
g70
NtRp4672
(dp4673
g73
(dp4674
sg82
g4601
sg75
(lp4675
g68
(g89
g70
NtRp4676
(dp4677
g73
(dp4678
sg82
g4672
sg75
(lp4679
g68
(g69
g70
NtRp4680
(dp4681
g73
(dp4682
g81
I2
ssg82
g4676
sg75
(lp4683
g68
(g77
g70
NtRp4684
(dp4685
g73
(dp4686
g81
I1
ssg82
Nsg75
(lp4687
g68
(g84
g70
NtRp4688
(dp4689
g73
(dp4690
sg82
g4684
sg75
(lp4691
g68
(g89
g70
NtRp4692
(dp4693
g73
(dp4694
sg82
g4688
sg75
(lp4695
g68
(g69
g70
NtRp4696
(dp4697
g73
(dp4698
g81
I1
ssg82
g4692
sg75
(lp4699
g4086
(S't\n\x00\x00\x00Selecionar'
tRp4700
asbasbasbag68
(g84
g70
NtRp4701
(dp4702
g73
(dp4703
sg82
g4684
sg75
(lp4704
g68
(g89
g70
NtRp4705
(dp4706
g73
(dp4707
sg82
g4701
sg75
(lp4708
g68
(g69
g70
NtRp4709
(dp4710
g73
(dp4711
g81
I1
ssg82
g4705
sg75
(lp4712
I00
asbasbasbag68
(g84
g70
NtRp4713
(dp4714
g73
(dp4715
sg82
g4684
sg75
(lp4716
g68
(g89
g70
NtRp4717
(dp4718
g73
(dp4719
sg82
g4713
sg75
(lp4720
g68
(g69
g70
NtRp4721
(dp4722
g73
(dp4723
g81
I1
ssg82
g4717
sg75
(lp4724
S'/scrum/sprint/index'
p4725
asbasbasbag68
(g84
g70
NtRp4726
(dp4727
g73
(dp4728
sg82
g4684
sg75
(lp4729
g68
(g89
g70
NtRp4730
(dp4731
g73
(dp4732
sg82
g4726
sg75
(lp4733
g68
(g69
g70
NtRp4734
(dp4735
g73
(dp4736
g81
I1
ssg82
g4730
sg75
(lp4737
(lp4738
asbasbasbasbasbasbasbasbasbasbasbasbasbasbasbag68
(g84
g70
NtRp4739
(dp4740
g73
(dp4741
sg82
g4054
sg75
(lp4742
g68
(g89
g70
NtRp4743
(dp4744
g73
(dp4745
sg82
g4739
sg75
(lp4746
g68
(g69
g70
NtRp4747
(dp4748
g73
(dp4749
g81
I4
ssg82
g4743
sg75
(lp4750
g68
(g77
g70
NtRp4751
(dp4752
g73
(dp4753
g81
I3
ssg82
Nsg75
(lp4754
g68
(g84
g70
NtRp4755
(dp4756
g73
(dp4757
sg82
g4751
sg75
(lp4758
g68
(g89
g70
NtRp4759
(dp4760
g73
(dp4761
sg82
g4755
sg75
(lp4762
g68
(g69
g70
NtRp4763
(dp4764
g73
(dp4765
g81
I3
ssg82
g4759
sg75
(lp4766
g4086
(S't\x06\x00\x00\x00Config'
tRp4767
asbasbasbag68
(g84
g70
NtRp4768
(dp4769
g73
(dp4770
sg82
g4751
sg75
(lp4771
g68
(g89
g70
NtRp4772
(dp4773
g73
(dp4774
sg82
g4768
sg75
(lp4775
g68
(g69
g70
NtRp4776
(dp4777
g73
(dp4778
g81
I3
ssg82
g4772
sg75
(lp4779
g111
asbasbasbag68
(g84
g70
NtRp4780
(dp4781
g73
(dp4782
sg82
g4751
sg75
(lp4783
g68
(g89
g70
NtRp4784
(dp4785
g73
(dp4786
sg82
g4780
sg75
(lp4787
g68
(g69
g70
NtRp4788
(dp4789
g73
(dp4790
g81
I3
ssg82
g4784
sg75
(lp4791
S''
asbasbasbag68
(g84
g70
NtRp4792
(dp4793
g73
(dp4794
sg82
g4751
sg75
(lp4795
g68
(g89
g70
NtRp4796
(dp4797
g73
(dp4798
sg82
g4792
sg75
(lp4799
g68
(g69
g70
NtRp4800
(dp4801
g73
(dp4802
g81
I3
ssg82
g4796
sg75
(lp4803
g68
(g77
g70
NtRp4804
(dp4805
g73
(dp4806
g81
I2
ssg82
Nsg75
(lp4807
g68
(g84
g70
NtRp4808
(dp4809
g73
(dp4810
sg82
g4804
sg75
(lp4811
g68
(g89
g70
NtRp4812
(dp4813
g73
(dp4814
sg82
g4808
sg75
(lp4815
g68
(g69
g70
NtRp4816
(dp4817
g73
(dp4818
g81
I2
ssg82
g4812
sg75
(lp4819
g68
(g77
g70
NtRp4820
(dp4821
g73
(dp4822
g81
I1
ssg82
Nsg75
(lp4823
g68
(g84
g70
NtRp4824
(dp4825
g73
(dp4826
sg82
g4820
sg75
(lp4827
g68
(g89
g70
NtRp4828
(dp4829
g73
(dp4830
sg82
g4824
sg75
(lp4831
g68
(g69
g70
NtRp4832
(dp4833
g73
(dp4834
g81
I1
ssg82
g4828
sg75
(lp4835
g4086
(S't\x05\x00\x00\x00Geral'
tRp4836
asbasbasbag68
(g84
g70
NtRp4837
(dp4838
g73
(dp4839
sg82
g4820
sg75
(lp4840
g68
(g89
g70
NtRp4841
(dp4842
g73
(dp4843
sg82
g4837
sg75
(lp4844
g68
(g69
g70
NtRp4845
(dp4846
g73
(dp4847
g81
I1
ssg82
g4841
sg75
(lp4848
I00
asbasbasbag68
(g84
g70
NtRp4849
(dp4850
g73
(dp4851
sg82
g4820
sg75
(lp4852
g68
(g89
g70
NtRp4853
(dp4854
g73
(dp4855
sg82
g4849
sg75
(lp4856
g68
(g69
g70
NtRp4857
(dp4858
g73
(dp4859
g81
I1
ssg82
g4853
sg75
(lp4860
S'/scrum/config/index'
p4861
asbasbasbag68
(g84
g70
NtRp4862
(dp4863
g73
(dp4864
sg82
g4820
sg75
(lp4865
g68
(g89
g70
NtRp4866
(dp4867
g73
(dp4868
sg82
g4862
sg75
(lp4869
g68
(g69
g70
NtRp4870
(dp4871
g73
(dp4872
g81
I1
ssg82
g4866
sg75
(lp4873
(lp4874
asbasbasbasbasbasbasbag68
(g84
g70
NtRp4875
(dp4876
g73
(dp4877
sg82
g4804
sg75
(lp4878
g68
(g89
g70
NtRp4879
(dp4880
g73
(dp4881
sg82
g4875
sg75
(lp4882
g68
(g69
g70
NtRp4883
(dp4884
g73
(dp4885
g81
I2
ssg82
g4879
sg75
(lp4886
g68
(g77
g70
NtRp4887
(dp4888
g73
(dp4889
g81
I1
ssg82
Nsg75
(lp4890
g68
(g84
g70
NtRp4891
(dp4892
g73
(dp4893
sg82
g4887
sg75
(lp4894
g68
(g89
g70
NtRp4895
(dp4896
g73
(dp4897
sg82
g4891
sg75
(lp4898
g68
(g69
g70
NtRp4899
(dp4900
g73
(dp4901
g81
I1
ssg82
g4895
sg75
(lp4902
g4086
(S's\x12\x00\x00\x00Estados de Tickets'
tRp4903
asbasbasbag68
(g84
g70
NtRp4904
(dp4905
g73
(dp4906
sg82
g4887
sg75
(lp4907
g68
(g89
g70
NtRp4908
(dp4909
g73
(dp4910
sg82
g4904
sg75
(lp4911
g68
(g69
g70
NtRp4912
(dp4913
g73
(dp4914
g81
I1
ssg82
g4908
sg75
(lp4915
I00
asbasbasbag68
(g84
g70
NtRp4916
(dp4917
g73
(dp4918
sg82
g4887
sg75
(lp4919
g68
(g89
g70
NtRp4920
(dp4921
g73
(dp4922
sg82
g4916
sg75
(lp4923
g68
(g69
g70
NtRp4924
(dp4925
g73
(dp4926
g81
I1
ssg82
g4920
sg75
(lp4927
S'/scrum/config/estado_ticket'
p4928
asbasbasbag68
(g84
g70
NtRp4929
(dp4930
g73
(dp4931
sg82
g4887
sg75
(lp4932
g68
(g89
g70
NtRp4933
(dp4934
g73
(dp4935
sg82
g4929
sg75
(lp4936
g68
(g69
g70
NtRp4937
(dp4938
g73
(dp4939
g81
I1
ssg82
g4933
sg75
(lp4940
(lp4941
asbasbasbasbasbasbasbasbasbasbasbasbasbasbasbasbasbasbasbag68
(g84
g70
NtRp4942
(dp4943
g73
(dp4944
sg82
g3593
sg75
(lp4945
g68
(g89
g70
NtRp4946
(dp4947
g73
(dp4948
g93
g94
ssg82
g4942
sg75
(lp4949
S'meta'
p4950
asbag68
(g89
g70
NtRp4951
(dp4952
g73
(dp4953
g100
g101
ssg82
g4942
sg75
(lp4954
S':'
asbag68
(g89
g70
NtRp4955
(dp4956
g73
(dp4957
sg82
g4942
sg75
(lp4958
g68
(g69
g70
NtRp4959
(dp4960
g73
(dp4961
g81
I5
ssg82
g4955
sg75
(lp4962
g68
(g77
g70
NtRp4963
(dp4964
g73
(dp4965
g81
I4
ssg82
Nsg75
(lp4966
g68
(g84
g70
NtRp4967
(dp4968
g73
(dp4969
sg82
g4963
sg75
(lp4970
g68
(g89
g70
NtRp4971
(dp4972
g73
(dp4973
g93
g94
ssg82
g4967
sg75
(lp4974
S'author'
p4975
asbag68
(g89
g70
NtRp4976
(dp4977
g73
(dp4978
g100
g101
ssg82
g4967
sg75
(lp4979
S':'
asbag68
(g89
g70
NtRp4980
(dp4981
g73
(dp4982
sg82
g4967
sg75
(lp4983
g68
(g69
g70
NtRp4984
(dp4985
g73
(dp4986
g81
I4
ssg82
g4980
sg75
(lp4987
S'Carlos J. Costa'
p4988
asbasbasbag68
(g84
g70
NtRp4989
(dp4990
g73
(dp4991
sg82
g4963
sg75
(lp4992
g68
(g89
g70
NtRp4993
(dp4994
g73
(dp4995
g93
g94
ssg82
g4989
sg75
(lp4996
S'copyright'
p4997
asbag68
(g89
g70
NtRp4998
(dp4999
g73
(dp5000
g100
g101
ssg82
g4989
sg75
(lp5001
S':'
asbag68
(g89
g70
NtRp5002
(dp5003
g73
(dp5004
sg82
g4989
sg75
(lp5005
g68
(g69
g70
NtRp5006
(dp5007
g73
(dp5008
g81
I4
ssg82
g5002
sg75
(lp5009
S'Copyright 2007-2010'
p5010
asbasbasbag68
(g84
g70
NtRp5011
(dp5012
g73
(dp5013
sg82
g4963
sg75
(lp5014
g68
(g89
g70
NtRp5015
(dp5016
g73
(dp5017
g93
g94
ssg82
g5011
sg75
(lp5018
S'description'
p5019
asbag68
(g89
g70
NtRp5020
(dp5021
g73
(dp5022
g100
g101
ssg82
g5011
sg75
(lp5023
S':'
asbag68
(g89
g70
NtRp5024
(dp5025
g73
(dp5026
sg82
g5011
sg75
(lp5027
g68
(g69
g70
NtRp5028
(dp5029
g73
(dp5030
g81
I4
ssg82
g5024
sg75
(lp5031
S'Development track'
p5032
asbasbasbag68
(g84
g70
NtRp5033
(dp5034
g73
(dp5035
sg82
g4963
sg75
(lp5036
g68
(g89
g70
NtRp5037
(dp5038
g73
(dp5039
g93
g94
ssg82
g5033
sg75
(lp5040
S'generator'
p5041
asbag68
(g89
g70
NtRp5042
(dp5043
g73
(dp5044
g100
g101
ssg82
g5033
sg75
(lp5045
S':'
asbag68
(g89
g70
NtRp5046
(dp5047
g73
(dp5048
sg82
g5033
sg75
(lp5049
g68
(g69
g70
NtRp5050
(dp5051
g73
(dp5052
g81
I4
ssg82
g5046
sg75
(lp5053
S'Web2py Enterprise Framework'
p5054
asbasbasbag68
(g84
g70
NtRp5055
(dp5056
g73
(dp5057
sg82
g4963
sg75
(lp5058
g68
(g89
g70
NtRp5059
(dp5060
g73
(dp5061
g93
g94
ssg82
g5055
sg75
(lp5062
S'keywords'
p5063
asbag68
(g89
g70
NtRp5064
(dp5065
g73
(dp5066
g100
g101
ssg82
g5055
sg75
(lp5067
S':'
asbag68
(g89
g70
NtRp5068
(dp5069
g73
(dp5070
sg82
g5055
sg75
(lp5071
g68
(g69
g70
NtRp5072
(dp5073
g73
(dp5074
g81
I4
ssg82
g5068
sg75
(lp5075
S'test, issue'
p5076
asbasbasbasbasbasbasbag68
(g84
g70
NtRp5077
(dp5078
g73
(dp5079
sg82
g3593
sg75
(lp5080
g68
(g89
g70
NtRp5081
(dp5082
g73
(dp5083
g93
g94
ssg82
g5077
sg75
(lp5084
S'postprocessing'
p5085
asbag68
(g89
g70
NtRp5086
(dp5087
g73
(dp5088
g100
g101
ssg82
g5077
sg75
(lp5089
S':'
asbag68
(g89
g70
NtRp5090
(dp5091
g73
(dp5092
sg82
g5077
sg75
(lp5093
g68
(g69
g70
NtRp5094
(dp5095
g73
(dp5096
g81
I5
ssg82
g5090
sg75
(lp5097
g68
(g77
g70
NtRp5098
(dp5099
g73
(dp5100
g81
I4
ssg82
Nsg75
(lp5101
sbasbasbasbag68
(g84
g70
NtRp5102
(dp5103
g73
(dp5104
sg82
g3593
sg75
(lp5105
g68
(g89
g70
NtRp5106
(dp5107
g73
(dp5108
g93
g94
ssg82
g5102
sg75
(lp5109
S'session_file'
p5110
asbag68
(g89
g70
NtRp5111
(dp5112
g73
(dp5113
g100
g101
ssg82
g5102
sg75
(lp5114
S':'
asbag68
(g89
g70
NtRp5115
(dp5116
g73
(dp5117
sg82
g5102
sg75
(lp5118
g68
(g69
g70
NtRp5119
(dp5120
g73
(dp5121
g81
I5
ssg82
g5115
sg75
(lp5122
S"<open file '/home/www-data/web2py/applications/scrum/sessions/127.0.0.1-8741b6aa-dd8d-45b3-88a3-6f21c23a3c79', mode 'rb+' at 0xb8e5f860>"
p5123
asbasbasbag68
(g84
g70
NtRp5124
(dp5125
g73
(dp5126
sg82
g3593
sg75
(lp5127
g68
(g89
g70
NtRp5128
(dp5129
g73
(dp5130
g93
g94
ssg82
g5124
sg75
(lp5131
S'session_filename'
p5132
asbag68
(g89
g70
NtRp5133
(dp5134
g73
(dp5135
g100
g101
ssg82
g5124
sg75
(lp5136
S':'
asbag68
(g89
g70
NtRp5137
(dp5138
g73
(dp5139
sg82
g5124
sg75
(lp5140
g68
(g69
g70
NtRp5141
(dp5142
g73
(dp5143
g81
I5
ssg82
g5137
sg75
(lp5144
S'/home/www-data/web2py/applications/scrum/sessions/127.0.0.1-8741b6aa-dd8d-45b3-88a3-6f21c23a3c79'
p5145
asbasbasbag68
(g84
g70
NtRp5146
(dp5147
g73
(dp5148
sg82
g3593
sg75
(lp5149
g68
(g89
g70
NtRp5150
(dp5151
g73
(dp5152
g93
g94
ssg82
g5146
sg75
(lp5153
S'session_id'
p5154
asbag68
(g89
g70
NtRp5155
(dp5156
g73
(dp5157
g100
g101
ssg82
g5146
sg75
(lp5158
S':'
asbag68
(g89
g70
NtRp5159
(dp5160
g73
(dp5161
sg82
g5146
sg75
(lp5162
g68
(g69
g70
NtRp5163
(dp5164
g73
(dp5165
g81
I5
ssg82
g5159
sg75
(lp5166
S'127.0.0.1-8741b6aa-dd8d-45b3-88a3-6f21c23a3c79'
p5167
asbasbasbag68
(g84
g70
NtRp5168
(dp5169
g73
(dp5170
sg82
g3593
sg75
(lp5171
g68
(g89
g70
NtRp5172
(dp5173
g73
(dp5174
g93
g94
ssg82
g5168
sg75
(lp5175
S'session_id_name'
p5176
asbag68
(g89
g70
NtRp5177
(dp5178
g73
(dp5179
g100
g101
ssg82
g5168
sg75
(lp5180
S':'
asbag68
(g89
g70
NtRp5181
(dp5182
g73
(dp5183
sg82
g5168
sg75
(lp5184
g68
(g69
g70
NtRp5185
(dp5186
g73
(dp5187
g81
I5
ssg82
g5181
sg75
(lp5188
g3650
asbasbasbag68
(g84
g70
NtRp5189
(dp5190
g73
(dp5191
sg82
g3593
sg75
(lp5192
g68
(g89
g70
NtRp5193
(dp5194
g73
(dp5195
g93
g94
ssg82
g5189
sg75
(lp5196
S'session_locked'
p5197
asbag68
(g89
g70
NtRp5198
(dp5199
g73
(dp5200
g100
g101
ssg82
g5189
sg75
(lp5201
S':'
asbag68
(g89
g70
NtRp5202
(dp5203
g73
(dp5204
sg82
g5189
sg75
(lp5205
g68
(g69
g70
NtRp5206
(dp5207
g73
(dp5208
g81
I5
ssg82
g5202
sg75
(lp5209
g1799
asbasbasbag68
(g84
g70
NtRp5210
(dp5211
g73
(dp5212
sg82
g3593
sg75
(lp5213
g68
(g89
g70
NtRp5214
(dp5215
g73
(dp5216
g93
g94
ssg82
g5210
sg75
(lp5217
S'session_new'
p5218
asbag68
(g89
g70
NtRp5219
(dp5220
g73
(dp5221
g100
g101
ssg82
g5210
sg75
(lp5222
S':'
asbag68
(g89
g70
NtRp5223
(dp5224
g73
(dp5225
sg82
g5210
sg75
(lp5226
g68
(g69
g70
NtRp5227
(dp5228
g73
(dp5229
g81
I5
ssg82
g5223
sg75
(lp5230
g111
asbasbasbag68
(g84
g70
NtRp5231
(dp5232
g73
(dp5233
sg82
g3593
sg75
(lp5234
g68
(g89
g70
NtRp5235
(dp5236
g73
(dp5237
g93
g94
ssg82
g5231
sg75
(lp5238
S'status'
p5239
asbag68
(g89
g70
NtRp5240
(dp5241
g73
(dp5242
g100
g101
ssg82
g5231
sg75
(lp5243
S':'
asbag68
(g89
g70
NtRp5244
(dp5245
g73
(dp5246
sg82
g5231
sg75
(lp5247
g68
(g69
g70
NtRp5248
(dp5249
g73
(dp5250
g81
I5
ssg82
g5244
sg75
(lp5251
S'200'
p5252
asbasbasbag68
(g84
g70
NtRp5253
(dp5254
g73
(dp5255
sg82
g3593
sg75
(lp5256
g68
(g89
g70
NtRp5257
(dp5258
g73
(dp5259
g93
g94
ssg82
g5253
sg75
(lp5260
S'subtitle'
p5261
asbag68
(g89
g70
NtRp5262
(dp5263
g73
(dp5264
g100
g101
ssg82
g5253
sg75
(lp5265
S':'
asbag68
(g89
g70
NtRp5266
(dp5267
g73
(dp5268
sg82
g5253
sg75
(lp5269
g68
(g69
g70
NtRp5270
(dp5271
g73
(dp5272
g81
I5
ssg82
g5266
sg75
(lp5273
S'Editar Sprint'
p5274
asbasbasbag68
(g84
g70
NtRp5275
(dp5276
g73
(dp5277
sg82
g3593
sg75
(lp5278
g68
(g89
g70
NtRp5279
(dp5280
g73
(dp5281
g93
g94
ssg82
g5275
sg75
(lp5282
S'title'
p5283
asbag68
(g89
g70
NtRp5284
(dp5285
g73
(dp5286
g100
g101
ssg82
g5275
sg75
(lp5287
S':'
asbag68
(g89
g70
NtRp5288
(dp5289
g73
(dp5290
sg82
g5275
sg75
(lp5291
g68
(g69
g70
NtRp5292
(dp5293
g73
(dp5294
g81
I5
ssg82
g5288
sg75
(lp5295
g133
asbasbasbag68
(g84
g70
NtRp5296
(dp5297
g73
(dp5298
sg82
g3593
sg75
(lp5299
g68
(g89
g70
NtRp5300
(dp5301
g73
(dp5302
g93
g94
ssg82
g5296
sg75
(lp5303
g2144
asbag68
(g89
g70
NtRp5304
(dp5305
g73
(dp5306
g100
g101
ssg82
g5296
sg75
(lp5307
S':'
asbag68
(g89
g70
NtRp5308
(dp5309
g73
(dp5310
sg82
g5296
sg75
(lp5311
g68
(g69
g70
NtRp5312
(dp5313
g73
(dp5314
g81
I5
ssg82
g5308
sg75
(lp5315
g2157
asbasbasbag68
(g84
g70
NtRp5316
(dp5317
g73
(dp5318
sg82
g3593
sg75
(lp5319
g68
(g89
g70
NtRp5320
(dp5321
g73
(dp5322
g93
g94
ssg82
g5316
sg75
(lp5323
S'view'
p5324
asbag68
(g89
g70
NtRp5325
(dp5326
g73
(dp5327
g100
g101
ssg82
g5316
sg75
(lp5328
S':'
asbag68
(g89
g70
NtRp5329
(dp5330
g73
(dp5331
sg82
g5316
sg75
(lp5332
g68
(g69
g70
NtRp5333
(dp5334
g73
(dp5335
g81
I5
ssg82
g5329
sg75
(lp5336
S'sprint/editar.html'
p5337
asbasbasbasbasbsS'locals'
p5338
(dp5339
g3
S"'/home/www-data/web2py/applications/scrum/views/sprint/editar.html'"
p5340
sg5
S'\'response.write(\\\'<!DOCTYPE html>\\\\n<html lang="\\\', ...    -->    \\\\n  </body>\\\\n</html>\\\\n\\\', escape=False)\''
p5341
sssS'traceback'
p5342
S'Traceback (most recent call last):\n  File "/home/www-data/web2py/gluon/restricted.py", line 191, in restricted\n    ccode = compile2(code,layer)\n  File "/home/www-data/web2py/gluon/restricted.py", line 178, in compile2\n    return compile(code.rstrip().replace(\'\\r\\n\',\'\\n\')+\'\\n\', layer, \'exec\')\n  File "/home/www-data/web2py/applications/scrum/views/sprint/editar.html", line 99\n    response.write(form}\n                       ^\nSyntaxError: invalid syntax\n'
p5343
s.