(dp1
S'output'
p2
S''
sS'layer'
p3
S'/home/www-data/web2py/applications/scrum/models/db1.py'
p4
sS'code'
p5
S"#coding: utf8\nBRAZILIAN_DATE = IS_DATE(format=T('%Y-%m-%d'), error_message=T('deve ser dd/mm/yyyy!'))\n\ndb.define_table('config',\n                Field('grupo_desenvolvedor',db.auth_group),\n                Field('grupo_consultor',db.auth_group),\n                Field('grupo_administrador',db.auth_group))                           \n\n#redirect(URL(r=request,c='config',f='index'))\n#config = db(db.config).select().first()\n#db.config.insert()\nconfig = db(db.config).select()[0]\n\ndb.define_table('biv',\n                Field('numero','integer'),\n                Field('data','date',requires= BRAZILIAN_DATE),\n                Field('versao'))\ndb.biv.id.represent = lambda id: A('Editar BIV %i' % db.biv[id].numero,_href=URL(r=request,f='edita_biv',args=[id]))                                                       \n\ndb.define_table('menu',\n                Field('caminho'))\n               \ndb.define_table('menu_dom',\n                Field('codigo'),\n                Field('descricao'),\n                Field('nome'),\n                Field('modulo'))\n           \ndb.define_table('modulo',\n                Field('codigo','integer'),\n                Field('nome'))\n               \ndb.define_table('sprint',\n                Field('numero'),\n                Field('inicio','date',requires=BRAZILIAN_DATE),\n                Field('fim','date',requires=BRAZILIAN_DATE))\ndb.sprint.id.represent = lambda id: A('Editar %i' % id, _href=URL(r=request,c='sprint',f='editar',args=[id]))\n\ndb.define_table('estado_ticket',\n                Field('nome'))\ndb.estado_ticket.id.represent = lambda id: A('Editar %i' % id,_href=URL(r=request,c='config',f='estado_ticket',args=[id]))\n\ndb.define_table('sistema',\n                Field('nome'))\ndb.define_table('cliente',\n                Field('nome'))                \n\ndb.define_table('ticket',\n                Field('chamado'),\n                Field('sprint',db.sprint), \n                Field('consultor',db.auth_user),\n                Field('analista',db.auth_user),\n                Field('estado',db.estado_ticket),\n                Field('patch','boolean'),\n                Field('local_teste'),\n                Field('inicio','date',requires=brazilian_date),\n                Field('fim','date',requires=brazilian_date  ),\n                Field('sistema',db.sistema ),\n                Field('cliente',db.cliente)) \ndb.ticket.id.represent = lambda id: A('Editar %i' % id,_href=URL(r=request,c='ticket',f='editar',args=[id]))\ndb.ticket.analista.requires = IS_IN_DB(db((db.auth_user.id == db.auth_membership.user_id) & (db.auth_membership.group_id==config.grupo_desenvolvedor)),\n                                       db.auth_user.id,'%(first_name)s',\n                                       zero='Sem desenvolvedores')                                        \ndb.ticket.estado.requires = IS_IN_DB(db,db.estado_ticket.id,'%(nome)s')\ndb.ticket.sprint.requires = IS_IN_DB(db,db.sprint.id,'Sprint %(numero)s')\ndb.ticket.sistema.requires = IS_IN_DB(db,db.sistema.id,'%(nome)s')\ndb.ticket.cliente.requires = IS_IN_DB(db,db.cliente.id,'%(nome)s')\n               \ndb.define_table('caso_teste',\n                Field('ticket',db.ticket),\n                Field('acao','text'),\n                Field('resultado','text'),\n                Field('anexo','upload'), \n                Field('ordem','integer'))\n\ndb.define_table('item_biv',\n                Field('biv',db.biv),\n                Field('ticket',db.ticket), \n                Field('menu','text',widget=SQLFORM.widgets.autocomplete(request,db.menu.caminho,limitby=(0,10), min_length=2)),\n                Field('modulo',widget=SQLFORM.widgets.autocomplete(request,db.modulo.nome,limitby=(0,10), min_length=2)),\n                Field('texto','text'))\n\ndb.define_table('teste',\n                Field('ticket',db.ticket),\n                Field('caso',db.caso_teste),\n                Field('data','date'), \n                Field('resultado','text'),\n                Field('conclusao'))      \n              \nconfig = db(db.config).select().first()\n\ndb.item_biv.id.represent = lambda id: SPAN(A('Editar',_href=URL(r=request,c='default',f='edita_biv',args=[db.item_biv[id].biv,id])))                \n               \ndef insere_menu(form):       \n    if len(form.vars.menu) > 0:\n       db.menu.insert(caminho=form.vars.menu) \n\ndef insere_modulo(form):\n    if len(form.vars.modulo) > 0:\n       db.modulo.insert(nome=form.vars.modulo)        \n      \ncrud.settings.create_onaccept.item_biv.append(lambda form: insere_menu(form))\ncrud.settings.create_onaccept.item_biv.append(lambda form: insere_modulo(form))\n"
p6
sS'snapshot'
p7
(dp8
S'exception'
p9
(dp10
S'__hash__'
p11
S"<method-wrapper '__hash__' of exceptions.NameError object>"
p12
sS'__setattr__'
p13
S"<method-wrapper '__setattr__' of exceptions.NameError object>"
p14
sS'__reduce_ex__'
p15
S'<built-in method __reduce_ex__ of exceptions.NameError object>'
p16
sS'__getslice__'
p17
S"<method-wrapper '__getslice__' of exceptions.NameError object>"
p18
sS'__getitem__'
p19
S"<method-wrapper '__getitem__' of exceptions.NameError object>"
p20
sS'__setstate__'
p21
S'<built-in method __setstate__ of exceptions.NameError object>'
p22
sS'__reduce__'
p23
S'<built-in method __reduce__ of exceptions.NameError object>'
p24
sS'__str__'
p25
S"<method-wrapper '__str__' of exceptions.NameError object>"
p26
sS'__format__'
p27
S'<built-in method __format__ of exceptions.NameError object>'
p28
sS'__getattribute__'
p29
S"<method-wrapper '__getattribute__' of exceptions.NameError object>"
p30
sS'__class__'
p31
S"<type 'exceptions.NameError'>"
p32
sS'__unicode__'
p33
S'<built-in method __unicode__ of exceptions.NameError object>'
p34
sS'__delattr__'
p35
S"<method-wrapper '__delattr__' of exceptions.NameError object>"
p36
sS'__subclasshook__'
p37
S'<built-in method __subclasshook__ of type object>'
p38
sS'__repr__'
p39
S"<method-wrapper '__repr__' of exceptions.NameError object>"
p40
sS'args'
p41
S'("name \'brazilian_date\' is not defined",)'
p42
sS'__dict__'
p43
S'{}'
p44
sS'__sizeof__'
p45
S'<built-in method __sizeof__ of exceptions.NameError object>'
p46
sS'__doc__'
p47
S"'Name not found globally.'"
p48
sS'__init__'
p49
S"<method-wrapper '__init__' of exceptions.NameError object>"
p50
sS'__new__'
p51
S'<built-in method __new__ of type object>'
p52
ssS'evalue'
p53
S"name 'brazilian_date' is not defined"
p54
sS'request'
p55
ccopy_reg
_reconstructor
p56
(cgluon.html
BEAUTIFY
p57
c__builtin__
object
p58
NtRp59
(dp60
S'attributes'
p61
(dp62
sS'components'
p63
(lp64
g56
(cgluon.html
TABLE
p65
g58
NtRp66
(dp67
g61
(dp68
S'level'
p69
I5
ssS'parent'
p70
Nsg63
(lp71
g56
(cgluon.html
TR
p72
g58
NtRp73
(dp74
g61
(dp75
sg70
g66
sg63
(lp76
g56
(cgluon.html
TD
p77
g58
NtRp78
(dp79
g61
(dp80
S'_style'
p81
S'font-weight:bold;'
p82
ssg70
g73
sg63
(lp83
S'ajax'
p84
asbag56
(g77
g58
NtRp85
(dp86
g61
(dp87
S'_valign'
p88
S'top'
p89
ssg70
g73
sg63
(lp90
S':'
asbag56
(g77
g58
NtRp91
(dp92
g61
(dp93
sg70
g73
sg63
(lp94
g56
(g57
g58
NtRp95
(dp96
g61
(dp97
g69
I5
ssg70
g91
sg63
(lp98
S'False'
p99
asbasbasbag56
(g72
g58
NtRp100
(dp101
g61
(dp102
sg70
g66
sg63
(lp103
g56
(g77
g58
NtRp104
(dp105
g61
(dp106
g81
g82
ssg70
g100
sg63
(lp107
S'application'
p108
asbag56
(g77
g58
NtRp109
(dp110
g61
(dp111
g88
g89
ssg70
g100
sg63
(lp112
S':'
asbag56
(g77
g58
NtRp113
(dp114
g61
(dp115
sg70
g100
sg63
(lp116
g56
(g57
g58
NtRp117
(dp118
g61
(dp119
g69
I5
ssg70
g113
sg63
(lp120
S'scrum'
p121
asbasbasbag56
(g72
g58
NtRp122
(dp123
g61
(dp124
sg70
g66
sg63
(lp125
g56
(g77
g58
NtRp126
(dp127
g61
(dp128
g81
g82
ssg70
g122
sg63
(lp129
g41
asbag56
(g77
g58
NtRp130
(dp131
g61
(dp132
g88
g89
ssg70
g122
sg63
(lp133
S':'
asbag56
(g77
g58
NtRp134
(dp135
g61
(dp136
sg70
g122
sg63
(lp137
g56
(g57
g58
NtRp138
(dp139
g61
(dp140
g69
I5
ssg70
g134
sg63
(lp141
g56
(g65
g58
NtRp142
(dp143
g61
(dp144
g69
I4
ssg70
Nsg63
(lp145
g56
(g72
g58
NtRp146
(dp147
g61
(dp148
sg70
g142
sg63
(lp149
g56
(g77
g58
NtRp150
(dp151
g61
(dp152
sg70
g146
sg63
(lp153
g56
(g57
g58
NtRp154
(dp155
g61
(dp156
g69
I4
ssg70
g150
sg63
(lp157
S'1'
asbasbasbasbasbasbasbag56
(g72
g58
NtRp158
(dp159
g61
(dp160
sg70
g66
sg63
(lp161
g56
(g77
g58
NtRp162
(dp163
g61
(dp164
g81
g82
ssg70
g158
sg63
(lp165
S'body'
p166
asbag56
(g77
g58
NtRp167
(dp168
g61
(dp169
g88
g89
ssg70
g158
sg63
(lp170
S':'
asbag56
(g77
g58
NtRp171
(dp172
g61
(dp173
sg70
g158
sg63
(lp174
g56
(g57
g58
NtRp175
(dp176
g61
(dp177
g69
I5
ssg70
g171
sg63
(lp178
S"<open file '<fdopen>', mode 'w+b' at 0xb9409440>"
p179
asbasbasbag56
(g72
g58
NtRp180
(dp181
g61
(dp182
sg70
g66
sg63
(lp183
g56
(g77
g58
NtRp184
(dp185
g61
(dp186
g81
g82
ssg70
g180
sg63
(lp187
S'client'
p188
asbag56
(g77
g58
NtRp189
(dp190
g61
(dp191
g88
g89
ssg70
g180
sg63
(lp192
S':'
asbag56
(g77
g58
NtRp193
(dp194
g61
(dp195
sg70
g180
sg63
(lp196
g56
(g57
g58
NtRp197
(dp198
g61
(dp199
g69
I5
ssg70
g193
sg63
(lp200
S'127.0.0.1'
p201
asbasbasbag56
(g72
g58
NtRp202
(dp203
g61
(dp204
sg70
g66
sg63
(lp205
g56
(g77
g58
NtRp206
(dp207
g61
(dp208
g81
g82
ssg70
g202
sg63
(lp209
S'controller'
p210
asbag56
(g77
g58
NtRp211
(dp212
g61
(dp213
g88
g89
ssg70
g202
sg63
(lp214
S':'
asbag56
(g77
g58
NtRp215
(dp216
g61
(dp217
sg70
g202
sg63
(lp218
g56
(g57
g58
NtRp219
(dp220
g61
(dp221
g69
I5
ssg70
g215
sg63
(lp222
S'ticket'
p223
asbasbasbag56
(g72
g58
NtRp224
(dp225
g61
(dp226
sg70
g66
sg63
(lp227
g56
(g77
g58
NtRp228
(dp229
g61
(dp230
g81
g82
ssg70
g224
sg63
(lp231
S'cookies'
p232
asbag56
(g77
g58
NtRp233
(dp234
g61
(dp235
g88
g89
ssg70
g224
sg63
(lp236
S':'
asbag56
(g77
g58
NtRp237
(dp238
g61
(dp239
sg70
g224
sg63
(lp240
g56
(g57
g58
NtRp241
(dp242
g61
(dp243
g69
I5
ssg70
g237
sg63
(lp244
g56
(g65
g58
NtRp245
(dp246
g61
(dp247
g69
I4
ssg70
Nsg63
(lp248
g56
(g72
g58
NtRp249
(dp250
g61
(dp251
sg70
g245
sg63
(lp252
g56
(g77
g58
NtRp253
(dp254
g61
(dp255
g81
g82
ssg70
g249
sg63
(lp256
S'session_id_admin'
p257
asbag56
(g77
g58
NtRp258
(dp259
g61
(dp260
g88
g89
ssg70
g249
sg63
(lp261
S':'
asbag56
(g77
g58
NtRp262
(dp263
g61
(dp264
sg70
g249
sg63
(lp265
g56
(g57
g58
NtRp266
(dp267
g61
(dp268
g69
I4
ssg70
g262
sg63
(lp269
g56
(g65
g58
NtRp270
(dp271
g61
(dp272
g69
I3
ssg70
Nsg63
(lp273
g56
(g72
g58
NtRp274
(dp275
g61
(dp276
sg70
g270
sg63
(lp277
g56
(g77
g58
NtRp278
(dp279
g61
(dp280
g81
g82
ssg70
g274
sg63
(lp281
S'comment'
p282
asbag56
(g77
g58
NtRp283
(dp284
g61
(dp285
g88
g89
ssg70
g274
sg63
(lp286
S':'
asbag56
(g77
g58
NtRp287
(dp288
g61
(dp289
sg70
g274
sg63
(lp290
g56
(g57
g58
NtRp291
(dp292
g61
(dp293
g69
I3
ssg70
g287
sg63
(lp294
S''
asbasbasbag56
(g72
g58
NtRp295
(dp296
g61
(dp297
sg70
g270
sg63
(lp298
g56
(g77
g58
NtRp299
(dp300
g61
(dp301
g81
g82
ssg70
g295
sg63
(lp302
S'domain'
p303
asbag56
(g77
g58
NtRp304
(dp305
g61
(dp306
g88
g89
ssg70
g295
sg63
(lp307
S':'
asbag56
(g77
g58
NtRp308
(dp309
g61
(dp310
sg70
g295
sg63
(lp311
g56
(g57
g58
NtRp312
(dp313
g61
(dp314
g69
I3
ssg70
g308
sg63
(lp315
S''
asbasbasbag56
(g72
g58
NtRp316
(dp317
g61
(dp318
sg70
g270
sg63
(lp319
g56
(g77
g58
NtRp320
(dp321
g61
(dp322
g81
g82
ssg70
g316
sg63
(lp323
S'expires'
p324
asbag56
(g77
g58
NtRp325
(dp326
g61
(dp327
g88
g89
ssg70
g316
sg63
(lp328
S':'
asbag56
(g77
g58
NtRp329
(dp330
g61
(dp331
sg70
g316
sg63
(lp332
g56
(g57
g58
NtRp333
(dp334
g61
(dp335
g69
I3
ssg70
g329
sg63
(lp336
S''
asbasbasbag56
(g72
g58
NtRp337
(dp338
g61
(dp339
sg70
g270
sg63
(lp340
g56
(g77
g58
NtRp341
(dp342
g61
(dp343
g81
g82
ssg70
g337
sg63
(lp344
S'httponly'
p345
asbag56
(g77
g58
NtRp346
(dp347
g61
(dp348
g88
g89
ssg70
g337
sg63
(lp349
S':'
asbag56
(g77
g58
NtRp350
(dp351
g61
(dp352
sg70
g337
sg63
(lp353
g56
(g57
g58
NtRp354
(dp355
g61
(dp356
g69
I3
ssg70
g350
sg63
(lp357
S''
asbasbasbag56
(g72
g58
NtRp358
(dp359
g61
(dp360
sg70
g270
sg63
(lp361
g56
(g77
g58
NtRp362
(dp363
g61
(dp364
g81
g82
ssg70
g358
sg63
(lp365
S'max-age'
p366
asbag56
(g77
g58
NtRp367
(dp368
g61
(dp369
g88
g89
ssg70
g358
sg63
(lp370
S':'
asbag56
(g77
g58
NtRp371
(dp372
g61
(dp373
sg70
g358
sg63
(lp374
g56
(g57
g58
NtRp375
(dp376
g61
(dp377
g69
I3
ssg70
g371
sg63
(lp378
S''
asbasbasbag56
(g72
g58
NtRp379
(dp380
g61
(dp381
sg70
g270
sg63
(lp382
g56
(g77
g58
NtRp383
(dp384
g61
(dp385
g81
g82
ssg70
g379
sg63
(lp386
S'path'
p387
asbag56
(g77
g58
NtRp388
(dp389
g61
(dp390
g88
g89
ssg70
g379
sg63
(lp391
S':'
asbag56
(g77
g58
NtRp392
(dp393
g61
(dp394
sg70
g379
sg63
(lp395
g56
(g57
g58
NtRp396
(dp397
g61
(dp398
g69
I3
ssg70
g392
sg63
(lp399
S''
asbasbasbag56
(g72
g58
NtRp400
(dp401
g61
(dp402
sg70
g270
sg63
(lp403
g56
(g77
g58
NtRp404
(dp405
g61
(dp406
g81
g82
ssg70
g400
sg63
(lp407
S'secure'
p408
asbag56
(g77
g58
NtRp409
(dp410
g61
(dp411
g88
g89
ssg70
g400
sg63
(lp412
S':'
asbag56
(g77
g58
NtRp413
(dp414
g61
(dp415
sg70
g400
sg63
(lp416
g56
(g57
g58
NtRp417
(dp418
g61
(dp419
g69
I3
ssg70
g413
sg63
(lp420
S''
asbasbasbag56
(g72
g58
NtRp421
(dp422
g61
(dp423
sg70
g270
sg63
(lp424
g56
(g77
g58
NtRp425
(dp426
g61
(dp427
g81
g82
ssg70
g421
sg63
(lp428
S'version'
p429
asbag56
(g77
g58
NtRp430
(dp431
g61
(dp432
g88
g89
ssg70
g421
sg63
(lp433
S':'
asbag56
(g77
g58
NtRp434
(dp435
g61
(dp436
sg70
g421
sg63
(lp437
g56
(g57
g58
NtRp438
(dp439
g61
(dp440
g69
I3
ssg70
g434
sg63
(lp441
S''
asbasbasbasbasbasbasbag56
(g72
g58
NtRp442
(dp443
g61
(dp444
sg70
g245
sg63
(lp445
g56
(g77
g58
NtRp446
(dp447
g61
(dp448
g81
g82
ssg70
g442
sg63
(lp449
S'session_id_scrum'
p450
asbag56
(g77
g58
NtRp451
(dp452
g61
(dp453
g88
g89
ssg70
g442
sg63
(lp454
S':'
asbag56
(g77
g58
NtRp455
(dp456
g61
(dp457
sg70
g442
sg63
(lp458
g56
(g57
g58
NtRp459
(dp460
g61
(dp461
g69
I4
ssg70
g455
sg63
(lp462
g56
(g65
g58
NtRp463
(dp464
g61
(dp465
g69
I3
ssg70
Nsg63
(lp466
g56
(g72
g58
NtRp467
(dp468
g61
(dp469
sg70
g463
sg63
(lp470
g56
(g77
g58
NtRp471
(dp472
g61
(dp473
g81
g82
ssg70
g467
sg63
(lp474
g282
asbag56
(g77
g58
NtRp475
(dp476
g61
(dp477
g88
g89
ssg70
g467
sg63
(lp478
S':'
asbag56
(g77
g58
NtRp479
(dp480
g61
(dp481
sg70
g467
sg63
(lp482
g56
(g57
g58
NtRp483
(dp484
g61
(dp485
g69
I3
ssg70
g479
sg63
(lp486
S''
asbasbasbag56
(g72
g58
NtRp487
(dp488
g61
(dp489
sg70
g463
sg63
(lp490
g56
(g77
g58
NtRp491
(dp492
g61
(dp493
g81
g82
ssg70
g487
sg63
(lp494
g303
asbag56
(g77
g58
NtRp495
(dp496
g61
(dp497
g88
g89
ssg70
g487
sg63
(lp498
S':'
asbag56
(g77
g58
NtRp499
(dp500
g61
(dp501
sg70
g487
sg63
(lp502
g56
(g57
g58
NtRp503
(dp504
g61
(dp505
g69
I3
ssg70
g499
sg63
(lp506
S''
asbasbasbag56
(g72
g58
NtRp507
(dp508
g61
(dp509
sg70
g463
sg63
(lp510
g56
(g77
g58
NtRp511
(dp512
g61
(dp513
g81
g82
ssg70
g507
sg63
(lp514
g324
asbag56
(g77
g58
NtRp515
(dp516
g61
(dp517
g88
g89
ssg70
g507
sg63
(lp518
S':'
asbag56
(g77
g58
NtRp519
(dp520
g61
(dp521
sg70
g507
sg63
(lp522
g56
(g57
g58
NtRp523
(dp524
g61
(dp525
g69
I3
ssg70
g519
sg63
(lp526
S''
asbasbasbag56
(g72
g58
NtRp527
(dp528
g61
(dp529
sg70
g463
sg63
(lp530
g56
(g77
g58
NtRp531
(dp532
g61
(dp533
g81
g82
ssg70
g527
sg63
(lp534
g345
asbag56
(g77
g58
NtRp535
(dp536
g61
(dp537
g88
g89
ssg70
g527
sg63
(lp538
S':'
asbag56
(g77
g58
NtRp539
(dp540
g61
(dp541
sg70
g527
sg63
(lp542
g56
(g57
g58
NtRp543
(dp544
g61
(dp545
g69
I3
ssg70
g539
sg63
(lp546
S''
asbasbasbag56
(g72
g58
NtRp547
(dp548
g61
(dp549
sg70
g463
sg63
(lp550
g56
(g77
g58
NtRp551
(dp552
g61
(dp553
g81
g82
ssg70
g547
sg63
(lp554
g366
asbag56
(g77
g58
NtRp555
(dp556
g61
(dp557
g88
g89
ssg70
g547
sg63
(lp558
S':'
asbag56
(g77
g58
NtRp559
(dp560
g61
(dp561
sg70
g547
sg63
(lp562
g56
(g57
g58
NtRp563
(dp564
g61
(dp565
g69
I3
ssg70
g559
sg63
(lp566
S''
asbasbasbag56
(g72
g58
NtRp567
(dp568
g61
(dp569
sg70
g463
sg63
(lp570
g56
(g77
g58
NtRp571
(dp572
g61
(dp573
g81
g82
ssg70
g567
sg63
(lp574
g387
asbag56
(g77
g58
NtRp575
(dp576
g61
(dp577
g88
g89
ssg70
g567
sg63
(lp578
S':'
asbag56
(g77
g58
NtRp579
(dp580
g61
(dp581
sg70
g567
sg63
(lp582
g56
(g57
g58
NtRp583
(dp584
g61
(dp585
g69
I3
ssg70
g579
sg63
(lp586
S''
asbasbasbag56
(g72
g58
NtRp587
(dp588
g61
(dp589
sg70
g463
sg63
(lp590
g56
(g77
g58
NtRp591
(dp592
g61
(dp593
g81
g82
ssg70
g587
sg63
(lp594
g408
asbag56
(g77
g58
NtRp595
(dp596
g61
(dp597
g88
g89
ssg70
g587
sg63
(lp598
S':'
asbag56
(g77
g58
NtRp599
(dp600
g61
(dp601
sg70
g587
sg63
(lp602
g56
(g57
g58
NtRp603
(dp604
g61
(dp605
g69
I3
ssg70
g599
sg63
(lp606
S''
asbasbasbag56
(g72
g58
NtRp607
(dp608
g61
(dp609
sg70
g463
sg63
(lp610
g56
(g77
g58
NtRp611
(dp612
g61
(dp613
g81
g82
ssg70
g607
sg63
(lp614
g429
asbag56
(g77
g58
NtRp615
(dp616
g61
(dp617
g88
g89
ssg70
g607
sg63
(lp618
S':'
asbag56
(g77
g58
NtRp619
(dp620
g61
(dp621
sg70
g607
sg63
(lp622
g56
(g57
g58
NtRp623
(dp624
g61
(dp625
g69
I3
ssg70
g619
sg63
(lp626
S''
asbasbasbasbasbasbasbasbasbasbasbag56
(g72
g58
NtRp627
(dp628
g61
(dp629
sg70
g66
sg63
(lp630
g56
(g77
g58
NtRp631
(dp632
g61
(dp633
g81
g82
ssg70
g627
sg63
(lp634
S'env'
p635
asbag56
(g77
g58
NtRp636
(dp637
g61
(dp638
g88
g89
ssg70
g627
sg63
(lp639
S':'
asbag56
(g77
g58
NtRp640
(dp641
g61
(dp642
sg70
g627
sg63
(lp643
g56
(g57
g58
NtRp644
(dp645
g61
(dp646
g69
I5
ssg70
g640
sg63
(lp647
g56
(g65
g58
NtRp648
(dp649
g61
(dp650
g69
I4
ssg70
Nsg63
(lp651
g56
(g72
g58
NtRp652
(dp653
g61
(dp654
sg70
g648
sg63
(lp655
g56
(g77
g58
NtRp656
(dp657
g61
(dp658
g81
g82
ssg70
g652
sg63
(lp659
S'app_folders'
p660
asbag56
(g77
g58
NtRp661
(dp662
g61
(dp663
g88
g89
ssg70
g652
sg63
(lp664
S':'
asbag56
(g77
g58
NtRp665
(dp666
g61
(dp667
sg70
g652
sg63
(lp668
g56
(g57
g58
NtRp669
(dp670
g61
(dp671
g69
I4
ssg70
g665
sg63
(lp672
S"set(['/home/www-data/web2py/applications/scrum/', '/home/www-data/web2py/applications/admin/'])"
p673
asbasbasbag56
(g72
g58
NtRp674
(dp675
g61
(dp676
sg70
g648
sg63
(lp677
g56
(g77
g58
NtRp678
(dp679
g61
(dp680
g81
g82
ssg70
g674
sg63
(lp681
S'applications_parent'
p682
asbag56
(g77
g58
NtRp683
(dp684
g61
(dp685
g88
g89
ssg70
g674
sg63
(lp686
S':'
asbag56
(g77
g58
NtRp687
(dp688
g61
(dp689
sg70
g674
sg63
(lp690
g56
(g57
g58
NtRp691
(dp692
g61
(dp693
g69
I4
ssg70
g687
sg63
(lp694
S'/home/www-data/web2py'
p695
asbasbasbag56
(g72
g58
NtRp696
(dp697
g61
(dp698
sg70
g648
sg63
(lp699
g56
(g77
g58
NtRp700
(dp701
g61
(dp702
g81
g82
ssg70
g696
sg63
(lp703
S'content_length'
p704
asbag56
(g77
g58
NtRp705
(dp706
g61
(dp707
g88
g89
ssg70
g696
sg63
(lp708
S':'
asbag56
(g77
g58
NtRp709
(dp710
g61
(dp711
sg70
g696
sg63
(lp712
g56
(g57
g58
NtRp713
(dp714
g61
(dp715
g69
I4
ssg70
g709
sg63
(lp716
S'1698'
p717
asbasbasbag56
(g72
g58
NtRp718
(dp719
g61
(dp720
sg70
g648
sg63
(lp721
g56
(g77
g58
NtRp722
(dp723
g61
(dp724
g81
g82
ssg70
g718
sg63
(lp725
S'content_type'
p726
asbag56
(g77
g58
NtRp727
(dp728
g61
(dp729
g88
g89
ssg70
g718
sg63
(lp730
S':'
asbag56
(g77
g58
NtRp731
(dp732
g61
(dp733
sg70
g718
sg63
(lp734
g56
(g57
g58
NtRp735
(dp736
g61
(dp737
g69
I4
ssg70
g731
sg63
(lp738
S'multipart/form-data; boundary=---------------------------858921451401545424704696516'
p739
asbasbasbag56
(g72
g58
NtRp740
(dp741
g61
(dp742
sg70
g648
sg63
(lp743
g56
(g77
g58
NtRp744
(dp745
g61
(dp746
g81
g82
ssg70
g740
sg63
(lp747
S'db_sessions'
p748
asbag56
(g77
g58
NtRp749
(dp750
g61
(dp751
g88
g89
ssg70
g740
sg63
(lp752
S':'
asbag56
(g77
g58
NtRp753
(dp754
g61
(dp755
sg70
g740
sg63
(lp756
g56
(g57
g58
NtRp757
(dp758
g61
(dp759
g69
I4
ssg70
g753
sg63
(lp760
S'set([])'
p761
asbasbasbag56
(g72
g58
NtRp762
(dp763
g61
(dp764
sg70
g648
sg63
(lp765
g56
(g77
g58
NtRp766
(dp767
g61
(dp768
g81
g82
ssg70
g762
sg63
(lp769
S'debugging'
p770
asbag56
(g77
g58
NtRp771
(dp772
g61
(dp773
g88
g89
ssg70
g762
sg63
(lp774
S':'
asbag56
(g77
g58
NtRp775
(dp776
g61
(dp777
sg70
g762
sg63
(lp778
g56
(g57
g58
NtRp779
(dp780
g61
(dp781
g69
I4
ssg70
g775
sg63
(lp782
g99
asbasbasbag56
(g72
g58
NtRp783
(dp784
g61
(dp785
sg70
g648
sg63
(lp786
g56
(g77
g58
NtRp787
(dp788
g61
(dp789
g81
g82
ssg70
g783
sg63
(lp790
S'document_root'
p791
asbag56
(g77
g58
NtRp792
(dp793
g61
(dp794
g88
g89
ssg70
g783
sg63
(lp795
S':'
asbag56
(g77
g58
NtRp796
(dp797
g61
(dp798
sg70
g783
sg63
(lp799
g56
(g57
g58
NtRp800
(dp801
g61
(dp802
g69
I4
ssg70
g796
sg63
(lp803
S'/etc/apache2/htdocs'
p804
asbasbasbag56
(g72
g58
NtRp805
(dp806
g61
(dp807
sg70
g648
sg63
(lp808
g56
(g77
g58
NtRp809
(dp810
g61
(dp811
g81
g82
ssg70
g805
sg63
(lp812
S'gateway_interface'
p813
asbag56
(g77
g58
NtRp814
(dp815
g61
(dp816
g88
g89
ssg70
g805
sg63
(lp817
S':'
asbag56
(g77
g58
NtRp818
(dp819
g61
(dp820
sg70
g805
sg63
(lp821
g56
(g57
g58
NtRp822
(dp823
g61
(dp824
g69
I4
ssg70
g818
sg63
(lp825
S'CGI/1.1'
p826
asbasbasbag56
(g72
g58
NtRp827
(dp828
g61
(dp829
sg70
g648
sg63
(lp830
g56
(g77
g58
NtRp831
(dp832
g61
(dp833
g81
g82
ssg70
g827
sg63
(lp834
S'gluon_parent'
p835
asbag56
(g77
g58
NtRp836
(dp837
g61
(dp838
g88
g89
ssg70
g827
sg63
(lp839
S':'
asbag56
(g77
g58
NtRp840
(dp841
g61
(dp842
sg70
g827
sg63
(lp843
g56
(g57
g58
NtRp844
(dp845
g61
(dp846
g69
I4
ssg70
g840
sg63
(lp847
g695
asbasbasbag56
(g72
g58
NtRp848
(dp849
g61
(dp850
sg70
g648
sg63
(lp851
g56
(g77
g58
NtRp852
(dp853
g61
(dp854
g81
g82
ssg70
g848
sg63
(lp855
S'http_accept'
p856
asbag56
(g77
g58
NtRp857
(dp858
g61
(dp859
g88
g89
ssg70
g848
sg63
(lp860
S':'
asbag56
(g77
g58
NtRp861
(dp862
g61
(dp863
sg70
g848
sg63
(lp864
g56
(g57
g58
NtRp865
(dp866
g61
(dp867
g69
I4
ssg70
g861
sg63
(lp868
S'text/html,application/xhtml+xml,application/xml;q=0.9,*/*;q=0.8'
p869
asbasbasbag56
(g72
g58
NtRp870
(dp871
g61
(dp872
sg70
g648
sg63
(lp873
g56
(g77
g58
NtRp874
(dp875
g61
(dp876
g81
g82
ssg70
g870
sg63
(lp877
S'http_accept_charset'
p878
asbag56
(g77
g58
NtRp879
(dp880
g61
(dp881
g88
g89
ssg70
g870
sg63
(lp882
S':'
asbag56
(g77
g58
NtRp883
(dp884
g61
(dp885
sg70
g870
sg63
(lp886
g56
(g57
g58
NtRp887
(dp888
g61
(dp889
g69
I4
ssg70
g883
sg63
(lp890
S'ISO-8859-1,utf-8;q=0.7,*;q=0.7'
p891
asbasbasbag56
(g72
g58
NtRp892
(dp893
g61
(dp894
sg70
g648
sg63
(lp895
g56
(g77
g58
NtRp896
(dp897
g61
(dp898
g81
g82
ssg70
g892
sg63
(lp899
S'http_accept_encoding'
p900
asbag56
(g77
g58
NtRp901
(dp902
g61
(dp903
g88
g89
ssg70
g892
sg63
(lp904
S':'
asbag56
(g77
g58
NtRp905
(dp906
g61
(dp907
sg70
g892
sg63
(lp908
g56
(g57
g58
NtRp909
(dp910
g61
(dp911
g69
I4
ssg70
g905
sg63
(lp912
S'gzip, deflate'
p913
asbasbasbag56
(g72
g58
NtRp914
(dp915
g61
(dp916
sg70
g648
sg63
(lp917
g56
(g77
g58
NtRp918
(dp919
g61
(dp920
g81
g82
ssg70
g914
sg63
(lp921
S'http_accept_language'
p922
asbag56
(g77
g58
NtRp923
(dp924
g61
(dp925
g88
g89
ssg70
g914
sg63
(lp926
S':'
asbag56
(g77
g58
NtRp927
(dp928
g61
(dp929
sg70
g914
sg63
(lp930
g56
(g57
g58
NtRp931
(dp932
g61
(dp933
g69
I4
ssg70
g927
sg63
(lp934
S'pt-br,pt;q=0.8,en-us;q=0.5,en;q=0.3'
p935
asbasbasbag56
(g72
g58
NtRp936
(dp937
g61
(dp938
sg70
g648
sg63
(lp939
g56
(g77
g58
NtRp940
(dp941
g61
(dp942
g81
g82
ssg70
g936
sg63
(lp943
S'http_cache_control'
p944
asbag56
(g77
g58
NtRp945
(dp946
g61
(dp947
g88
g89
ssg70
g936
sg63
(lp948
S':'
asbag56
(g77
g58
NtRp949
(dp950
g61
(dp951
sg70
g936
sg63
(lp952
g56
(g57
g58
NtRp953
(dp954
g61
(dp955
g69
I4
ssg70
g949
sg63
(lp956
S'max-age=0'
p957
asbasbasbag56
(g72
g58
NtRp958
(dp959
g61
(dp960
sg70
g648
sg63
(lp961
g56
(g77
g58
NtRp962
(dp963
g61
(dp964
g81
g82
ssg70
g958
sg63
(lp965
S'http_connection'
p966
asbag56
(g77
g58
NtRp967
(dp968
g61
(dp969
g88
g89
ssg70
g958
sg63
(lp970
S':'
asbag56
(g77
g58
NtRp971
(dp972
g61
(dp973
sg70
g958
sg63
(lp974
g56
(g57
g58
NtRp975
(dp976
g61
(dp977
g69
I4
ssg70
g971
sg63
(lp978
S'keep-alive'
p979
asbasbasbag56
(g72
g58
NtRp980
(dp981
g61
(dp982
sg70
g648
sg63
(lp983
g56
(g77
g58
NtRp984
(dp985
g61
(dp986
g81
g82
ssg70
g980
sg63
(lp987
S'http_cookie'
p988
asbag56
(g77
g58
NtRp989
(dp990
g61
(dp991
g88
g89
ssg70
g980
sg63
(lp992
S':'
asbag56
(g77
g58
NtRp993
(dp994
g61
(dp995
sg70
g980
sg63
(lp996
g56
(g57
g58
NtRp997
(dp998
g61
(dp999
g69
I4
ssg70
g993
sg63
(lp1000
S'session_id_admin=127.0.0.1-e5192660-39ef-4b4b-a6d6-48f8215e8275; session_id_scrum=127.0.0.1-8741b6aa-dd8d-45b3-88a3-6f21c23a3c79'
p1001
asbasbasbag56
(g72
g58
NtRp1002
(dp1003
g61
(dp1004
sg70
g648
sg63
(lp1005
g56
(g77
g58
NtRp1006
(dp1007
g61
(dp1008
g81
g82
ssg70
g1002
sg63
(lp1009
S'http_host'
p1010
asbag56
(g77
g58
NtRp1011
(dp1012
g61
(dp1013
g88
g89
ssg70
g1002
sg63
(lp1014
S':'
asbag56
(g77
g58
NtRp1015
(dp1016
g61
(dp1017
sg70
g1002
sg63
(lp1018
g56
(g57
g58
NtRp1019
(dp1020
g61
(dp1021
g69
I4
ssg70
g1015
sg63
(lp1022
S'localhost'
p1023
asbasbasbag56
(g72
g58
NtRp1024
(dp1025
g61
(dp1026
sg70
g648
sg63
(lp1027
g56
(g77
g58
NtRp1028
(dp1029
g61
(dp1030
g81
g82
ssg70
g1024
sg63
(lp1031
S'http_referer'
p1032
asbag56
(g77
g58
NtRp1033
(dp1034
g61
(dp1035
g88
g89
ssg70
g1024
sg63
(lp1036
S':'
asbag56
(g77
g58
NtRp1037
(dp1038
g61
(dp1039
sg70
g1024
sg63
(lp1040
g56
(g57
g58
NtRp1041
(dp1042
g61
(dp1043
g69
I4
ssg70
g1037
sg63
(lp1044
S'https://localhost/scrum/ticket/editar/1'
p1045
asbasbasbag56
(g72
g58
NtRp1046
(dp1047
g61
(dp1048
sg70
g648
sg63
(lp1049
g56
(g77
g58
NtRp1050
(dp1051
g61
(dp1052
g81
g82
ssg70
g1046
sg63
(lp1053
S'http_user_agent'
p1054
asbag56
(g77
g58
NtRp1055
(dp1056
g61
(dp1057
g88
g89
ssg70
g1046
sg63
(lp1058
S':'
asbag56
(g77
g58
NtRp1059
(dp1060
g61
(dp1061
sg70
g1046
sg63
(lp1062
g56
(g57
g58
NtRp1063
(dp1064
g61
(dp1065
g69
I4
ssg70
g1059
sg63
(lp1066
S'Mozilla/5.0 (X11; Linux i686; rv:6.0.2) Gecko/20100101 Firefox/6.0.2'
p1067
asbasbasbag56
(g72
g58
NtRp1068
(dp1069
g61
(dp1070
sg70
g648
sg63
(lp1071
g56
(g77
g58
NtRp1072
(dp1073
g61
(dp1074
g81
g82
ssg70
g1068
sg63
(lp1075
S'https'
p1076
asbag56
(g77
g58
NtRp1077
(dp1078
g61
(dp1079
g88
g89
ssg70
g1068
sg63
(lp1080
S':'
asbag56
(g77
g58
NtRp1081
(dp1082
g61
(dp1083
sg70
g1068
sg63
(lp1084
g56
(g57
g58
NtRp1085
(dp1086
g61
(dp1087
g69
I4
ssg70
g1081
sg63
(lp1088
S'1'
asbasbasbag56
(g72
g58
NtRp1089
(dp1090
g61
(dp1091
sg70
g648
sg63
(lp1092
g56
(g77
g58
NtRp1093
(dp1094
g61
(dp1095
g81
g82
ssg70
g1089
sg63
(lp1096
S'is_jython'
p1097
asbag56
(g77
g58
NtRp1098
(dp1099
g61
(dp1100
g88
g89
ssg70
g1089
sg63
(lp1101
S':'
asbag56
(g77
g58
NtRp1102
(dp1103
g61
(dp1104
sg70
g1089
sg63
(lp1105
g56
(g57
g58
NtRp1106
(dp1107
g61
(dp1108
g69
I4
ssg70
g1102
sg63
(lp1109
g99
asbasbasbag56
(g72
g58
NtRp1110
(dp1111
g61
(dp1112
sg70
g648
sg63
(lp1113
g56
(g77
g58
NtRp1114
(dp1115
g61
(dp1116
g81
g82
ssg70
g1110
sg63
(lp1117
S'mod_wsgi_application_group'
p1118
asbag56
(g77
g58
NtRp1119
(dp1120
g61
(dp1121
g88
g89
ssg70
g1110
sg63
(lp1122
S':'
asbag56
(g77
g58
NtRp1123
(dp1124
g61
(dp1125
sg70
g1110
sg63
(lp1126
g56
(g57
g58
NtRp1127
(dp1128
g61
(dp1129
g69
I4
ssg70
g1123
sg63
(lp1130
S'localhost.localdomain|'
p1131
asbasbasbag56
(g72
g58
NtRp1132
(dp1133
g61
(dp1134
sg70
g648
sg63
(lp1135
g56
(g77
g58
NtRp1136
(dp1137
g61
(dp1138
g81
g82
ssg70
g1132
sg63
(lp1139
S'mod_wsgi_callable_object'
p1140
asbag56
(g77
g58
NtRp1141
(dp1142
g61
(dp1143
g88
g89
ssg70
g1132
sg63
(lp1144
S':'
asbag56
(g77
g58
NtRp1145
(dp1146
g61
(dp1147
sg70
g1132
sg63
(lp1148
g56
(g57
g58
NtRp1149
(dp1150
g61
(dp1151
g69
I4
ssg70
g1145
sg63
(lp1152
S'application'
p1153
asbasbasbag56
(g72
g58
NtRp1154
(dp1155
g61
(dp1156
sg70
g648
sg63
(lp1157
g56
(g77
g58
NtRp1158
(dp1159
g61
(dp1160
g81
g82
ssg70
g1154
sg63
(lp1161
S'mod_wsgi_handler_script'
p1162
asbag56
(g77
g58
NtRp1163
(dp1164
g61
(dp1165
g88
g89
ssg70
g1154
sg63
(lp1166
S':'
asbag56
(g77
g58
NtRp1167
(dp1168
g61
(dp1169
sg70
g1154
sg63
(lp1170
g56
(g57
g58
NtRp1171
(dp1172
g61
(dp1173
g69
I4
ssg70
g1167
sg63
(lp1174
S''
asbasbasbag56
(g72
g58
NtRp1175
(dp1176
g61
(dp1177
sg70
g648
sg63
(lp1178
g56
(g77
g58
NtRp1179
(dp1180
g61
(dp1181
g81
g82
ssg70
g1175
sg63
(lp1182
S'mod_wsgi_input_chunked'
p1183
asbag56
(g77
g58
NtRp1184
(dp1185
g61
(dp1186
g88
g89
ssg70
g1175
sg63
(lp1187
S':'
asbag56
(g77
g58
NtRp1188
(dp1189
g61
(dp1190
sg70
g1175
sg63
(lp1191
g56
(g57
g58
NtRp1192
(dp1193
g61
(dp1194
g69
I4
ssg70
g1188
sg63
(lp1195
S'0'
asbasbasbag56
(g72
g58
NtRp1196
(dp1197
g61
(dp1198
sg70
g648
sg63
(lp1199
g56
(g77
g58
NtRp1200
(dp1201
g61
(dp1202
g81
g82
ssg70
g1196
sg63
(lp1203
S'mod_wsgi_listener_host'
p1204
asbag56
(g77
g58
NtRp1205
(dp1206
g61
(dp1207
g88
g89
ssg70
g1196
sg63
(lp1208
S':'
asbag56
(g77
g58
NtRp1209
(dp1210
g61
(dp1211
sg70
g1196
sg63
(lp1212
g56
(g57
g58
NtRp1213
(dp1214
g61
(dp1215
g69
I4
ssg70
g1209
sg63
(lp1216
S''
asbasbasbag56
(g72
g58
NtRp1217
(dp1218
g61
(dp1219
sg70
g648
sg63
(lp1220
g56
(g77
g58
NtRp1221
(dp1222
g61
(dp1223
g81
g82
ssg70
g1217
sg63
(lp1224
S'mod_wsgi_listener_port'
p1225
asbag56
(g77
g58
NtRp1226
(dp1227
g61
(dp1228
g88
g89
ssg70
g1217
sg63
(lp1229
S':'
asbag56
(g77
g58
NtRp1230
(dp1231
g61
(dp1232
sg70
g1217
sg63
(lp1233
g56
(g57
g58
NtRp1234
(dp1235
g61
(dp1236
g69
I4
ssg70
g1230
sg63
(lp1237
S'443'
p1238
asbasbasbag56
(g72
g58
NtRp1239
(dp1240
g61
(dp1241
sg70
g648
sg63
(lp1242
g56
(g77
g58
NtRp1243
(dp1244
g61
(dp1245
g81
g82
ssg70
g1239
sg63
(lp1246
S'mod_wsgi_process_group'
p1247
asbag56
(g77
g58
NtRp1248
(dp1249
g61
(dp1250
g88
g89
ssg70
g1239
sg63
(lp1251
S':'
asbag56
(g77
g58
NtRp1252
(dp1253
g61
(dp1254
sg70
g1239
sg63
(lp1255
g56
(g57
g58
NtRp1256
(dp1257
g61
(dp1258
g69
I4
ssg70
g1252
sg63
(lp1259
S'web2py'
p1260
asbasbasbag56
(g72
g58
NtRp1261
(dp1262
g61
(dp1263
sg70
g648
sg63
(lp1264
g56
(g77
g58
NtRp1265
(dp1266
g61
(dp1267
g81
g82
ssg70
g1261
sg63
(lp1268
S'mod_wsgi_request_handler'
p1269
asbag56
(g77
g58
NtRp1270
(dp1271
g61
(dp1272
g88
g89
ssg70
g1261
sg63
(lp1273
S':'
asbag56
(g77
g58
NtRp1274
(dp1275
g61
(dp1276
sg70
g1261
sg63
(lp1277
g56
(g57
g58
NtRp1278
(dp1279
g61
(dp1280
g69
I4
ssg70
g1274
sg63
(lp1281
S'wsgi-script'
p1282
asbasbasbag56
(g72
g58
NtRp1283
(dp1284
g61
(dp1285
sg70
g648
sg63
(lp1286
g56
(g77
g58
NtRp1287
(dp1288
g61
(dp1289
g81
g82
ssg70
g1283
sg63
(lp1290
S'mod_wsgi_script_reloading'
p1291
asbag56
(g77
g58
NtRp1292
(dp1293
g61
(dp1294
g88
g89
ssg70
g1283
sg63
(lp1295
S':'
asbag56
(g77
g58
NtRp1296
(dp1297
g61
(dp1298
sg70
g1283
sg63
(lp1299
g56
(g57
g58
NtRp1300
(dp1301
g61
(dp1302
g69
I4
ssg70
g1296
sg63
(lp1303
S'1'
asbasbasbag56
(g72
g58
NtRp1304
(dp1305
g61
(dp1306
sg70
g648
sg63
(lp1307
g56
(g77
g58
NtRp1308
(dp1309
g61
(dp1310
g81
g82
ssg70
g1304
sg63
(lp1311
S'mod_wsgi_version'
p1312
asbag56
(g77
g58
NtRp1313
(dp1314
g61
(dp1315
g88
g89
ssg70
g1304
sg63
(lp1316
S':'
asbag56
(g77
g58
NtRp1317
(dp1318
g61
(dp1319
sg70
g1304
sg63
(lp1320
g56
(g57
g58
NtRp1321
(dp1322
g61
(dp1323
g69
I4
ssg70
g1317
sg63
(lp1324
g56
(g65
g58
NtRp1325
(dp1326
g61
(dp1327
g69
I3
ssg70
Nsg63
(lp1328
g56
(g72
g58
NtRp1329
(dp1330
g61
(dp1331
sg70
g1325
sg63
(lp1332
g56
(g77
g58
NtRp1333
(dp1334
g61
(dp1335
sg70
g1329
sg63
(lp1336
g56
(g57
g58
NtRp1337
(dp1338
g61
(dp1339
g69
I3
ssg70
g1333
sg63
(lp1340
S'3'
asbasbasbag56
(g72
g58
NtRp1341
(dp1342
g61
(dp1343
sg70
g1325
sg63
(lp1344
g56
(g77
g58
NtRp1345
(dp1346
g61
(dp1347
sg70
g1341
sg63
(lp1348
g56
(g57
g58
NtRp1349
(dp1350
g61
(dp1351
g69
I3
ssg70
g1345
sg63
(lp1352
S'3'
asbasbasbasbasbasbasbag56
(g72
g58
NtRp1353
(dp1354
g61
(dp1355
sg70
g648
sg63
(lp1356
g56
(g77
g58
NtRp1357
(dp1358
g61
(dp1359
g81
g82
ssg70
g1353
sg63
(lp1360
S'path_info'
p1361
asbag56
(g77
g58
NtRp1362
(dp1363
g61
(dp1364
g88
g89
ssg70
g1353
sg63
(lp1365
S':'
asbag56
(g77
g58
NtRp1366
(dp1367
g61
(dp1368
sg70
g1353
sg63
(lp1369
g56
(g57
g58
NtRp1370
(dp1371
g61
(dp1372
g69
I4
ssg70
g1366
sg63
(lp1373
S'/scrum/ticket/editar/1'
p1374
asbasbasbag56
(g72
g58
NtRp1375
(dp1376
g61
(dp1377
sg70
g648
sg63
(lp1378
g56
(g77
g58
NtRp1379
(dp1380
g61
(dp1381
g81
g82
ssg70
g1375
sg63
(lp1382
S'path_translated'
p1383
asbag56
(g77
g58
NtRp1384
(dp1385
g61
(dp1386
g88
g89
ssg70
g1375
sg63
(lp1387
S':'
asbag56
(g77
g58
NtRp1388
(dp1389
g61
(dp1390
sg70
g1375
sg63
(lp1391
g56
(g57
g58
NtRp1392
(dp1393
g61
(dp1394
g69
I4
ssg70
g1388
sg63
(lp1395
S'/home/www-data/web2py/wsgihandler.py/scrum/ticket/editar/1'
p1396
asbasbasbag56
(g72
g58
NtRp1397
(dp1398
g61
(dp1399
sg70
g648
sg63
(lp1400
g56
(g77
g58
NtRp1401
(dp1402
g61
(dp1403
g81
g82
ssg70
g1397
sg63
(lp1404
S'query_string'
p1405
asbag56
(g77
g58
NtRp1406
(dp1407
g61
(dp1408
g88
g89
ssg70
g1397
sg63
(lp1409
S':'
asbag56
(g77
g58
NtRp1410
(dp1411
g61
(dp1412
sg70
g1397
sg63
(lp1413
g56
(g57
g58
NtRp1414
(dp1415
g61
(dp1416
g69
I4
ssg70
g1410
sg63
(lp1417
S''
asbasbasbag56
(g72
g58
NtRp1418
(dp1419
g61
(dp1420
sg70
g648
sg63
(lp1421
g56
(g77
g58
NtRp1422
(dp1423
g61
(dp1424
g81
g82
ssg70
g1418
sg63
(lp1425
S'remote_addr'
p1426
asbag56
(g77
g58
NtRp1427
(dp1428
g61
(dp1429
g88
g89
ssg70
g1418
sg63
(lp1430
S':'
asbag56
(g77
g58
NtRp1431
(dp1432
g61
(dp1433
sg70
g1418
sg63
(lp1434
g56
(g57
g58
NtRp1435
(dp1436
g61
(dp1437
g69
I4
ssg70
g1431
sg63
(lp1438
g201
asbasbasbag56
(g72
g58
NtRp1439
(dp1440
g61
(dp1441
sg70
g648
sg63
(lp1442
g56
(g77
g58
NtRp1443
(dp1444
g61
(dp1445
g81
g82
ssg70
g1439
sg63
(lp1446
S'remote_port'
p1447
asbag56
(g77
g58
NtRp1448
(dp1449
g61
(dp1450
g88
g89
ssg70
g1439
sg63
(lp1451
S':'
asbag56
(g77
g58
NtRp1452
(dp1453
g61
(dp1454
sg70
g1439
sg63
(lp1455
g56
(g57
g58
NtRp1456
(dp1457
g61
(dp1458
g69
I4
ssg70
g1452
sg63
(lp1459
S'35440'
p1460
asbasbasbag56
(g72
g58
NtRp1461
(dp1462
g61
(dp1463
sg70
g648
sg63
(lp1464
g56
(g77
g58
NtRp1465
(dp1466
g61
(dp1467
g81
g82
ssg70
g1461
sg63
(lp1468
S'request_method'
p1469
asbag56
(g77
g58
NtRp1470
(dp1471
g61
(dp1472
g88
g89
ssg70
g1461
sg63
(lp1473
S':'
asbag56
(g77
g58
NtRp1474
(dp1475
g61
(dp1476
sg70
g1461
sg63
(lp1477
g56
(g57
g58
NtRp1478
(dp1479
g61
(dp1480
g69
I4
ssg70
g1474
sg63
(lp1481
S'POST'
p1482
asbasbasbag56
(g72
g58
NtRp1483
(dp1484
g61
(dp1485
sg70
g648
sg63
(lp1486
g56
(g77
g58
NtRp1487
(dp1488
g61
(dp1489
g81
g82
ssg70
g1483
sg63
(lp1490
S'request_uri'
p1491
asbag56
(g77
g58
NtRp1492
(dp1493
g61
(dp1494
g88
g89
ssg70
g1483
sg63
(lp1495
S':'
asbag56
(g77
g58
NtRp1496
(dp1497
g61
(dp1498
sg70
g1483
sg63
(lp1499
g56
(g57
g58
NtRp1500
(dp1501
g61
(dp1502
g69
I4
ssg70
g1496
sg63
(lp1503
S'/scrum/ticket/editar/1'
p1504
asbasbasbag56
(g72
g58
NtRp1505
(dp1506
g61
(dp1507
sg70
g648
sg63
(lp1508
g56
(g77
g58
NtRp1509
(dp1510
g61
(dp1511
g81
g82
ssg70
g1505
sg63
(lp1512
S'script_filename'
p1513
asbag56
(g77
g58
NtRp1514
(dp1515
g61
(dp1516
g88
g89
ssg70
g1505
sg63
(lp1517
S':'
asbag56
(g77
g58
NtRp1518
(dp1519
g61
(dp1520
sg70
g1505
sg63
(lp1521
g56
(g57
g58
NtRp1522
(dp1523
g61
(dp1524
g69
I4
ssg70
g1518
sg63
(lp1525
S'/home/www-data/web2py/wsgihandler.py'
p1526
asbasbasbag56
(g72
g58
NtRp1527
(dp1528
g61
(dp1529
sg70
g648
sg63
(lp1530
g56
(g77
g58
NtRp1531
(dp1532
g61
(dp1533
g81
g82
ssg70
g1527
sg63
(lp1534
S'script_name'
p1535
asbag56
(g77
g58
NtRp1536
(dp1537
g61
(dp1538
g88
g89
ssg70
g1527
sg63
(lp1539
S':'
asbag56
(g77
g58
NtRp1540
(dp1541
g61
(dp1542
sg70
g1527
sg63
(lp1543
g56
(g57
g58
NtRp1544
(dp1545
g61
(dp1546
g69
I4
ssg70
g1540
sg63
(lp1547
S''
asbasbasbag56
(g72
g58
NtRp1548
(dp1549
g61
(dp1550
sg70
g648
sg63
(lp1551
g56
(g77
g58
NtRp1552
(dp1553
g61
(dp1554
g81
g82
ssg70
g1548
sg63
(lp1555
S'server_addr'
p1556
asbag56
(g77
g58
NtRp1557
(dp1558
g61
(dp1559
g88
g89
ssg70
g1548
sg63
(lp1560
S':'
asbag56
(g77
g58
NtRp1561
(dp1562
g61
(dp1563
sg70
g1548
sg63
(lp1564
g56
(g57
g58
NtRp1565
(dp1566
g61
(dp1567
g69
I4
ssg70
g1561
sg63
(lp1568
S'127.0.0.1'
p1569
asbasbasbag56
(g72
g58
NtRp1570
(dp1571
g61
(dp1572
sg70
g648
sg63
(lp1573
g56
(g77
g58
NtRp1574
(dp1575
g61
(dp1576
g81
g82
ssg70
g1570
sg63
(lp1577
S'server_admin'
p1578
asbag56
(g77
g58
NtRp1579
(dp1580
g61
(dp1581
g88
g89
ssg70
g1570
sg63
(lp1582
S':'
asbag56
(g77
g58
NtRp1583
(dp1584
g61
(dp1585
sg70
g1570
sg63
(lp1586
g56
(g57
g58
NtRp1587
(dp1588
g61
(dp1589
g69
I4
ssg70
g1583
sg63
(lp1590
S'[no address given]'
p1591
asbasbasbag56
(g72
g58
NtRp1592
(dp1593
g61
(dp1594
sg70
g648
sg63
(lp1595
g56
(g77
g58
NtRp1596
(dp1597
g61
(dp1598
g81
g82
ssg70
g1592
sg63
(lp1599
S'server_name'
p1600
asbag56
(g77
g58
NtRp1601
(dp1602
g61
(dp1603
g88
g89
ssg70
g1592
sg63
(lp1604
S':'
asbag56
(g77
g58
NtRp1605
(dp1606
g61
(dp1607
sg70
g1592
sg63
(lp1608
g56
(g57
g58
NtRp1609
(dp1610
g61
(dp1611
g69
I4
ssg70
g1605
sg63
(lp1612
S'localhost'
p1613
asbasbasbag56
(g72
g58
NtRp1614
(dp1615
g61
(dp1616
sg70
g648
sg63
(lp1617
g56
(g77
g58
NtRp1618
(dp1619
g61
(dp1620
g81
g82
ssg70
g1614
sg63
(lp1621
S'server_port'
p1622
asbag56
(g77
g58
NtRp1623
(dp1624
g61
(dp1625
g88
g89
ssg70
g1614
sg63
(lp1626
S':'
asbag56
(g77
g58
NtRp1627
(dp1628
g61
(dp1629
sg70
g1614
sg63
(lp1630
g56
(g57
g58
NtRp1631
(dp1632
g61
(dp1633
g69
I4
ssg70
g1627
sg63
(lp1634
S'443'
p1635
asbasbasbag56
(g72
g58
NtRp1636
(dp1637
g61
(dp1638
sg70
g648
sg63
(lp1639
g56
(g77
g58
NtRp1640
(dp1641
g61
(dp1642
g81
g82
ssg70
g1636
sg63
(lp1643
S'server_protocol'
p1644
asbag56
(g77
g58
NtRp1645
(dp1646
g61
(dp1647
g88
g89
ssg70
g1636
sg63
(lp1648
S':'
asbag56
(g77
g58
NtRp1649
(dp1650
g61
(dp1651
sg70
g1636
sg63
(lp1652
g56
(g57
g58
NtRp1653
(dp1654
g61
(dp1655
g69
I4
ssg70
g1649
sg63
(lp1656
S'HTTP/1.1'
p1657
asbasbasbag56
(g72
g58
NtRp1658
(dp1659
g61
(dp1660
sg70
g648
sg63
(lp1661
g56
(g77
g58
NtRp1662
(dp1663
g61
(dp1664
g81
g82
ssg70
g1658
sg63
(lp1665
S'server_signature'
p1666
asbag56
(g77
g58
NtRp1667
(dp1668
g61
(dp1669
g88
g89
ssg70
g1658
sg63
(lp1670
S':'
asbag56
(g77
g58
NtRp1671
(dp1672
g61
(dp1673
sg70
g1658
sg63
(lp1674
g56
(g57
g58
NtRp1675
(dp1676
g61
(dp1677
g69
I4
ssg70
g1671
sg63
(lp1678
S'<address>Apache/2.2.17 (Ubuntu) Server at localhost Port 443</address>\n'
p1679
asbasbasbag56
(g72
g58
NtRp1680
(dp1681
g61
(dp1682
sg70
g648
sg63
(lp1683
g56
(g77
g58
NtRp1684
(dp1685
g61
(dp1686
g81
g82
ssg70
g1680
sg63
(lp1687
S'server_software'
p1688
asbag56
(g77
g58
NtRp1689
(dp1690
g61
(dp1691
g88
g89
ssg70
g1680
sg63
(lp1692
S':'
asbag56
(g77
g58
NtRp1693
(dp1694
g61
(dp1695
sg70
g1680
sg63
(lp1696
g56
(g57
g58
NtRp1697
(dp1698
g61
(dp1699
g69
I4
ssg70
g1693
sg63
(lp1700
S'Apache/2.2.17 (Ubuntu)'
p1701
asbasbasbag56
(g72
g58
NtRp1702
(dp1703
g61
(dp1704
sg70
g648
sg63
(lp1705
g56
(g77
g58
NtRp1706
(dp1707
g61
(dp1708
g81
g82
ssg70
g1702
sg63
(lp1709
S'ssl_tls_sni'
p1710
asbag56
(g77
g58
NtRp1711
(dp1712
g61
(dp1713
g88
g89
ssg70
g1702
sg63
(lp1714
S':'
asbag56
(g77
g58
NtRp1715
(dp1716
g61
(dp1717
sg70
g1702
sg63
(lp1718
g56
(g57
g58
NtRp1719
(dp1720
g61
(dp1721
g69
I4
ssg70
g1715
sg63
(lp1722
S'localhost'
p1723
asbasbasbag56
(g72
g58
NtRp1724
(dp1725
g61
(dp1726
sg70
g648
sg63
(lp1727
g56
(g77
g58
NtRp1728
(dp1729
g61
(dp1730
g81
g82
ssg70
g1724
sg63
(lp1731
S'web2py_path'
p1732
asbag56
(g77
g58
NtRp1733
(dp1734
g61
(dp1735
g88
g89
ssg70
g1724
sg63
(lp1736
S':'
asbag56
(g77
g58
NtRp1737
(dp1738
g61
(dp1739
sg70
g1724
sg63
(lp1740
g56
(g57
g58
NtRp1741
(dp1742
g61
(dp1743
g69
I4
ssg70
g1737
sg63
(lp1744
g695
asbasbasbag56
(g72
g58
NtRp1745
(dp1746
g61
(dp1747
sg70
g648
sg63
(lp1748
g56
(g77
g58
NtRp1749
(dp1750
g61
(dp1751
g81
g82
ssg70
g1745
sg63
(lp1752
S'web2py_version'
p1753
asbag56
(g77
g58
NtRp1754
(dp1755
g61
(dp1756
g88
g89
ssg70
g1745
sg63
(lp1757
S':'
asbag56
(g77
g58
NtRp1758
(dp1759
g61
(dp1760
sg70
g1745
sg63
(lp1761
g56
(g57
g58
NtRp1762
(dp1763
g61
(dp1764
g69
I4
ssg70
g1758
sg63
(lp1765
S'Version 1.98.2 (2011-08-04 00:47:09)\n'
p1766
asbasbasbag56
(g72
g58
NtRp1767
(dp1768
g61
(dp1769
sg70
g648
sg63
(lp1770
g56
(g77
g58
NtRp1771
(dp1772
g61
(dp1773
g81
g82
ssg70
g1767
sg63
(lp1774
S'wsgi_errors'
p1775
asbag56
(g77
g58
NtRp1776
(dp1777
g61
(dp1778
g88
g89
ssg70
g1767
sg63
(lp1779
S':'
asbag56
(g77
g58
NtRp1780
(dp1781
g61
(dp1782
sg70
g1767
sg63
(lp1783
g56
(g57
g58
NtRp1784
(dp1785
g61
(dp1786
g69
I4
ssg70
g1780
sg63
(lp1787
S'<mod_wsgi.Log object at 0xb9587ae8>'
p1788
asbasbasbag56
(g72
g58
NtRp1789
(dp1790
g61
(dp1791
sg70
g648
sg63
(lp1792
g56
(g77
g58
NtRp1793
(dp1794
g61
(dp1795
g81
g82
ssg70
g1789
sg63
(lp1796
S'wsgi_file_wrapper'
p1797
asbag56
(g77
g58
NtRp1798
(dp1799
g61
(dp1800
g88
g89
ssg70
g1789
sg63
(lp1801
S':'
asbag56
(g77
g58
NtRp1802
(dp1803
g61
(dp1804
sg70
g1789
sg63
(lp1805
g56
(g57
g58
NtRp1806
(dp1807
g61
(dp1808
g69
I4
ssg70
g1802
sg63
(lp1809
S'<built-in method file_wrapper of mod_wsgi.Adapter object at 0xb98054a0>'
p1810
asbasbasbag56
(g72
g58
NtRp1811
(dp1812
g61
(dp1813
sg70
g648
sg63
(lp1814
g56
(g77
g58
NtRp1815
(dp1816
g61
(dp1817
g81
g82
ssg70
g1811
sg63
(lp1818
S'wsgi_input'
p1819
asbag56
(g77
g58
NtRp1820
(dp1821
g61
(dp1822
g88
g89
ssg70
g1811
sg63
(lp1823
S':'
asbag56
(g77
g58
NtRp1824
(dp1825
g61
(dp1826
sg70
g1811
sg63
(lp1827
g56
(g57
g58
NtRp1828
(dp1829
g61
(dp1830
g69
I4
ssg70
g1824
sg63
(lp1831
S'<mod_wsgi.Input object at 0xb97fcea8>'
p1832
asbasbasbag56
(g72
g58
NtRp1833
(dp1834
g61
(dp1835
sg70
g648
sg63
(lp1836
g56
(g77
g58
NtRp1837
(dp1838
g61
(dp1839
g81
g82
ssg70
g1833
sg63
(lp1840
S'wsgi_multiprocess'
p1841
asbag56
(g77
g58
NtRp1842
(dp1843
g61
(dp1844
g88
g89
ssg70
g1833
sg63
(lp1845
S':'
asbag56
(g77
g58
NtRp1846
(dp1847
g61
(dp1848
sg70
g1833
sg63
(lp1849
g56
(g57
g58
NtRp1850
(dp1851
g61
(dp1852
g69
I4
ssg70
g1846
sg63
(lp1853
g99
asbasbasbag56
(g72
g58
NtRp1854
(dp1855
g61
(dp1856
sg70
g648
sg63
(lp1857
g56
(g77
g58
NtRp1858
(dp1859
g61
(dp1860
g81
g82
ssg70
g1854
sg63
(lp1861
S'wsgi_multithread'
p1862
asbag56
(g77
g58
NtRp1863
(dp1864
g61
(dp1865
g88
g89
ssg70
g1854
sg63
(lp1866
S':'
asbag56
(g77
g58
NtRp1867
(dp1868
g61
(dp1869
sg70
g1854
sg63
(lp1870
g56
(g57
g58
NtRp1871
(dp1872
g61
(dp1873
g69
I4
ssg70
g1867
sg63
(lp1874
S'True'
p1875
asbasbasbag56
(g72
g58
NtRp1876
(dp1877
g61
(dp1878
sg70
g648
sg63
(lp1879
g56
(g77
g58
NtRp1880
(dp1881
g61
(dp1882
g81
g82
ssg70
g1876
sg63
(lp1883
S'wsgi_run_once'
p1884
asbag56
(g77
g58
NtRp1885
(dp1886
g61
(dp1887
g88
g89
ssg70
g1876
sg63
(lp1888
S':'
asbag56
(g77
g58
NtRp1889
(dp1890
g61
(dp1891
sg70
g1876
sg63
(lp1892
g56
(g57
g58
NtRp1893
(dp1894
g61
(dp1895
g69
I4
ssg70
g1889
sg63
(lp1896
g99
asbasbasbag56
(g72
g58
NtRp1897
(dp1898
g61
(dp1899
sg70
g648
sg63
(lp1900
g56
(g77
g58
NtRp1901
(dp1902
g61
(dp1903
g81
g82
ssg70
g1897
sg63
(lp1904
S'wsgi_url_scheme'
p1905
asbag56
(g77
g58
NtRp1906
(dp1907
g61
(dp1908
g88
g89
ssg70
g1897
sg63
(lp1909
S':'
asbag56
(g77
g58
NtRp1910
(dp1911
g61
(dp1912
sg70
g1897
sg63
(lp1913
g56
(g57
g58
NtRp1914
(dp1915
g61
(dp1916
g69
I4
ssg70
g1910
sg63
(lp1917
S'https'
p1918
asbasbasbag56
(g72
g58
NtRp1919
(dp1920
g61
(dp1921
sg70
g648
sg63
(lp1922
g56
(g77
g58
NtRp1923
(dp1924
g61
(dp1925
g81
g82
ssg70
g1919
sg63
(lp1926
S'wsgi_version'
p1927
asbag56
(g77
g58
NtRp1928
(dp1929
g61
(dp1930
g88
g89
ssg70
g1919
sg63
(lp1931
S':'
asbag56
(g77
g58
NtRp1932
(dp1933
g61
(dp1934
sg70
g1919
sg63
(lp1935
g56
(g57
g58
NtRp1936
(dp1937
g61
(dp1938
g69
I4
ssg70
g1932
sg63
(lp1939
g56
(g65
g58
NtRp1940
(dp1941
g61
(dp1942
g69
I3
ssg70
Nsg63
(lp1943
g56
(g72
g58
NtRp1944
(dp1945
g61
(dp1946
sg70
g1940
sg63
(lp1947
g56
(g77
g58
NtRp1948
(dp1949
g61
(dp1950
sg70
g1944
sg63
(lp1951
g56
(g57
g58
NtRp1952
(dp1953
g61
(dp1954
g69
I3
ssg70
g1948
sg63
(lp1955
S'1'
asbasbasbag56
(g72
g58
NtRp1956
(dp1957
g61
(dp1958
sg70
g1940
sg63
(lp1959
g56
(g77
g58
NtRp1960
(dp1961
g61
(dp1962
sg70
g1956
sg63
(lp1963
g56
(g57
g58
NtRp1964
(dp1965
g61
(dp1966
g69
I3
ssg70
g1960
sg63
(lp1967
S'1'
asbasbasbasbasbasbasbasbasbasbasbag56
(g72
g58
NtRp1968
(dp1969
g61
(dp1970
sg70
g66
sg63
(lp1971
g56
(g77
g58
NtRp1972
(dp1973
g61
(dp1974
g81
g82
ssg70
g1968
sg63
(lp1975
S'extension'
p1976
asbag56
(g77
g58
NtRp1977
(dp1978
g61
(dp1979
g88
g89
ssg70
g1968
sg63
(lp1980
S':'
asbag56
(g77
g58
NtRp1981
(dp1982
g61
(dp1983
sg70
g1968
sg63
(lp1984
g56
(g57
g58
NtRp1985
(dp1986
g61
(dp1987
g69
I5
ssg70
g1981
sg63
(lp1988
S'html'
p1989
asbasbasbag56
(g72
g58
NtRp1990
(dp1991
g61
(dp1992
sg70
g66
sg63
(lp1993
g56
(g77
g58
NtRp1994
(dp1995
g61
(dp1996
g81
g82
ssg70
g1990
sg63
(lp1997
S'folder'
p1998
asbag56
(g77
g58
NtRp1999
(dp2000
g61
(dp2001
g88
g89
ssg70
g1990
sg63
(lp2002
S':'
asbag56
(g77
g58
NtRp2003
(dp2004
g61
(dp2005
sg70
g1990
sg63
(lp2006
g56
(g57
g58
NtRp2007
(dp2008
g61
(dp2009
g69
I5
ssg70
g2003
sg63
(lp2010
S'/home/www-data/web2py/applications/scrum/'
p2011
asbasbasbag56
(g72
g58
NtRp2012
(dp2013
g61
(dp2014
sg70
g66
sg63
(lp2015
g56
(g77
g58
NtRp2016
(dp2017
g61
(dp2018
g81
g82
ssg70
g2012
sg63
(lp2019
S'function'
p2020
asbag56
(g77
g58
NtRp2021
(dp2022
g61
(dp2023
g88
g89
ssg70
g2012
sg63
(lp2024
S':'
asbag56
(g77
g58
NtRp2025
(dp2026
g61
(dp2027
sg70
g2012
sg63
(lp2028
g56
(g57
g58
NtRp2029
(dp2030
g61
(dp2031
g69
I5
ssg70
g2025
sg63
(lp2032
S'editar'
p2033
asbasbasbag56
(g72
g58
NtRp2034
(dp2035
g61
(dp2036
sg70
g66
sg63
(lp2037
g56
(g77
g58
NtRp2038
(dp2039
g61
(dp2040
g81
g82
ssg70
g2034
sg63
(lp2041
S'get_vars'
p2042
asbag56
(g77
g58
NtRp2043
(dp2044
g61
(dp2045
g88
g89
ssg70
g2034
sg63
(lp2046
S':'
asbag56
(g77
g58
NtRp2047
(dp2048
g61
(dp2049
sg70
g2034
sg63
(lp2050
g56
(g57
g58
NtRp2051
(dp2052
g61
(dp2053
g69
I5
ssg70
g2047
sg63
(lp2054
g56
(g65
g58
NtRp2055
(dp2056
g61
(dp2057
g69
I4
ssg70
Nsg63
(lp2058
sbasbasbasbag56
(g72
g58
NtRp2059
(dp2060
g61
(dp2061
sg70
g66
sg63
(lp2062
g56
(g77
g58
NtRp2063
(dp2064
g61
(dp2065
g81
g82
ssg70
g2059
sg63
(lp2066
S'is_https'
p2067
asbag56
(g77
g58
NtRp2068
(dp2069
g61
(dp2070
g88
g89
ssg70
g2059
sg63
(lp2071
S':'
asbag56
(g77
g58
NtRp2072
(dp2073
g61
(dp2074
sg70
g2059
sg63
(lp2075
g56
(g57
g58
NtRp2076
(dp2077
g61
(dp2078
g69
I5
ssg70
g2072
sg63
(lp2079
g1875
asbasbasbag56
(g72
g58
NtRp2080
(dp2081
g61
(dp2082
sg70
g66
sg63
(lp2083
g56
(g77
g58
NtRp2084
(dp2085
g61
(dp2086
g81
g82
ssg70
g2080
sg63
(lp2087
S'is_local'
p2088
asbag56
(g77
g58
NtRp2089
(dp2090
g61
(dp2091
g88
g89
ssg70
g2080
sg63
(lp2092
S':'
asbag56
(g77
g58
NtRp2093
(dp2094
g61
(dp2095
sg70
g2080
sg63
(lp2096
g56
(g57
g58
NtRp2097
(dp2098
g61
(dp2099
g69
I5
ssg70
g2093
sg63
(lp2100
g1875
asbasbasbag56
(g72
g58
NtRp2101
(dp2102
g61
(dp2103
sg70
g66
sg63
(lp2104
g56
(g77
g58
NtRp2105
(dp2106
g61
(dp2107
g81
g82
ssg70
g2101
sg63
(lp2108
S'is_restful'
p2109
asbag56
(g77
g58
NtRp2110
(dp2111
g61
(dp2112
g88
g89
ssg70
g2101
sg63
(lp2113
S':'
asbag56
(g77
g58
NtRp2114
(dp2115
g61
(dp2116
sg70
g2101
sg63
(lp2117
g56
(g57
g58
NtRp2118
(dp2119
g61
(dp2120
g69
I5
ssg70
g2114
sg63
(lp2121
g99
asbasbasbag56
(g72
g58
NtRp2122
(dp2123
g61
(dp2124
sg70
g66
sg63
(lp2125
g56
(g77
g58
NtRp2126
(dp2127
g61
(dp2128
g81
g82
ssg70
g2122
sg63
(lp2129
S'now'
p2130
asbag56
(g77
g58
NtRp2131
(dp2132
g61
(dp2133
g88
g89
ssg70
g2122
sg63
(lp2134
S':'
asbag56
(g77
g58
NtRp2135
(dp2136
g61
(dp2137
sg70
g2122
sg63
(lp2138
g56
(g57
g58
NtRp2139
(dp2140
g61
(dp2141
g69
I5
ssg70
g2135
sg63
(lp2142
S'datetime.datetime(2011, 9, 12, 17, 1, 18, 454624)'
p2143
asbasbasbag56
(g72
g58
NtRp2144
(dp2145
g61
(dp2146
sg70
g66
sg63
(lp2147
g56
(g77
g58
NtRp2148
(dp2149
g61
(dp2150
g81
g82
ssg70
g2144
sg63
(lp2151
S'post_vars'
p2152
asbag56
(g77
g58
NtRp2153
(dp2154
g61
(dp2155
g88
g89
ssg70
g2144
sg63
(lp2156
S':'
asbag56
(g77
g58
NtRp2157
(dp2158
g61
(dp2159
sg70
g2144
sg63
(lp2160
g56
(g57
g58
NtRp2161
(dp2162
g61
(dp2163
g69
I5
ssg70
g2157
sg63
(lp2164
g56
(g65
g58
NtRp2165
(dp2166
g61
(dp2167
g69
I4
ssg70
Nsg63
(lp2168
g56
(g72
g58
NtRp2169
(dp2170
g61
(dp2171
sg70
g2165
sg63
(lp2172
g56
(g77
g58
NtRp2173
(dp2174
g61
(dp2175
g81
g82
ssg70
g2169
sg63
(lp2176
S'analista'
p2177
asbag56
(g77
g58
NtRp2178
(dp2179
g61
(dp2180
g88
g89
ssg70
g2169
sg63
(lp2181
S':'
asbag56
(g77
g58
NtRp2182
(dp2183
g61
(dp2184
sg70
g2169
sg63
(lp2185
g56
(g57
g58
NtRp2186
(dp2187
g61
(dp2188
g69
I4
ssg70
g2182
sg63
(lp2189
S'2'
asbasbasbag56
(g72
g58
NtRp2190
(dp2191
g61
(dp2192
sg70
g2165
sg63
(lp2193
g56
(g77
g58
NtRp2194
(dp2195
g61
(dp2196
g81
g82
ssg70
g2190
sg63
(lp2197
S'chamado'
p2198
asbag56
(g77
g58
NtRp2199
(dp2200
g61
(dp2201
g88
g89
ssg70
g2190
sg63
(lp2202
S':'
asbag56
(g77
g58
NtRp2203
(dp2204
g61
(dp2205
sg70
g2190
sg63
(lp2206
g56
(g57
g58
NtRp2207
(dp2208
g61
(dp2209
g69
I4
ssg70
g2203
sg63
(lp2210
S'11447'
p2211
asbasbasbag56
(g72
g58
NtRp2212
(dp2213
g61
(dp2214
sg70
g2165
sg63
(lp2215
g56
(g77
g58
NtRp2216
(dp2217
g61
(dp2218
g81
g82
ssg70
g2212
sg63
(lp2219
S'cliente'
p2220
asbag56
(g77
g58
NtRp2221
(dp2222
g61
(dp2223
g88
g89
ssg70
g2212
sg63
(lp2224
S':'
asbag56
(g77
g58
NtRp2225
(dp2226
g61
(dp2227
sg70
g2212
sg63
(lp2228
g56
(g57
g58
NtRp2229
(dp2230
g61
(dp2231
g69
I4
ssg70
g2225
sg63
(lp2232
S''
asbasbasbag56
(g72
g58
NtRp2233
(dp2234
g61
(dp2235
sg70
g2165
sg63
(lp2236
g56
(g77
g58
NtRp2237
(dp2238
g61
(dp2239
g81
g82
ssg70
g2233
sg63
(lp2240
S'consultor'
p2241
asbag56
(g77
g58
NtRp2242
(dp2243
g61
(dp2244
g88
g89
ssg70
g2233
sg63
(lp2245
S':'
asbag56
(g77
g58
NtRp2246
(dp2247
g61
(dp2248
sg70
g2233
sg63
(lp2249
g56
(g57
g58
NtRp2250
(dp2251
g61
(dp2252
g69
I4
ssg70
g2246
sg63
(lp2253
S'2'
asbasbasbag56
(g72
g58
NtRp2254
(dp2255
g61
(dp2256
sg70
g2165
sg63
(lp2257
g56
(g77
g58
NtRp2258
(dp2259
g61
(dp2260
g81
g82
ssg70
g2254
sg63
(lp2261
S'estado'
p2262
asbag56
(g77
g58
NtRp2263
(dp2264
g61
(dp2265
g88
g89
ssg70
g2254
sg63
(lp2266
S':'
asbag56
(g77
g58
NtRp2267
(dp2268
g61
(dp2269
sg70
g2254
sg63
(lp2270
g56
(g57
g58
NtRp2271
(dp2272
g61
(dp2273
g69
I4
ssg70
g2267
sg63
(lp2274
S'1'
asbasbasbag56
(g72
g58
NtRp2275
(dp2276
g61
(dp2277
sg70
g2165
sg63
(lp2278
g56
(g77
g58
NtRp2279
(dp2280
g61
(dp2281
g81
g82
ssg70
g2275
sg63
(lp2282
S'fim'
p2283
asbag56
(g77
g58
NtRp2284
(dp2285
g61
(dp2286
g88
g89
ssg70
g2275
sg63
(lp2287
S':'
asbag56
(g77
g58
NtRp2288
(dp2289
g61
(dp2290
sg70
g2275
sg63
(lp2291
g56
(g57
g58
NtRp2292
(dp2293
g61
(dp2294
g69
I4
ssg70
g2288
sg63
(lp2295
S'12/09/2011 '
p2296
asbasbasbag56
(g72
g58
NtRp2297
(dp2298
g61
(dp2299
sg70
g2165
sg63
(lp2300
g56
(g77
g58
NtRp2301
(dp2302
g61
(dp2303
g81
g82
ssg70
g2297
sg63
(lp2304
S'id'
p2305
asbag56
(g77
g58
NtRp2306
(dp2307
g61
(dp2308
g88
g89
ssg70
g2297
sg63
(lp2309
S':'
asbag56
(g77
g58
NtRp2310
(dp2311
g61
(dp2312
sg70
g2297
sg63
(lp2313
g56
(g57
g58
NtRp2314
(dp2315
g61
(dp2316
g69
I4
ssg70
g2310
sg63
(lp2317
S'1'
asbasbasbag56
(g72
g58
NtRp2318
(dp2319
g61
(dp2320
sg70
g2165
sg63
(lp2321
g56
(g77
g58
NtRp2322
(dp2323
g61
(dp2324
g81
g82
ssg70
g2318
sg63
(lp2325
S'inicio'
p2326
asbag56
(g77
g58
NtRp2327
(dp2328
g61
(dp2329
g88
g89
ssg70
g2318
sg63
(lp2330
S':'
asbag56
(g77
g58
NtRp2331
(dp2332
g61
(dp2333
sg70
g2318
sg63
(lp2334
g56
(g57
g58
NtRp2335
(dp2336
g61
(dp2337
g69
I4
ssg70
g2331
sg63
(lp2338
S'12/09/2011 '
p2339
asbasbasbag56
(g72
g58
NtRp2340
(dp2341
g61
(dp2342
sg70
g2165
sg63
(lp2343
g56
(g77
g58
NtRp2344
(dp2345
g61
(dp2346
g81
g82
ssg70
g2340
sg63
(lp2347
S'local_teste'
p2348
asbag56
(g77
g58
NtRp2349
(dp2350
g61
(dp2351
g88
g89
ssg70
g2340
sg63
(lp2352
S':'
asbag56
(g77
g58
NtRp2353
(dp2354
g61
(dp2355
sg70
g2340
sg63
(lp2356
g56
(g57
g58
NtRp2357
(dp2358
g61
(dp2359
g69
I4
ssg70
g2353
sg63
(lp2360
S'\\\\vilesoft35v\\testes\\fui\\11447'
p2361
asbasbasbag56
(g72
g58
NtRp2362
(dp2363
g61
(dp2364
sg70
g2165
sg63
(lp2365
g56
(g77
g58
NtRp2366
(dp2367
g61
(dp2368
g81
g82
ssg70
g2362
sg63
(lp2369
S'sistema'
p2370
asbag56
(g77
g58
NtRp2371
(dp2372
g61
(dp2373
g88
g89
ssg70
g2362
sg63
(lp2374
S':'
asbag56
(g77
g58
NtRp2375
(dp2376
g61
(dp2377
sg70
g2362
sg63
(lp2378
g56
(g57
g58
NtRp2379
(dp2380
g61
(dp2381
g69
I4
ssg70
g2375
sg63
(lp2382
S''
asbasbasbag56
(g72
g58
NtRp2383
(dp2384
g61
(dp2385
sg70
g2165
sg63
(lp2386
g56
(g77
g58
NtRp2387
(dp2388
g61
(dp2389
g81
g82
ssg70
g2383
sg63
(lp2390
S'sprint'
p2391
asbag56
(g77
g58
NtRp2392
(dp2393
g61
(dp2394
g88
g89
ssg70
g2383
sg63
(lp2395
S':'
asbag56
(g77
g58
NtRp2396
(dp2397
g61
(dp2398
sg70
g2383
sg63
(lp2399
g56
(g57
g58
NtRp2400
(dp2401
g61
(dp2402
g69
I4
ssg70
g2396
sg63
(lp2403
S'1'
asbasbasbasbasbasbasbag56
(g72
g58
NtRp2404
(dp2405
g61
(dp2406
sg70
g66
sg63
(lp2407
g56
(g77
g58
NtRp2408
(dp2409
g61
(dp2410
g81
g82
ssg70
g2404
sg63
(lp2411
S'raw_args'
p2412
asbag56
(g77
g58
NtRp2413
(dp2414
g61
(dp2415
g88
g89
ssg70
g2404
sg63
(lp2416
S':'
asbag56
(g77
g58
NtRp2417
(dp2418
g61
(dp2419
sg70
g2404
sg63
(lp2420
g56
(g57
g58
NtRp2421
(dp2422
g61
(dp2423
g69
I5
ssg70
g2417
sg63
(lp2424
S'1'
asbasbasbag56
(g72
g58
NtRp2425
(dp2426
g61
(dp2427
sg70
g66
sg63
(lp2428
g56
(g77
g58
NtRp2429
(dp2430
g61
(dp2431
g81
g82
ssg70
g2425
sg63
(lp2432
S'url'
p2433
asbag56
(g77
g58
NtRp2434
(dp2435
g61
(dp2436
g88
g89
ssg70
g2425
sg63
(lp2437
S':'
asbag56
(g77
g58
NtRp2438
(dp2439
g61
(dp2440
sg70
g2425
sg63
(lp2441
g56
(g57
g58
NtRp2442
(dp2443
g61
(dp2444
g69
I5
ssg70
g2438
sg63
(lp2445
S'/scrum/ticket/editar/1'
p2446
asbasbasbag56
(g72
g58
NtRp2447
(dp2448
g61
(dp2449
sg70
g66
sg63
(lp2450
g56
(g77
g58
NtRp2451
(dp2452
g61
(dp2453
g81
g82
ssg70
g2447
sg63
(lp2454
S'uuid'
p2455
asbag56
(g77
g58
NtRp2456
(dp2457
g61
(dp2458
g88
g89
ssg70
g2447
sg63
(lp2459
S':'
asbag56
(g77
g58
NtRp2460
(dp2461
g61
(dp2462
sg70
g2447
sg63
(lp2463
g56
(g57
g58
NtRp2464
(dp2465
g61
(dp2466
g69
I5
ssg70
g2460
sg63
(lp2467
S'scrum/127.0.0.1.2011-09-12.17-01-18.8238218d-c202-4347-8cde-7b4ad88d0af3'
p2468
asbasbasbag56
(g72
g58
NtRp2469
(dp2470
g61
(dp2471
sg70
g66
sg63
(lp2472
g56
(g77
g58
NtRp2473
(dp2474
g61
(dp2475
g81
g82
ssg70
g2469
sg63
(lp2476
S'vars'
p2477
asbag56
(g77
g58
NtRp2478
(dp2479
g61
(dp2480
g88
g89
ssg70
g2469
sg63
(lp2481
S':'
asbag56
(g77
g58
NtRp2482
(dp2483
g61
(dp2484
sg70
g2469
sg63
(lp2485
g56
(g57
g58
NtRp2486
(dp2487
g61
(dp2488
g69
I5
ssg70
g2482
sg63
(lp2489
g56
(g65
g58
NtRp2490
(dp2491
g61
(dp2492
g69
I4
ssg70
Nsg63
(lp2493
g56
(g72
g58
NtRp2494
(dp2495
g61
(dp2496
sg70
g2490
sg63
(lp2497
g56
(g77
g58
NtRp2498
(dp2499
g61
(dp2500
g81
g82
ssg70
g2494
sg63
(lp2501
g2177
asbag56
(g77
g58
NtRp2502
(dp2503
g61
(dp2504
g88
g89
ssg70
g2494
sg63
(lp2505
S':'
asbag56
(g77
g58
NtRp2506
(dp2507
g61
(dp2508
sg70
g2494
sg63
(lp2509
g56
(g57
g58
NtRp2510
(dp2511
g61
(dp2512
g69
I4
ssg70
g2506
sg63
(lp2513
S'2'
asbasbasbag56
(g72
g58
NtRp2514
(dp2515
g61
(dp2516
sg70
g2490
sg63
(lp2517
g56
(g77
g58
NtRp2518
(dp2519
g61
(dp2520
g81
g82
ssg70
g2514
sg63
(lp2521
g2198
asbag56
(g77
g58
NtRp2522
(dp2523
g61
(dp2524
g88
g89
ssg70
g2514
sg63
(lp2525
S':'
asbag56
(g77
g58
NtRp2526
(dp2527
g61
(dp2528
sg70
g2514
sg63
(lp2529
g56
(g57
g58
NtRp2530
(dp2531
g61
(dp2532
g69
I4
ssg70
g2526
sg63
(lp2533
g2211
asbasbasbag56
(g72
g58
NtRp2534
(dp2535
g61
(dp2536
sg70
g2490
sg63
(lp2537
g56
(g77
g58
NtRp2538
(dp2539
g61
(dp2540
g81
g82
ssg70
g2534
sg63
(lp2541
g2220
asbag56
(g77
g58
NtRp2542
(dp2543
g61
(dp2544
g88
g89
ssg70
g2534
sg63
(lp2545
S':'
asbag56
(g77
g58
NtRp2546
(dp2547
g61
(dp2548
sg70
g2534
sg63
(lp2549
g56
(g57
g58
NtRp2550
(dp2551
g61
(dp2552
g69
I4
ssg70
g2546
sg63
(lp2553
S''
asbasbasbag56
(g72
g58
NtRp2554
(dp2555
g61
(dp2556
sg70
g2490
sg63
(lp2557
g56
(g77
g58
NtRp2558
(dp2559
g61
(dp2560
g81
g82
ssg70
g2554
sg63
(lp2561
g2241
asbag56
(g77
g58
NtRp2562
(dp2563
g61
(dp2564
g88
g89
ssg70
g2554
sg63
(lp2565
S':'
asbag56
(g77
g58
NtRp2566
(dp2567
g61
(dp2568
sg70
g2554
sg63
(lp2569
g56
(g57
g58
NtRp2570
(dp2571
g61
(dp2572
g69
I4
ssg70
g2566
sg63
(lp2573
S'2'
asbasbasbag56
(g72
g58
NtRp2574
(dp2575
g61
(dp2576
sg70
g2490
sg63
(lp2577
g56
(g77
g58
NtRp2578
(dp2579
g61
(dp2580
g81
g82
ssg70
g2574
sg63
(lp2581
g2262
asbag56
(g77
g58
NtRp2582
(dp2583
g61
(dp2584
g88
g89
ssg70
g2574
sg63
(lp2585
S':'
asbag56
(g77
g58
NtRp2586
(dp2587
g61
(dp2588
sg70
g2574
sg63
(lp2589
g56
(g57
g58
NtRp2590
(dp2591
g61
(dp2592
g69
I4
ssg70
g2586
sg63
(lp2593
S'1'
asbasbasbag56
(g72
g58
NtRp2594
(dp2595
g61
(dp2596
sg70
g2490
sg63
(lp2597
g56
(g77
g58
NtRp2598
(dp2599
g61
(dp2600
g81
g82
ssg70
g2594
sg63
(lp2601
g2283
asbag56
(g77
g58
NtRp2602
(dp2603
g61
(dp2604
g88
g89
ssg70
g2594
sg63
(lp2605
S':'
asbag56
(g77
g58
NtRp2606
(dp2607
g61
(dp2608
sg70
g2594
sg63
(lp2609
g56
(g57
g58
NtRp2610
(dp2611
g61
(dp2612
g69
I4
ssg70
g2606
sg63
(lp2613
g2296
asbasbasbag56
(g72
g58
NtRp2614
(dp2615
g61
(dp2616
sg70
g2490
sg63
(lp2617
g56
(g77
g58
NtRp2618
(dp2619
g61
(dp2620
g81
g82
ssg70
g2614
sg63
(lp2621
g2305
asbag56
(g77
g58
NtRp2622
(dp2623
g61
(dp2624
g88
g89
ssg70
g2614
sg63
(lp2625
S':'
asbag56
(g77
g58
NtRp2626
(dp2627
g61
(dp2628
sg70
g2614
sg63
(lp2629
g56
(g57
g58
NtRp2630
(dp2631
g61
(dp2632
g69
I4
ssg70
g2626
sg63
(lp2633
S'1'
asbasbasbag56
(g72
g58
NtRp2634
(dp2635
g61
(dp2636
sg70
g2490
sg63
(lp2637
g56
(g77
g58
NtRp2638
(dp2639
g61
(dp2640
g81
g82
ssg70
g2634
sg63
(lp2641
g2326
asbag56
(g77
g58
NtRp2642
(dp2643
g61
(dp2644
g88
g89
ssg70
g2634
sg63
(lp2645
S':'
asbag56
(g77
g58
NtRp2646
(dp2647
g61
(dp2648
sg70
g2634
sg63
(lp2649
g56
(g57
g58
NtRp2650
(dp2651
g61
(dp2652
g69
I4
ssg70
g2646
sg63
(lp2653
g2339
asbasbasbag56
(g72
g58
NtRp2654
(dp2655
g61
(dp2656
sg70
g2490
sg63
(lp2657
g56
(g77
g58
NtRp2658
(dp2659
g61
(dp2660
g81
g82
ssg70
g2654
sg63
(lp2661
g2348
asbag56
(g77
g58
NtRp2662
(dp2663
g61
(dp2664
g88
g89
ssg70
g2654
sg63
(lp2665
S':'
asbag56
(g77
g58
NtRp2666
(dp2667
g61
(dp2668
sg70
g2654
sg63
(lp2669
g56
(g57
g58
NtRp2670
(dp2671
g61
(dp2672
g69
I4
ssg70
g2666
sg63
(lp2673
g2361
asbasbasbag56
(g72
g58
NtRp2674
(dp2675
g61
(dp2676
sg70
g2490
sg63
(lp2677
g56
(g77
g58
NtRp2678
(dp2679
g61
(dp2680
g81
g82
ssg70
g2674
sg63
(lp2681
g2370
asbag56
(g77
g58
NtRp2682
(dp2683
g61
(dp2684
g88
g89
ssg70
g2674
sg63
(lp2685
S':'
asbag56
(g77
g58
NtRp2686
(dp2687
g61
(dp2688
sg70
g2674
sg63
(lp2689
g56
(g57
g58
NtRp2690
(dp2691
g61
(dp2692
g69
I4
ssg70
g2686
sg63
(lp2693
S''
asbasbasbag56
(g72
g58
NtRp2694
(dp2695
g61
(dp2696
sg70
g2490
sg63
(lp2697
g56
(g77
g58
NtRp2698
(dp2699
g61
(dp2700
g81
g82
ssg70
g2694
sg63
(lp2701
g2391
asbag56
(g77
g58
NtRp2702
(dp2703
g61
(dp2704
g88
g89
ssg70
g2694
sg63
(lp2705
S':'
asbag56
(g77
g58
NtRp2706
(dp2707
g61
(dp2708
sg70
g2694
sg63
(lp2709
g56
(g57
g58
NtRp2710
(dp2711
g61
(dp2712
g69
I4
ssg70
g2706
sg63
(lp2713
S'1'
asbasbasbasbasbasbasbag56
(g72
g58
NtRp2714
(dp2715
g61
(dp2716
sg70
g66
sg63
(lp2717
g56
(g77
g58
NtRp2718
(dp2719
g61
(dp2720
g81
g82
ssg70
g2714
sg63
(lp2721
S'wsgi'
p2722
asbag56
(g77
g58
NtRp2723
(dp2724
g61
(dp2725
g88
g89
ssg70
g2714
sg63
(lp2726
S':'
asbag56
(g77
g58
NtRp2727
(dp2728
g61
(dp2729
sg70
g2714
sg63
(lp2730
g56
(g57
g58
NtRp2731
(dp2732
g61
(dp2733
g69
I5
ssg70
g2727
sg63
(lp2734
g56
(g65
g58
NtRp2735
(dp2736
g61
(dp2737
g69
I4
ssg70
Nsg63
(lp2738
g56
(g72
g58
NtRp2739
(dp2740
g61
(dp2741
sg70
g2735
sg63
(lp2742
g56
(g77
g58
NtRp2743
(dp2744
g61
(dp2745
g81
g82
ssg70
g2739
sg63
(lp2746
S'environ'
p2747
asbag56
(g77
g58
NtRp2748
(dp2749
g61
(dp2750
g88
g89
ssg70
g2739
sg63
(lp2751
S':'
asbag56
(g77
g58
NtRp2752
(dp2753
g61
(dp2754
sg70
g2739
sg63
(lp2755
g56
(g57
g58
NtRp2756
(dp2757
g61
(dp2758
g69
I4
ssg70
g2752
sg63
(lp2759
g56
(g65
g58
NtRp2760
(dp2761
g61
(dp2762
g69
I3
ssg70
Nsg63
(lp2763
g56
(g72
g58
NtRp2764
(dp2765
g61
(dp2766
sg70
g2760
sg63
(lp2767
g56
(g77
g58
NtRp2768
(dp2769
g61
(dp2770
g81
g82
ssg70
g2764
sg63
(lp2771
S'CONTENT_LENGTH'
p2772
asbag56
(g77
g58
NtRp2773
(dp2774
g61
(dp2775
g88
g89
ssg70
g2764
sg63
(lp2776
S':'
asbag56
(g77
g58
NtRp2777
(dp2778
g61
(dp2779
sg70
g2764
sg63
(lp2780
g56
(g57
g58
NtRp2781
(dp2782
g61
(dp2783
g69
I3
ssg70
g2777
sg63
(lp2784
g717
asbasbasbag56
(g72
g58
NtRp2785
(dp2786
g61
(dp2787
sg70
g2760
sg63
(lp2788
g56
(g77
g58
NtRp2789
(dp2790
g61
(dp2791
g81
g82
ssg70
g2785
sg63
(lp2792
S'CONTENT_TYPE'
p2793
asbag56
(g77
g58
NtRp2794
(dp2795
g61
(dp2796
g88
g89
ssg70
g2785
sg63
(lp2797
S':'
asbag56
(g77
g58
NtRp2798
(dp2799
g61
(dp2800
sg70
g2785
sg63
(lp2801
g56
(g57
g58
NtRp2802
(dp2803
g61
(dp2804
g69
I3
ssg70
g2798
sg63
(lp2805
g739
asbasbasbag56
(g72
g58
NtRp2806
(dp2807
g61
(dp2808
sg70
g2760
sg63
(lp2809
g56
(g77
g58
NtRp2810
(dp2811
g61
(dp2812
g81
g82
ssg70
g2806
sg63
(lp2813
S'DOCUMENT_ROOT'
p2814
asbag56
(g77
g58
NtRp2815
(dp2816
g61
(dp2817
g88
g89
ssg70
g2806
sg63
(lp2818
S':'
asbag56
(g77
g58
NtRp2819
(dp2820
g61
(dp2821
sg70
g2806
sg63
(lp2822
g56
(g57
g58
NtRp2823
(dp2824
g61
(dp2825
g69
I3
ssg70
g2819
sg63
(lp2826
g804
asbasbasbag56
(g72
g58
NtRp2827
(dp2828
g61
(dp2829
sg70
g2760
sg63
(lp2830
g56
(g77
g58
NtRp2831
(dp2832
g61
(dp2833
g81
g82
ssg70
g2827
sg63
(lp2834
S'GATEWAY_INTERFACE'
p2835
asbag56
(g77
g58
NtRp2836
(dp2837
g61
(dp2838
g88
g89
ssg70
g2827
sg63
(lp2839
S':'
asbag56
(g77
g58
NtRp2840
(dp2841
g61
(dp2842
sg70
g2827
sg63
(lp2843
g56
(g57
g58
NtRp2844
(dp2845
g61
(dp2846
g69
I3
ssg70
g2840
sg63
(lp2847
g826
asbasbasbag56
(g72
g58
NtRp2848
(dp2849
g61
(dp2850
sg70
g2760
sg63
(lp2851
g56
(g77
g58
NtRp2852
(dp2853
g61
(dp2854
g81
g82
ssg70
g2848
sg63
(lp2855
S'HTTPS'
p2856
asbag56
(g77
g58
NtRp2857
(dp2858
g61
(dp2859
g88
g89
ssg70
g2848
sg63
(lp2860
S':'
asbag56
(g77
g58
NtRp2861
(dp2862
g61
(dp2863
sg70
g2848
sg63
(lp2864
g56
(g57
g58
NtRp2865
(dp2866
g61
(dp2867
g69
I3
ssg70
g2861
sg63
(lp2868
S'1'
asbasbasbag56
(g72
g58
NtRp2869
(dp2870
g61
(dp2871
sg70
g2760
sg63
(lp2872
g56
(g77
g58
NtRp2873
(dp2874
g61
(dp2875
g81
g82
ssg70
g2869
sg63
(lp2876
S'HTTP_ACCEPT'
p2877
asbag56
(g77
g58
NtRp2878
(dp2879
g61
(dp2880
g88
g89
ssg70
g2869
sg63
(lp2881
S':'
asbag56
(g77
g58
NtRp2882
(dp2883
g61
(dp2884
sg70
g2869
sg63
(lp2885
g56
(g57
g58
NtRp2886
(dp2887
g61
(dp2888
g69
I3
ssg70
g2882
sg63
(lp2889
g869
asbasbasbag56
(g72
g58
NtRp2890
(dp2891
g61
(dp2892
sg70
g2760
sg63
(lp2893
g56
(g77
g58
NtRp2894
(dp2895
g61
(dp2896
g81
g82
ssg70
g2890
sg63
(lp2897
S'HTTP_ACCEPT_CHARSET'
p2898
asbag56
(g77
g58
NtRp2899
(dp2900
g61
(dp2901
g88
g89
ssg70
g2890
sg63
(lp2902
S':'
asbag56
(g77
g58
NtRp2903
(dp2904
g61
(dp2905
sg70
g2890
sg63
(lp2906
g56
(g57
g58
NtRp2907
(dp2908
g61
(dp2909
g69
I3
ssg70
g2903
sg63
(lp2910
g891
asbasbasbag56
(g72
g58
NtRp2911
(dp2912
g61
(dp2913
sg70
g2760
sg63
(lp2914
g56
(g77
g58
NtRp2915
(dp2916
g61
(dp2917
g81
g82
ssg70
g2911
sg63
(lp2918
S'HTTP_ACCEPT_ENCODING'
p2919
asbag56
(g77
g58
NtRp2920
(dp2921
g61
(dp2922
g88
g89
ssg70
g2911
sg63
(lp2923
S':'
asbag56
(g77
g58
NtRp2924
(dp2925
g61
(dp2926
sg70
g2911
sg63
(lp2927
g56
(g57
g58
NtRp2928
(dp2929
g61
(dp2930
g69
I3
ssg70
g2924
sg63
(lp2931
g913
asbasbasbag56
(g72
g58
NtRp2932
(dp2933
g61
(dp2934
sg70
g2760
sg63
(lp2935
g56
(g77
g58
NtRp2936
(dp2937
g61
(dp2938
g81
g82
ssg70
g2932
sg63
(lp2939
S'HTTP_ACCEPT_LANGUAGE'
p2940
asbag56
(g77
g58
NtRp2941
(dp2942
g61
(dp2943
g88
g89
ssg70
g2932
sg63
(lp2944
S':'
asbag56
(g77
g58
NtRp2945
(dp2946
g61
(dp2947
sg70
g2932
sg63
(lp2948
g56
(g57
g58
NtRp2949
(dp2950
g61
(dp2951
g69
I3
ssg70
g2945
sg63
(lp2952
g935
asbasbasbag56
(g72
g58
NtRp2953
(dp2954
g61
(dp2955
sg70
g2760
sg63
(lp2956
g56
(g77
g58
NtRp2957
(dp2958
g61
(dp2959
g81
g82
ssg70
g2953
sg63
(lp2960
S'HTTP_CACHE_CONTROL'
p2961
asbag56
(g77
g58
NtRp2962
(dp2963
g61
(dp2964
g88
g89
ssg70
g2953
sg63
(lp2965
S':'
asbag56
(g77
g58
NtRp2966
(dp2967
g61
(dp2968
sg70
g2953
sg63
(lp2969
g56
(g57
g58
NtRp2970
(dp2971
g61
(dp2972
g69
I3
ssg70
g2966
sg63
(lp2973
g957
asbasbasbag56
(g72
g58
NtRp2974
(dp2975
g61
(dp2976
sg70
g2760
sg63
(lp2977
g56
(g77
g58
NtRp2978
(dp2979
g61
(dp2980
g81
g82
ssg70
g2974
sg63
(lp2981
S'HTTP_CONNECTION'
p2982
asbag56
(g77
g58
NtRp2983
(dp2984
g61
(dp2985
g88
g89
ssg70
g2974
sg63
(lp2986
S':'
asbag56
(g77
g58
NtRp2987
(dp2988
g61
(dp2989
sg70
g2974
sg63
(lp2990
g56
(g57
g58
NtRp2991
(dp2992
g61
(dp2993
g69
I3
ssg70
g2987
sg63
(lp2994
g979
asbasbasbag56
(g72
g58
NtRp2995
(dp2996
g61
(dp2997
sg70
g2760
sg63
(lp2998
g56
(g77
g58
NtRp2999
(dp3000
g61
(dp3001
g81
g82
ssg70
g2995
sg63
(lp3002
S'HTTP_COOKIE'
p3003
asbag56
(g77
g58
NtRp3004
(dp3005
g61
(dp3006
g88
g89
ssg70
g2995
sg63
(lp3007
S':'
asbag56
(g77
g58
NtRp3008
(dp3009
g61
(dp3010
sg70
g2995
sg63
(lp3011
g56
(g57
g58
NtRp3012
(dp3013
g61
(dp3014
g69
I3
ssg70
g3008
sg63
(lp3015
g1001
asbasbasbag56
(g72
g58
NtRp3016
(dp3017
g61
(dp3018
sg70
g2760
sg63
(lp3019
g56
(g77
g58
NtRp3020
(dp3021
g61
(dp3022
g81
g82
ssg70
g3016
sg63
(lp3023
S'HTTP_HOST'
p3024
asbag56
(g77
g58
NtRp3025
(dp3026
g61
(dp3027
g88
g89
ssg70
g3016
sg63
(lp3028
S':'
asbag56
(g77
g58
NtRp3029
(dp3030
g61
(dp3031
sg70
g3016
sg63
(lp3032
g56
(g57
g58
NtRp3033
(dp3034
g61
(dp3035
g69
I3
ssg70
g3029
sg63
(lp3036
g1023
asbasbasbag56
(g72
g58
NtRp3037
(dp3038
g61
(dp3039
sg70
g2760
sg63
(lp3040
g56
(g77
g58
NtRp3041
(dp3042
g61
(dp3043
g81
g82
ssg70
g3037
sg63
(lp3044
S'HTTP_REFERER'
p3045
asbag56
(g77
g58
NtRp3046
(dp3047
g61
(dp3048
g88
g89
ssg70
g3037
sg63
(lp3049
S':'
asbag56
(g77
g58
NtRp3050
(dp3051
g61
(dp3052
sg70
g3037
sg63
(lp3053
g56
(g57
g58
NtRp3054
(dp3055
g61
(dp3056
g69
I3
ssg70
g3050
sg63
(lp3057
g1045
asbasbasbag56
(g72
g58
NtRp3058
(dp3059
g61
(dp3060
sg70
g2760
sg63
(lp3061
g56
(g77
g58
NtRp3062
(dp3063
g61
(dp3064
g81
g82
ssg70
g3058
sg63
(lp3065
S'HTTP_USER_AGENT'
p3066
asbag56
(g77
g58
NtRp3067
(dp3068
g61
(dp3069
g88
g89
ssg70
g3058
sg63
(lp3070
S':'
asbag56
(g77
g58
NtRp3071
(dp3072
g61
(dp3073
sg70
g3058
sg63
(lp3074
g56
(g57
g58
NtRp3075
(dp3076
g61
(dp3077
g69
I3
ssg70
g3071
sg63
(lp3078
g1067
asbasbasbag56
(g72
g58
NtRp3079
(dp3080
g61
(dp3081
sg70
g2760
sg63
(lp3082
g56
(g77
g58
NtRp3083
(dp3084
g61
(dp3085
g81
g82
ssg70
g3079
sg63
(lp3086
S'PATH_INFO'
p3087
asbag56
(g77
g58
NtRp3088
(dp3089
g61
(dp3090
g88
g89
ssg70
g3079
sg63
(lp3091
S':'
asbag56
(g77
g58
NtRp3092
(dp3093
g61
(dp3094
sg70
g3079
sg63
(lp3095
g56
(g57
g58
NtRp3096
(dp3097
g61
(dp3098
g69
I3
ssg70
g3092
sg63
(lp3099
g1374
asbasbasbag56
(g72
g58
NtRp3100
(dp3101
g61
(dp3102
sg70
g2760
sg63
(lp3103
g56
(g77
g58
NtRp3104
(dp3105
g61
(dp3106
g81
g82
ssg70
g3100
sg63
(lp3107
S'PATH_TRANSLATED'
p3108
asbag56
(g77
g58
NtRp3109
(dp3110
g61
(dp3111
g88
g89
ssg70
g3100
sg63
(lp3112
S':'
asbag56
(g77
g58
NtRp3113
(dp3114
g61
(dp3115
sg70
g3100
sg63
(lp3116
g56
(g57
g58
NtRp3117
(dp3118
g61
(dp3119
g69
I3
ssg70
g3113
sg63
(lp3120
g1396
asbasbasbag56
(g72
g58
NtRp3121
(dp3122
g61
(dp3123
sg70
g2760
sg63
(lp3124
g56
(g77
g58
NtRp3125
(dp3126
g61
(dp3127
g81
g82
ssg70
g3121
sg63
(lp3128
S'QUERY_STRING'
p3129
asbag56
(g77
g58
NtRp3130
(dp3131
g61
(dp3132
g88
g89
ssg70
g3121
sg63
(lp3133
S':'
asbag56
(g77
g58
NtRp3134
(dp3135
g61
(dp3136
sg70
g3121
sg63
(lp3137
g56
(g57
g58
NtRp3138
(dp3139
g61
(dp3140
g69
I3
ssg70
g3134
sg63
(lp3141
S''
asbasbasbag56
(g72
g58
NtRp3142
(dp3143
g61
(dp3144
sg70
g2760
sg63
(lp3145
g56
(g77
g58
NtRp3146
(dp3147
g61
(dp3148
g81
g82
ssg70
g3142
sg63
(lp3149
S'REMOTE_ADDR'
p3150
asbag56
(g77
g58
NtRp3151
(dp3152
g61
(dp3153
g88
g89
ssg70
g3142
sg63
(lp3154
S':'
asbag56
(g77
g58
NtRp3155
(dp3156
g61
(dp3157
sg70
g3142
sg63
(lp3158
g56
(g57
g58
NtRp3159
(dp3160
g61
(dp3161
g69
I3
ssg70
g3155
sg63
(lp3162
g201
asbasbasbag56
(g72
g58
NtRp3163
(dp3164
g61
(dp3165
sg70
g2760
sg63
(lp3166
g56
(g77
g58
NtRp3167
(dp3168
g61
(dp3169
g81
g82
ssg70
g3163
sg63
(lp3170
S'REMOTE_PORT'
p3171
asbag56
(g77
g58
NtRp3172
(dp3173
g61
(dp3174
g88
g89
ssg70
g3163
sg63
(lp3175
S':'
asbag56
(g77
g58
NtRp3176
(dp3177
g61
(dp3178
sg70
g3163
sg63
(lp3179
g56
(g57
g58
NtRp3180
(dp3181
g61
(dp3182
g69
I3
ssg70
g3176
sg63
(lp3183
g1460
asbasbasbag56
(g72
g58
NtRp3184
(dp3185
g61
(dp3186
sg70
g2760
sg63
(lp3187
g56
(g77
g58
NtRp3188
(dp3189
g61
(dp3190
g81
g82
ssg70
g3184
sg63
(lp3191
S'REQUEST_METHOD'
p3192
asbag56
(g77
g58
NtRp3193
(dp3194
g61
(dp3195
g88
g89
ssg70
g3184
sg63
(lp3196
S':'
asbag56
(g77
g58
NtRp3197
(dp3198
g61
(dp3199
sg70
g3184
sg63
(lp3200
g56
(g57
g58
NtRp3201
(dp3202
g61
(dp3203
g69
I3
ssg70
g3197
sg63
(lp3204
g1482
asbasbasbag56
(g72
g58
NtRp3205
(dp3206
g61
(dp3207
sg70
g2760
sg63
(lp3208
g56
(g77
g58
NtRp3209
(dp3210
g61
(dp3211
g81
g82
ssg70
g3205
sg63
(lp3212
S'REQUEST_URI'
p3213
asbag56
(g77
g58
NtRp3214
(dp3215
g61
(dp3216
g88
g89
ssg70
g3205
sg63
(lp3217
S':'
asbag56
(g77
g58
NtRp3218
(dp3219
g61
(dp3220
sg70
g3205
sg63
(lp3221
g56
(g57
g58
NtRp3222
(dp3223
g61
(dp3224
g69
I3
ssg70
g3218
sg63
(lp3225
g1504
asbasbasbag56
(g72
g58
NtRp3226
(dp3227
g61
(dp3228
sg70
g2760
sg63
(lp3229
g56
(g77
g58
NtRp3230
(dp3231
g61
(dp3232
g81
g82
ssg70
g3226
sg63
(lp3233
S'SCRIPT_FILENAME'
p3234
asbag56
(g77
g58
NtRp3235
(dp3236
g61
(dp3237
g88
g89
ssg70
g3226
sg63
(lp3238
S':'
asbag56
(g77
g58
NtRp3239
(dp3240
g61
(dp3241
sg70
g3226
sg63
(lp3242
g56
(g57
g58
NtRp3243
(dp3244
g61
(dp3245
g69
I3
ssg70
g3239
sg63
(lp3246
g1526
asbasbasbag56
(g72
g58
NtRp3247
(dp3248
g61
(dp3249
sg70
g2760
sg63
(lp3250
g56
(g77
g58
NtRp3251
(dp3252
g61
(dp3253
g81
g82
ssg70
g3247
sg63
(lp3254
S'SCRIPT_NAME'
p3255
asbag56
(g77
g58
NtRp3256
(dp3257
g61
(dp3258
g88
g89
ssg70
g3247
sg63
(lp3259
S':'
asbag56
(g77
g58
NtRp3260
(dp3261
g61
(dp3262
sg70
g3247
sg63
(lp3263
g56
(g57
g58
NtRp3264
(dp3265
g61
(dp3266
g69
I3
ssg70
g3260
sg63
(lp3267
S''
asbasbasbag56
(g72
g58
NtRp3268
(dp3269
g61
(dp3270
sg70
g2760
sg63
(lp3271
g56
(g77
g58
NtRp3272
(dp3273
g61
(dp3274
g81
g82
ssg70
g3268
sg63
(lp3275
S'SERVER_ADDR'
p3276
asbag56
(g77
g58
NtRp3277
(dp3278
g61
(dp3279
g88
g89
ssg70
g3268
sg63
(lp3280
S':'
asbag56
(g77
g58
NtRp3281
(dp3282
g61
(dp3283
sg70
g3268
sg63
(lp3284
g56
(g57
g58
NtRp3285
(dp3286
g61
(dp3287
g69
I3
ssg70
g3281
sg63
(lp3288
g1569
asbasbasbag56
(g72
g58
NtRp3289
(dp3290
g61
(dp3291
sg70
g2760
sg63
(lp3292
g56
(g77
g58
NtRp3293
(dp3294
g61
(dp3295
g81
g82
ssg70
g3289
sg63
(lp3296
S'SERVER_ADMIN'
p3297
asbag56
(g77
g58
NtRp3298
(dp3299
g61
(dp3300
g88
g89
ssg70
g3289
sg63
(lp3301
S':'
asbag56
(g77
g58
NtRp3302
(dp3303
g61
(dp3304
sg70
g3289
sg63
(lp3305
g56
(g57
g58
NtRp3306
(dp3307
g61
(dp3308
g69
I3
ssg70
g3302
sg63
(lp3309
g1591
asbasbasbag56
(g72
g58
NtRp3310
(dp3311
g61
(dp3312
sg70
g2760
sg63
(lp3313
g56
(g77
g58
NtRp3314
(dp3315
g61
(dp3316
g81
g82
ssg70
g3310
sg63
(lp3317
S'SERVER_NAME'
p3318
asbag56
(g77
g58
NtRp3319
(dp3320
g61
(dp3321
g88
g89
ssg70
g3310
sg63
(lp3322
S':'
asbag56
(g77
g58
NtRp3323
(dp3324
g61
(dp3325
sg70
g3310
sg63
(lp3326
g56
(g57
g58
NtRp3327
(dp3328
g61
(dp3329
g69
I3
ssg70
g3323
sg63
(lp3330
g1613
asbasbasbag56
(g72
g58
NtRp3331
(dp3332
g61
(dp3333
sg70
g2760
sg63
(lp3334
g56
(g77
g58
NtRp3335
(dp3336
g61
(dp3337
g81
g82
ssg70
g3331
sg63
(lp3338
S'SERVER_PORT'
p3339
asbag56
(g77
g58
NtRp3340
(dp3341
g61
(dp3342
g88
g89
ssg70
g3331
sg63
(lp3343
S':'
asbag56
(g77
g58
NtRp3344
(dp3345
g61
(dp3346
sg70
g3331
sg63
(lp3347
g56
(g57
g58
NtRp3348
(dp3349
g61
(dp3350
g69
I3
ssg70
g3344
sg63
(lp3351
g1635
asbasbasbag56
(g72
g58
NtRp3352
(dp3353
g61
(dp3354
sg70
g2760
sg63
(lp3355
g56
(g77
g58
NtRp3356
(dp3357
g61
(dp3358
g81
g82
ssg70
g3352
sg63
(lp3359
S'SERVER_PROTOCOL'
p3360
asbag56
(g77
g58
NtRp3361
(dp3362
g61
(dp3363
g88
g89
ssg70
g3352
sg63
(lp3364
S':'
asbag56
(g77
g58
NtRp3365
(dp3366
g61
(dp3367
sg70
g3352
sg63
(lp3368
g56
(g57
g58
NtRp3369
(dp3370
g61
(dp3371
g69
I3
ssg70
g3365
sg63
(lp3372
g1657
asbasbasbag56
(g72
g58
NtRp3373
(dp3374
g61
(dp3375
sg70
g2760
sg63
(lp3376
g56
(g77
g58
NtRp3377
(dp3378
g61
(dp3379
g81
g82
ssg70
g3373
sg63
(lp3380
S'SERVER_SIGNATURE'
p3381
asbag56
(g77
g58
NtRp3382
(dp3383
g61
(dp3384
g88
g89
ssg70
g3373
sg63
(lp3385
S':'
asbag56
(g77
g58
NtRp3386
(dp3387
g61
(dp3388
sg70
g3373
sg63
(lp3389
g56
(g57
g58
NtRp3390
(dp3391
g61
(dp3392
g69
I3
ssg70
g3386
sg63
(lp3393
g1679
asbasbasbag56
(g72
g58
NtRp3394
(dp3395
g61
(dp3396
sg70
g2760
sg63
(lp3397
g56
(g77
g58
NtRp3398
(dp3399
g61
(dp3400
g81
g82
ssg70
g3394
sg63
(lp3401
S'SERVER_SOFTWARE'
p3402
asbag56
(g77
g58
NtRp3403
(dp3404
g61
(dp3405
g88
g89
ssg70
g3394
sg63
(lp3406
S':'
asbag56
(g77
g58
NtRp3407
(dp3408
g61
(dp3409
sg70
g3394
sg63
(lp3410
g56
(g57
g58
NtRp3411
(dp3412
g61
(dp3413
g69
I3
ssg70
g3407
sg63
(lp3414
g1701
asbasbasbag56
(g72
g58
NtRp3415
(dp3416
g61
(dp3417
sg70
g2760
sg63
(lp3418
g56
(g77
g58
NtRp3419
(dp3420
g61
(dp3421
g81
g82
ssg70
g3415
sg63
(lp3422
S'SSL_TLS_SNI'
p3423
asbag56
(g77
g58
NtRp3424
(dp3425
g61
(dp3426
g88
g89
ssg70
g3415
sg63
(lp3427
S':'
asbag56
(g77
g58
NtRp3428
(dp3429
g61
(dp3430
sg70
g3415
sg63
(lp3431
g56
(g57
g58
NtRp3432
(dp3433
g61
(dp3434
g69
I3
ssg70
g3428
sg63
(lp3435
g1723
asbasbasbag56
(g72
g58
NtRp3436
(dp3437
g61
(dp3438
sg70
g2760
sg63
(lp3439
g56
(g77
g58
NtRp3440
(dp3441
g61
(dp3442
g81
g82
ssg70
g3436
sg63
(lp3443
S'mod_wsgi.application_group'
p3444
asbag56
(g77
g58
NtRp3445
(dp3446
g61
(dp3447
g88
g89
ssg70
g3436
sg63
(lp3448
S':'
asbag56
(g77
g58
NtRp3449
(dp3450
g61
(dp3451
sg70
g3436
sg63
(lp3452
g56
(g57
g58
NtRp3453
(dp3454
g61
(dp3455
g69
I3
ssg70
g3449
sg63
(lp3456
g1131
asbasbasbag56
(g72
g58
NtRp3457
(dp3458
g61
(dp3459
sg70
g2760
sg63
(lp3460
g56
(g77
g58
NtRp3461
(dp3462
g61
(dp3463
g81
g82
ssg70
g3457
sg63
(lp3464
S'mod_wsgi.callable_object'
p3465
asbag56
(g77
g58
NtRp3466
(dp3467
g61
(dp3468
g88
g89
ssg70
g3457
sg63
(lp3469
S':'
asbag56
(g77
g58
NtRp3470
(dp3471
g61
(dp3472
sg70
g3457
sg63
(lp3473
g56
(g57
g58
NtRp3474
(dp3475
g61
(dp3476
g69
I3
ssg70
g3470
sg63
(lp3477
g1153
asbasbasbag56
(g72
g58
NtRp3478
(dp3479
g61
(dp3480
sg70
g2760
sg63
(lp3481
g56
(g77
g58
NtRp3482
(dp3483
g61
(dp3484
g81
g82
ssg70
g3478
sg63
(lp3485
S'mod_wsgi.handler_script'
p3486
asbag56
(g77
g58
NtRp3487
(dp3488
g61
(dp3489
g88
g89
ssg70
g3478
sg63
(lp3490
S':'
asbag56
(g77
g58
NtRp3491
(dp3492
g61
(dp3493
sg70
g3478
sg63
(lp3494
g56
(g57
g58
NtRp3495
(dp3496
g61
(dp3497
g69
I3
ssg70
g3491
sg63
(lp3498
S''
asbasbasbag56
(g72
g58
NtRp3499
(dp3500
g61
(dp3501
sg70
g2760
sg63
(lp3502
g56
(g77
g58
NtRp3503
(dp3504
g61
(dp3505
g81
g82
ssg70
g3499
sg63
(lp3506
S'mod_wsgi.input_chunked'
p3507
asbag56
(g77
g58
NtRp3508
(dp3509
g61
(dp3510
g88
g89
ssg70
g3499
sg63
(lp3511
S':'
asbag56
(g77
g58
NtRp3512
(dp3513
g61
(dp3514
sg70
g3499
sg63
(lp3515
g56
(g57
g58
NtRp3516
(dp3517
g61
(dp3518
g69
I3
ssg70
g3512
sg63
(lp3519
S'0'
asbasbasbag56
(g72
g58
NtRp3520
(dp3521
g61
(dp3522
sg70
g2760
sg63
(lp3523
g56
(g77
g58
NtRp3524
(dp3525
g61
(dp3526
g81
g82
ssg70
g3520
sg63
(lp3527
S'mod_wsgi.listener_host'
p3528
asbag56
(g77
g58
NtRp3529
(dp3530
g61
(dp3531
g88
g89
ssg70
g3520
sg63
(lp3532
S':'
asbag56
(g77
g58
NtRp3533
(dp3534
g61
(dp3535
sg70
g3520
sg63
(lp3536
g56
(g57
g58
NtRp3537
(dp3538
g61
(dp3539
g69
I3
ssg70
g3533
sg63
(lp3540
S''
asbasbasbag56
(g72
g58
NtRp3541
(dp3542
g61
(dp3543
sg70
g2760
sg63
(lp3544
g56
(g77
g58
NtRp3545
(dp3546
g61
(dp3547
g81
g82
ssg70
g3541
sg63
(lp3548
S'mod_wsgi.listener_port'
p3549
asbag56
(g77
g58
NtRp3550
(dp3551
g61
(dp3552
g88
g89
ssg70
g3541
sg63
(lp3553
S':'
asbag56
(g77
g58
NtRp3554
(dp3555
g61
(dp3556
sg70
g3541
sg63
(lp3557
g56
(g57
g58
NtRp3558
(dp3559
g61
(dp3560
g69
I3
ssg70
g3554
sg63
(lp3561
g1238
asbasbasbag56
(g72
g58
NtRp3562
(dp3563
g61
(dp3564
sg70
g2760
sg63
(lp3565
g56
(g77
g58
NtRp3566
(dp3567
g61
(dp3568
g81
g82
ssg70
g3562
sg63
(lp3569
S'mod_wsgi.process_group'
p3570
asbag56
(g77
g58
NtRp3571
(dp3572
g61
(dp3573
g88
g89
ssg70
g3562
sg63
(lp3574
S':'
asbag56
(g77
g58
NtRp3575
(dp3576
g61
(dp3577
sg70
g3562
sg63
(lp3578
g56
(g57
g58
NtRp3579
(dp3580
g61
(dp3581
g69
I3
ssg70
g3575
sg63
(lp3582
g1260
asbasbasbag56
(g72
g58
NtRp3583
(dp3584
g61
(dp3585
sg70
g2760
sg63
(lp3586
g56
(g77
g58
NtRp3587
(dp3588
g61
(dp3589
g81
g82
ssg70
g3583
sg63
(lp3590
S'mod_wsgi.request_handler'
p3591
asbag56
(g77
g58
NtRp3592
(dp3593
g61
(dp3594
g88
g89
ssg70
g3583
sg63
(lp3595
S':'
asbag56
(g77
g58
NtRp3596
(dp3597
g61
(dp3598
sg70
g3583
sg63
(lp3599
g56
(g57
g58
NtRp3600
(dp3601
g61
(dp3602
g69
I3
ssg70
g3596
sg63
(lp3603
g1282
asbasbasbag56
(g72
g58
NtRp3604
(dp3605
g61
(dp3606
sg70
g2760
sg63
(lp3607
g56
(g77
g58
NtRp3608
(dp3609
g61
(dp3610
g81
g82
ssg70
g3604
sg63
(lp3611
S'mod_wsgi.script_reloading'
p3612
asbag56
(g77
g58
NtRp3613
(dp3614
g61
(dp3615
g88
g89
ssg70
g3604
sg63
(lp3616
S':'
asbag56
(g77
g58
NtRp3617
(dp3618
g61
(dp3619
sg70
g3604
sg63
(lp3620
g56
(g57
g58
NtRp3621
(dp3622
g61
(dp3623
g69
I3
ssg70
g3617
sg63
(lp3624
S'1'
asbasbasbag56
(g72
g58
NtRp3625
(dp3626
g61
(dp3627
sg70
g2760
sg63
(lp3628
g56
(g77
g58
NtRp3629
(dp3630
g61
(dp3631
g81
g82
ssg70
g3625
sg63
(lp3632
S'mod_wsgi.version'
p3633
asbag56
(g77
g58
NtRp3634
(dp3635
g61
(dp3636
g88
g89
ssg70
g3625
sg63
(lp3637
S':'
asbag56
(g77
g58
NtRp3638
(dp3639
g61
(dp3640
sg70
g3625
sg63
(lp3641
g56
(g57
g58
NtRp3642
(dp3643
g61
(dp3644
g69
I3
ssg70
g3638
sg63
(lp3645
g56
(g65
g58
NtRp3646
(dp3647
g61
(dp3648
g69
I2
ssg70
Nsg63
(lp3649
g56
(g72
g58
NtRp3650
(dp3651
g61
(dp3652
sg70
g3646
sg63
(lp3653
g56
(g77
g58
NtRp3654
(dp3655
g61
(dp3656
sg70
g3650
sg63
(lp3657
g56
(g57
g58
NtRp3658
(dp3659
g61
(dp3660
g69
I2
ssg70
g3654
sg63
(lp3661
S'3'
asbasbasbag56
(g72
g58
NtRp3662
(dp3663
g61
(dp3664
sg70
g3646
sg63
(lp3665
g56
(g77
g58
NtRp3666
(dp3667
g61
(dp3668
sg70
g3662
sg63
(lp3669
g56
(g57
g58
NtRp3670
(dp3671
g61
(dp3672
g69
I2
ssg70
g3666
sg63
(lp3673
S'3'
asbasbasbasbasbasbasbag56
(g72
g58
NtRp3674
(dp3675
g61
(dp3676
sg70
g2760
sg63
(lp3677
g56
(g77
g58
NtRp3678
(dp3679
g61
(dp3680
g81
g82
ssg70
g3674
sg63
(lp3681
S'wsgi.errors'
p3682
asbag56
(g77
g58
NtRp3683
(dp3684
g61
(dp3685
g88
g89
ssg70
g3674
sg63
(lp3686
S':'
asbag56
(g77
g58
NtRp3687
(dp3688
g61
(dp3689
sg70
g3674
sg63
(lp3690
g56
(g57
g58
NtRp3691
(dp3692
g61
(dp3693
g69
I3
ssg70
g3687
sg63
(lp3694
S'<mod_wsgi.Log object at 0xb9587ae8>'
p3695
asbasbasbag56
(g72
g58
NtRp3696
(dp3697
g61
(dp3698
sg70
g2760
sg63
(lp3699
g56
(g77
g58
NtRp3700
(dp3701
g61
(dp3702
g81
g82
ssg70
g3696
sg63
(lp3703
S'wsgi.file_wrapper'
p3704
asbag56
(g77
g58
NtRp3705
(dp3706
g61
(dp3707
g88
g89
ssg70
g3696
sg63
(lp3708
S':'
asbag56
(g77
g58
NtRp3709
(dp3710
g61
(dp3711
sg70
g3696
sg63
(lp3712
g56
(g57
g58
NtRp3713
(dp3714
g61
(dp3715
g69
I3
ssg70
g3709
sg63
(lp3716
S'<built-in method file_wrapper of mod_wsgi.Adapter object at 0xb98054a0>'
p3717
asbasbasbag56
(g72
g58
NtRp3718
(dp3719
g61
(dp3720
sg70
g2760
sg63
(lp3721
g56
(g77
g58
NtRp3722
(dp3723
g61
(dp3724
g81
g82
ssg70
g3718
sg63
(lp3725
S'wsgi.input'
p3726
asbag56
(g77
g58
NtRp3727
(dp3728
g61
(dp3729
g88
g89
ssg70
g3718
sg63
(lp3730
S':'
asbag56
(g77
g58
NtRp3731
(dp3732
g61
(dp3733
sg70
g3718
sg63
(lp3734
g56
(g57
g58
NtRp3735
(dp3736
g61
(dp3737
g69
I3
ssg70
g3731
sg63
(lp3738
S"<open file '<fdopen>', mode 'w+b' at 0xb9409440>"
p3739
asbasbasbag56
(g72
g58
NtRp3740
(dp3741
g61
(dp3742
sg70
g2760
sg63
(lp3743
g56
(g77
g58
NtRp3744
(dp3745
g61
(dp3746
g81
g82
ssg70
g3740
sg63
(lp3747
S'wsgi.multiprocess'
p3748
asbag56
(g77
g58
NtRp3749
(dp3750
g61
(dp3751
g88
g89
ssg70
g3740
sg63
(lp3752
S':'
asbag56
(g77
g58
NtRp3753
(dp3754
g61
(dp3755
sg70
g3740
sg63
(lp3756
g56
(g57
g58
NtRp3757
(dp3758
g61
(dp3759
g69
I3
ssg70
g3753
sg63
(lp3760
g99
asbasbasbag56
(g72
g58
NtRp3761
(dp3762
g61
(dp3763
sg70
g2760
sg63
(lp3764
g56
(g77
g58
NtRp3765
(dp3766
g61
(dp3767
g81
g82
ssg70
g3761
sg63
(lp3768
S'wsgi.multithread'
p3769
asbag56
(g77
g58
NtRp3770
(dp3771
g61
(dp3772
g88
g89
ssg70
g3761
sg63
(lp3773
S':'
asbag56
(g77
g58
NtRp3774
(dp3775
g61
(dp3776
sg70
g3761
sg63
(lp3777
g56
(g57
g58
NtRp3778
(dp3779
g61
(dp3780
g69
I3
ssg70
g3774
sg63
(lp3781
g1875
asbasbasbag56
(g72
g58
NtRp3782
(dp3783
g61
(dp3784
sg70
g2760
sg63
(lp3785
g56
(g77
g58
NtRp3786
(dp3787
g61
(dp3788
g81
g82
ssg70
g3782
sg63
(lp3789
S'wsgi.run_once'
p3790
asbag56
(g77
g58
NtRp3791
(dp3792
g61
(dp3793
g88
g89
ssg70
g3782
sg63
(lp3794
S':'
asbag56
(g77
g58
NtRp3795
(dp3796
g61
(dp3797
sg70
g3782
sg63
(lp3798
g56
(g57
g58
NtRp3799
(dp3800
g61
(dp3801
g69
I3
ssg70
g3795
sg63
(lp3802
g99
asbasbasbag56
(g72
g58
NtRp3803
(dp3804
g61
(dp3805
sg70
g2760
sg63
(lp3806
g56
(g77
g58
NtRp3807
(dp3808
g61
(dp3809
g81
g82
ssg70
g3803
sg63
(lp3810
S'wsgi.url_scheme'
p3811
asbag56
(g77
g58
NtRp3812
(dp3813
g61
(dp3814
g88
g89
ssg70
g3803
sg63
(lp3815
S':'
asbag56
(g77
g58
NtRp3816
(dp3817
g61
(dp3818
sg70
g3803
sg63
(lp3819
g56
(g57
g58
NtRp3820
(dp3821
g61
(dp3822
g69
I3
ssg70
g3816
sg63
(lp3823
g1918
asbasbasbag56
(g72
g58
NtRp3824
(dp3825
g61
(dp3826
sg70
g2760
sg63
(lp3827
g56
(g77
g58
NtRp3828
(dp3829
g61
(dp3830
g81
g82
ssg70
g3824
sg63
(lp3831
S'wsgi.version'
p3832
asbag56
(g77
g58
NtRp3833
(dp3834
g61
(dp3835
g88
g89
ssg70
g3824
sg63
(lp3836
S':'
asbag56
(g77
g58
NtRp3837
(dp3838
g61
(dp3839
sg70
g3824
sg63
(lp3840
g56
(g57
g58
NtRp3841
(dp3842
g61
(dp3843
g69
I3
ssg70
g3837
sg63
(lp3844
S'1'
asbasbasbasbasbasbasbasbasbasbasbasbasbsS'frames'
p3845
(lp3846
(dp3847
S'file'
p3848
S'/home/www-data/web2py/gluon/restricted.py'
p3849
sS'dump'
p3850
(dp3851
S'environment'
p3852
S"{'A': <class 'gluon.html.A'>, 'Auth': <class 'gluon.tools.Auth'>, 'B': <class 'gluon.html.B'>, 'BEAUTIFY': <class 'gluon.html.BEAUTIFY'>, 'BODY': <class 'gluon.html.BODY'>, 'BR': <class 'gluon.html.BR'>, 'BRAZILIAN_DATE': <gluon.validators.IS_DATE object>, 'BUTTON': <class 'gluon.html.BUTTON'>, 'CAT': <class 'gluon.html.CAT'>, 'CENTER': <class 'gluon.html.CENTER'>, ...}"
p3853
sS'ccode'
p3854
S'<code object <module> at 0xb904d7b8, file "/home...web2py/applications/scrum/models/db1.py", line 2>'
p3855
ssS'lnum'
p3856
I192
sS'lines'
p3857
(dp3858
I192
S'        exec ccode in environment'
p3859
sI193
S'    except HTTP:'
p3860
sI194
S'        raise'
p3861
sI195
S'    except Exception, error:'
p3862
sI196
S'        # XXX Show exception in Wing IDE if running in debugger'
p3863
sI187
S'    try:'
p3864
sI188
S'        if type(code) == types.CodeType:'
p3865
sI189
S'            ccode = code'
p3866
sI190
S'        else:'
p3867
sI191
S'            ccode = compile2(code,layer)'
p3868
ssS'call'
p3869
S"(code='#coding: utf8\\nBRAZILIAN_DATE = IS_DATE(format=T(...tem_biv.append(lambda form: insere_modulo(form))\\n', environment={'A': <class 'gluon.html.A'>, 'Auth': <class 'gluon.tools.Auth'>, 'B': <class 'gluon.html.B'>, 'BEAUTIFY': <class 'gluon.html.BEAUTIFY'>, 'BODY': <class 'gluon.html.BODY'>, 'BR': <class 'gluon.html.BR'>, 'BRAZILIAN_DATE': <gluon.validators.IS_DATE object>, 'BUTTON': <class 'gluon.html.BUTTON'>, 'CAT': <class 'gluon.html.CAT'>, 'CENTER': <class 'gluon.html.CENTER'>, ...}, layer='/home/www-data/web2py/applications/scrum/models/db1.py')"
p3870
sS'func'
p3871
S'restricted'
p3872
sa(dp3873
g3848
S'/home/www-data/web2py/applications/scrum/models/db1.py'
p3874
sg3850
(dp3875
S'Field'
p3876
S"<class 'gluon.dal.Field'>"
p3877
sS'requires'
p3878
S'undefined'
p3879
sS'brazilian_date'
p3880
g3879
ssg3856
I56
sg3857
(dp3881
I51
S"                Field('consultor',db.auth_user),"
p3882
sI52
S"                Field('analista',db.auth_user),"
p3883
sI53
S"                Field('estado',db.estado_ticket),"
p3884
sI54
S"                Field('patch','boolean'),"
p3885
sI55
S"                Field('local_teste'),"
p3886
sI56
S"                Field('inicio','date',requires=brazilian_date),"
p3887
sI57
S"                Field('fim','date',requires=brazilian_date  ),"
p3888
sI58
S"                Field('sistema',db.sistema ),"
p3889
sI59
S"                Field('cliente',db.cliente))"
p3890
sI60
S"db.ticket.id.represent = lambda id: A('Editar %i' % id,_href=URL(r=request,c='ticket',f='editar',args=[id]))"
p3891
ssg3869
S'()'
p3892
sg3871
S'<module>'
p3893
sasS'pyver'
p3894
S'Python 2.7.1+: /usr/bin/python'
p3895
sS'session'
p3896
g56
(g57
g58
NtRp3897
(dp3898
g61
(dp3899
sg63
(lp3900
g56
(g65
g58
NtRp3901
(dp3902
g61
(dp3903
g69
I5
ssg70
Nsg63
(lp3904
g56
(g72
g58
NtRp3905
(dp3906
g61
(dp3907
sg70
g3901
sg63
(lp3908
g56
(g77
g58
NtRp3909
(dp3910
g61
(dp3911
g81
g82
ssg70
g3905
sg63
(lp3912
S'auth'
p3913
asbag56
(g77
g58
NtRp3914
(dp3915
g61
(dp3916
g88
g89
ssg70
g3905
sg63
(lp3917
S':'
asbag56
(g77
g58
NtRp3918
(dp3919
g61
(dp3920
sg70
g3905
sg63
(lp3921
g56
(g57
g58
NtRp3922
(dp3923
g61
(dp3924
g69
I5
ssg70
g3918
sg63
(lp3925
g56
(g65
g58
NtRp3926
(dp3927
g61
(dp3928
g69
I4
ssg70
Nsg63
(lp3929
g56
(g72
g58
NtRp3930
(dp3931
g61
(dp3932
sg70
g3926
sg63
(lp3933
g56
(g77
g58
NtRp3934
(dp3935
g61
(dp3936
g81
g82
ssg70
g3930
sg63
(lp3937
S'expiration'
p3938
asbag56
(g77
g58
NtRp3939
(dp3940
g61
(dp3941
g88
g89
ssg70
g3930
sg63
(lp3942
S':'
asbag56
(g77
g58
NtRp3943
(dp3944
g61
(dp3945
sg70
g3930
sg63
(lp3946
g56
(g57
g58
NtRp3947
(dp3948
g61
(dp3949
g69
I4
ssg70
g3943
sg63
(lp3950
S'2592000'
p3951
asbasbasbag56
(g72
g58
NtRp3952
(dp3953
g61
(dp3954
sg70
g3926
sg63
(lp3955
g56
(g77
g58
NtRp3956
(dp3957
g61
(dp3958
g81
g82
ssg70
g3952
sg63
(lp3959
S'hmac_key'
p3960
asbag56
(g77
g58
NtRp3961
(dp3962
g61
(dp3963
g88
g89
ssg70
g3952
sg63
(lp3964
S':'
asbag56
(g77
g58
NtRp3965
(dp3966
g61
(dp3967
sg70
g3952
sg63
(lp3968
g56
(g57
g58
NtRp3969
(dp3970
g61
(dp3971
g69
I4
ssg70
g3965
sg63
(lp3972
S'0eb5913b-5067-4036-a2e3-0b783a415d41'
p3973
asbasbasbag56
(g72
g58
NtRp3974
(dp3975
g61
(dp3976
sg70
g3926
sg63
(lp3977
g56
(g77
g58
NtRp3978
(dp3979
g61
(dp3980
g81
g82
ssg70
g3974
sg63
(lp3981
S'last_visit'
p3982
asbag56
(g77
g58
NtRp3983
(dp3984
g61
(dp3985
g88
g89
ssg70
g3974
sg63
(lp3986
S':'
asbag56
(g77
g58
NtRp3987
(dp3988
g61
(dp3989
sg70
g3974
sg63
(lp3990
g56
(g57
g58
NtRp3991
(dp3992
g61
(dp3993
g69
I4
ssg70
g3987
sg63
(lp3994
S'datetime.datetime(2011, 9, 12, 16, 10, 17, 480100)'
p3995
asbasbasbag56
(g72
g58
NtRp3996
(dp3997
g61
(dp3998
sg70
g3926
sg63
(lp3999
g56
(g77
g58
NtRp4000
(dp4001
g61
(dp4002
g81
g82
ssg70
g3996
sg63
(lp4003
S'remember'
p4004
asbag56
(g77
g58
NtRp4005
(dp4006
g61
(dp4007
g88
g89
ssg70
g3996
sg63
(lp4008
S':'
asbag56
(g77
g58
NtRp4009
(dp4010
g61
(dp4011
sg70
g3996
sg63
(lp4012
g56
(g57
g58
NtRp4013
(dp4014
g61
(dp4015
g69
I4
ssg70
g4009
sg63
(lp4016
g99
asbasbasbag56
(g72
g58
NtRp4017
(dp4018
g61
(dp4019
sg70
g3926
sg63
(lp4020
g56
(g77
g58
NtRp4021
(dp4022
g61
(dp4023
g81
g82
ssg70
g4017
sg63
(lp4024
S'user'
p4025
asbag56
(g77
g58
NtRp4026
(dp4027
g61
(dp4028
g88
g89
ssg70
g4017
sg63
(lp4029
S':'
asbag56
(g77
g58
NtRp4030
(dp4031
g61
(dp4032
sg70
g4017
sg63
(lp4033
g56
(g57
g58
NtRp4034
(dp4035
g61
(dp4036
g69
I4
ssg70
g4030
sg63
(lp4037
g56
(g65
g58
NtRp4038
(dp4039
g61
(dp4040
g69
I3
ssg70
Nsg63
(lp4041
g56
(g72
g58
NtRp4042
(dp4043
g61
(dp4044
sg70
g4038
sg63
(lp4045
g56
(g77
g58
NtRp4046
(dp4047
g61
(dp4048
g81
g82
ssg70
g4042
sg63
(lp4049
S'email'
p4050
asbag56
(g77
g58
NtRp4051
(dp4052
g61
(dp4053
g88
g89
ssg70
g4042
sg63
(lp4054
S':'
asbag56
(g77
g58
NtRp4055
(dp4056
g61
(dp4057
sg70
g4042
sg63
(lp4058
g56
(g57
g58
NtRp4059
(dp4060
g61
(dp4061
g69
I3
ssg70
g4055
sg63
(lp4062
S'yamandu.costa@gmail.com'
p4063
asbasbasbag56
(g72
g58
NtRp4064
(dp4065
g61
(dp4066
sg70
g4038
sg63
(lp4067
g56
(g77
g58
NtRp4068
(dp4069
g61
(dp4070
g81
g82
ssg70
g4064
sg63
(lp4071
S'first_name'
p4072
asbag56
(g77
g58
NtRp4073
(dp4074
g61
(dp4075
g88
g89
ssg70
g4064
sg63
(lp4076
S':'
asbag56
(g77
g58
NtRp4077
(dp4078
g61
(dp4079
sg70
g4064
sg63
(lp4080
g56
(g57
g58
NtRp4081
(dp4082
g61
(dp4083
g69
I3
ssg70
g4077
sg63
(lp4084
S'Carlos'
p4085
asbasbasbag56
(g72
g58
NtRp4086
(dp4087
g61
(dp4088
sg70
g4038
sg63
(lp4089
g56
(g77
g58
NtRp4090
(dp4091
g61
(dp4092
g81
g82
ssg70
g4086
sg63
(lp4093
S'id'
p4094
asbag56
(g77
g58
NtRp4095
(dp4096
g61
(dp4097
g88
g89
ssg70
g4086
sg63
(lp4098
S':'
asbag56
(g77
g58
NtRp4099
(dp4100
g61
(dp4101
sg70
g4086
sg63
(lp4102
g56
(g57
g58
NtRp4103
(dp4104
g61
(dp4105
g69
I3
ssg70
g4099
sg63
(lp4106
S'2'
asbasbasbag56
(g72
g58
NtRp4107
(dp4108
g61
(dp4109
sg70
g4038
sg63
(lp4110
g56
(g77
g58
NtRp4111
(dp4112
g61
(dp4113
g81
g82
ssg70
g4107
sg63
(lp4114
S'last_name'
p4115
asbag56
(g77
g58
NtRp4116
(dp4117
g61
(dp4118
g88
g89
ssg70
g4107
sg63
(lp4119
S':'
asbag56
(g77
g58
NtRp4120
(dp4121
g61
(dp4122
sg70
g4107
sg63
(lp4123
g56
(g57
g58
NtRp4124
(dp4125
g61
(dp4126
g69
I3
ssg70
g4120
sg63
(lp4127
S'costa'
p4128
asbasbasbag56
(g72
g58
NtRp4129
(dp4130
g61
(dp4131
sg70
g4038
sg63
(lp4132
g56
(g77
g58
NtRp4133
(dp4134
g61
(dp4135
g81
g82
ssg70
g4129
sg63
(lp4136
S'password'
p4137
asbag56
(g77
g58
NtRp4138
(dp4139
g61
(dp4140
g88
g89
ssg70
g4129
sg63
(lp4141
S':'
asbag56
(g77
g58
NtRp4142
(dp4143
g61
(dp4144
sg70
g4129
sg63
(lp4145
g56
(g57
g58
NtRp4146
(dp4147
g61
(dp4148
g69
I3
ssg70
g4142
sg63
(lp4149
S'00a7a128f71552b063e36943370dd0944d5adb4000c6382d33eb3e1a93dc679cb99beb47e3003d318803f96ef839a18a379eae2e2bb917ca3c52c4e45231b331'
p4150
asbasbasbag56
(g72
g58
NtRp4151
(dp4152
g61
(dp4153
sg70
g4038
sg63
(lp4154
g56
(g77
g58
NtRp4155
(dp4156
g61
(dp4157
g81
g82
ssg70
g4151
sg63
(lp4158
S'registration_key'
p4159
asbag56
(g77
g58
NtRp4160
(dp4161
g61
(dp4162
g88
g89
ssg70
g4151
sg63
(lp4163
S':'
asbag56
(g77
g58
NtRp4164
(dp4165
g61
(dp4166
sg70
g4151
sg63
(lp4167
g56
(g57
g58
NtRp4168
(dp4169
g61
(dp4170
g69
I3
ssg70
g4164
sg63
(lp4171
S''
asbasbasbag56
(g72
g58
NtRp4172
(dp4173
g61
(dp4174
sg70
g4038
sg63
(lp4175
g56
(g77
g58
NtRp4176
(dp4177
g61
(dp4178
g81
g82
ssg70
g4172
sg63
(lp4179
S'reset_password_key'
p4180
asbag56
(g77
g58
NtRp4181
(dp4182
g61
(dp4183
g88
g89
ssg70
g4172
sg63
(lp4184
S':'
asbag56
(g77
g58
NtRp4185
(dp4186
g61
(dp4187
sg70
g4172
sg63
(lp4188
g56
(g57
g58
NtRp4189
(dp4190
g61
(dp4191
g69
I3
ssg70
g4185
sg63
(lp4192
S''
asbasbasbasbasbasbasbasbasbasbasbasbasbsS'etype'
p4193
S"<type 'exceptions.NameError'>"
p4194
sS'date'
p4195
S'Mon Sep 12 17:01:18 2011'
p4196
sS'response'
p4197
g56
(g57
g58
NtRp4198
(dp4199
g61
(dp4200
sg63
(lp4201
g56
(g65
g58
NtRp4202
(dp4203
g61
(dp4204
g69
I5
ssg70
Nsg63
(lp4205
g56
(g72
g58
NtRp4206
(dp4207
g61
(dp4208
sg70
g4202
sg63
(lp4209
g56
(g77
g58
NtRp4210
(dp4211
g61
(dp4212
g81
g82
ssg70
g4206
sg63
(lp4213
g166
asbag56
(g77
g58
NtRp4214
(dp4215
g61
(dp4216
g88
g89
ssg70
g4206
sg63
(lp4217
S':'
asbag56
(g77
g58
NtRp4218
(dp4219
g61
(dp4220
sg70
g4206
sg63
(lp4221
g56
(g57
g58
NtRp4222
(dp4223
g61
(dp4224
g69
I5
ssg70
g4218
sg63
(lp4225
S'<cStringIO.StringO object at 0xb8e6bfc0>'
p4226
asbasbasbag56
(g72
g58
NtRp4227
(dp4228
g61
(dp4229
sg70
g4202
sg63
(lp4230
g56
(g77
g58
NtRp4231
(dp4232
g61
(dp4233
g81
g82
ssg70
g4227
sg63
(lp4234
g232
asbag56
(g77
g58
NtRp4235
(dp4236
g61
(dp4237
g88
g89
ssg70
g4227
sg63
(lp4238
S':'
asbag56
(g77
g58
NtRp4239
(dp4240
g61
(dp4241
sg70
g4227
sg63
(lp4242
g56
(g57
g58
NtRp4243
(dp4244
g61
(dp4245
g69
I5
ssg70
g4239
sg63
(lp4246
g56
(g65
g58
NtRp4247
(dp4248
g61
(dp4249
g69
I4
ssg70
Nsg63
(lp4250
g56
(g72
g58
NtRp4251
(dp4252
g61
(dp4253
sg70
g4247
sg63
(lp4254
g56
(g77
g58
NtRp4255
(dp4256
g61
(dp4257
g81
g82
ssg70
g4251
sg63
(lp4258
S'session_id_scrum'
p4259
asbag56
(g77
g58
NtRp4260
(dp4261
g61
(dp4262
g88
g89
ssg70
g4251
sg63
(lp4263
S':'
asbag56
(g77
g58
NtRp4264
(dp4265
g61
(dp4266
sg70
g4251
sg63
(lp4267
g56
(g57
g58
NtRp4268
(dp4269
g61
(dp4270
g69
I4
ssg70
g4264
sg63
(lp4271
g56
(g65
g58
NtRp4272
(dp4273
g61
(dp4274
g69
I3
ssg70
Nsg63
(lp4275
g56
(g72
g58
NtRp4276
(dp4277
g61
(dp4278
sg70
g4272
sg63
(lp4279
g56
(g77
g58
NtRp4280
(dp4281
g61
(dp4282
g81
g82
ssg70
g4276
sg63
(lp4283
g282
asbag56
(g77
g58
NtRp4284
(dp4285
g61
(dp4286
g88
g89
ssg70
g4276
sg63
(lp4287
S':'
asbag56
(g77
g58
NtRp4288
(dp4289
g61
(dp4290
sg70
g4276
sg63
(lp4291
g56
(g57
g58
NtRp4292
(dp4293
g61
(dp4294
g69
I3
ssg70
g4288
sg63
(lp4295
S''
asbasbasbag56
(g72
g58
NtRp4296
(dp4297
g61
(dp4298
sg70
g4272
sg63
(lp4299
g56
(g77
g58
NtRp4300
(dp4301
g61
(dp4302
g81
g82
ssg70
g4296
sg63
(lp4303
g303
asbag56
(g77
g58
NtRp4304
(dp4305
g61
(dp4306
g88
g89
ssg70
g4296
sg63
(lp4307
S':'
asbag56
(g77
g58
NtRp4308
(dp4309
g61
(dp4310
sg70
g4296
sg63
(lp4311
g56
(g57
g58
NtRp4312
(dp4313
g61
(dp4314
g69
I3
ssg70
g4308
sg63
(lp4315
S''
asbasbasbag56
(g72
g58
NtRp4316
(dp4317
g61
(dp4318
sg70
g4272
sg63
(lp4319
g56
(g77
g58
NtRp4320
(dp4321
g61
(dp4322
g81
g82
ssg70
g4316
sg63
(lp4323
g324
asbag56
(g77
g58
NtRp4324
(dp4325
g61
(dp4326
g88
g89
ssg70
g4316
sg63
(lp4327
S':'
asbag56
(g77
g58
NtRp4328
(dp4329
g61
(dp4330
sg70
g4316
sg63
(lp4331
g56
(g57
g58
NtRp4332
(dp4333
g61
(dp4334
g69
I3
ssg70
g4328
sg63
(lp4335
S''
asbasbasbag56
(g72
g58
NtRp4336
(dp4337
g61
(dp4338
sg70
g4272
sg63
(lp4339
g56
(g77
g58
NtRp4340
(dp4341
g61
(dp4342
g81
g82
ssg70
g4336
sg63
(lp4343
g345
asbag56
(g77
g58
NtRp4344
(dp4345
g61
(dp4346
g88
g89
ssg70
g4336
sg63
(lp4347
S':'
asbag56
(g77
g58
NtRp4348
(dp4349
g61
(dp4350
sg70
g4336
sg63
(lp4351
g56
(g57
g58
NtRp4352
(dp4353
g61
(dp4354
g69
I3
ssg70
g4348
sg63
(lp4355
S''
asbasbasbag56
(g72
g58
NtRp4356
(dp4357
g61
(dp4358
sg70
g4272
sg63
(lp4359
g56
(g77
g58
NtRp4360
(dp4361
g61
(dp4362
g81
g82
ssg70
g4356
sg63
(lp4363
g366
asbag56
(g77
g58
NtRp4364
(dp4365
g61
(dp4366
g88
g89
ssg70
g4356
sg63
(lp4367
S':'
asbag56
(g77
g58
NtRp4368
(dp4369
g61
(dp4370
sg70
g4356
sg63
(lp4371
g56
(g57
g58
NtRp4372
(dp4373
g61
(dp4374
g69
I3
ssg70
g4368
sg63
(lp4375
S''
asbasbasbag56
(g72
g58
NtRp4376
(dp4377
g61
(dp4378
sg70
g4272
sg63
(lp4379
g56
(g77
g58
NtRp4380
(dp4381
g61
(dp4382
g81
g82
ssg70
g4376
sg63
(lp4383
g387
asbag56
(g77
g58
NtRp4384
(dp4385
g61
(dp4386
g88
g89
ssg70
g4376
sg63
(lp4387
S':'
asbag56
(g77
g58
NtRp4388
(dp4389
g61
(dp4390
sg70
g4376
sg63
(lp4391
g56
(g57
g58
NtRp4392
(dp4393
g61
(dp4394
g69
I3
ssg70
g4388
sg63
(lp4395
S'/'
asbasbasbag56
(g72
g58
NtRp4396
(dp4397
g61
(dp4398
sg70
g4272
sg63
(lp4399
g56
(g77
g58
NtRp4400
(dp4401
g61
(dp4402
g81
g82
ssg70
g4396
sg63
(lp4403
g408
asbag56
(g77
g58
NtRp4404
(dp4405
g61
(dp4406
g88
g89
ssg70
g4396
sg63
(lp4407
S':'
asbag56
(g77
g58
NtRp4408
(dp4409
g61
(dp4410
sg70
g4396
sg63
(lp4411
g56
(g57
g58
NtRp4412
(dp4413
g61
(dp4414
g69
I3
ssg70
g4408
sg63
(lp4415
S''
asbasbasbag56
(g72
g58
NtRp4416
(dp4417
g61
(dp4418
sg70
g4272
sg63
(lp4419
g56
(g77
g58
NtRp4420
(dp4421
g61
(dp4422
g81
g82
ssg70
g4416
sg63
(lp4423
g429
asbag56
(g77
g58
NtRp4424
(dp4425
g61
(dp4426
g88
g89
ssg70
g4416
sg63
(lp4427
S':'
asbag56
(g77
g58
NtRp4428
(dp4429
g61
(dp4430
sg70
g4416
sg63
(lp4431
g56
(g57
g58
NtRp4432
(dp4433
g61
(dp4434
g69
I3
ssg70
g4428
sg63
(lp4435
S''
asbasbasbasbasbasbasbasbasbasbasbag56
(g72
g58
NtRp4436
(dp4437
g61
(dp4438
sg70
g4202
sg63
(lp4439
g56
(g77
g58
NtRp4440
(dp4441
g61
(dp4442
g81
g82
ssg70
g4436
sg63
(lp4443
S'files'
p4444
asbag56
(g77
g58
NtRp4445
(dp4446
g61
(dp4447
g88
g89
ssg70
g4436
sg63
(lp4448
S':'
asbag56
(g77
g58
NtRp4449
(dp4450
g61
(dp4451
sg70
g4436
sg63
(lp4452
g56
(g57
g58
NtRp4453
(dp4454
g61
(dp4455
g69
I5
ssg70
g4449
sg63
(lp4456
g56
(g65
g58
NtRp4457
(dp4458
g61
(dp4459
g69
I4
ssg70
Nsg63
(lp4460
sbasbasbasbag56
(g72
g58
NtRp4461
(dp4462
g61
(dp4463
sg70
g4202
sg63
(lp4464
g56
(g77
g58
NtRp4465
(dp4466
g61
(dp4467
g81
g82
ssg70
g4461
sg63
(lp4468
S'flash'
p4469
asbag56
(g77
g58
NtRp4470
(dp4471
g61
(dp4472
g88
g89
ssg70
g4461
sg63
(lp4473
S':'
asbag56
(g77
g58
NtRp4474
(dp4475
g61
(dp4476
sg70
g4461
sg63
(lp4477
g56
(g57
g58
NtRp4478
(dp4479
g61
(dp4480
g69
I5
ssg70
g4474
sg63
(lp4481
S''
asbasbasbag56
(g72
g58
NtRp4482
(dp4483
g61
(dp4484
sg70
g4202
sg63
(lp4485
g56
(g77
g58
NtRp4486
(dp4487
g61
(dp4488
g81
g82
ssg70
g4482
sg63
(lp4489
S'generic_patterns'
p4490
asbag56
(g77
g58
NtRp4491
(dp4492
g61
(dp4493
g88
g89
ssg70
g4482
sg63
(lp4494
S':'
asbag56
(g77
g58
NtRp4495
(dp4496
g61
(dp4497
sg70
g4482
sg63
(lp4498
g56
(g57
g58
NtRp4499
(dp4500
g61
(dp4501
g69
I5
ssg70
g4495
sg63
(lp4502
g56
(g65
g58
NtRp4503
(dp4504
g61
(dp4505
g69
I4
ssg70
Nsg63
(lp4506
sbasbasbasbag56
(g72
g58
NtRp4507
(dp4508
g61
(dp4509
sg70
g4202
sg63
(lp4510
g56
(g77
g58
NtRp4511
(dp4512
g61
(dp4513
g81
g82
ssg70
g4507
sg63
(lp4514
S'headers'
p4515
asbag56
(g77
g58
NtRp4516
(dp4517
g61
(dp4518
g88
g89
ssg70
g4507
sg63
(lp4519
S':'
asbag56
(g77
g58
NtRp4520
(dp4521
g61
(dp4522
sg70
g4507
sg63
(lp4523
g56
(g57
g58
NtRp4524
(dp4525
g61
(dp4526
g69
I5
ssg70
g4520
sg63
(lp4527
g56
(g65
g58
NtRp4528
(dp4529
g61
(dp4530
g69
I4
ssg70
Nsg63
(lp4531
g56
(g72
g58
NtRp4532
(dp4533
g61
(dp4534
sg70
g4528
sg63
(lp4535
g56
(g77
g58
NtRp4536
(dp4537
g61
(dp4538
g81
g82
ssg70
g4532
sg63
(lp4539
S'Cache-Control'
p4540
asbag56
(g77
g58
NtRp4541
(dp4542
g61
(dp4543
g88
g89
ssg70
g4532
sg63
(lp4544
S':'
asbag56
(g77
g58
NtRp4545
(dp4546
g61
(dp4547
sg70
g4532
sg63
(lp4548
g56
(g57
g58
NtRp4549
(dp4550
g61
(dp4551
g69
I4
ssg70
g4545
sg63
(lp4552
S'no-store, no-cache, must-revalidate, post-check=0, pre-check=0'
p4553
asbasbasbag56
(g72
g58
NtRp4554
(dp4555
g61
(dp4556
sg70
g4528
sg63
(lp4557
g56
(g77
g58
NtRp4558
(dp4559
g61
(dp4560
g81
g82
ssg70
g4554
sg63
(lp4561
S'Content-Type'
p4562
asbag56
(g77
g58
NtRp4563
(dp4564
g61
(dp4565
g88
g89
ssg70
g4554
sg63
(lp4566
S':'
asbag56
(g77
g58
NtRp4567
(dp4568
g61
(dp4569
sg70
g4554
sg63
(lp4570
g56
(g57
g58
NtRp4571
(dp4572
g61
(dp4573
g69
I4
ssg70
g4567
sg63
(lp4574
S'text/html; charset=utf-8'
p4575
asbasbasbag56
(g72
g58
NtRp4576
(dp4577
g61
(dp4578
sg70
g4528
sg63
(lp4579
g56
(g77
g58
NtRp4580
(dp4581
g61
(dp4582
g81
g82
ssg70
g4576
sg63
(lp4583
S'Expires'
p4584
asbag56
(g77
g58
NtRp4585
(dp4586
g61
(dp4587
g88
g89
ssg70
g4576
sg63
(lp4588
S':'
asbag56
(g77
g58
NtRp4589
(dp4590
g61
(dp4591
sg70
g4576
sg63
(lp4592
g56
(g57
g58
NtRp4593
(dp4594
g61
(dp4595
g69
I4
ssg70
g4589
sg63
(lp4596
S'Mon, 12 Sep 2011 20:01:18 GMT'
p4597
asbasbasbag56
(g72
g58
NtRp4598
(dp4599
g61
(dp4600
sg70
g4528
sg63
(lp4601
g56
(g77
g58
NtRp4602
(dp4603
g61
(dp4604
g81
g82
ssg70
g4598
sg63
(lp4605
S'Pragma'
p4606
asbag56
(g77
g58
NtRp4607
(dp4608
g61
(dp4609
g88
g89
ssg70
g4598
sg63
(lp4610
S':'
asbag56
(g77
g58
NtRp4611
(dp4612
g61
(dp4613
sg70
g4598
sg63
(lp4614
g56
(g57
g58
NtRp4615
(dp4616
g61
(dp4617
g69
I4
ssg70
g4611
sg63
(lp4618
S'no-cache'
p4619
asbasbasbag56
(g72
g58
NtRp4620
(dp4621
g61
(dp4622
sg70
g4528
sg63
(lp4623
g56
(g77
g58
NtRp4624
(dp4625
g61
(dp4626
g81
g82
ssg70
g4620
sg63
(lp4627
S'X-Powered-By'
p4628
asbag56
(g77
g58
NtRp4629
(dp4630
g61
(dp4631
g88
g89
ssg70
g4620
sg63
(lp4632
S':'
asbag56
(g77
g58
NtRp4633
(dp4634
g61
(dp4635
sg70
g4620
sg63
(lp4636
g56
(g57
g58
NtRp4637
(dp4638
g61
(dp4639
g69
I4
ssg70
g4633
sg63
(lp4640
S'web2py'
p4641
asbasbasbasbasbasbasbag56
(g72
g58
NtRp4642
(dp4643
g61
(dp4644
sg70
g4202
sg63
(lp4645
g56
(g77
g58
NtRp4646
(dp4647
g61
(dp4648
g81
g82
ssg70
g4642
sg63
(lp4649
S'menu'
p4650
asbag56
(g77
g58
NtRp4651
(dp4652
g61
(dp4653
g88
g89
ssg70
g4642
sg63
(lp4654
S':'
asbag56
(g77
g58
NtRp4655
(dp4656
g61
(dp4657
sg70
g4642
sg63
(lp4658
g56
(g57
g58
NtRp4659
(dp4660
g61
(dp4661
g69
I5
ssg70
g4655
sg63
(lp4662
g56
(g65
g58
NtRp4663
(dp4664
g61
(dp4665
g69
I4
ssg70
Nsg63
(lp4666
sbasbasbasbag56
(g72
g58
NtRp4667
(dp4668
g61
(dp4669
sg70
g4202
sg63
(lp4670
g56
(g77
g58
NtRp4671
(dp4672
g61
(dp4673
g81
g82
ssg70
g4667
sg63
(lp4674
S'meta'
p4675
asbag56
(g77
g58
NtRp4676
(dp4677
g61
(dp4678
g88
g89
ssg70
g4667
sg63
(lp4679
S':'
asbag56
(g77
g58
NtRp4680
(dp4681
g61
(dp4682
sg70
g4667
sg63
(lp4683
g56
(g57
g58
NtRp4684
(dp4685
g61
(dp4686
g69
I5
ssg70
g4680
sg63
(lp4687
g56
(g65
g58
NtRp4688
(dp4689
g61
(dp4690
g69
I4
ssg70
Nsg63
(lp4691
sbasbasbasbag56
(g72
g58
NtRp4692
(dp4693
g61
(dp4694
sg70
g4202
sg63
(lp4695
g56
(g77
g58
NtRp4696
(dp4697
g61
(dp4698
g81
g82
ssg70
g4692
sg63
(lp4699
S'postprocessing'
p4700
asbag56
(g77
g58
NtRp4701
(dp4702
g61
(dp4703
g88
g89
ssg70
g4692
sg63
(lp4704
S':'
asbag56
(g77
g58
NtRp4705
(dp4706
g61
(dp4707
sg70
g4692
sg63
(lp4708
g56
(g57
g58
NtRp4709
(dp4710
g61
(dp4711
g69
I5
ssg70
g4705
sg63
(lp4712
g56
(g65
g58
NtRp4713
(dp4714
g61
(dp4715
g69
I4
ssg70
Nsg63
(lp4716
sbasbasbasbag56
(g72
g58
NtRp4717
(dp4718
g61
(dp4719
sg70
g4202
sg63
(lp4720
g56
(g77
g58
NtRp4721
(dp4722
g61
(dp4723
g81
g82
ssg70
g4717
sg63
(lp4724
S'session_file'
p4725
asbag56
(g77
g58
NtRp4726
(dp4727
g61
(dp4728
g88
g89
ssg70
g4717
sg63
(lp4729
S':'
asbag56
(g77
g58
NtRp4730
(dp4731
g61
(dp4732
sg70
g4717
sg63
(lp4733
g56
(g57
g58
NtRp4734
(dp4735
g61
(dp4736
g69
I5
ssg70
g4730
sg63
(lp4737
S"<open file '/home/www-data/web2py/applications/scrum/sessions/127.0.0.1-8741b6aa-dd8d-45b3-88a3-6f21c23a3c79', mode 'rb+' at 0xb9409d30>"
p4738
asbasbasbag56
(g72
g58
NtRp4739
(dp4740
g61
(dp4741
sg70
g4202
sg63
(lp4742
g56
(g77
g58
NtRp4743
(dp4744
g61
(dp4745
g81
g82
ssg70
g4739
sg63
(lp4746
S'session_filename'
p4747
asbag56
(g77
g58
NtRp4748
(dp4749
g61
(dp4750
g88
g89
ssg70
g4739
sg63
(lp4751
S':'
asbag56
(g77
g58
NtRp4752
(dp4753
g61
(dp4754
sg70
g4739
sg63
(lp4755
g56
(g57
g58
NtRp4756
(dp4757
g61
(dp4758
g69
I5
ssg70
g4752
sg63
(lp4759
S'/home/www-data/web2py/applications/scrum/sessions/127.0.0.1-8741b6aa-dd8d-45b3-88a3-6f21c23a3c79'
p4760
asbasbasbag56
(g72
g58
NtRp4761
(dp4762
g61
(dp4763
sg70
g4202
sg63
(lp4764
g56
(g77
g58
NtRp4765
(dp4766
g61
(dp4767
g81
g82
ssg70
g4761
sg63
(lp4768
S'session_id'
p4769
asbag56
(g77
g58
NtRp4770
(dp4771
g61
(dp4772
g88
g89
ssg70
g4761
sg63
(lp4773
S':'
asbag56
(g77
g58
NtRp4774
(dp4775
g61
(dp4776
sg70
g4761
sg63
(lp4777
g56
(g57
g58
NtRp4778
(dp4779
g61
(dp4780
g69
I5
ssg70
g4774
sg63
(lp4781
S'127.0.0.1-8741b6aa-dd8d-45b3-88a3-6f21c23a3c79'
p4782
asbasbasbag56
(g72
g58
NtRp4783
(dp4784
g61
(dp4785
sg70
g4202
sg63
(lp4786
g56
(g77
g58
NtRp4787
(dp4788
g61
(dp4789
g81
g82
ssg70
g4783
sg63
(lp4790
S'session_id_name'
p4791
asbag56
(g77
g58
NtRp4792
(dp4793
g61
(dp4794
g88
g89
ssg70
g4783
sg63
(lp4795
S':'
asbag56
(g77
g58
NtRp4796
(dp4797
g61
(dp4798
sg70
g4783
sg63
(lp4799
g56
(g57
g58
NtRp4800
(dp4801
g61
(dp4802
g69
I5
ssg70
g4796
sg63
(lp4803
g4259
asbasbasbag56
(g72
g58
NtRp4804
(dp4805
g61
(dp4806
sg70
g4202
sg63
(lp4807
g56
(g77
g58
NtRp4808
(dp4809
g61
(dp4810
g81
g82
ssg70
g4804
sg63
(lp4811
S'session_locked'
p4812
asbag56
(g77
g58
NtRp4813
(dp4814
g61
(dp4815
g88
g89
ssg70
g4804
sg63
(lp4816
S':'
asbag56
(g77
g58
NtRp4817
(dp4818
g61
(dp4819
sg70
g4804
sg63
(lp4820
g56
(g57
g58
NtRp4821
(dp4822
g61
(dp4823
g69
I5
ssg70
g4817
sg63
(lp4824
g1875
asbasbasbag56
(g72
g58
NtRp4825
(dp4826
g61
(dp4827
sg70
g4202
sg63
(lp4828
g56
(g77
g58
NtRp4829
(dp4830
g61
(dp4831
g81
g82
ssg70
g4825
sg63
(lp4832
S'session_new'
p4833
asbag56
(g77
g58
NtRp4834
(dp4835
g61
(dp4836
g88
g89
ssg70
g4825
sg63
(lp4837
S':'
asbag56
(g77
g58
NtRp4838
(dp4839
g61
(dp4840
sg70
g4825
sg63
(lp4841
g56
(g57
g58
NtRp4842
(dp4843
g61
(dp4844
g69
I5
ssg70
g4838
sg63
(lp4845
g99
asbasbasbag56
(g72
g58
NtRp4846
(dp4847
g61
(dp4848
sg70
g4202
sg63
(lp4849
g56
(g77
g58
NtRp4850
(dp4851
g61
(dp4852
g81
g82
ssg70
g4846
sg63
(lp4853
S'status'
p4854
asbag56
(g77
g58
NtRp4855
(dp4856
g61
(dp4857
g88
g89
ssg70
g4846
sg63
(lp4858
S':'
asbag56
(g77
g58
NtRp4859
(dp4860
g61
(dp4861
sg70
g4846
sg63
(lp4862
g56
(g57
g58
NtRp4863
(dp4864
g61
(dp4865
g69
I5
ssg70
g4859
sg63
(lp4866
S'200'
p4867
asbasbasbag56
(g72
g58
NtRp4868
(dp4869
g61
(dp4870
sg70
g4202
sg63
(lp4871
g56
(g77
g58
NtRp4872
(dp4873
g61
(dp4874
g81
g82
ssg70
g4868
sg63
(lp4875
g2455
asbag56
(g77
g58
NtRp4876
(dp4877
g61
(dp4878
g88
g89
ssg70
g4868
sg63
(lp4879
S':'
asbag56
(g77
g58
NtRp4880
(dp4881
g61
(dp4882
sg70
g4868
sg63
(lp4883
g56
(g57
g58
NtRp4884
(dp4885
g61
(dp4886
g69
I5
ssg70
g4880
sg63
(lp4887
g2468
asbasbasbag56
(g72
g58
NtRp4888
(dp4889
g61
(dp4890
sg70
g4202
sg63
(lp4891
g56
(g77
g58
NtRp4892
(dp4893
g61
(dp4894
g81
g82
ssg70
g4888
sg63
(lp4895
S'view'
p4896
asbag56
(g77
g58
NtRp4897
(dp4898
g61
(dp4899
g88
g89
ssg70
g4888
sg63
(lp4900
S':'
asbag56
(g77
g58
NtRp4901
(dp4902
g61
(dp4903
sg70
g4888
sg63
(lp4904
g56
(g57
g58
NtRp4905
(dp4906
g61
(dp4907
g69
I5
ssg70
g4901
sg63
(lp4908
S'ticket/editar.html'
p4909
asbasbasbasbasbsS'locals'
p4910
(dp4911
S'Service'
p4912
S"<class 'gluon.tools.Service'>"
p4913
sS'OBJECT'
p4914
S"<class 'gluon.html.OBJECT'>"
p4915
sS'SQLDB'
p4916
S"<class 'gluon.dal.DAL'>"
p4917
sg3896
S"<Storage {'_formkey[sprint/1]': 'c648ab23491db40...: 'JA\\xa5~\\x1a\\x9a[W\\x9f>\\x1b\\x0fc\\xcc\\xcf\\x9d'}>"
p4918
sS'LINK'
p4919
S"<class 'gluon.html.LINK'>"
p4920
sS'BR'
p4921
S"<class 'gluon.html.BR'>"
p4922
sS'local_import'
p4923
S'<function <lambda>>'
p4924
sS'OPTGROUP'
p4925
S"<class 'gluon.html.OPTGROUP'>"
p4926
sS'PRE'
p4927
S"<class 'gluon.html.PRE'>"
p4928
sS'IS_INT_IN_RANGE'
p4929
S"<class 'gluon.validators.IS_INT_IN_RANGE'>"
p4930
sS'IS_LOWER'
p4931
S"<class 'gluon.validators.IS_LOWER'>"
p4932
sS'IS_STRONG'
p4933
S"<class 'gluon.validators.IS_STRONG'>"
p4934
sS'Recaptcha'
p4935
S"<class 'gluon.tools.Recaptcha'>"
p4936
sS'cache'
p4937
S'<gluon.cache.Cache object>'
p4938
sS'IS_IN_DB'
p4939
S"<class 'gluon.validators.IS_IN_DB'>"
p4940
sS'TAG'
p4941
S'<gluon.html.__TAG__ object>'
p4942
sS'SQLField'
p4943
S"<class 'gluon.dal.Field'>"
p4944
sS'mail'
p4945
S'<gluon.tools.Mail object>'
p4946
sS'BODY'
p4947
S"<class 'gluon.html.BODY'>"
p4948
sS'IS_DATE_IN_RANGE'
p4949
S"<class 'gluon.validators.IS_DATE_IN_RANGE'>"
p4950
sS'IFRAME'
p4951
S"<class 'gluon.html.IFRAME'>"
p4952
sS'URL'
p4953
S'<function URL>'
p4954
sS'__file__'
p4955
S"'/home/www-data/web2py/applications/scrum/models/db1.py'"
p4956
sS'db'
p4957
S"<DAL {'auth_event': <Table {'origin': <gluon.dal... 'id': <gluon.dal.Field object at 0xb97fbb2c>}>}>"
p4958
sS'auth'
p4959
S'<gluon.tools.Auth object>'
p4960
sS'P'
S"<class 'gluon.html.P'>"
p4961
sS'TFOOT'
p4962
S"<class 'gluon.html.TFOOT'>"
p4963
sS'XHTML'
p4964
S"<class 'gluon.html.XHTML'>"
p4965
sS'ON'
p4966
g1875
sS'OL'
p4967
S"<class 'gluon.html.OL'>"
p4968
sS'TEXTAREA'
p4969
S"<class 'gluon.html.TEXTAREA'>"
p4970
sS'codepoint2name'
p4971
S"{34: 'quot', 38: 'amp', 60: 'lt', 62: 'gt', 160: 'nbsp', 161: 'iexcl', 162: 'cent', 163: 'pound', 164: 'curren', 165: 'yen', ...}"
p4972
sS'MENU'
p4973
S"<class 'gluon.html.MENU'>"
p4974
sS'EM'
p4975
S"<class 'gluon.html.EM'>"
p4976
sS'CODE'
p4977
S"<class 'gluon.html.CODE'>"
p4978
sS'HTTP'
p4979
S"<class 'gluon.http.HTTP'>"
p4980
sS'HR'
p4981
S"<class 'gluon.html.HR'>"
p4982
sS'IS_DATETIME'
p4983
S"<class 'gluon.validators.IS_DATETIME'>"
p4984
sS'STYLE'
p4985
S"<class 'gluon.html.STYLE'>"
p4986
sS'LABEL'
p4987
S"<class 'gluon.html.LABEL'>"
p4988
sS'META'
p4989
S"<class 'gluon.html.META'>"
p4990
sS'plugins'
p4991
S'<gluon.tools.PluginManager object>'
p4992
sS'SELECT'
p4993
S"<class 'gluon.html.SELECT'>"
p4994
sS'CENTER'
p4995
S"<class 'gluon.html.CENTER'>"
p4996
sS'prettydate'
p4997
S'<function prettydate>'
p4998
sS'Crud'
p4999
S"<class 'gluon.tools.Crud'>"
p5000
sS'Auth'
p5001
S"<class 'gluon.tools.Auth'>"
p5002
sS'IS_EQUAL_TO'
p5003
S"<class 'gluon.validators.IS_EQUAL_TO'>"
p5004
sS'IS_LIST_OF'
p5005
S"<class 'gluon.validators.IS_LIST_OF'>"
p5006
sS'SQLFORM'
p5007
S"<class 'gluon.sqlhtml.SQLFORM'>"
p5008
sS'LOAD'
p5009
S'<gluon.compileapp.LoadFactory object>'
p5010
sS'redirect'
p5011
S'<function redirect>'
p5012
sS'FIELDSET'
p5013
S"<class 'gluon.html.FIELDSET'>"
p5014
sS'__builtins__'
p5015
S"{'ArithmeticError': <type 'exceptions.ArithmeticError'>, 'AssertionError': <type 'exceptions.AssertionError'>, 'AttributeError': <type 'exceptions.AttributeError'>, 'BaseException': <type 'exceptions.BaseException'>, 'BufferError': <type 'exceptions.BufferError'>, 'BytesWarning': <type 'exceptions.BytesWarning'>, 'DeprecationWarning': <type 'exceptions.DeprecationWarning'>, 'EOFError': <type 'exceptions.EOFError'>, 'Ellipsis': Ellipsis, 'EnvironmentError': <type 'exceptions.EnvironmentError'>, ...}"
p5016
sS'embed64'
p5017
S'<function embed64>'
p5018
sS'INPUT'
p5019
S"<class 'gluon.html.INPUT'>"
p5020
sS'EMBED'
p5021
S"<class 'gluon.html.EMBED'>"
p5022
sS'FORM'
p5023
S"<class 'gluon.html.FORM'>"
p5024
sS'H2'
p5025
S"<class 'gluon.html.H2'>"
p5026
sS'H3'
p5027
S"<class 'gluon.html.H3'>"
p5028
sS'BUTTON'
p5029
S"<class 'gluon.html.BUTTON'>"
p5030
sS'H1'
p5031
S"<class 'gluon.html.H1'>"
p5032
sS'H6'
p5033
S"<class 'gluon.html.H6'>"
p5034
sS'H4'
p5035
S"<class 'gluon.html.H4'>"
p5036
sS'H5'
p5037
S"<class 'gluon.html.H5'>"
p5038
sS'UL'
p5039
S"<class 'gluon.html.UL'>"
p5040
sS'IS_UPPER'
p5041
S"<class 'gluon.validators.IS_UPPER'>"
p5042
sS'xmlescape'
p5043
S'<function xmlescape>'
p5044
sS'IS_TIME'
p5045
S"<class 'gluon.validators.IS_TIME'>"
p5046
sS'OPTION'
p5047
S"<class 'gluon.html.OPTION'>"
p5048
sS'TITLE'
p5049
S"<class 'gluon.html.TITLE'>"
p5050
sS'CRYPT'
p5051
S"<class 'gluon.validators.CRYPT'>"
p5052
sS'IS_EMPTY_OR'
p5053
S"<class 'gluon.validators.IS_EMPTY_OR'>"
p5054
sS'MARKMIN'
p5055
S"<class 'gluon.html.MARKMIN'>"
p5056
sS'BRAZILIAN_DATE'
p5057
S'<gluon.validators.IS_DATE object>'
p5058
sS'service'
p5059
S'<gluon.tools.Service object>'
p5060
sS'SCRIPT'
p5061
S"<class 'gluon.html.SCRIPT'>"
p5062
sS'geocode'
p5063
S'<function geocode>'
p5064
sS'TABLE'
p5065
S"<class 'gluon.html.TABLE'>"
p5066
sS'IS_IPV4'
p5067
S"<class 'gluon.validators.IS_IPV4'>"
p5068
sS'IS_LENGTH'
p5069
S"<class 'gluon.validators.IS_LENGTH'>"
p5070
sS'XML'
p5071
S"<class 'gluon.html.XML'>"
p5072
sS'B'
S"<class 'gluon.html.B'>"
p5073
sS'IMG'
p5074
S"<class 'gluon.html.IMG'>"
p5075
sS'SQLTABLE'
p5076
S"<class 'gluon.sqlhtml.SQLTABLE'>"
p5077
sS'IS_MATCH'
p5078
S"<class 'gluon.validators.IS_MATCH'>"
p5079
sS'IS_ALPHANUMERIC'
p5080
S"<class 'gluon.validators.IS_ALPHANUMERIC'>"
p5081
sS'unicode2htmlentities'
p5082
S'<function unicode2htmlentities>'
p5083
sS'SPAN'
p5084
S"<class 'gluon.html.SPAN'>"
p5085
sS'IS_SLUG'
p5086
S"<class 'gluon.validators.IS_SLUG'>"
p5087
sS'CLEANUP'
p5088
S"<class 'gluon.validators.CLEANUP'>"
p5089
sS'IS_URL'
p5090
S"<class 'gluon.validators.IS_URL'>"
p5091
sS'fetch'
p5092
S'<function fetch>'
p5093
sS'IS_DATE'
p5094
S"<class 'gluon.validators.IS_DATE'>"
p5095
sS'IS_EMAIL'
p5096
S"<class 'gluon.validators.IS_EMAIL'>"
p5097
sS'IS_NOT_EMPTY'
p5098
S"<class 'gluon.validators.IS_NOT_EMPTY'>"
p5099
sS'IS_FLOAT_IN_RANGE'
p5100
S"<class 'gluon.validators.IS_FLOAT_IN_RANGE'>"
p5101
sS'BEAUTIFY'
p5102
S"<class 'gluon.html.BEAUTIFY'>"
p5103
sS'TBODY'
p5104
S"<class 'gluon.html.TBODY'>"
p5105
sS'CAT'
p5106
S"<class 'gluon.html.CAT'>"
p5107
sS'Field'
p5108
S"<class 'gluon.dal.Field'>"
p5109
sS'Mail'
p5110
S"<class 'gluon.tools.Mail'>"
p5111
sS'DIV'
p5112
S"<class 'gluon.html.DIV'>"
p5113
sS'LEGEND'
p5114
S"<class 'gluon.html.LEGEND'>"
p5115
sS'DAL'
p5116
S"<class 'gluon.dal.DAL'>"
p5117
sS'TT'
p5118
S"<class 'gluon.html.TT'>"
p5119
sS'TR'
p5120
S"<class 'gluon.html.TR'>"
p5121
sS'LI'
p5122
S"<class 'gluon.html.LI'>"
p5123
sS'TH'
p5124
S"<class 'gluon.html.TH'>"
p5125
sS'TD'
p5126
S"<class 'gluon.html.TD'>"
p5127
sS'PluginManager'
p5128
S"<class 'gluon.tools.PluginManager'>"
p5129
sS'config'
p5130
S"<Row {'grupo_desenvolvedor': 2, 'update_record':...lete_record': <function <lambda> at 0xb9272994>}>"
p5131
sS'A'
S"<class 'gluon.html.A'>"
p5132
sS'HEAD'
p5133
S"<class 'gluon.html.HEAD'>"
p5134
sS'IS_DATETIME_IN_RANGE'
p5135
S"<class 'gluon.validators.IS_DATETIME_IN_RANGE'>"
p5136
sS'HTML'
p5137
S"<class 'gluon.html.HTML'>"
p5138
sS'IS_IMAGE'
p5139
S"<class 'gluon.validators.IS_IMAGE'>"
p5140
sS'I'
S"<class 'gluon.html.I'>"
p5141
sS'crud'
p5142
S'<gluon.tools.Crud object>'
p5143
sS'IS_NOT_IN_DB'
p5144
S"<class 'gluon.validators.IS_NOT_IN_DB'>"
p5145
sg4197
S"<Storage {'status': 200, 'body': <cStringIO.Stri...454>, 'files': [], 'view': 'ticket/editar.html'}>"
p5146
sS'THEAD'
p5147
S"<class 'gluon.html.THEAD'>"
p5148
sS'IS_NULL_OR'
p5149
S"<class 'gluon.validators.IS_EMPTY_OR'>"
p5150
sg55
S"<Storage {'body': <open file '<fdopen>', mode 'w...do': '1', 'cliente': '', 'fim': '12/09/2011 '}>}>"
p5151
sS'IS_EXPR'
p5152
S"<class 'gluon.validators.IS_EXPR'>"
p5153
sS'IS_IN_SET'
p5154
S"<class 'gluon.validators.IS_IN_SET'>"
p5155
sS'IS_UPLOAD_FILENAME'
p5156
S"<class 'gluon.validators.IS_UPLOAD_FILENAME'>"
p5157
sS'IS_DECIMAL_IN_RANGE'
p5158
S"<class 'gluon.validators.IS_DECIMAL_IN_RANGE'>"
p5159
sS'T'
S'<gluon.languages.translator object>'
p5160
sssS'traceback'
p5161
S'Traceback (most recent call last):\n  File "/home/www-data/web2py/gluon/restricted.py", line 192, in restricted\n    exec ccode in environment\n  File "/home/www-data/web2py/applications/scrum/models/db1.py", line 56, in <module>\n    Field(\'inicio\',\'date\',requires=brazilian_date),\nNameError: name \'brazilian_date\' is not defined\n'
p5162
s.