(dp1
S'output'
p2
S''
sS'layer'
p3
S'/home/www-data/web2py/applications/scrum/views/ticket/form_teste.html'
p4
sS'code'
p5
S'response.write(\'<TABLE WIDTH=696 CELLPADDING=0 CELLSPACING=0 STYLE="page-break-before: always">\\n\\t<TR>\\n\\t\\t<TD COLSPAN=14 WIDTH=694 VALIGN=TOP STYLE="; border: 1px solid #000000; padding: 0cm">\\n\\t\\t\\t<P CLASS="table-contents-western" ALIGN=CENTER STYLE="margin-top: 0.1cm; background: #e6e6e6">\\n\\t\\t\\t<FONT FACE="Trebuchet MS, sans-serif"><FONT SIZE=2><B>FORMUL\\xc3\\x81RIO\\n\\t\\t\\tDE TESTE</B></FONT></FONT></P>\\n\\t\\t</TD>\\n\\t</TR>\\n\\t<TR>\\n\\t\\t<TD COLSPAN=2 WIDTH=74 HEIGHT=14 STYLE="; border-top: 1px solid #000000; border-bottom: 1px solid #000000; border-left: 1px solid #000000; border-right: none; padding: 0cm">\\n\\t\\t\\t<P CLASS="western" STYLE="widows: 2; orphans: 2"><FONT FACE="Trebuchet MS, sans-serif"><FONT SIZE=1 STYLE="font-size: 8pt"><B>SPRINT: \', escape=False)\nresponse.write(ticket.sprint.numero)\nresponse.write(\'</B>\\n\\t\\t\\t</FONT></FONT>\\n\\t\\t\\t</P>\\n\\t\\t</TD>\\n\\t\\t<TD COLSPAN=6 WIDTH=254 STYLE="; border-top: 1px solid #000000; border-bottom: 1px solid #000000; border-left: 1px solid #000000; border-right: none; padding: 0cm">\\n\\t\\t\\t<P CLASS="western" STYLE="widows: 2; orphans: 2"><FONT face="Trebuchet MS, sans-serif"><FONT size=1 style="font-size: 8pt">Tipo:\\n\\t\\t\\t</FONT></FONT><FONT face="Trebuchet MS, sans-serif"><FONT SIZE=1 STYLE="font-size: 8pt"></FONT></FONT><FONT FACE="Trebuchet MS, sans-serif"></FONT></P>\\n\\t\\t</TD>\\n\\t\\t<TD COLSPAN=4 WIDTH=206 STYLE="; border-top: 1px solid #000000; border-bottom: 1px solid #000000; border-left: 1px solid #000000; border-right: none; padding: 0cm">\\n\\t\\t\\t<P CLASS="western" STYLE="widows: 2; orphans: 2"><FONT FACE="Trebuchet MS, sans-serif"><FONT SIZE=1 STYLE="font-size: 8pt">Cliente:\\n\\t\\t\\t </FONT></FONT></P>\\n\\t\\t</TD>\\n\\t\\t<TD COLSPAN=2 WIDTH=161 STYLE="; border: 1px solid #000000; padding: 0cm">\\n\\t\\t\\t<P CLASS="western" STYLE="widows: 2; orphans: 2"><FONT FACE="Trebuchet MS, sans-serif"><FONT SIZE=2><B>CHAMADO:</B></FONT></FONT>\\n\\t\\t\\t</P>\\n\\t\\t</TD>\\n\\t</TR>\\n\\t<TR>\\n\\t\\t<TD COLSPAN=11 WIDTH=423 HEIGHT=19 STYLE="; border-top: 1px solid #000000; border-bottom: 1px solid #000000; border-left: 1px solid #000000; border-right: none; padding: 0cm">\\n\\t\\t\\t<P CLASS="western" ALIGN=CENTER STYLE="widows: 2; orphans: 2"><FONT FACE="Trebuchet MS, sans-serif"><FONT SIZE=1 STYLE="font-size: 8pt">[ ]Desenvolvimento/teste\\n\\t\\t\\t  [ ]Re-desenvolvimento/Re-teste</FONT></FONT></P>\\n\\t\\t</TD>\\n\\t\\t<TD COLSPAN=3 WIDTH=271 STYLE="; border: 1px solid #000000; padding: 0cm">\\n\\t\\t\\t<P CLASS="western" ALIGN=CENTER STYLE="widows: 2; orphans: 2"><FONT FACE="Trebuchet MS, sans-serif">Sistema:<FONT SIZE=1 STYLE="font-size: 8pt"></FONT></FONT></P>\\n\\t\\t</TD>\\n\\t</TR>\\n\\t<TR>\\n\\t\\t<TD ROWSPAN=8 WIDTH=35 STYLE="; border-top: 1px solid #000000; border-bottom: 1px solid #000000; border-left: 1px solid #000000; border-right: none; padding: 0cm">\\n\\t\\t\\t<P CLASS="table-contents-western" ALIGN=CENTER STYLE="margin-left: 0.2cm; margin-right: 0.2cm">\\n\\t\\t\\t<FONT FACE="Tahoma, sans-serif"><FONT SIZE=4><B>D<br>E<br>S<br>E<br>N<br>V<br>O<br>L<br>V<br>I<br>M<br>E<br>N<br>T<br>O</B></FONT></FONT></P>\\n\\t\\t</TD>\\n\\t\\t<TD COLSPAN=13 WIDTH=659 VALIGN=TOP STYLE="; border: 1px solid #000000; padding: 0cm">\\n\\t\\t\\t<P CLASS="western" STYLE="widows: 2; orphans: 2"><FONT FACE="Trebuchet MS, sans-serif"><FONT SIZE=1 STYLE="font-size: 8pt">Nome do analista:\', escape=False)\nresponse.write(ticket.analista.first_name)\nresponse.write(\' <B> </B></FONT></FONT></P>\\n\\t\\t</TD>\\n\\t</TR>\\n\\t<TR>\\n\\t\\t<TD COLSPAN=4 WIDTH=172 VALIGN=TOP STYLE="; border-top: 1px solid #000000; border-bottom: 1px solid #000000; border-left: 1px solid #000000; border-right: none; padding: 0cm">\\n\\t\\t\\t<P CLASS="western" STYLE="widows: 2; orphans: 2"><FONT FACE="Trebuchet MS, sans-serif"><FONT SIZE=1 STYLE="font-size: 8pt">Data In\\xc3\\xadcio:\', escape=False)\nresponse.write(ticket.inicio)\nresponse.write(\'</FONT></FONT>\\n\\t\\t\\t</P>\\n\\t\\t</TD>\\n\\t\\t<TD COLSPAN=5 WIDTH=168 VALIGN=TOP STYLE="; border-top: 1px solid #000000; border-bottom: 1px solid #000000; border-left: 1px solid #000000; border-right: none; padding: 0cm">\\n\\t\\t\\t<P CLASS="western" STYLE="widows: 2; orphans: 2"><FONT FACE="Trebuchet MS, sans-serif"><FONT SIZE=1 STYLE="font-size: 8pt">Hora\\n\\t\\t\\tIn\\xc3\\xadcio: </FONT></FONT>\\n\\t\\t\\t</P>\\n\\t\\t</TD>\\n\\t\\t<TD COLSPAN=2 WIDTH=158 VALIGN=TOP STYLE="; border-top: 1px solid #000000; border-bottom: 1px solid #000000; border-left: 1px solid #000000; border-right: none; padding: 0cm">\\n\\t\\t\\t<P CLASS="western" STYLE="widows: 2; orphans: 2"><FONT FACE="Trebuchet MS, sans-serif"><FONT SIZE=1 STYLE="font-size: 8pt">Data Fim:\', escape=False)\nresponse.write(ticket.fim)\nresponse.write(\' </FONT></FONT><FONT FACE="Trebuchet MS, sans-serif"><FONT SIZE=1 STYLE="font-size: 8pt"><SDFIELD TYPE=DATETIME SDVAL="40795,7223842593" SDNUM="1046;1046;DD/MM/AAAA">09/09/2011</SDFIELD></FONT></FONT></P>\\n\\t\\t</TD>\\n\\t\\t<TD COLSPAN=2 WIDTH=161 VALIGN=TOP STYLE="; border: 1px solid #000000; padding: 0cm">\\n\\t\\t\\t<P CLASS="western" STYLE="widows: 2; orphans: 2"><FONT FACE="Trebuchet MS, sans-serif"><FONT SIZE=1 STYLE="font-size: 8pt">Hora\\n\\t\\t\\tFim: <SDFIELD TYPE=DATETIME SDVAL="40795,7223842593" SDNUM="1046;1046;HH:MM">17:20</SDFIELD></FONT></FONT></P>\\n\\t\\t</TD>\\n\\t</TR>\\n\\t<TR>\\n\\t\\t<TD COLSPAN=13 WIDTH=659 VALIGN=TOP STYLE="; border: 1px solid #000000; padding: 0cm">\\n\\t\\t\\t<P CLASS="western" STYLE="widows: 2; orphans: 2"><FONT FACE="Trebuchet MS, sans-serif"><FONT SIZE=1 STYLE="font-size: 8pt">Descri\\xc3\\xa7\\xc3\\xa3o\\n\\t\\t\\tanalista: </FONT></FONT>\\n\\t\\t\\t</P>\\n\\t\\t</TD>\\n\\t</TR>\\n\\t<TR>\\n\\t\\t<TD COLSPAN=13 WIDTH=659 VALIGN=TOP STYLE="; border: 1px solid #000000; padding: 0cm">\\n\\t\\t\\t<P CLASS="table-contents-western" STYLE="margin-bottom: 0.11cm"><BR><BR>\\n\\t\\t\\t</P>\\n\\t\\t\\t<TABLE WIDTH=656 CELLPADDING=0 CELLSPACING=0>\\n\\t\\t\\t\\t<COL WIDTH=86>\\n\\t\\t\\t\\t<COL WIDTH=213>\\n\\t\\t\\t\\t<COL WIDTH=354>\\n\\t\\t\\t\\t<TR VALIGN=TOP>\\n\\t\\t\\t\\t\\t<TD WIDTH=86 BGCOLOR="#e6e6e6" STYLE="border-top: 1px solid #000000; border-bottom: 1px solid #000000; border-left: 1px solid #000000; border-right: none; padding: 0cm">\\n\\t\\t\\t\\t\\t\\t<P CLASS="western" STYLE="widows: 2; orphans: 2"><FONT FACE="Trebuchet MS, sans-serif"><FONT SIZE=1 STYLE="font-size: 8pt">M\\xc3\\xb3dulo</FONT></FONT></P>\\n\\t\\t\\t\\t\\t</TD>\\n\\t\\t\\t\\t\\t<TD WIDTH=213 BGCOLOR="#e6e6e6" STYLE="border-top: 1px solid #000000; border-bottom: 1px solid #000000; border-left: 1px solid #000000; border-right: none; padding: 0cm">\\n\\t\\t\\t\\t\\t\\t<P CLASS="western" STYLE="widows: 2; orphans: 2"><FONT FACE="Trebuchet MS, sans-serif"><FONT SIZE=1 STYLE="font-size: 8pt">Nome\\n\\t\\t\\t\\t\\t\\tda Rotina:</FONT></FONT></P>\\n\\t\\t\\t\\t\\t</TD>\\n\\t\\t\\t\\t\\t<TD WIDTH=354 BGCOLOR="#e6e6e6" STYLE="border: 1px solid #000000; padding: 0cm">\\n\\t\\t\\t\\t\\t\\t<P CLASS="western" STYLE="widows: 2; orphans: 2"><FONT FACE="Trebuchet MS, sans-serif"><FONT SIZE=1 STYLE="font-size: 8pt">Menu\\n\\t\\t\\t\\t\\t\\tda Rotina:</FONT></FONT></P>\\n\\t\\t\\t\\t\\t</TD>\\n\\t\\t\\t\\t</TR>\\n\\t\\t\\t\\t<TR VALIGN=TOP>\\n\\t\\t\\t\\t\\t<TD WIDTH=86 STYLE="; border-top: none; border-bottom: 1px solid #000000; border-left: 1px solid #000000; border-right: none; padding: 0cm">\\n\\t\\t\\t\\t\\t\\t<P CLASS="western" STYLE="widows: 2; orphans: 2">\\n              \\n            </P>\\n\\t\\t\\t\\t\\t</TD>\\n\\t\\t\\t\\t\\t<TD WIDTH=213 STYLE="; border-top: none; border-bottom: 1px solid #000000; border-left: 1px solid #000000; border-right: none; padding: 0cm">\\n\\t\\t\\t\\t\\t\\t<P CLASS="western" STYLE="widows: 2; orphans: 2"><BR>\\n\\t\\t\\t\\t\\t\\t</P>\\n\\t\\t\\t\\t\\t</TD>\\n\\t\\t\\t\\t\\t<TD WIDTH=354 STYLE="; border-top: none; border-bottom: 1px solid #000000; border-left: 1px solid #000000; border-right: 1px solid #000000; padding: 0cm">\\n\\t\\t\\t\\t\\t\\t<P CLASS="western" STYLE="widows: 2; orphans: 2"><BR>\\n\\t\\t\\t\\t\\t\\t</P>\\n\\t\\t\\t\\t\\t</TD>\\n\\t\\t\\t\\t</TR>\\n\\t\\t\\t</TABLE>\\n\\t\\t\\t<P CLASS="table-contents-western"><BR><BR>\\n\\t\\t\\t</P>\\n\\t\\t</TD>\\n\\t</TR>\\n\\t<TR>\\n\\t\\t<TD COLSPAN=13 WIDTH=659 VALIGN=TOP STYLE="border: 1px solid #000000; padding: 0cm">\\n\\t\\t\\t<P CLASS="table-contents-western" STYLE="margin-bottom: 0.11cm"><BR><BR>\\n\\t\\t\\t</P>\\n\\t\\t\\t<TABLE WIDTH=656 CELLPADDING=0 CELLSPACING=0>\\n\\t\\t\\t\\t<COL WIDTH=91>\\n\\t\\t\\t\\t<COL WIDTH=434>\\n\\t\\t\\t\\t<COL WIDTH=74>\\n\\t\\t\\t\\t<COL WIDTH=54>\\n\\t\\t\\t\\t<TR VALIGN=TOP>\\n\\t\\t\\t\\t\\t<TD WIDTH=91 BGCOLOR="#e6e6e6" STYLE="border-top: 1px solid #000000; border-bottom: 1px solid #000000; border-left: 1px solid #000000; border-right: none; padding: 0cm">\\n\\t\\t\\t\\t\\t\\t<P CLASS="western" STYLE="widows: 2; orphans: 2"><FONT FACE="Trebuchet MS, sans-serif"><FONT SIZE=1 STYLE="font-size: 8pt">Pasta\\n\\t\\t\\t\\t\\t\\tRaiz:</FONT></FONT></P>\\n\\t\\t\\t\\t\\t</TD>\\n\\t\\t\\t\\t\\t<TD WIDTH=434 BGCOLOR="#e6e6e6" STYLE="border-top: 1px solid #000000; border-bottom: 1px solid #000000; border-left: 1px solid #000000; border-right: none; padding: 0cm">\\n\\t\\t\\t\\t\\t\\t<P CLASS="western" STYLE="widows: 2; orphans: 2"><FONT FACE="Trebuchet MS, sans-serif"><FONT SIZE=1 STYLE="font-size: 8pt">Formul\\xc3\\xa1rio\\n\\t\\t\\t\\t\\t\\tou Relat\\xc3\\xb3rio Alterado:</FONT></FONT></P>\\n\\t\\t\\t\\t\\t</TD>\\n\\t\\t\\t\\t\\t<TD WIDTH=74 BGCOLOR="#e6e6e6" STYLE="border-top: 1px solid #000000; border-bottom: 1px solid #000000; border-left: 1px solid #000000; border-right: none; padding: 0cm">\\n\\t\\t\\t\\t\\t\\t<P CLASS="western" ALIGN=CENTER STYLE="widows: 2; orphans: 2"><FONT FACE="Trebuchet MS, sans-serif"><FONT SIZE=1 STYLE="font-size: 8pt">Data\\n\\t\\t\\t\\t\\t\\tCommit:</FONT></FONT></P>\\n\\t\\t\\t\\t\\t</TD>\\n\\t\\t\\t\\t\\t<TD WIDTH=54 BGCOLOR="#e6e6e6" STYLE="border: 1px solid #000000; padding: 0cm">\\n\\t\\t\\t\\t\\t\\t<P CLASS="western" ALIGN=CENTER STYLE="widows: 2; orphans: 2"><FONT FACE="Trebuchet MS, sans-serif"><FONT SIZE=1 STYLE="font-size: 8pt">Form.WIKI:</FONT></FONT></P>\\n\\t\\t\\t\\t\\t</TD>\\n\\t\\t\\t\\t</TR>\\n\\t\\t\\t\\t<TR VALIGN=TOP>\\n\\t\\t\\t\\t\\t<TD WIDTH=91 STYLE="; border-top: none; border-bottom: 1px solid #000000; border-left: 1px solid #000000; border-right: none; padding: 0cm">\\n\\t\\t\\t\\t\\t\\t<P CLASS="western" STYLE="widows: 2; orphans: 2"><BR>\\n\\t\\t\\t\\t\\t\\t</P>\\n\\t\\t\\t\\t\\t</TD>\\n\\t\\t\\t\\t\\t<TD WIDTH=434 STYLE="; border-top: none; border-bottom: 1px solid #000000; border-left: 1px solid #000000; border-right: none; padding: 0cm">\\n\\t\\t\\t\\t\\t\\t<P CLASS="western" STYLE="widows: 2; orphans: 2"><BR>\\n\\t\\t\\t\\t\\t\\t</P>\\n\\t\\t\\t\\t\\t</TD>\\n\\t\\t\\t\\t\\t<TD WIDTH=74 STYLE="; border-top: none; border-bottom: 1px solid #000000; border-left: 1px solid #000000; border-right: none; padding: 0cm">\\n\\t\\t\\t\\t\\t\\t<P CLASS="western" STYLE="widows: 2; orphans: 2"><BR>\\n\\t\\t\\t\\t\\t\\t</P>\\n\\t\\t\\t\\t\\t</TD>\\n\\t\\t\\t\\t\\t<TD WIDTH=54 STYLE="; border-top: none; border-bottom: 1px solid #000000; border-left: 1px solid #000000; border-right: 1px solid #000000; padding: 0cm">\\n\\t\\t\\t\\t\\t\\t<P CLASS="western" STYLE="widows: 2; orphans: 2"><BR>\\n\\t\\t\\t\\t\\t\\t</P>\\n\\t\\t\\t\\t\\t</TD>\\n\\t\\t\\t\\t</TR>\\n\\t\\t\\t</TABLE>\\n\\t\\t\\t<P CLASS="table-contents-western"><BR><BR>\\n\\t\\t\\t</P>\\n\\t\\t</TD>\\n\\t</TR>\\n\\t<TR>\\n\\t\\t<TD COLSPAN=2 WIDTH=106 VALIGN=TOP STYLE="border-top: 1px solid #000000; border-bottom: 1px solid #000000; border-left: 1px solid #000000; border-right: none; padding: 0cm">\\n\\t\\t\\t<P CLASS="western" STYLE="margin-bottom: 0cm; widows: 2; orphans: 2">\\n        <FONT face="Trebuchet MS, sans-serif"><FONT size=1 style="font-size: 8pt"><B>TEM PATCH? \', escape=False)\nresponse.write(ticket.patch)\nresponse.write(\' </B></FONT></FONT><FONT face="Trebuchet MS, sans-serif"><FONT size=1 style="font-size: 8pt"><B><FONT SIZE=2 STYLE="font-size: 9pt"></FONT></B></FONT></FONT><FONT FACE="Trebuchet MS, sans-serif"><FONT SIZE=1 STYLE="font-size: 8pt"><B></B></FONT></FONT></P>\\n\\t\\t</TD>\\n\\t\\t<TD COLSPAN=4 WIDTH=105 VALIGN=TOP STYLE="; border-top: 1px solid #000000; border-bottom: 1px solid #000000; border-left: 1px solid #000000; border-right: none; padding: 0cm">\\n\\t\\t\\t<P CLASS="western" STYLE="margin-bottom: 0cm; widows: 2; orphans: 2">\\n        <FONT face="Trebuchet MS, sans-serif"><FONT size=1 style="font-size: 8pt"><B>MENU NOVO? </B></FONT></FONT><FONT face="Trebuchet MS, sans-serif"><FONT size=1 style="font-size: 8pt"><B><FONT SIZE=2 STYLE="font-size: 9pt"></FONT></B></FONT></FONT><FONT FACE="Trebuchet MS, sans-serif"><FONT SIZE=1 STYLE="font-size: 8pt"><B></B></FONT></FONT></P>\\n\\t\\t</TD>\\n\\t\\t<TD COLSPAN=7 WIDTH=448 VALIGN=TOP STYLE="; border: 1px solid #000000; padding: 0cm">\\n\\t\\t\\t<P CLASS="western" STYLE="margin-bottom: 0cm; widows: 2; orphans: 2">\\n        <FONT face="Trebuchet MS, sans-serif"><FONT size=1 style="font-size: 8pt">Local dos arquivos para teste: \', escape=False)\nresponse.write(ticket.local_teste)\nresponse.write(\'</FONT></FONT><FONT face="Trebuchet MS, sans-serif"><FONT size=1 style="font-size: 8pt"><B></B></FONT></FONT><FONT FACE="Trebuchet MS, sans-serif"><FONT SIZE=1 STYLE="font-size: 8pt"></FONT></FONT></P>\\n\\t\\t</TD>\\n\\t</TR>\\n\\t<TR>\\n\\t\\t<TD COLSPAN=13 WIDTH=659 VALIGN=TOP STYLE="; border: 1px solid #000000; padding: 0cm">\\n\\t\\t\\t<P CLASS="western" STYLE="margin-bottom: 0cm; widows: 2; orphans: 2">\\n\\t\\t\\t<FONT FACE="Trebuchet MS, sans-serif"><FONT SIZE=1 STYLE="font-size: 8pt">Documenta\\xc3\\xa7\\xc3\\xa3o\\n\\t\\t\\tda Rotina: </FONT></FONT>\\n\\t\\t\\t</P>\\n\\t\\t</TD>\\n\\t</TR>\\n\\t<TR>\\n\\t\\t<TD COLSPAN=13 WIDTH=659 VALIGN=TOP STYLE="; border: 1px solid #000000; padding: 0cm">\\n\\t\\t\\t<P CLASS="western" STYLE="margin-bottom: 0cm; widows: 2; orphans: 2">\\n\\t\\t\\t<FONT FACE="Trebuchet MS, sans-serif"><FONT SIZE=1 STYLE="font-size: 8pt">Descri\\xc3\\xa7\\xc3\\xa3o\\n\\t\\t\\tboletim: </FONT></FONT>\\n\\t\\t\\t</P>\\n\\t\\t</TD>\\n\\t</TR>\\n\\t<TR>\\n\\t\\t<TD COLSPAN=14 WIDTH=694 HEIGHT=15 VALIGN=TOP STYLE="; border-top: none; border-bottom: 1px solid #000000; border-left: 1px solid #000000; border-right: 1px solid #000000; padding: 0cm">\\n\\t\\t\\t<P CLASS="table-contents-western" STYLE="margin-bottom: 0.11cm; background: transparent">\\n\\t\\t\\t<BR><BR>\\n\\t\\t\\t</P>\\n\\t\\t</TD>\\n\\t</TR>\\n\\t<TR>\\n\\t\\t<TD ROWSPAN=16 WIDTH=35 STYLE="; border-top: 1px solid #000000; border-bottom: 1px solid #000000; border-left: 1px solid #000000; border-right: none; padding: 0cm">\\n\\t\\t\\t<P CLASS="table-contents-western" ALIGN=CENTER STYLE="margin-left: 0.2cm; margin-right: 0.2cm; margin-bottom: 0.11cm">\\n\\t\\t\\t<FONT FACE="Tahoma, sans-serif"><FONT SIZE=4><B>S<br>U<br>P<br>O<br>R<br>T<br>E</B></FONT></FONT></P>\\n\\t\\t</TD>\\n\\t\\t<TD COLSPAN=13 WIDTH=659 VALIGN=TOP STYLE="; border: 1px solid #000000; padding: 0cm">\\n\\t\\t\\t<P CLASS="western" STYLE="margin-bottom: 0cm; widows: 2; orphans: 2">\\n\\t\\t\\t<FONT FACE="Trebuchet MS, sans-serif"><FONT SIZE=1 STYLE="font-size: 8pt">Nome\\n\\t\\t\\tdo Consultor do TESTE: </FONT></FONT>\\n\\t\\t\\t</P>\\n\\t\\t</TD>\\n\\t</TR>\\n\\t<TR>\\n\\t\\t<TD COLSPAN=4 WIDTH=172 VALIGN=TOP STYLE="; border-top: none; border-bottom: 1px solid #000000; border-left: 1px solid #000000; border-right: none; padding: 0cm">\\n\\t\\t\\t<P CLASS="western" STYLE="margin-bottom: 0cm; widows: 2; orphans: 2">\\n\\t\\t\\t<FONT FACE="Trebuchet MS, sans-serif"><FONT SIZE=1 STYLE="font-size: 8pt">Data\\n\\t\\t\\tIn\\xc3\\xadcio: </FONT></FONT>\\n\\t\\t\\t</P>\\n\\t\\t</TD>\\n\\t\\t<TD COLSPAN=5 WIDTH=168 VALIGN=TOP STYLE="; border-top: none; border-bottom: 1px solid #000000; border-left: 1px solid #000000; border-right: none; padding: 0cm">\\n\\t\\t\\t<P CLASS="western" STYLE="margin-bottom: 0cm; widows: 2; orphans: 2">\\n\\t\\t\\t<FONT FACE="Trebuchet MS, sans-serif"><FONT SIZE=1 STYLE="font-size: 8pt">Hora\\n\\t\\t\\tIn\\xc3\\xadcio: </FONT></FONT>\\n\\t\\t\\t</P>\\n\\t\\t</TD>\\n\\t\\t<TD COLSPAN=2 WIDTH=158 VALIGN=TOP STYLE="; border-top: none; border-bottom: 1px solid #000000; border-left: 1px solid #000000; border-right: none; padding: 0cm">\\n\\t\\t\\t<P CLASS="western" STYLE="margin-bottom: 0cm; widows: 2; orphans: 2">\\n\\t\\t\\t<FONT FACE="Trebuchet MS, sans-serif"><FONT SIZE=1 STYLE="font-size: 8pt">Data\\n\\t\\t\\tFim: </FONT></FONT>\\n\\t\\t\\t</P>\\n\\t\\t</TD>\\n\\t\\t<TD COLSPAN=2 WIDTH=161 VALIGN=TOP STYLE="; border-top: none; border-bottom: 1px solid #000000; border-left: 1px solid #000000; border-right: 1px solid #000000; padding: 0cm">\\n\\t\\t\\t<P CLASS="western" STYLE="margin-bottom: 0cm; widows: 2; orphans: 2">\\n\\t\\t\\t<FONT FACE="Trebuchet MS, sans-serif"><FONT SIZE=1 STYLE="font-size: 8pt">Hora\\n\\t\\t\\tFim: </FONT></FONT>\\n\\t\\t\\t</P>\\n\\t\\t</TD>\\n\\t</TR>\\n\\t<TR>\\n\\t\\t<TD COLSPAN=11 WIDTH=498 VALIGN=TOP BGCOLOR="#e5e5e5" STYLE="border-top: 1px solid #000000; border-bottom: 1px solid #000000; border-left: 1px solid #000000; border-right: none; padding: 0cm">\\n\\t\\t\\t<P CLASS="western" STYLE="margin-bottom: 0cm; widows: 2; orphans: 2">\\n\\t\\t\\t<FONT FACE="Trebuchet MS, sans-serif"><FONT SIZE=1 STYLE="font-size: 8pt"><SPAN LANG="en-US">Check</SPAN><SPAN LANG="en-US">\\n\\t\\t\\tlist</SPAN></FONT></FONT></P>\\n\\t\\t</TD>\\n\\t\\t<TD WIDTH=85 VALIGN=TOP BGCOLOR="#e5e5e5" STYLE="border-top: 1px solid #000000; border-bottom: 1px solid #000000; border-left: 1px solid #000000; border-right: none; padding: 0cm">\\n\\t\\t\\t<P CLASS="western" ALIGN=CENTER STYLE="margin-bottom: 0cm; widows: 2; orphans: 2">\\n\\t\\t\\t<FONT FACE="Trebuchet MS, sans-serif"><FONT SIZE=1 STYLE="font-size: 8pt">SIM</FONT></FONT></P>\\n\\t\\t</TD>\\n\\t\\t<TD WIDTH=75 VALIGN=TOP BGCOLOR="#e5e5e5" STYLE="border: 1px solid #000000; padding: 0cm">\\n\\t\\t\\t<P CLASS="western" ALIGN=CENTER STYLE="margin-bottom: 0cm; widows: 2; orphans: 2">\\n\\t\\t\\t<FONT FACE="Trebuchet MS, sans-serif"><FONT SIZE=1 STYLE="font-size: 8pt">N\\xc3\\x83O</FONT></FONT></P>\\n\\t\\t</TD>\\n\\t</TR>\\n\\t<TR>\\n\\t\\t<TD COLSPAN=11 WIDTH=498 STYLE="; border-top: none; border-bottom: 1px solid #000000; border-left: 1px solid #000000; border-right: none; padding: 0cm">\\n\\t\\t\\t<P CLASS="western" STYLE="margin-bottom: 0cm; widows: 2; orphans: 2">\\n\\t\\t\\t<FONT FACE="Trebuchet MS, sans-serif"><FONT SIZE=1 STYLE="font-size: 8pt">1-\\n\\t\\t\\tTeste de interface j\\xc3\\xa1 est\\xc3\\xa1 conclu\\xc3\\xaddo?</FONT></FONT></P>\\n\\t\\t</TD>\\n\\t\\t<TD WIDTH=85 VALIGN=TOP STYLE="; border-top: none; border-bottom: 1px solid #000000; border-left: 1px solid #000000; border-right: none; padding: 0cm">\\n\\t\\t\\t<P CLASS="western" STYLE="margin-bottom: 0cm; widows: 2; orphans: 2">\\n\\t\\t\\t<BR>\\n\\t\\t\\t</P>\\n\\t\\t</TD>\\n\\t\\t<TD WIDTH=75 VALIGN=TOP STYLE="; border-top: none; border-bottom: 1px solid #000000; border-left: 1px solid #000000; border-right: 1px solid #000000; padding: 0cm">\\n\\t\\t\\t<P CLASS="western" STYLE="margin-bottom: 0cm; widows: 2; orphans: 2">\\n\\t\\t\\t<BR>\\n\\t\\t\\t</P>\\n\\t\\t</TD>\\n\\t</TR>\\n\\t<TR>\\n\\t\\t<TD COLSPAN=11 WIDTH=498 STYLE="; border-top: none; border-bottom: 1px solid #000000; border-left: 1px solid #000000; border-right: none; padding: 0cm">\\n\\t\\t\\t<P CLASS="western" STYLE="margin-bottom: 0cm; widows: 2; orphans: 2">\\n\\t\\t\\t<FONT FACE="Trebuchet MS, sans-serif"><FONT SIZE=1 STYLE="font-size: 8pt">2\\n\\t\\t\\t- Utilizado o banco de dados que simula a situa\\xc3\\xa7\\xc3\\xa3o do cliente?</FONT></FONT></P>\\n\\t\\t</TD>\\n\\t\\t<TD WIDTH=85 VALIGN=TOP STYLE="; border-top: none; border-bottom: 1px solid #000000; border-left: 1px solid #000000; border-right: none; padding: 0cm">\\n\\t\\t\\t<P CLASS="western" STYLE="margin-bottom: 0cm; widows: 2; orphans: 2">\\n\\t\\t\\t<BR>\\n\\t\\t\\t</P>\\n\\t\\t</TD>\\n\\t\\t<TD WIDTH=75 VALIGN=TOP STYLE="; border-top: none; border-bottom: 1px solid #000000; border-left: 1px solid #000000; border-right: 1px solid #000000; padding: 0cm">\\n\\t\\t\\t<P CLASS="western" STYLE="margin-bottom: 0cm; widows: 2; orphans: 2">\\n\\t\\t\\t<BR>\\n\\t\\t\\t</P>\\n\\t\\t</TD>\\n\\t</TR>\\n\\t<TR>\\n\\t\\t<TD COLSPAN=11 WIDTH=498 STYLE="; border-top: none; border-bottom: 1px solid #000000; border-left: 1px solid #000000; border-right: none; padding: 0cm">\\n\\t\\t\\t<P CLASS="western" STYLE="margin-bottom: 0cm; widows: 2; orphans: 2">\\n\\t\\t\\t<FONT FACE="Trebuchet MS, sans-serif"><FONT SIZE=1 STYLE="font-size: 8pt">3\\n\\t\\t\\t- Desenvolvedor especificou as principais rotinas a serem\\n\\t\\t\\ttestadas?</FONT></FONT></P>\\n\\t\\t</TD>\\n\\t\\t<TD WIDTH=85 VALIGN=TOP STYLE="; border-top: none; border-bottom: 1px solid #000000; border-left: 1px solid #000000; border-right: none; padding: 0cm">\\n\\t\\t\\t<P CLASS="western" STYLE="margin-bottom: 0cm; widows: 2; orphans: 2">\\n\\t\\t\\t<BR>\\n\\t\\t\\t</P>\\n\\t\\t</TD>\\n\\t\\t<TD WIDTH=75 VALIGN=TOP STYLE="; border-top: none; border-bottom: 1px solid #000000; border-left: 1px solid #000000; border-right: 1px solid #000000; padding: 0cm">\\n\\t\\t\\t<P CLASS="western" STYLE="margin-bottom: 0cm; widows: 2; orphans: 2">\\n\\t\\t\\t<BR>\\n\\t\\t\\t</P>\\n\\t\\t</TD>\\n\\t</TR>\\n\\t<TR>\\n\\t\\t<TD COLSPAN=11 WIDTH=498 STYLE="; border-top: none; border-bottom: 1px solid #000000; border-left: 1px solid #000000; border-right: none; padding: 0cm">\\n\\t\\t\\t<P CLASS="western" STYLE="margin-bottom: 0cm; widows: 2; orphans: 2">\\n\\t\\t\\t<FONT FACE="Trebuchet MS, sans-serif"><FONT SIZE=1 STYLE="font-size: 8pt">4\\n\\t\\t\\t- Desenvolvedor orientou quais outras fun\\xc3\\xa7\\xc3\\xb5es dever\\xc3\\xa3o ser\\n\\t\\t\\tverificadas?</FONT></FONT></P>\\n\\t\\t</TD>\\n\\t\\t<TD WIDTH=85 VALIGN=TOP STYLE="; border-top: none; border-bottom: 1px solid #000000; border-left: 1px solid #000000; border-right: none; padding: 0cm">\\n\\t\\t\\t<P CLASS="western" STYLE="margin-bottom: 0cm; widows: 2; orphans: 2">\\n\\t\\t\\t<BR>\\n\\t\\t\\t</P>\\n\\t\\t</TD>\\n\\t\\t<TD WIDTH=75 VALIGN=TOP STYLE="; border-top: none; border-bottom: 1px solid #000000; border-left: 1px solid #000000; border-right: 1px solid #000000; padding: 0cm">\\n\\t\\t\\t<P CLASS="western" STYLE="margin-bottom: 0cm; widows: 2; orphans: 2">\\n\\t\\t\\t<BR>\\n\\t\\t\\t</P>\\n\\t\\t</TD>\\n\\t</TR>\\n\\t<TR>\\n\\t\\t<TD COLSPAN=11 WIDTH=498 STYLE="; border-top: none; border-bottom: 1px solid #000000; border-left: 1px solid #000000; border-right: none; padding: 0cm">\\n\\t\\t\\t<P CLASS="western" STYLE="margin-bottom: 0cm; widows: 2; orphans: 2">\\n\\t\\t\\t<FONT FACE="Trebuchet MS, sans-serif"><FONT SIZE=1 STYLE="font-size: 8pt">5\\n\\t\\t\\t- Existe um relat\\xc3\\xb3rio que trabalha os dados cuja entrada \\xc3\\xa9 esta\\n\\t\\t\\tfun\\xc3\\xa7\\xc3\\xa3o?</FONT></FONT></P>\\n\\t\\t</TD>\\n\\t\\t<TD WIDTH=85 VALIGN=TOP STYLE="; border-top: none; border-bottom: 1px solid #000000; border-left: 1px solid #000000; border-right: none; padding: 0cm">\\n\\t\\t\\t<P CLASS="western" STYLE="margin-bottom: 0cm; widows: 2; orphans: 2">\\n\\t\\t\\t<BR>\\n\\t\\t\\t</P>\\n\\t\\t</TD>\\n\\t\\t<TD WIDTH=75 VALIGN=TOP STYLE="; border-top: none; border-bottom: 1px solid #000000; border-left: 1px solid #000000; border-right: 1px solid #000000; padding: 0cm">\\n\\t\\t\\t<P CLASS="western" STYLE="margin-bottom: 0cm; widows: 2; orphans: 2">\\n\\t\\t\\t<BR>\\n\\t\\t\\t</P>\\n\\t\\t</TD>\\n\\t</TR>\\n\\t<TR>\\n\\t\\t<TD COLSPAN=11 WIDTH=498 STYLE="; border-top: none; border-bottom: 1px solid #000000; border-left: 1px solid #000000; border-right: none; padding: 0cm">\\n\\t\\t\\t<P CLASS="western" STYLE="margin-bottom: 0cm; widows: 2; orphans: 2">\\n\\t\\t\\t<FONT FACE="Trebuchet MS, sans-serif"><FONT SIZE=1 STYLE="font-size: 8pt">6\\n\\t\\t\\t- Houve tempo h\\xc3\\xa1bil para o teste acontecer de forma segura?</FONT></FONT></P>\\n\\t\\t</TD>\\n\\t\\t<TD WIDTH=85 VALIGN=TOP STYLE="; border-top: none; border-bottom: 1px solid #000000; border-left: 1px solid #000000; border-right: none; padding: 0cm">\\n\\t\\t\\t<P CLASS="western" STYLE="margin-bottom: 0cm; widows: 2; orphans: 2">\\n\\t\\t\\t<BR>\\n\\t\\t\\t</P>\\n\\t\\t</TD>\\n\\t\\t<TD WIDTH=75 VALIGN=TOP STYLE="; border-top: none; border-bottom: 1px solid #000000; border-left: 1px solid #000000; border-right: 1px solid #000000; padding: 0cm">\\n\\t\\t\\t<P CLASS="western" STYLE="margin-bottom: 0cm; widows: 2; orphans: 2">\\n\\t\\t\\t<BR>\\n\\t\\t\\t</P>\\n\\t\\t</TD>\\n\\t</TR>\\n\\t<TR>\\n\\t\\t<TD COLSPAN=13 WIDTH=659 VALIGN=TOP STYLE="; border: 1px solid #000000; padding: 0cm">\\n\\t\\t\\t<P CLASS="western" STYLE="margin-bottom: 0cm; widows: 2; orphans: 2">\\n\\t\\t\\t<FONT FACE="Trebuchet MS, sans-serif"><FONT SIZE=1 STYLE="font-size: 8pt">Documenta\\xc3\\xa7\\xc3\\xa3o\\n\\t\\t\\tdo teste: </FONT></FONT>\\n\\t\\t\\t</P>\\n\\t\\t</TD>\\n\\t</TR>\\n\\t<TR>\\n\\t\\t<TD COLSPAN=3 WIDTH=156 STYLE="; border-top: 1px solid #000000; border-bottom: 1px solid #000000; border-left: 1px solid #000000; border-right: none; padding: 0cm">\\n\\t\\t\\t<P CLASS="western" STYLE="margin-bottom: 0cm; widows: 2; orphans: 2">\\n\\t\\t\\t<FONT FACE="Trebuchet MS, sans-serif"><FONT SIZE=2 STYLE="font-size: 9pt">PARECER\\n\\t\\t\\tTESTE:</FONT></FONT></P>\\n\\t\\t</TD>\\n\\t\\t<TD COLSPAN=5 WIDTH=174 STYLE="; border-top: 1px solid #000000; border-bottom: 1px solid #000000; border-left: 1px solid #000000; border-right: none; padding: 0cm">\\n\\t\\t\\t<P CLASS="western" STYLE="margin-bottom: 0cm; widows: 2; orphans: 2">\\n\\t\\t\\t<FONT FACE="Trebuchet MS, sans-serif"><FONT SIZE=2 STYLE="font-size: 9pt">[\\n\\t\\t\\t]Conclu\\xc3\\xaddo com sucesso</FONT></FONT></P>\\n\\t\\t</TD>\\n\\t\\t<TD COLSPAN=3 WIDTH=168 STYLE="; border-top: 1px solid #000000; border-bottom: 1px solid #000000; border-left: 1px solid #000000; border-right: none; padding: 0cm">\\n\\t\\t\\t<P CLASS="western" STYLE="margin-bottom: 0cm; widows: 2; orphans: 2">\\n\\t\\t\\t<FONT FACE="Trebuchet MS, sans-serif"><FONT SIZE=2 STYLE="font-size: 9pt">[\\n\\t\\t\\t]Atendido parcialmente</FONT></FONT></P>\\n\\t\\t</TD>\\n\\t\\t<TD COLSPAN=2 WIDTH=161 STYLE="; border: 1px solid #000000; padding: 0cm">\\n\\t\\t\\t<P CLASS="western" STYLE="margin-bottom: 0cm; widows: 2; orphans: 2">\\n\\t\\t\\t<FONT FACE="Trebuchet MS, sans-serif"><FONT SIZE=2 STYLE="font-size: 9pt">[\\n\\t\\t\\t]N\\xc3\\xa3o est\\xc3\\xa1 conforme</FONT></FONT></P>\\n\\t\\t</TD>\\n\\t</TR>\\n\\t<TR>\\n\\t\\t<TD COLSPAN=13 WIDTH=659 STYLE="; border-top: none; border-bottom: 1px solid #000000; border-left: 1px solid #000000; border-right: 1px solid #000000; padding: 0cm">\\n\\t\\t\\t<P CLASS="western" STYLE="margin-bottom: 0cm; widows: 2; orphans: 2">\\n\\t\\t\\t<BR>\\n\\t\\t\\t</P>\\n\\t\\t</TD>\\n\\t</TR>\\n\\t<TR>\\n\\t\\t<TD COLSPAN=13 WIDTH=659 BGCOLOR="#c0c0c0" STYLE="border-top: none; border-bottom: 1px solid #000000; border-left: 1px solid #000000; border-right: 1px solid #000000; padding: 0cm">\\n\\t\\t\\t<P CLASS="western" STYLE="margin-bottom: 0cm; widows: 2; orphans: 2">\\n\\t\\t\\t<FONT FACE="Trebuchet MS, sans-serif"><FONT SIZE=2 STYLE="font-size: 9pt"><B>RE-TESTE\\n\\t\\t\\tDE VERS\\xc3\\x83O:</B></FONT></FONT></P>\\n\\t\\t</TD>\\n\\t</TR>\\n\\t<TR>\\n\\t\\t<TD COLSPAN=13 WIDTH=659 STYLE="; border-top: none; border-bottom: 1px solid #000000; border-left: 1px solid #000000; border-right: 1px solid #000000; padding: 0cm">\\n\\t\\t\\t<P CLASS="western" STYLE="margin-bottom: 0cm; widows: 2; orphans: 2">\\n\\t\\t\\t<FONT FACE="Trebuchet MS, sans-serif"><FONT SIZE=2 STYLE="font-size: 9pt">Nome\\n\\t\\t\\tdo Consultor: </FONT></FONT>\\n\\t\\t\\t</P>\\n\\t\\t</TD>\\n\\t</TR>\\n\\t<TR>\\n\\t\\t<TD COLSPAN=3 WIDTH=156 STYLE="; border-top: none; border-bottom: 1px solid #000000; border-left: 1px solid #000000; border-right: none; padding: 0cm">\\n\\t\\t\\t<P CLASS="western" STYLE="margin-bottom: 0cm; widows: 2; orphans: 2">\\n\\t\\t\\t<FONT FACE="Trebuchet MS, sans-serif"><FONT SIZE=2 STYLE="font-size: 9pt">Data\\n\\t\\t\\tIn\\xc3\\xadcio: </FONT></FONT>\\n\\t\\t\\t</P>\\n\\t\\t</TD>\\n\\t\\t<TD COLSPAN=5 WIDTH=174 STYLE="; border-top: none; border-bottom: 1px solid #000000; border-left: 1px solid #000000; border-right: none; padding: 0cm">\\n\\t\\t\\t<P CLASS="western" STYLE="margin-bottom: 0cm; widows: 2; orphans: 2">\\n\\t\\t\\t<FONT FACE="Trebuchet MS, sans-serif"><FONT SIZE=2 STYLE="font-size: 9pt">Hora\\n\\t\\t\\tIn\\xc3\\xadcio:</FONT></FONT></P>\\n\\t\\t</TD>\\n\\t\\t<TD COLSPAN=3 WIDTH=168 STYLE="; border-top: none; border-bottom: 1px solid #000000; border-left: 1px solid #000000; border-right: none; padding: 0cm">\\n\\t\\t\\t<P CLASS="western" STYLE="margin-bottom: 0cm; widows: 2; orphans: 2">\\n\\t\\t\\t<FONT FACE="Trebuchet MS, sans-serif"><FONT SIZE=2 STYLE="font-size: 9pt">Data\\n\\t\\t\\tFim: </FONT></FONT>\\n\\t\\t\\t</P>\\n\\t\\t</TD>\\n\\t\\t<TD COLSPAN=2 WIDTH=161 STYLE="; border-top: none; border-bottom: 1px solid #000000; border-left: 1px solid #000000; border-right: 1px solid #000000; padding: 0cm">\\n\\t\\t\\t<P CLASS="western" STYLE="margin-bottom: 0cm; widows: 2; orphans: 2">\\n\\t\\t\\t<FONT FACE="Trebuchet MS, sans-serif"><FONT SIZE=2 STYLE="font-size: 9pt">Hora\\n\\t\\t\\tFim: </FONT></FONT>\\n\\t\\t\\t</P>\\n\\t\\t</TD>\\n\\t</TR>\\n\\t<TR>\\n\\t\\t<TD COLSPAN=3 WIDTH=156 STYLE="; border-top: none; border-bottom: 1px solid #000000; border-left: 1px solid #000000; border-right: none; padding: 0cm">\\n\\t\\t\\t<P CLASS="western" STYLE="margin-bottom: 0cm; widows: 2; orphans: 2">\\n\\t\\t\\t<FONT FACE="Trebuchet MS, sans-serif"><FONT SIZE=2 STYLE="font-size: 9pt">PARECER\\n\\t\\t\\tRE-TESTE:</FONT></FONT></P>\\n\\t\\t</TD>\\n\\t\\t<TD COLSPAN=5 WIDTH=174 STYLE="; border-top: none; border-bottom: 1px solid #000000; border-left: 1px solid #000000; border-right: none; padding: 0cm">\\n\\t\\t\\t<P CLASS="western" STYLE="margin-bottom: 0cm; widows: 2; orphans: 2">\\n\\t\\t\\t<FONT FACE="Trebuchet MS, sans-serif"><FONT SIZE=2 STYLE="font-size: 9pt">[\\n\\t\\t\\t]Conclu\\xc3\\xaddo com sucesso</FONT></FONT></P>\\n\\t\\t</TD>\\n\\t\\t<TD COLSPAN=3 WIDTH=168 STYLE="; border-top: none; border-bottom: 1px solid #000000; border-left: 1px solid #000000; border-right: none; padding: 0cm">\\n\\t\\t\\t<P CLASS="western" STYLE="margin-bottom: 0cm; widows: 2; orphans: 2">\\n\\t\\t\\t<FONT FACE="Trebuchet MS, sans-serif"><FONT SIZE=2 STYLE="font-size: 9pt">[\\n\\t\\t\\t]Atendido parcialmente</FONT></FONT></P>\\n\\t\\t</TD>\\n\\t\\t<TD COLSPAN=2 WIDTH=161 STYLE="; border-top: none; border-bottom: 1px solid #000000; border-left: 1px solid #000000; border-right: 1px solid #000000; padding: 0cm">\\n\\t\\t\\t<P CLASS="western" STYLE="margin-bottom: 0cm; widows: 2; orphans: 2">\\n\\t\\t\\t<FONT FACE="Trebuchet MS, sans-serif"><FONT SIZE=2 STYLE="font-size: 9pt">[\\n\\t\\t\\t]N\\xc3\\xa3o est\\xc3\\xa1 conforme</FONT></FONT></P>\\n\\t\\t</TD>\\n\\t</TR>\\n\\t<TR>\\n\\t\\t<TD COLSPAN=14 WIDTH=694 HEIGHT=15 VALIGN=TOP STYLE="; border: 1px solid #000000; padding: 0cm">\\n\\t\\t\\t<P CLASS="western" STYLE="margin-bottom: 0cm; widows: 2; orphans: 2">\\n\\t\\t\\t<BR>\\n\\t\\t\\t</P>\\n\\t\\t</TD>\\n\\t</TR>\\n\\t<TR VALIGN=TOP>\\n\\t\\t<TD COLSPAN=6 WIDTH=227 STYLE="; border-top: 1px solid #000000; border-bottom: 1px solid #000000; border-left: 1px solid #000000; border-right: none; padding: 0cm">\\n\\t\\t\\t<P CLASS="western" STYLE="margin-bottom: 0cm; widows: 2; orphans: 2">\\n\\t\\t\\t<FONT FACE="Trebuchet MS, sans-serif"><FONT SIZE=1 STYLE="font-size: 8pt">Corrigido\\n\\t\\t\\tna vers\\xc3\\xa3o:</FONT></FONT></P>\\n\\t\\t</TD>\\n\\t\\t<TD COLSPAN=3 WIDTH=138 STYLE="; border-top: 1px solid #000000; border-bottom: 1px solid #000000; border-left: 1px solid #000000; border-right: none; padding: 0cm">\\n\\t\\t\\t<P CLASS="western" STYLE="margin-bottom: 0cm; widows: 2; orphans: 2">\\n\\t\\t\\t<FONT FACE="Trebuchet MS, sans-serif"><FONT SIZE=1 STYLE="font-size: 8pt">PLS:</FONT></FONT></P>\\n\\t\\t</TD>\\n\\t\\t<TD COLSPAN=3 WIDTH=168 STYLE="; border-top: 1px solid #000000; border-bottom: 1px solid #000000; border-left: 1px solid #000000; border-right: none; padding: 0cm">\\n\\t\\t\\t<P CLASS="western" STYLE="margin-bottom: 0cm; widows: 2; orphans: 2">\\n\\t\\t\\t<FONT FACE="Trebuchet MS, sans-serif"><FONT SIZE=1 STYLE="font-size: 8pt">Data\\n\\t\\t\\tT\\xc3\\xa9rmino:</FONT></FONT></P>\\n\\t\\t</TD>\\n\\t\\t<TD COLSPAN=2 WIDTH=161 STYLE="; border: 1px solid #000000; padding: 0cm">\\n\\t\\t\\t<P CLASS="western" STYLE="margin-bottom: 0cm; widows: 2; orphans: 2">\\n\\t\\t\\t<FONT FACE="Trebuchet MS, sans-serif"><FONT SIZE=1 STYLE="font-size: 8pt">Chamado\\n\\t\\t\\tfinalizado no SITE:</FONT></FONT></P>\\n\\t\\t</TD>\\n\\t</TR>\\n</TABLE>\\n\', escape=False)'
p6
sS'snapshot'
p7
(dp8
S'exception'
p9
(dp10
S'__hash__'
p11
S"<method-wrapper '__hash__' of exceptions.KeyError object>"
p12
sS'__setattr__'
p13
S"<method-wrapper '__setattr__' of exceptions.KeyError object>"
p14
sS'__reduce_ex__'
p15
S'<built-in method __reduce_ex__ of exceptions.KeyError object>'
p16
sS'__getslice__'
p17
S"<method-wrapper '__getslice__' of exceptions.KeyError object>"
p18
sS'__getitem__'
p19
S"<method-wrapper '__getitem__' of exceptions.KeyError object>"
p20
sS'__setstate__'
p21
S'<built-in method __setstate__ of exceptions.KeyError object>'
p22
sS'__reduce__'
p23
S'<built-in method __reduce__ of exceptions.KeyError object>'
p24
sS'__str__'
p25
S"<method-wrapper '__str__' of exceptions.KeyError object>"
p26
sS'__format__'
p27
S'<built-in method __format__ of exceptions.KeyError object>'
p28
sS'__getattribute__'
p29
S"<method-wrapper '__getattribute__' of exceptions.KeyError object>"
p30
sS'__class__'
p31
S"<type 'exceptions.KeyError'>"
p32
sS'__unicode__'
p33
S'<built-in method __unicode__ of exceptions.KeyError object>'
p34
sS'__delattr__'
p35
S"<method-wrapper '__delattr__' of exceptions.KeyError object>"
p36
sS'__subclasshook__'
p37
S'<built-in method __subclasshook__ of type object>'
p38
sS'__repr__'
p39
S"<method-wrapper '__repr__' of exceptions.KeyError object>"
p40
sS'args'
p41
S"('inicio',)"
p42
sS'__dict__'
p43
S'{}'
p44
sS'__sizeof__'
p45
S'<built-in method __sizeof__ of exceptions.KeyError object>'
p46
sS'__doc__'
p47
S"'Mapping key not found.'"
p48
sS'__init__'
p49
S"<method-wrapper '__init__' of exceptions.KeyError object>"
p50
sS'__new__'
p51
S'<built-in method __new__ of type object>'
p52
ssS'evalue'
p53
S"'inicio'"
p54
sS'request'
p55
ccopy_reg
_reconstructor
p56
(cgluon.html
BEAUTIFY
p57
c__builtin__
object
p58
NtRp59
(dp60
S'attributes'
p61
(dp62
sS'components'
p63
(lp64
g56
(cgluon.html
TABLE
p65
g58
NtRp66
(dp67
g61
(dp68
S'level'
p69
I5
ssS'parent'
p70
Nsg63
(lp71
g56
(cgluon.html
TR
p72
g58
NtRp73
(dp74
g61
(dp75
sg70
g66
sg63
(lp76
g56
(cgluon.html
TD
p77
g58
NtRp78
(dp79
g61
(dp80
S'_style'
p81
S'font-weight:bold;'
p82
ssg70
g73
sg63
(lp83
S'ajax'
p84
asbag56
(g77
g58
NtRp85
(dp86
g61
(dp87
S'_valign'
p88
S'top'
p89
ssg70
g73
sg63
(lp90
S':'
asbag56
(g77
g58
NtRp91
(dp92
g61
(dp93
sg70
g73
sg63
(lp94
g56
(g57
g58
NtRp95
(dp96
g61
(dp97
g69
I5
ssg70
g91
sg63
(lp98
S'False'
p99
asbasbasbag56
(g72
g58
NtRp100
(dp101
g61
(dp102
sg70
g66
sg63
(lp103
g56
(g77
g58
NtRp104
(dp105
g61
(dp106
g81
g82
ssg70
g100
sg63
(lp107
S'application'
p108
asbag56
(g77
g58
NtRp109
(dp110
g61
(dp111
g88
g89
ssg70
g100
sg63
(lp112
S':'
asbag56
(g77
g58
NtRp113
(dp114
g61
(dp115
sg70
g100
sg63
(lp116
g56
(g57
g58
NtRp117
(dp118
g61
(dp119
g69
I5
ssg70
g113
sg63
(lp120
S'scrum'
p121
asbasbasbag56
(g72
g58
NtRp122
(dp123
g61
(dp124
sg70
g66
sg63
(lp125
g56
(g77
g58
NtRp126
(dp127
g61
(dp128
g81
g82
ssg70
g122
sg63
(lp129
g41
asbag56
(g77
g58
NtRp130
(dp131
g61
(dp132
g88
g89
ssg70
g122
sg63
(lp133
S':'
asbag56
(g77
g58
NtRp134
(dp135
g61
(dp136
sg70
g122
sg63
(lp137
g56
(g57
g58
NtRp138
(dp139
g61
(dp140
g69
I5
ssg70
g134
sg63
(lp141
g56
(g65
g58
NtRp142
(dp143
g61
(dp144
g69
I4
ssg70
Nsg63
(lp145
g56
(g72
g58
NtRp146
(dp147
g61
(dp148
sg70
g142
sg63
(lp149
g56
(g77
g58
NtRp150
(dp151
g61
(dp152
sg70
g146
sg63
(lp153
g56
(g57
g58
NtRp154
(dp155
g61
(dp156
g69
I4
ssg70
g150
sg63
(lp157
S'1'
asbasbasbasbasbasbasbag56
(g72
g58
NtRp158
(dp159
g61
(dp160
sg70
g66
sg63
(lp161
g56
(g77
g58
NtRp162
(dp163
g61
(dp164
g81
g82
ssg70
g158
sg63
(lp165
S'body'
p166
asbag56
(g77
g58
NtRp167
(dp168
g61
(dp169
g88
g89
ssg70
g158
sg63
(lp170
S':'
asbag56
(g77
g58
NtRp171
(dp172
g61
(dp173
sg70
g158
sg63
(lp174
g56
(g57
g58
NtRp175
(dp176
g61
(dp177
g69
I5
ssg70
g171
sg63
(lp178
S'<cStringIO.StringO object at 0xb907c380>'
p179
asbasbasbag56
(g72
g58
NtRp180
(dp181
g61
(dp182
sg70
g66
sg63
(lp183
g56
(g77
g58
NtRp184
(dp185
g61
(dp186
g81
g82
ssg70
g180
sg63
(lp187
S'client'
p188
asbag56
(g77
g58
NtRp189
(dp190
g61
(dp191
g88
g89
ssg70
g180
sg63
(lp192
S':'
asbag56
(g77
g58
NtRp193
(dp194
g61
(dp195
sg70
g180
sg63
(lp196
g56
(g57
g58
NtRp197
(dp198
g61
(dp199
g69
I5
ssg70
g193
sg63
(lp200
S'127.0.0.1'
p201
asbasbasbag56
(g72
g58
NtRp202
(dp203
g61
(dp204
sg70
g66
sg63
(lp205
g56
(g77
g58
NtRp206
(dp207
g61
(dp208
g81
g82
ssg70
g202
sg63
(lp209
S'controller'
p210
asbag56
(g77
g58
NtRp211
(dp212
g61
(dp213
g88
g89
ssg70
g202
sg63
(lp214
S':'
asbag56
(g77
g58
NtRp215
(dp216
g61
(dp217
sg70
g202
sg63
(lp218
g56
(g57
g58
NtRp219
(dp220
g61
(dp221
g69
I5
ssg70
g215
sg63
(lp222
S'ticket'
p223
asbasbasbag56
(g72
g58
NtRp224
(dp225
g61
(dp226
sg70
g66
sg63
(lp227
g56
(g77
g58
NtRp228
(dp229
g61
(dp230
g81
g82
ssg70
g224
sg63
(lp231
S'cookies'
p232
asbag56
(g77
g58
NtRp233
(dp234
g61
(dp235
g88
g89
ssg70
g224
sg63
(lp236
S':'
asbag56
(g77
g58
NtRp237
(dp238
g61
(dp239
sg70
g224
sg63
(lp240
g56
(g57
g58
NtRp241
(dp242
g61
(dp243
g69
I5
ssg70
g237
sg63
(lp244
g56
(g65
g58
NtRp245
(dp246
g61
(dp247
g69
I4
ssg70
Nsg63
(lp248
g56
(g72
g58
NtRp249
(dp250
g61
(dp251
sg70
g245
sg63
(lp252
g56
(g77
g58
NtRp253
(dp254
g61
(dp255
g81
g82
ssg70
g249
sg63
(lp256
S'session_id_admin'
p257
asbag56
(g77
g58
NtRp258
(dp259
g61
(dp260
g88
g89
ssg70
g249
sg63
(lp261
S':'
asbag56
(g77
g58
NtRp262
(dp263
g61
(dp264
sg70
g249
sg63
(lp265
g56
(g57
g58
NtRp266
(dp267
g61
(dp268
g69
I4
ssg70
g262
sg63
(lp269
g56
(g65
g58
NtRp270
(dp271
g61
(dp272
g69
I3
ssg70
Nsg63
(lp273
g56
(g72
g58
NtRp274
(dp275
g61
(dp276
sg70
g270
sg63
(lp277
g56
(g77
g58
NtRp278
(dp279
g61
(dp280
g81
g82
ssg70
g274
sg63
(lp281
S'comment'
p282
asbag56
(g77
g58
NtRp283
(dp284
g61
(dp285
g88
g89
ssg70
g274
sg63
(lp286
S':'
asbag56
(g77
g58
NtRp287
(dp288
g61
(dp289
sg70
g274
sg63
(lp290
g56
(g57
g58
NtRp291
(dp292
g61
(dp293
g69
I3
ssg70
g287
sg63
(lp294
S''
asbasbasbag56
(g72
g58
NtRp295
(dp296
g61
(dp297
sg70
g270
sg63
(lp298
g56
(g77
g58
NtRp299
(dp300
g61
(dp301
g81
g82
ssg70
g295
sg63
(lp302
S'domain'
p303
asbag56
(g77
g58
NtRp304
(dp305
g61
(dp306
g88
g89
ssg70
g295
sg63
(lp307
S':'
asbag56
(g77
g58
NtRp308
(dp309
g61
(dp310
sg70
g295
sg63
(lp311
g56
(g57
g58
NtRp312
(dp313
g61
(dp314
g69
I3
ssg70
g308
sg63
(lp315
S''
asbasbasbag56
(g72
g58
NtRp316
(dp317
g61
(dp318
sg70
g270
sg63
(lp319
g56
(g77
g58
NtRp320
(dp321
g61
(dp322
g81
g82
ssg70
g316
sg63
(lp323
S'expires'
p324
asbag56
(g77
g58
NtRp325
(dp326
g61
(dp327
g88
g89
ssg70
g316
sg63
(lp328
S':'
asbag56
(g77
g58
NtRp329
(dp330
g61
(dp331
sg70
g316
sg63
(lp332
g56
(g57
g58
NtRp333
(dp334
g61
(dp335
g69
I3
ssg70
g329
sg63
(lp336
S''
asbasbasbag56
(g72
g58
NtRp337
(dp338
g61
(dp339
sg70
g270
sg63
(lp340
g56
(g77
g58
NtRp341
(dp342
g61
(dp343
g81
g82
ssg70
g337
sg63
(lp344
S'httponly'
p345
asbag56
(g77
g58
NtRp346
(dp347
g61
(dp348
g88
g89
ssg70
g337
sg63
(lp349
S':'
asbag56
(g77
g58
NtRp350
(dp351
g61
(dp352
sg70
g337
sg63
(lp353
g56
(g57
g58
NtRp354
(dp355
g61
(dp356
g69
I3
ssg70
g350
sg63
(lp357
S''
asbasbasbag56
(g72
g58
NtRp358
(dp359
g61
(dp360
sg70
g270
sg63
(lp361
g56
(g77
g58
NtRp362
(dp363
g61
(dp364
g81
g82
ssg70
g358
sg63
(lp365
S'max-age'
p366
asbag56
(g77
g58
NtRp367
(dp368
g61
(dp369
g88
g89
ssg70
g358
sg63
(lp370
S':'
asbag56
(g77
g58
NtRp371
(dp372
g61
(dp373
sg70
g358
sg63
(lp374
g56
(g57
g58
NtRp375
(dp376
g61
(dp377
g69
I3
ssg70
g371
sg63
(lp378
S''
asbasbasbag56
(g72
g58
NtRp379
(dp380
g61
(dp381
sg70
g270
sg63
(lp382
g56
(g77
g58
NtRp383
(dp384
g61
(dp385
g81
g82
ssg70
g379
sg63
(lp386
S'path'
p387
asbag56
(g77
g58
NtRp388
(dp389
g61
(dp390
g88
g89
ssg70
g379
sg63
(lp391
S':'
asbag56
(g77
g58
NtRp392
(dp393
g61
(dp394
sg70
g379
sg63
(lp395
g56
(g57
g58
NtRp396
(dp397
g61
(dp398
g69
I3
ssg70
g392
sg63
(lp399
S''
asbasbasbag56
(g72
g58
NtRp400
(dp401
g61
(dp402
sg70
g270
sg63
(lp403
g56
(g77
g58
NtRp404
(dp405
g61
(dp406
g81
g82
ssg70
g400
sg63
(lp407
S'secure'
p408
asbag56
(g77
g58
NtRp409
(dp410
g61
(dp411
g88
g89
ssg70
g400
sg63
(lp412
S':'
asbag56
(g77
g58
NtRp413
(dp414
g61
(dp415
sg70
g400
sg63
(lp416
g56
(g57
g58
NtRp417
(dp418
g61
(dp419
g69
I3
ssg70
g413
sg63
(lp420
S''
asbasbasbag56
(g72
g58
NtRp421
(dp422
g61
(dp423
sg70
g270
sg63
(lp424
g56
(g77
g58
NtRp425
(dp426
g61
(dp427
g81
g82
ssg70
g421
sg63
(lp428
S'version'
p429
asbag56
(g77
g58
NtRp430
(dp431
g61
(dp432
g88
g89
ssg70
g421
sg63
(lp433
S':'
asbag56
(g77
g58
NtRp434
(dp435
g61
(dp436
sg70
g421
sg63
(lp437
g56
(g57
g58
NtRp438
(dp439
g61
(dp440
g69
I3
ssg70
g434
sg63
(lp441
S''
asbasbasbasbasbasbasbag56
(g72
g58
NtRp442
(dp443
g61
(dp444
sg70
g245
sg63
(lp445
g56
(g77
g58
NtRp446
(dp447
g61
(dp448
g81
g82
ssg70
g442
sg63
(lp449
S'session_id_scrum'
p450
asbag56
(g77
g58
NtRp451
(dp452
g61
(dp453
g88
g89
ssg70
g442
sg63
(lp454
S':'
asbag56
(g77
g58
NtRp455
(dp456
g61
(dp457
sg70
g442
sg63
(lp458
g56
(g57
g58
NtRp459
(dp460
g61
(dp461
g69
I4
ssg70
g455
sg63
(lp462
g56
(g65
g58
NtRp463
(dp464
g61
(dp465
g69
I3
ssg70
Nsg63
(lp466
g56
(g72
g58
NtRp467
(dp468
g61
(dp469
sg70
g463
sg63
(lp470
g56
(g77
g58
NtRp471
(dp472
g61
(dp473
g81
g82
ssg70
g467
sg63
(lp474
g282
asbag56
(g77
g58
NtRp475
(dp476
g61
(dp477
g88
g89
ssg70
g467
sg63
(lp478
S':'
asbag56
(g77
g58
NtRp479
(dp480
g61
(dp481
sg70
g467
sg63
(lp482
g56
(g57
g58
NtRp483
(dp484
g61
(dp485
g69
I3
ssg70
g479
sg63
(lp486
S''
asbasbasbag56
(g72
g58
NtRp487
(dp488
g61
(dp489
sg70
g463
sg63
(lp490
g56
(g77
g58
NtRp491
(dp492
g61
(dp493
g81
g82
ssg70
g487
sg63
(lp494
g303
asbag56
(g77
g58
NtRp495
(dp496
g61
(dp497
g88
g89
ssg70
g487
sg63
(lp498
S':'
asbag56
(g77
g58
NtRp499
(dp500
g61
(dp501
sg70
g487
sg63
(lp502
g56
(g57
g58
NtRp503
(dp504
g61
(dp505
g69
I3
ssg70
g499
sg63
(lp506
S''
asbasbasbag56
(g72
g58
NtRp507
(dp508
g61
(dp509
sg70
g463
sg63
(lp510
g56
(g77
g58
NtRp511
(dp512
g61
(dp513
g81
g82
ssg70
g507
sg63
(lp514
g324
asbag56
(g77
g58
NtRp515
(dp516
g61
(dp517
g88
g89
ssg70
g507
sg63
(lp518
S':'
asbag56
(g77
g58
NtRp519
(dp520
g61
(dp521
sg70
g507
sg63
(lp522
g56
(g57
g58
NtRp523
(dp524
g61
(dp525
g69
I3
ssg70
g519
sg63
(lp526
S''
asbasbasbag56
(g72
g58
NtRp527
(dp528
g61
(dp529
sg70
g463
sg63
(lp530
g56
(g77
g58
NtRp531
(dp532
g61
(dp533
g81
g82
ssg70
g527
sg63
(lp534
g345
asbag56
(g77
g58
NtRp535
(dp536
g61
(dp537
g88
g89
ssg70
g527
sg63
(lp538
S':'
asbag56
(g77
g58
NtRp539
(dp540
g61
(dp541
sg70
g527
sg63
(lp542
g56
(g57
g58
NtRp543
(dp544
g61
(dp545
g69
I3
ssg70
g539
sg63
(lp546
S''
asbasbasbag56
(g72
g58
NtRp547
(dp548
g61
(dp549
sg70
g463
sg63
(lp550
g56
(g77
g58
NtRp551
(dp552
g61
(dp553
g81
g82
ssg70
g547
sg63
(lp554
g366
asbag56
(g77
g58
NtRp555
(dp556
g61
(dp557
g88
g89
ssg70
g547
sg63
(lp558
S':'
asbag56
(g77
g58
NtRp559
(dp560
g61
(dp561
sg70
g547
sg63
(lp562
g56
(g57
g58
NtRp563
(dp564
g61
(dp565
g69
I3
ssg70
g559
sg63
(lp566
S''
asbasbasbag56
(g72
g58
NtRp567
(dp568
g61
(dp569
sg70
g463
sg63
(lp570
g56
(g77
g58
NtRp571
(dp572
g61
(dp573
g81
g82
ssg70
g567
sg63
(lp574
g387
asbag56
(g77
g58
NtRp575
(dp576
g61
(dp577
g88
g89
ssg70
g567
sg63
(lp578
S':'
asbag56
(g77
g58
NtRp579
(dp580
g61
(dp581
sg70
g567
sg63
(lp582
g56
(g57
g58
NtRp583
(dp584
g61
(dp585
g69
I3
ssg70
g579
sg63
(lp586
S''
asbasbasbag56
(g72
g58
NtRp587
(dp588
g61
(dp589
sg70
g463
sg63
(lp590
g56
(g77
g58
NtRp591
(dp592
g61
(dp593
g81
g82
ssg70
g587
sg63
(lp594
g408
asbag56
(g77
g58
NtRp595
(dp596
g61
(dp597
g88
g89
ssg70
g587
sg63
(lp598
S':'
asbag56
(g77
g58
NtRp599
(dp600
g61
(dp601
sg70
g587
sg63
(lp602
g56
(g57
g58
NtRp603
(dp604
g61
(dp605
g69
I3
ssg70
g599
sg63
(lp606
S''
asbasbasbag56
(g72
g58
NtRp607
(dp608
g61
(dp609
sg70
g463
sg63
(lp610
g56
(g77
g58
NtRp611
(dp612
g61
(dp613
g81
g82
ssg70
g607
sg63
(lp614
g429
asbag56
(g77
g58
NtRp615
(dp616
g61
(dp617
g88
g89
ssg70
g607
sg63
(lp618
S':'
asbag56
(g77
g58
NtRp619
(dp620
g61
(dp621
sg70
g607
sg63
(lp622
g56
(g57
g58
NtRp623
(dp624
g61
(dp625
g69
I3
ssg70
g619
sg63
(lp626
S''
asbasbasbasbasbasbasbasbasbasbasbag56
(g72
g58
NtRp627
(dp628
g61
(dp629
sg70
g66
sg63
(lp630
g56
(g77
g58
NtRp631
(dp632
g61
(dp633
g81
g82
ssg70
g627
sg63
(lp634
S'env'
p635
asbag56
(g77
g58
NtRp636
(dp637
g61
(dp638
g88
g89
ssg70
g627
sg63
(lp639
S':'
asbag56
(g77
g58
NtRp640
(dp641
g61
(dp642
sg70
g627
sg63
(lp643
g56
(g57
g58
NtRp644
(dp645
g61
(dp646
g69
I5
ssg70
g640
sg63
(lp647
g56
(g65
g58
NtRp648
(dp649
g61
(dp650
g69
I4
ssg70
Nsg63
(lp651
g56
(g72
g58
NtRp652
(dp653
g61
(dp654
sg70
g648
sg63
(lp655
g56
(g77
g58
NtRp656
(dp657
g61
(dp658
g81
g82
ssg70
g652
sg63
(lp659
S'app_folders'
p660
asbag56
(g77
g58
NtRp661
(dp662
g61
(dp663
g88
g89
ssg70
g652
sg63
(lp664
S':'
asbag56
(g77
g58
NtRp665
(dp666
g61
(dp667
sg70
g652
sg63
(lp668
g56
(g57
g58
NtRp669
(dp670
g61
(dp671
g69
I4
ssg70
g665
sg63
(lp672
S"set(['/home/www-data/web2py/applications/scrum/', '/home/www-data/web2py/applications/admin/'])"
p673
asbasbasbag56
(g72
g58
NtRp674
(dp675
g61
(dp676
sg70
g648
sg63
(lp677
g56
(g77
g58
NtRp678
(dp679
g61
(dp680
g81
g82
ssg70
g674
sg63
(lp681
S'applications_parent'
p682
asbag56
(g77
g58
NtRp683
(dp684
g61
(dp685
g88
g89
ssg70
g674
sg63
(lp686
S':'
asbag56
(g77
g58
NtRp687
(dp688
g61
(dp689
sg70
g674
sg63
(lp690
g56
(g57
g58
NtRp691
(dp692
g61
(dp693
g69
I4
ssg70
g687
sg63
(lp694
S'/home/www-data/web2py'
p695
asbasbasbag56
(g72
g58
NtRp696
(dp697
g61
(dp698
sg70
g648
sg63
(lp699
g56
(g77
g58
NtRp700
(dp701
g61
(dp702
g81
g82
ssg70
g696
sg63
(lp703
S'db_sessions'
p704
asbag56
(g77
g58
NtRp705
(dp706
g61
(dp707
g88
g89
ssg70
g696
sg63
(lp708
S':'
asbag56
(g77
g58
NtRp709
(dp710
g61
(dp711
sg70
g696
sg63
(lp712
g56
(g57
g58
NtRp713
(dp714
g61
(dp715
g69
I4
ssg70
g709
sg63
(lp716
S'set([])'
p717
asbasbasbag56
(g72
g58
NtRp718
(dp719
g61
(dp720
sg70
g648
sg63
(lp721
g56
(g77
g58
NtRp722
(dp723
g61
(dp724
g81
g82
ssg70
g718
sg63
(lp725
S'debugging'
p726
asbag56
(g77
g58
NtRp727
(dp728
g61
(dp729
g88
g89
ssg70
g718
sg63
(lp730
S':'
asbag56
(g77
g58
NtRp731
(dp732
g61
(dp733
sg70
g718
sg63
(lp734
g56
(g57
g58
NtRp735
(dp736
g61
(dp737
g69
I4
ssg70
g731
sg63
(lp738
g99
asbasbasbag56
(g72
g58
NtRp739
(dp740
g61
(dp741
sg70
g648
sg63
(lp742
g56
(g77
g58
NtRp743
(dp744
g61
(dp745
g81
g82
ssg70
g739
sg63
(lp746
S'document_root'
p747
asbag56
(g77
g58
NtRp748
(dp749
g61
(dp750
g88
g89
ssg70
g739
sg63
(lp751
S':'
asbag56
(g77
g58
NtRp752
(dp753
g61
(dp754
sg70
g739
sg63
(lp755
g56
(g57
g58
NtRp756
(dp757
g61
(dp758
g69
I4
ssg70
g752
sg63
(lp759
S'/etc/apache2/htdocs'
p760
asbasbasbag56
(g72
g58
NtRp761
(dp762
g61
(dp763
sg70
g648
sg63
(lp764
g56
(g77
g58
NtRp765
(dp766
g61
(dp767
g81
g82
ssg70
g761
sg63
(lp768
S'gateway_interface'
p769
asbag56
(g77
g58
NtRp770
(dp771
g61
(dp772
g88
g89
ssg70
g761
sg63
(lp773
S':'
asbag56
(g77
g58
NtRp774
(dp775
g61
(dp776
sg70
g761
sg63
(lp777
g56
(g57
g58
NtRp778
(dp779
g61
(dp780
g69
I4
ssg70
g774
sg63
(lp781
S'CGI/1.1'
p782
asbasbasbag56
(g72
g58
NtRp783
(dp784
g61
(dp785
sg70
g648
sg63
(lp786
g56
(g77
g58
NtRp787
(dp788
g61
(dp789
g81
g82
ssg70
g783
sg63
(lp790
S'gluon_parent'
p791
asbag56
(g77
g58
NtRp792
(dp793
g61
(dp794
g88
g89
ssg70
g783
sg63
(lp795
S':'
asbag56
(g77
g58
NtRp796
(dp797
g61
(dp798
sg70
g783
sg63
(lp799
g56
(g57
g58
NtRp800
(dp801
g61
(dp802
g69
I4
ssg70
g796
sg63
(lp803
g695
asbasbasbag56
(g72
g58
NtRp804
(dp805
g61
(dp806
sg70
g648
sg63
(lp807
g56
(g77
g58
NtRp808
(dp809
g61
(dp810
g81
g82
ssg70
g804
sg63
(lp811
S'http_accept'
p812
asbag56
(g77
g58
NtRp813
(dp814
g61
(dp815
g88
g89
ssg70
g804
sg63
(lp816
S':'
asbag56
(g77
g58
NtRp817
(dp818
g61
(dp819
sg70
g804
sg63
(lp820
g56
(g57
g58
NtRp821
(dp822
g61
(dp823
g69
I4
ssg70
g817
sg63
(lp824
S'text/html, application/xml;q=0.9, application/xhtml+xml, image/png, image/webp, image/jpeg, image/gif, image/x-xbitmap, */*;q=0.1'
p825
asbasbasbag56
(g72
g58
NtRp826
(dp827
g61
(dp828
sg70
g648
sg63
(lp829
g56
(g77
g58
NtRp830
(dp831
g61
(dp832
g81
g82
ssg70
g826
sg63
(lp833
S'http_accept_encoding'
p834
asbag56
(g77
g58
NtRp835
(dp836
g61
(dp837
g88
g89
ssg70
g826
sg63
(lp838
S':'
asbag56
(g77
g58
NtRp839
(dp840
g61
(dp841
sg70
g826
sg63
(lp842
g56
(g57
g58
NtRp843
(dp844
g61
(dp845
g69
I4
ssg70
g839
sg63
(lp846
S'gzip, deflate'
p847
asbasbasbag56
(g72
g58
NtRp848
(dp849
g61
(dp850
sg70
g648
sg63
(lp851
g56
(g77
g58
NtRp852
(dp853
g61
(dp854
g81
g82
ssg70
g848
sg63
(lp855
S'http_accept_language'
p856
asbag56
(g77
g58
NtRp857
(dp858
g61
(dp859
g88
g89
ssg70
g848
sg63
(lp860
S':'
asbag56
(g77
g58
NtRp861
(dp862
g61
(dp863
sg70
g848
sg63
(lp864
g56
(g57
g58
NtRp865
(dp866
g61
(dp867
g69
I4
ssg70
g861
sg63
(lp868
S'pt-BR,pt;q=0.9,en;q=0.8'
p869
asbasbasbag56
(g72
g58
NtRp870
(dp871
g61
(dp872
sg70
g648
sg63
(lp873
g56
(g77
g58
NtRp874
(dp875
g61
(dp876
g81
g82
ssg70
g870
sg63
(lp877
S'http_cache_control'
p878
asbag56
(g77
g58
NtRp879
(dp880
g61
(dp881
g88
g89
ssg70
g870
sg63
(lp882
S':'
asbag56
(g77
g58
NtRp883
(dp884
g61
(dp885
sg70
g870
sg63
(lp886
g56
(g57
g58
NtRp887
(dp888
g61
(dp889
g69
I4
ssg70
g883
sg63
(lp890
S'no-cache'
p891
asbasbasbag56
(g72
g58
NtRp892
(dp893
g61
(dp894
sg70
g648
sg63
(lp895
g56
(g77
g58
NtRp896
(dp897
g61
(dp898
g81
g82
ssg70
g892
sg63
(lp899
S'http_connection'
p900
asbag56
(g77
g58
NtRp901
(dp902
g61
(dp903
g88
g89
ssg70
g892
sg63
(lp904
S':'
asbag56
(g77
g58
NtRp905
(dp906
g61
(dp907
sg70
g892
sg63
(lp908
g56
(g57
g58
NtRp909
(dp910
g61
(dp911
g69
I4
ssg70
g905
sg63
(lp912
S'Keep-Alive'
p913
asbasbasbag56
(g72
g58
NtRp914
(dp915
g61
(dp916
sg70
g648
sg63
(lp917
g56
(g77
g58
NtRp918
(dp919
g61
(dp920
g81
g82
ssg70
g914
sg63
(lp921
S'http_cookie'
p922
asbag56
(g77
g58
NtRp923
(dp924
g61
(dp925
g88
g89
ssg70
g914
sg63
(lp926
S':'
asbag56
(g77
g58
NtRp927
(dp928
g61
(dp929
sg70
g914
sg63
(lp930
g56
(g57
g58
NtRp931
(dp932
g61
(dp933
g69
I4
ssg70
g927
sg63
(lp934
S'session_id_admin=127.0.0.1-6552ad61-7c7d-407f-a261-3c718136950f; session_id_scrum=127.0.0.1-acc155dc-1d39-4558-b401-1701a16e3472'
p935
asbasbasbag56
(g72
g58
NtRp936
(dp937
g61
(dp938
sg70
g648
sg63
(lp939
g56
(g77
g58
NtRp940
(dp941
g61
(dp942
g81
g82
ssg70
g936
sg63
(lp943
S'http_host'
p944
asbag56
(g77
g58
NtRp945
(dp946
g61
(dp947
g88
g89
ssg70
g936
sg63
(lp948
S':'
asbag56
(g77
g58
NtRp949
(dp950
g61
(dp951
sg70
g936
sg63
(lp952
g56
(g57
g58
NtRp953
(dp954
g61
(dp955
g69
I4
ssg70
g949
sg63
(lp956
S'localhost'
p957
asbasbasbag56
(g72
g58
NtRp958
(dp959
g61
(dp960
sg70
g648
sg63
(lp961
g56
(g77
g58
NtRp962
(dp963
g61
(dp964
g81
g82
ssg70
g958
sg63
(lp965
S'http_referer'
p966
asbag56
(g77
g58
NtRp967
(dp968
g61
(dp969
g88
g89
ssg70
g958
sg63
(lp970
S':'
asbag56
(g77
g58
NtRp971
(dp972
g61
(dp973
sg70
g958
sg63
(lp974
g56
(g57
g58
NtRp975
(dp976
g61
(dp977
g69
I4
ssg70
g971
sg63
(lp978
S'https://localhost/scrum/ticket/editar/1'
p979
asbasbasbag56
(g72
g58
NtRp980
(dp981
g61
(dp982
sg70
g648
sg63
(lp983
g56
(g77
g58
NtRp984
(dp985
g61
(dp986
g81
g82
ssg70
g980
sg63
(lp987
S'http_user_agent'
p988
asbag56
(g77
g58
NtRp989
(dp990
g61
(dp991
g88
g89
ssg70
g980
sg63
(lp992
S':'
asbag56
(g77
g58
NtRp993
(dp994
g61
(dp995
sg70
g980
sg63
(lp996
g56
(g57
g58
NtRp997
(dp998
g61
(dp999
g69
I4
ssg70
g993
sg63
(lp1000
S'Opera/9.80 (X11; Linux i686; U; pt-BR) Presto/2.9.168 Version/11.51'
p1001
asbasbasbag56
(g72
g58
NtRp1002
(dp1003
g61
(dp1004
sg70
g648
sg63
(lp1005
g56
(g77
g58
NtRp1006
(dp1007
g61
(dp1008
g81
g82
ssg70
g1002
sg63
(lp1009
S'https'
p1010
asbag56
(g77
g58
NtRp1011
(dp1012
g61
(dp1013
g88
g89
ssg70
g1002
sg63
(lp1014
S':'
asbag56
(g77
g58
NtRp1015
(dp1016
g61
(dp1017
sg70
g1002
sg63
(lp1018
g56
(g57
g58
NtRp1019
(dp1020
g61
(dp1021
g69
I4
ssg70
g1015
sg63
(lp1022
S'1'
asbasbasbag56
(g72
g58
NtRp1023
(dp1024
g61
(dp1025
sg70
g648
sg63
(lp1026
g56
(g77
g58
NtRp1027
(dp1028
g61
(dp1029
g81
g82
ssg70
g1023
sg63
(lp1030
S'is_jython'
p1031
asbag56
(g77
g58
NtRp1032
(dp1033
g61
(dp1034
g88
g89
ssg70
g1023
sg63
(lp1035
S':'
asbag56
(g77
g58
NtRp1036
(dp1037
g61
(dp1038
sg70
g1023
sg63
(lp1039
g56
(g57
g58
NtRp1040
(dp1041
g61
(dp1042
g69
I4
ssg70
g1036
sg63
(lp1043
g99
asbasbasbag56
(g72
g58
NtRp1044
(dp1045
g61
(dp1046
sg70
g648
sg63
(lp1047
g56
(g77
g58
NtRp1048
(dp1049
g61
(dp1050
g81
g82
ssg70
g1044
sg63
(lp1051
S'mod_wsgi_application_group'
p1052
asbag56
(g77
g58
NtRp1053
(dp1054
g61
(dp1055
g88
g89
ssg70
g1044
sg63
(lp1056
S':'
asbag56
(g77
g58
NtRp1057
(dp1058
g61
(dp1059
sg70
g1044
sg63
(lp1060
g56
(g57
g58
NtRp1061
(dp1062
g61
(dp1063
g69
I4
ssg70
g1057
sg63
(lp1064
S'localhost.localdomain|'
p1065
asbasbasbag56
(g72
g58
NtRp1066
(dp1067
g61
(dp1068
sg70
g648
sg63
(lp1069
g56
(g77
g58
NtRp1070
(dp1071
g61
(dp1072
g81
g82
ssg70
g1066
sg63
(lp1073
S'mod_wsgi_callable_object'
p1074
asbag56
(g77
g58
NtRp1075
(dp1076
g61
(dp1077
g88
g89
ssg70
g1066
sg63
(lp1078
S':'
asbag56
(g77
g58
NtRp1079
(dp1080
g61
(dp1081
sg70
g1066
sg63
(lp1082
g56
(g57
g58
NtRp1083
(dp1084
g61
(dp1085
g69
I4
ssg70
g1079
sg63
(lp1086
S'application'
p1087
asbasbasbag56
(g72
g58
NtRp1088
(dp1089
g61
(dp1090
sg70
g648
sg63
(lp1091
g56
(g77
g58
NtRp1092
(dp1093
g61
(dp1094
g81
g82
ssg70
g1088
sg63
(lp1095
S'mod_wsgi_handler_script'
p1096
asbag56
(g77
g58
NtRp1097
(dp1098
g61
(dp1099
g88
g89
ssg70
g1088
sg63
(lp1100
S':'
asbag56
(g77
g58
NtRp1101
(dp1102
g61
(dp1103
sg70
g1088
sg63
(lp1104
g56
(g57
g58
NtRp1105
(dp1106
g61
(dp1107
g69
I4
ssg70
g1101
sg63
(lp1108
S''
asbasbasbag56
(g72
g58
NtRp1109
(dp1110
g61
(dp1111
sg70
g648
sg63
(lp1112
g56
(g77
g58
NtRp1113
(dp1114
g61
(dp1115
g81
g82
ssg70
g1109
sg63
(lp1116
S'mod_wsgi_input_chunked'
p1117
asbag56
(g77
g58
NtRp1118
(dp1119
g61
(dp1120
g88
g89
ssg70
g1109
sg63
(lp1121
S':'
asbag56
(g77
g58
NtRp1122
(dp1123
g61
(dp1124
sg70
g1109
sg63
(lp1125
g56
(g57
g58
NtRp1126
(dp1127
g61
(dp1128
g69
I4
ssg70
g1122
sg63
(lp1129
S'0'
asbasbasbag56
(g72
g58
NtRp1130
(dp1131
g61
(dp1132
sg70
g648
sg63
(lp1133
g56
(g77
g58
NtRp1134
(dp1135
g61
(dp1136
g81
g82
ssg70
g1130
sg63
(lp1137
S'mod_wsgi_listener_host'
p1138
asbag56
(g77
g58
NtRp1139
(dp1140
g61
(dp1141
g88
g89
ssg70
g1130
sg63
(lp1142
S':'
asbag56
(g77
g58
NtRp1143
(dp1144
g61
(dp1145
sg70
g1130
sg63
(lp1146
g56
(g57
g58
NtRp1147
(dp1148
g61
(dp1149
g69
I4
ssg70
g1143
sg63
(lp1150
S''
asbasbasbag56
(g72
g58
NtRp1151
(dp1152
g61
(dp1153
sg70
g648
sg63
(lp1154
g56
(g77
g58
NtRp1155
(dp1156
g61
(dp1157
g81
g82
ssg70
g1151
sg63
(lp1158
S'mod_wsgi_listener_port'
p1159
asbag56
(g77
g58
NtRp1160
(dp1161
g61
(dp1162
g88
g89
ssg70
g1151
sg63
(lp1163
S':'
asbag56
(g77
g58
NtRp1164
(dp1165
g61
(dp1166
sg70
g1151
sg63
(lp1167
g56
(g57
g58
NtRp1168
(dp1169
g61
(dp1170
g69
I4
ssg70
g1164
sg63
(lp1171
S'443'
p1172
asbasbasbag56
(g72
g58
NtRp1173
(dp1174
g61
(dp1175
sg70
g648
sg63
(lp1176
g56
(g77
g58
NtRp1177
(dp1178
g61
(dp1179
g81
g82
ssg70
g1173
sg63
(lp1180
S'mod_wsgi_process_group'
p1181
asbag56
(g77
g58
NtRp1182
(dp1183
g61
(dp1184
g88
g89
ssg70
g1173
sg63
(lp1185
S':'
asbag56
(g77
g58
NtRp1186
(dp1187
g61
(dp1188
sg70
g1173
sg63
(lp1189
g56
(g57
g58
NtRp1190
(dp1191
g61
(dp1192
g69
I4
ssg70
g1186
sg63
(lp1193
S'web2py'
p1194
asbasbasbag56
(g72
g58
NtRp1195
(dp1196
g61
(dp1197
sg70
g648
sg63
(lp1198
g56
(g77
g58
NtRp1199
(dp1200
g61
(dp1201
g81
g82
ssg70
g1195
sg63
(lp1202
S'mod_wsgi_request_handler'
p1203
asbag56
(g77
g58
NtRp1204
(dp1205
g61
(dp1206
g88
g89
ssg70
g1195
sg63
(lp1207
S':'
asbag56
(g77
g58
NtRp1208
(dp1209
g61
(dp1210
sg70
g1195
sg63
(lp1211
g56
(g57
g58
NtRp1212
(dp1213
g61
(dp1214
g69
I4
ssg70
g1208
sg63
(lp1215
S'wsgi-script'
p1216
asbasbasbag56
(g72
g58
NtRp1217
(dp1218
g61
(dp1219
sg70
g648
sg63
(lp1220
g56
(g77
g58
NtRp1221
(dp1222
g61
(dp1223
g81
g82
ssg70
g1217
sg63
(lp1224
S'mod_wsgi_script_reloading'
p1225
asbag56
(g77
g58
NtRp1226
(dp1227
g61
(dp1228
g88
g89
ssg70
g1217
sg63
(lp1229
S':'
asbag56
(g77
g58
NtRp1230
(dp1231
g61
(dp1232
sg70
g1217
sg63
(lp1233
g56
(g57
g58
NtRp1234
(dp1235
g61
(dp1236
g69
I4
ssg70
g1230
sg63
(lp1237
S'1'
asbasbasbag56
(g72
g58
NtRp1238
(dp1239
g61
(dp1240
sg70
g648
sg63
(lp1241
g56
(g77
g58
NtRp1242
(dp1243
g61
(dp1244
g81
g82
ssg70
g1238
sg63
(lp1245
S'mod_wsgi_version'
p1246
asbag56
(g77
g58
NtRp1247
(dp1248
g61
(dp1249
g88
g89
ssg70
g1238
sg63
(lp1250
S':'
asbag56
(g77
g58
NtRp1251
(dp1252
g61
(dp1253
sg70
g1238
sg63
(lp1254
g56
(g57
g58
NtRp1255
(dp1256
g61
(dp1257
g69
I4
ssg70
g1251
sg63
(lp1258
g56
(g65
g58
NtRp1259
(dp1260
g61
(dp1261
g69
I3
ssg70
Nsg63
(lp1262
g56
(g72
g58
NtRp1263
(dp1264
g61
(dp1265
sg70
g1259
sg63
(lp1266
g56
(g77
g58
NtRp1267
(dp1268
g61
(dp1269
sg70
g1263
sg63
(lp1270
g56
(g57
g58
NtRp1271
(dp1272
g61
(dp1273
g69
I3
ssg70
g1267
sg63
(lp1274
S'3'
asbasbasbag56
(g72
g58
NtRp1275
(dp1276
g61
(dp1277
sg70
g1259
sg63
(lp1278
g56
(g77
g58
NtRp1279
(dp1280
g61
(dp1281
sg70
g1275
sg63
(lp1282
g56
(g57
g58
NtRp1283
(dp1284
g61
(dp1285
g69
I3
ssg70
g1279
sg63
(lp1286
S'3'
asbasbasbasbasbasbasbag56
(g72
g58
NtRp1287
(dp1288
g61
(dp1289
sg70
g648
sg63
(lp1290
g56
(g77
g58
NtRp1291
(dp1292
g61
(dp1293
g81
g82
ssg70
g1287
sg63
(lp1294
S'path_info'
p1295
asbag56
(g77
g58
NtRp1296
(dp1297
g61
(dp1298
g88
g89
ssg70
g1287
sg63
(lp1299
S':'
asbag56
(g77
g58
NtRp1300
(dp1301
g61
(dp1302
sg70
g1287
sg63
(lp1303
g56
(g57
g58
NtRp1304
(dp1305
g61
(dp1306
g69
I4
ssg70
g1300
sg63
(lp1307
S'/scrum/ticket/imprimir/1'
p1308
asbasbasbag56
(g72
g58
NtRp1309
(dp1310
g61
(dp1311
sg70
g648
sg63
(lp1312
g56
(g77
g58
NtRp1313
(dp1314
g61
(dp1315
g81
g82
ssg70
g1309
sg63
(lp1316
S'path_translated'
p1317
asbag56
(g77
g58
NtRp1318
(dp1319
g61
(dp1320
g88
g89
ssg70
g1309
sg63
(lp1321
S':'
asbag56
(g77
g58
NtRp1322
(dp1323
g61
(dp1324
sg70
g1309
sg63
(lp1325
g56
(g57
g58
NtRp1326
(dp1327
g61
(dp1328
g69
I4
ssg70
g1322
sg63
(lp1329
S'/home/www-data/web2py/wsgihandler.py/scrum/ticket/imprimir/1'
p1330
asbasbasbag56
(g72
g58
NtRp1331
(dp1332
g61
(dp1333
sg70
g648
sg63
(lp1334
g56
(g77
g58
NtRp1335
(dp1336
g61
(dp1337
g81
g82
ssg70
g1331
sg63
(lp1338
S'query_string'
p1339
asbag56
(g77
g58
NtRp1340
(dp1341
g61
(dp1342
g88
g89
ssg70
g1331
sg63
(lp1343
S':'
asbag56
(g77
g58
NtRp1344
(dp1345
g61
(dp1346
sg70
g1331
sg63
(lp1347
g56
(g57
g58
NtRp1348
(dp1349
g61
(dp1350
g69
I4
ssg70
g1344
sg63
(lp1351
S''
asbasbasbag56
(g72
g58
NtRp1352
(dp1353
g61
(dp1354
sg70
g648
sg63
(lp1355
g56
(g77
g58
NtRp1356
(dp1357
g61
(dp1358
g81
g82
ssg70
g1352
sg63
(lp1359
S'remote_addr'
p1360
asbag56
(g77
g58
NtRp1361
(dp1362
g61
(dp1363
g88
g89
ssg70
g1352
sg63
(lp1364
S':'
asbag56
(g77
g58
NtRp1365
(dp1366
g61
(dp1367
sg70
g1352
sg63
(lp1368
g56
(g57
g58
NtRp1369
(dp1370
g61
(dp1371
g69
I4
ssg70
g1365
sg63
(lp1372
g201
asbasbasbag56
(g72
g58
NtRp1373
(dp1374
g61
(dp1375
sg70
g648
sg63
(lp1376
g56
(g77
g58
NtRp1377
(dp1378
g61
(dp1379
g81
g82
ssg70
g1373
sg63
(lp1380
S'remote_port'
p1381
asbag56
(g77
g58
NtRp1382
(dp1383
g61
(dp1384
g88
g89
ssg70
g1373
sg63
(lp1385
S':'
asbag56
(g77
g58
NtRp1386
(dp1387
g61
(dp1388
sg70
g1373
sg63
(lp1389
g56
(g57
g58
NtRp1390
(dp1391
g61
(dp1392
g69
I4
ssg70
g1386
sg63
(lp1393
S'56852'
p1394
asbasbasbag56
(g72
g58
NtRp1395
(dp1396
g61
(dp1397
sg70
g648
sg63
(lp1398
g56
(g77
g58
NtRp1399
(dp1400
g61
(dp1401
g81
g82
ssg70
g1395
sg63
(lp1402
S'request_method'
p1403
asbag56
(g77
g58
NtRp1404
(dp1405
g61
(dp1406
g88
g89
ssg70
g1395
sg63
(lp1407
S':'
asbag56
(g77
g58
NtRp1408
(dp1409
g61
(dp1410
sg70
g1395
sg63
(lp1411
g56
(g57
g58
NtRp1412
(dp1413
g61
(dp1414
g69
I4
ssg70
g1408
sg63
(lp1415
S'GET'
p1416
asbasbasbag56
(g72
g58
NtRp1417
(dp1418
g61
(dp1419
sg70
g648
sg63
(lp1420
g56
(g77
g58
NtRp1421
(dp1422
g61
(dp1423
g81
g82
ssg70
g1417
sg63
(lp1424
S'request_uri'
p1425
asbag56
(g77
g58
NtRp1426
(dp1427
g61
(dp1428
g88
g89
ssg70
g1417
sg63
(lp1429
S':'
asbag56
(g77
g58
NtRp1430
(dp1431
g61
(dp1432
sg70
g1417
sg63
(lp1433
g56
(g57
g58
NtRp1434
(dp1435
g61
(dp1436
g69
I4
ssg70
g1430
sg63
(lp1437
S'/scrum/ticket/imprimir/1'
p1438
asbasbasbag56
(g72
g58
NtRp1439
(dp1440
g61
(dp1441
sg70
g648
sg63
(lp1442
g56
(g77
g58
NtRp1443
(dp1444
g61
(dp1445
g81
g82
ssg70
g1439
sg63
(lp1446
S'script_filename'
p1447
asbag56
(g77
g58
NtRp1448
(dp1449
g61
(dp1450
g88
g89
ssg70
g1439
sg63
(lp1451
S':'
asbag56
(g77
g58
NtRp1452
(dp1453
g61
(dp1454
sg70
g1439
sg63
(lp1455
g56
(g57
g58
NtRp1456
(dp1457
g61
(dp1458
g69
I4
ssg70
g1452
sg63
(lp1459
S'/home/www-data/web2py/wsgihandler.py'
p1460
asbasbasbag56
(g72
g58
NtRp1461
(dp1462
g61
(dp1463
sg70
g648
sg63
(lp1464
g56
(g77
g58
NtRp1465
(dp1466
g61
(dp1467
g81
g82
ssg70
g1461
sg63
(lp1468
S'script_name'
p1469
asbag56
(g77
g58
NtRp1470
(dp1471
g61
(dp1472
g88
g89
ssg70
g1461
sg63
(lp1473
S':'
asbag56
(g77
g58
NtRp1474
(dp1475
g61
(dp1476
sg70
g1461
sg63
(lp1477
g56
(g57
g58
NtRp1478
(dp1479
g61
(dp1480
g69
I4
ssg70
g1474
sg63
(lp1481
S''
asbasbasbag56
(g72
g58
NtRp1482
(dp1483
g61
(dp1484
sg70
g648
sg63
(lp1485
g56
(g77
g58
NtRp1486
(dp1487
g61
(dp1488
g81
g82
ssg70
g1482
sg63
(lp1489
S'server_addr'
p1490
asbag56
(g77
g58
NtRp1491
(dp1492
g61
(dp1493
g88
g89
ssg70
g1482
sg63
(lp1494
S':'
asbag56
(g77
g58
NtRp1495
(dp1496
g61
(dp1497
sg70
g1482
sg63
(lp1498
g56
(g57
g58
NtRp1499
(dp1500
g61
(dp1501
g69
I4
ssg70
g1495
sg63
(lp1502
S'127.0.0.1'
p1503
asbasbasbag56
(g72
g58
NtRp1504
(dp1505
g61
(dp1506
sg70
g648
sg63
(lp1507
g56
(g77
g58
NtRp1508
(dp1509
g61
(dp1510
g81
g82
ssg70
g1504
sg63
(lp1511
S'server_admin'
p1512
asbag56
(g77
g58
NtRp1513
(dp1514
g61
(dp1515
g88
g89
ssg70
g1504
sg63
(lp1516
S':'
asbag56
(g77
g58
NtRp1517
(dp1518
g61
(dp1519
sg70
g1504
sg63
(lp1520
g56
(g57
g58
NtRp1521
(dp1522
g61
(dp1523
g69
I4
ssg70
g1517
sg63
(lp1524
S'[no address given]'
p1525
asbasbasbag56
(g72
g58
NtRp1526
(dp1527
g61
(dp1528
sg70
g648
sg63
(lp1529
g56
(g77
g58
NtRp1530
(dp1531
g61
(dp1532
g81
g82
ssg70
g1526
sg63
(lp1533
S'server_name'
p1534
asbag56
(g77
g58
NtRp1535
(dp1536
g61
(dp1537
g88
g89
ssg70
g1526
sg63
(lp1538
S':'
asbag56
(g77
g58
NtRp1539
(dp1540
g61
(dp1541
sg70
g1526
sg63
(lp1542
g56
(g57
g58
NtRp1543
(dp1544
g61
(dp1545
g69
I4
ssg70
g1539
sg63
(lp1546
S'localhost'
p1547
asbasbasbag56
(g72
g58
NtRp1548
(dp1549
g61
(dp1550
sg70
g648
sg63
(lp1551
g56
(g77
g58
NtRp1552
(dp1553
g61
(dp1554
g81
g82
ssg70
g1548
sg63
(lp1555
S'server_port'
p1556
asbag56
(g77
g58
NtRp1557
(dp1558
g61
(dp1559
g88
g89
ssg70
g1548
sg63
(lp1560
S':'
asbag56
(g77
g58
NtRp1561
(dp1562
g61
(dp1563
sg70
g1548
sg63
(lp1564
g56
(g57
g58
NtRp1565
(dp1566
g61
(dp1567
g69
I4
ssg70
g1561
sg63
(lp1568
S'443'
p1569
asbasbasbag56
(g72
g58
NtRp1570
(dp1571
g61
(dp1572
sg70
g648
sg63
(lp1573
g56
(g77
g58
NtRp1574
(dp1575
g61
(dp1576
g81
g82
ssg70
g1570
sg63
(lp1577
S'server_protocol'
p1578
asbag56
(g77
g58
NtRp1579
(dp1580
g61
(dp1581
g88
g89
ssg70
g1570
sg63
(lp1582
S':'
asbag56
(g77
g58
NtRp1583
(dp1584
g61
(dp1585
sg70
g1570
sg63
(lp1586
g56
(g57
g58
NtRp1587
(dp1588
g61
(dp1589
g69
I4
ssg70
g1583
sg63
(lp1590
S'HTTP/1.1'
p1591
asbasbasbag56
(g72
g58
NtRp1592
(dp1593
g61
(dp1594
sg70
g648
sg63
(lp1595
g56
(g77
g58
NtRp1596
(dp1597
g61
(dp1598
g81
g82
ssg70
g1592
sg63
(lp1599
S'server_signature'
p1600
asbag56
(g77
g58
NtRp1601
(dp1602
g61
(dp1603
g88
g89
ssg70
g1592
sg63
(lp1604
S':'
asbag56
(g77
g58
NtRp1605
(dp1606
g61
(dp1607
sg70
g1592
sg63
(lp1608
g56
(g57
g58
NtRp1609
(dp1610
g61
(dp1611
g69
I4
ssg70
g1605
sg63
(lp1612
S'<address>Apache/2.2.17 (Ubuntu) Server at localhost Port 443</address>\n'
p1613
asbasbasbag56
(g72
g58
NtRp1614
(dp1615
g61
(dp1616
sg70
g648
sg63
(lp1617
g56
(g77
g58
NtRp1618
(dp1619
g61
(dp1620
g81
g82
ssg70
g1614
sg63
(lp1621
S'server_software'
p1622
asbag56
(g77
g58
NtRp1623
(dp1624
g61
(dp1625
g88
g89
ssg70
g1614
sg63
(lp1626
S':'
asbag56
(g77
g58
NtRp1627
(dp1628
g61
(dp1629
sg70
g1614
sg63
(lp1630
g56
(g57
g58
NtRp1631
(dp1632
g61
(dp1633
g69
I4
ssg70
g1627
sg63
(lp1634
S'Apache/2.2.17 (Ubuntu)'
p1635
asbasbasbag56
(g72
g58
NtRp1636
(dp1637
g61
(dp1638
sg70
g648
sg63
(lp1639
g56
(g77
g58
NtRp1640
(dp1641
g61
(dp1642
g81
g82
ssg70
g1636
sg63
(lp1643
S'ssl_tls_sni'
p1644
asbag56
(g77
g58
NtRp1645
(dp1646
g61
(dp1647
g88
g89
ssg70
g1636
sg63
(lp1648
S':'
asbag56
(g77
g58
NtRp1649
(dp1650
g61
(dp1651
sg70
g1636
sg63
(lp1652
g56
(g57
g58
NtRp1653
(dp1654
g61
(dp1655
g69
I4
ssg70
g1649
sg63
(lp1656
S'localhost'
p1657
asbasbasbag56
(g72
g58
NtRp1658
(dp1659
g61
(dp1660
sg70
g648
sg63
(lp1661
g56
(g77
g58
NtRp1662
(dp1663
g61
(dp1664
g81
g82
ssg70
g1658
sg63
(lp1665
S'web2py_path'
p1666
asbag56
(g77
g58
NtRp1667
(dp1668
g61
(dp1669
g88
g89
ssg70
g1658
sg63
(lp1670
S':'
asbag56
(g77
g58
NtRp1671
(dp1672
g61
(dp1673
sg70
g1658
sg63
(lp1674
g56
(g57
g58
NtRp1675
(dp1676
g61
(dp1677
g69
I4
ssg70
g1671
sg63
(lp1678
g695
asbasbasbag56
(g72
g58
NtRp1679
(dp1680
g61
(dp1681
sg70
g648
sg63
(lp1682
g56
(g77
g58
NtRp1683
(dp1684
g61
(dp1685
g81
g82
ssg70
g1679
sg63
(lp1686
S'web2py_version'
p1687
asbag56
(g77
g58
NtRp1688
(dp1689
g61
(dp1690
g88
g89
ssg70
g1679
sg63
(lp1691
S':'
asbag56
(g77
g58
NtRp1692
(dp1693
g61
(dp1694
sg70
g1679
sg63
(lp1695
g56
(g57
g58
NtRp1696
(dp1697
g61
(dp1698
g69
I4
ssg70
g1692
sg63
(lp1699
S'Version 1.98.2 (2011-08-04 00:47:09)\n'
p1700
asbasbasbag56
(g72
g58
NtRp1701
(dp1702
g61
(dp1703
sg70
g648
sg63
(lp1704
g56
(g77
g58
NtRp1705
(dp1706
g61
(dp1707
g81
g82
ssg70
g1701
sg63
(lp1708
S'wsgi_errors'
p1709
asbag56
(g77
g58
NtRp1710
(dp1711
g61
(dp1712
g88
g89
ssg70
g1701
sg63
(lp1713
S':'
asbag56
(g77
g58
NtRp1714
(dp1715
g61
(dp1716
sg70
g1701
sg63
(lp1717
g56
(g57
g58
NtRp1718
(dp1719
g61
(dp1720
g69
I4
ssg70
g1714
sg63
(lp1721
S'<mod_wsgi.Log object at 0xb9270250>'
p1722
asbasbasbag56
(g72
g58
NtRp1723
(dp1724
g61
(dp1725
sg70
g648
sg63
(lp1726
g56
(g77
g58
NtRp1727
(dp1728
g61
(dp1729
g81
g82
ssg70
g1723
sg63
(lp1730
S'wsgi_file_wrapper'
p1731
asbag56
(g77
g58
NtRp1732
(dp1733
g61
(dp1734
g88
g89
ssg70
g1723
sg63
(lp1735
S':'
asbag56
(g77
g58
NtRp1736
(dp1737
g61
(dp1738
sg70
g1723
sg63
(lp1739
g56
(g57
g58
NtRp1740
(dp1741
g61
(dp1742
g69
I4
ssg70
g1736
sg63
(lp1743
S'<built-in method file_wrapper of mod_wsgi.Adapter object at 0xb910f8d8>'
p1744
asbasbasbag56
(g72
g58
NtRp1745
(dp1746
g61
(dp1747
sg70
g648
sg63
(lp1748
g56
(g77
g58
NtRp1749
(dp1750
g61
(dp1751
g81
g82
ssg70
g1745
sg63
(lp1752
S'wsgi_input'
p1753
asbag56
(g77
g58
NtRp1754
(dp1755
g61
(dp1756
g88
g89
ssg70
g1745
sg63
(lp1757
S':'
asbag56
(g77
g58
NtRp1758
(dp1759
g61
(dp1760
sg70
g1745
sg63
(lp1761
g56
(g57
g58
NtRp1762
(dp1763
g61
(dp1764
g69
I4
ssg70
g1758
sg63
(lp1765
S'<mod_wsgi.Input object at 0xb91f5430>'
p1766
asbasbasbag56
(g72
g58
NtRp1767
(dp1768
g61
(dp1769
sg70
g648
sg63
(lp1770
g56
(g77
g58
NtRp1771
(dp1772
g61
(dp1773
g81
g82
ssg70
g1767
sg63
(lp1774
S'wsgi_multiprocess'
p1775
asbag56
(g77
g58
NtRp1776
(dp1777
g61
(dp1778
g88
g89
ssg70
g1767
sg63
(lp1779
S':'
asbag56
(g77
g58
NtRp1780
(dp1781
g61
(dp1782
sg70
g1767
sg63
(lp1783
g56
(g57
g58
NtRp1784
(dp1785
g61
(dp1786
g69
I4
ssg70
g1780
sg63
(lp1787
g99
asbasbasbag56
(g72
g58
NtRp1788
(dp1789
g61
(dp1790
sg70
g648
sg63
(lp1791
g56
(g77
g58
NtRp1792
(dp1793
g61
(dp1794
g81
g82
ssg70
g1788
sg63
(lp1795
S'wsgi_multithread'
p1796
asbag56
(g77
g58
NtRp1797
(dp1798
g61
(dp1799
g88
g89
ssg70
g1788
sg63
(lp1800
S':'
asbag56
(g77
g58
NtRp1801
(dp1802
g61
(dp1803
sg70
g1788
sg63
(lp1804
g56
(g57
g58
NtRp1805
(dp1806
g61
(dp1807
g69
I4
ssg70
g1801
sg63
(lp1808
S'True'
p1809
asbasbasbag56
(g72
g58
NtRp1810
(dp1811
g61
(dp1812
sg70
g648
sg63
(lp1813
g56
(g77
g58
NtRp1814
(dp1815
g61
(dp1816
g81
g82
ssg70
g1810
sg63
(lp1817
S'wsgi_run_once'
p1818
asbag56
(g77
g58
NtRp1819
(dp1820
g61
(dp1821
g88
g89
ssg70
g1810
sg63
(lp1822
S':'
asbag56
(g77
g58
NtRp1823
(dp1824
g61
(dp1825
sg70
g1810
sg63
(lp1826
g56
(g57
g58
NtRp1827
(dp1828
g61
(dp1829
g69
I4
ssg70
g1823
sg63
(lp1830
g99
asbasbasbag56
(g72
g58
NtRp1831
(dp1832
g61
(dp1833
sg70
g648
sg63
(lp1834
g56
(g77
g58
NtRp1835
(dp1836
g61
(dp1837
g81
g82
ssg70
g1831
sg63
(lp1838
S'wsgi_url_scheme'
p1839
asbag56
(g77
g58
NtRp1840
(dp1841
g61
(dp1842
g88
g89
ssg70
g1831
sg63
(lp1843
S':'
asbag56
(g77
g58
NtRp1844
(dp1845
g61
(dp1846
sg70
g1831
sg63
(lp1847
g56
(g57
g58
NtRp1848
(dp1849
g61
(dp1850
g69
I4
ssg70
g1844
sg63
(lp1851
S'https'
p1852
asbasbasbag56
(g72
g58
NtRp1853
(dp1854
g61
(dp1855
sg70
g648
sg63
(lp1856
g56
(g77
g58
NtRp1857
(dp1858
g61
(dp1859
g81
g82
ssg70
g1853
sg63
(lp1860
S'wsgi_version'
p1861
asbag56
(g77
g58
NtRp1862
(dp1863
g61
(dp1864
g88
g89
ssg70
g1853
sg63
(lp1865
S':'
asbag56
(g77
g58
NtRp1866
(dp1867
g61
(dp1868
sg70
g1853
sg63
(lp1869
g56
(g57
g58
NtRp1870
(dp1871
g61
(dp1872
g69
I4
ssg70
g1866
sg63
(lp1873
g56
(g65
g58
NtRp1874
(dp1875
g61
(dp1876
g69
I3
ssg70
Nsg63
(lp1877
g56
(g72
g58
NtRp1878
(dp1879
g61
(dp1880
sg70
g1874
sg63
(lp1881
g56
(g77
g58
NtRp1882
(dp1883
g61
(dp1884
sg70
g1878
sg63
(lp1885
g56
(g57
g58
NtRp1886
(dp1887
g61
(dp1888
g69
I3
ssg70
g1882
sg63
(lp1889
S'1'
asbasbasbag56
(g72
g58
NtRp1890
(dp1891
g61
(dp1892
sg70
g1874
sg63
(lp1893
g56
(g77
g58
NtRp1894
(dp1895
g61
(dp1896
sg70
g1890
sg63
(lp1897
g56
(g57
g58
NtRp1898
(dp1899
g61
(dp1900
g69
I3
ssg70
g1894
sg63
(lp1901
S'1'
asbasbasbasbasbasbasbasbasbasbasbag56
(g72
g58
NtRp1902
(dp1903
g61
(dp1904
sg70
g66
sg63
(lp1905
g56
(g77
g58
NtRp1906
(dp1907
g61
(dp1908
g81
g82
ssg70
g1902
sg63
(lp1909
S'extension'
p1910
asbag56
(g77
g58
NtRp1911
(dp1912
g61
(dp1913
g88
g89
ssg70
g1902
sg63
(lp1914
S':'
asbag56
(g77
g58
NtRp1915
(dp1916
g61
(dp1917
sg70
g1902
sg63
(lp1918
g56
(g57
g58
NtRp1919
(dp1920
g61
(dp1921
g69
I5
ssg70
g1915
sg63
(lp1922
S'html'
p1923
asbasbasbag56
(g72
g58
NtRp1924
(dp1925
g61
(dp1926
sg70
g66
sg63
(lp1927
g56
(g77
g58
NtRp1928
(dp1929
g61
(dp1930
g81
g82
ssg70
g1924
sg63
(lp1931
S'folder'
p1932
asbag56
(g77
g58
NtRp1933
(dp1934
g61
(dp1935
g88
g89
ssg70
g1924
sg63
(lp1936
S':'
asbag56
(g77
g58
NtRp1937
(dp1938
g61
(dp1939
sg70
g1924
sg63
(lp1940
g56
(g57
g58
NtRp1941
(dp1942
g61
(dp1943
g69
I5
ssg70
g1937
sg63
(lp1944
S'/home/www-data/web2py/applications/scrum/'
p1945
asbasbasbag56
(g72
g58
NtRp1946
(dp1947
g61
(dp1948
sg70
g66
sg63
(lp1949
g56
(g77
g58
NtRp1950
(dp1951
g61
(dp1952
g81
g82
ssg70
g1946
sg63
(lp1953
S'function'
p1954
asbag56
(g77
g58
NtRp1955
(dp1956
g61
(dp1957
g88
g89
ssg70
g1946
sg63
(lp1958
S':'
asbag56
(g77
g58
NtRp1959
(dp1960
g61
(dp1961
sg70
g1946
sg63
(lp1962
g56
(g57
g58
NtRp1963
(dp1964
g61
(dp1965
g69
I5
ssg70
g1959
sg63
(lp1966
S'imprimir'
p1967
asbasbasbag56
(g72
g58
NtRp1968
(dp1969
g61
(dp1970
sg70
g66
sg63
(lp1971
g56
(g77
g58
NtRp1972
(dp1973
g61
(dp1974
g81
g82
ssg70
g1968
sg63
(lp1975
S'get_vars'
p1976
asbag56
(g77
g58
NtRp1977
(dp1978
g61
(dp1979
g88
g89
ssg70
g1968
sg63
(lp1980
S':'
asbag56
(g77
g58
NtRp1981
(dp1982
g61
(dp1983
sg70
g1968
sg63
(lp1984
g56
(g57
g58
NtRp1985
(dp1986
g61
(dp1987
g69
I5
ssg70
g1981
sg63
(lp1988
g56
(g65
g58
NtRp1989
(dp1990
g61
(dp1991
g69
I4
ssg70
Nsg63
(lp1992
sbasbasbasbag56
(g72
g58
NtRp1993
(dp1994
g61
(dp1995
sg70
g66
sg63
(lp1996
g56
(g77
g58
NtRp1997
(dp1998
g61
(dp1999
g81
g82
ssg70
g1993
sg63
(lp2000
S'is_https'
p2001
asbag56
(g77
g58
NtRp2002
(dp2003
g61
(dp2004
g88
g89
ssg70
g1993
sg63
(lp2005
S':'
asbag56
(g77
g58
NtRp2006
(dp2007
g61
(dp2008
sg70
g1993
sg63
(lp2009
g56
(g57
g58
NtRp2010
(dp2011
g61
(dp2012
g69
I5
ssg70
g2006
sg63
(lp2013
g1809
asbasbasbag56
(g72
g58
NtRp2014
(dp2015
g61
(dp2016
sg70
g66
sg63
(lp2017
g56
(g77
g58
NtRp2018
(dp2019
g61
(dp2020
g81
g82
ssg70
g2014
sg63
(lp2021
S'is_local'
p2022
asbag56
(g77
g58
NtRp2023
(dp2024
g61
(dp2025
g88
g89
ssg70
g2014
sg63
(lp2026
S':'
asbag56
(g77
g58
NtRp2027
(dp2028
g61
(dp2029
sg70
g2014
sg63
(lp2030
g56
(g57
g58
NtRp2031
(dp2032
g61
(dp2033
g69
I5
ssg70
g2027
sg63
(lp2034
g1809
asbasbasbag56
(g72
g58
NtRp2035
(dp2036
g61
(dp2037
sg70
g66
sg63
(lp2038
g56
(g77
g58
NtRp2039
(dp2040
g61
(dp2041
g81
g82
ssg70
g2035
sg63
(lp2042
S'is_restful'
p2043
asbag56
(g77
g58
NtRp2044
(dp2045
g61
(dp2046
g88
g89
ssg70
g2035
sg63
(lp2047
S':'
asbag56
(g77
g58
NtRp2048
(dp2049
g61
(dp2050
sg70
g2035
sg63
(lp2051
g56
(g57
g58
NtRp2052
(dp2053
g61
(dp2054
g69
I5
ssg70
g2048
sg63
(lp2055
g99
asbasbasbag56
(g72
g58
NtRp2056
(dp2057
g61
(dp2058
sg70
g66
sg63
(lp2059
g56
(g77
g58
NtRp2060
(dp2061
g61
(dp2062
g81
g82
ssg70
g2056
sg63
(lp2063
S'now'
p2064
asbag56
(g77
g58
NtRp2065
(dp2066
g61
(dp2067
g88
g89
ssg70
g2056
sg63
(lp2068
S':'
asbag56
(g77
g58
NtRp2069
(dp2070
g61
(dp2071
sg70
g2056
sg63
(lp2072
g56
(g57
g58
NtRp2073
(dp2074
g61
(dp2075
g69
I5
ssg70
g2069
sg63
(lp2076
S'datetime.datetime(2011, 9, 12, 15, 8, 45, 209144)'
p2077
asbasbasbag56
(g72
g58
NtRp2078
(dp2079
g61
(dp2080
sg70
g66
sg63
(lp2081
g56
(g77
g58
NtRp2082
(dp2083
g61
(dp2084
g81
g82
ssg70
g2078
sg63
(lp2085
S'post_vars'
p2086
asbag56
(g77
g58
NtRp2087
(dp2088
g61
(dp2089
g88
g89
ssg70
g2078
sg63
(lp2090
S':'
asbag56
(g77
g58
NtRp2091
(dp2092
g61
(dp2093
sg70
g2078
sg63
(lp2094
g56
(g57
g58
NtRp2095
(dp2096
g61
(dp2097
g69
I5
ssg70
g2091
sg63
(lp2098
g56
(g65
g58
NtRp2099
(dp2100
g61
(dp2101
g69
I4
ssg70
Nsg63
(lp2102
sbasbasbasbag56
(g72
g58
NtRp2103
(dp2104
g61
(dp2105
sg70
g66
sg63
(lp2106
g56
(g77
g58
NtRp2107
(dp2108
g61
(dp2109
g81
g82
ssg70
g2103
sg63
(lp2110
S'raw_args'
p2111
asbag56
(g77
g58
NtRp2112
(dp2113
g61
(dp2114
g88
g89
ssg70
g2103
sg63
(lp2115
S':'
asbag56
(g77
g58
NtRp2116
(dp2117
g61
(dp2118
sg70
g2103
sg63
(lp2119
g56
(g57
g58
NtRp2120
(dp2121
g61
(dp2122
g69
I5
ssg70
g2116
sg63
(lp2123
S'1'
asbasbasbag56
(g72
g58
NtRp2124
(dp2125
g61
(dp2126
sg70
g66
sg63
(lp2127
g56
(g77
g58
NtRp2128
(dp2129
g61
(dp2130
g81
g82
ssg70
g2124
sg63
(lp2131
S'url'
p2132
asbag56
(g77
g58
NtRp2133
(dp2134
g61
(dp2135
g88
g89
ssg70
g2124
sg63
(lp2136
S':'
asbag56
(g77
g58
NtRp2137
(dp2138
g61
(dp2139
sg70
g2124
sg63
(lp2140
g56
(g57
g58
NtRp2141
(dp2142
g61
(dp2143
g69
I5
ssg70
g2137
sg63
(lp2144
S'/scrum/ticket/imprimir/1'
p2145
asbasbasbag56
(g72
g58
NtRp2146
(dp2147
g61
(dp2148
sg70
g66
sg63
(lp2149
g56
(g77
g58
NtRp2150
(dp2151
g61
(dp2152
g81
g82
ssg70
g2146
sg63
(lp2153
S'uuid'
p2154
asbag56
(g77
g58
NtRp2155
(dp2156
g61
(dp2157
g88
g89
ssg70
g2146
sg63
(lp2158
S':'
asbag56
(g77
g58
NtRp2159
(dp2160
g61
(dp2161
sg70
g2146
sg63
(lp2162
g56
(g57
g58
NtRp2163
(dp2164
g61
(dp2165
g69
I5
ssg70
g2159
sg63
(lp2166
S'scrum/127.0.0.1.2011-09-12.15-08-45.c5986cd1-7379-44ac-bd27-91eb4b7ac18a'
p2167
asbasbasbag56
(g72
g58
NtRp2168
(dp2169
g61
(dp2170
sg70
g66
sg63
(lp2171
g56
(g77
g58
NtRp2172
(dp2173
g61
(dp2174
g81
g82
ssg70
g2168
sg63
(lp2175
S'vars'
p2176
asbag56
(g77
g58
NtRp2177
(dp2178
g61
(dp2179
g88
g89
ssg70
g2168
sg63
(lp2180
S':'
asbag56
(g77
g58
NtRp2181
(dp2182
g61
(dp2183
sg70
g2168
sg63
(lp2184
g56
(g57
g58
NtRp2185
(dp2186
g61
(dp2187
g69
I5
ssg70
g2181
sg63
(lp2188
g56
(g65
g58
NtRp2189
(dp2190
g61
(dp2191
g69
I4
ssg70
Nsg63
(lp2192
sbasbasbasbag56
(g72
g58
NtRp2193
(dp2194
g61
(dp2195
sg70
g66
sg63
(lp2196
g56
(g77
g58
NtRp2197
(dp2198
g61
(dp2199
g81
g82
ssg70
g2193
sg63
(lp2200
S'wsgi'
p2201
asbag56
(g77
g58
NtRp2202
(dp2203
g61
(dp2204
g88
g89
ssg70
g2193
sg63
(lp2205
S':'
asbag56
(g77
g58
NtRp2206
(dp2207
g61
(dp2208
sg70
g2193
sg63
(lp2209
g56
(g57
g58
NtRp2210
(dp2211
g61
(dp2212
g69
I5
ssg70
g2206
sg63
(lp2213
g56
(g65
g58
NtRp2214
(dp2215
g61
(dp2216
g69
I4
ssg70
Nsg63
(lp2217
g56
(g72
g58
NtRp2218
(dp2219
g61
(dp2220
sg70
g2214
sg63
(lp2221
g56
(g77
g58
NtRp2222
(dp2223
g61
(dp2224
g81
g82
ssg70
g2218
sg63
(lp2225
S'environ'
p2226
asbag56
(g77
g58
NtRp2227
(dp2228
g61
(dp2229
g88
g89
ssg70
g2218
sg63
(lp2230
S':'
asbag56
(g77
g58
NtRp2231
(dp2232
g61
(dp2233
sg70
g2218
sg63
(lp2234
g56
(g57
g58
NtRp2235
(dp2236
g61
(dp2237
g69
I4
ssg70
g2231
sg63
(lp2238
g56
(g65
g58
NtRp2239
(dp2240
g61
(dp2241
g69
I3
ssg70
Nsg63
(lp2242
g56
(g72
g58
NtRp2243
(dp2244
g61
(dp2245
sg70
g2239
sg63
(lp2246
g56
(g77
g58
NtRp2247
(dp2248
g61
(dp2249
g81
g82
ssg70
g2243
sg63
(lp2250
S'DOCUMENT_ROOT'
p2251
asbag56
(g77
g58
NtRp2252
(dp2253
g61
(dp2254
g88
g89
ssg70
g2243
sg63
(lp2255
S':'
asbag56
(g77
g58
NtRp2256
(dp2257
g61
(dp2258
sg70
g2243
sg63
(lp2259
g56
(g57
g58
NtRp2260
(dp2261
g61
(dp2262
g69
I3
ssg70
g2256
sg63
(lp2263
g760
asbasbasbag56
(g72
g58
NtRp2264
(dp2265
g61
(dp2266
sg70
g2239
sg63
(lp2267
g56
(g77
g58
NtRp2268
(dp2269
g61
(dp2270
g81
g82
ssg70
g2264
sg63
(lp2271
S'GATEWAY_INTERFACE'
p2272
asbag56
(g77
g58
NtRp2273
(dp2274
g61
(dp2275
g88
g89
ssg70
g2264
sg63
(lp2276
S':'
asbag56
(g77
g58
NtRp2277
(dp2278
g61
(dp2279
sg70
g2264
sg63
(lp2280
g56
(g57
g58
NtRp2281
(dp2282
g61
(dp2283
g69
I3
ssg70
g2277
sg63
(lp2284
g782
asbasbasbag56
(g72
g58
NtRp2285
(dp2286
g61
(dp2287
sg70
g2239
sg63
(lp2288
g56
(g77
g58
NtRp2289
(dp2290
g61
(dp2291
g81
g82
ssg70
g2285
sg63
(lp2292
S'HTTPS'
p2293
asbag56
(g77
g58
NtRp2294
(dp2295
g61
(dp2296
g88
g89
ssg70
g2285
sg63
(lp2297
S':'
asbag56
(g77
g58
NtRp2298
(dp2299
g61
(dp2300
sg70
g2285
sg63
(lp2301
g56
(g57
g58
NtRp2302
(dp2303
g61
(dp2304
g69
I3
ssg70
g2298
sg63
(lp2305
S'1'
asbasbasbag56
(g72
g58
NtRp2306
(dp2307
g61
(dp2308
sg70
g2239
sg63
(lp2309
g56
(g77
g58
NtRp2310
(dp2311
g61
(dp2312
g81
g82
ssg70
g2306
sg63
(lp2313
S'HTTP_ACCEPT'
p2314
asbag56
(g77
g58
NtRp2315
(dp2316
g61
(dp2317
g88
g89
ssg70
g2306
sg63
(lp2318
S':'
asbag56
(g77
g58
NtRp2319
(dp2320
g61
(dp2321
sg70
g2306
sg63
(lp2322
g56
(g57
g58
NtRp2323
(dp2324
g61
(dp2325
g69
I3
ssg70
g2319
sg63
(lp2326
g825
asbasbasbag56
(g72
g58
NtRp2327
(dp2328
g61
(dp2329
sg70
g2239
sg63
(lp2330
g56
(g77
g58
NtRp2331
(dp2332
g61
(dp2333
g81
g82
ssg70
g2327
sg63
(lp2334
S'HTTP_ACCEPT_ENCODING'
p2335
asbag56
(g77
g58
NtRp2336
(dp2337
g61
(dp2338
g88
g89
ssg70
g2327
sg63
(lp2339
S':'
asbag56
(g77
g58
NtRp2340
(dp2341
g61
(dp2342
sg70
g2327
sg63
(lp2343
g56
(g57
g58
NtRp2344
(dp2345
g61
(dp2346
g69
I3
ssg70
g2340
sg63
(lp2347
g847
asbasbasbag56
(g72
g58
NtRp2348
(dp2349
g61
(dp2350
sg70
g2239
sg63
(lp2351
g56
(g77
g58
NtRp2352
(dp2353
g61
(dp2354
g81
g82
ssg70
g2348
sg63
(lp2355
S'HTTP_ACCEPT_LANGUAGE'
p2356
asbag56
(g77
g58
NtRp2357
(dp2358
g61
(dp2359
g88
g89
ssg70
g2348
sg63
(lp2360
S':'
asbag56
(g77
g58
NtRp2361
(dp2362
g61
(dp2363
sg70
g2348
sg63
(lp2364
g56
(g57
g58
NtRp2365
(dp2366
g61
(dp2367
g69
I3
ssg70
g2361
sg63
(lp2368
g869
asbasbasbag56
(g72
g58
NtRp2369
(dp2370
g61
(dp2371
sg70
g2239
sg63
(lp2372
g56
(g77
g58
NtRp2373
(dp2374
g61
(dp2375
g81
g82
ssg70
g2369
sg63
(lp2376
S'HTTP_CACHE_CONTROL'
p2377
asbag56
(g77
g58
NtRp2378
(dp2379
g61
(dp2380
g88
g89
ssg70
g2369
sg63
(lp2381
S':'
asbag56
(g77
g58
NtRp2382
(dp2383
g61
(dp2384
sg70
g2369
sg63
(lp2385
g56
(g57
g58
NtRp2386
(dp2387
g61
(dp2388
g69
I3
ssg70
g2382
sg63
(lp2389
g891
asbasbasbag56
(g72
g58
NtRp2390
(dp2391
g61
(dp2392
sg70
g2239
sg63
(lp2393
g56
(g77
g58
NtRp2394
(dp2395
g61
(dp2396
g81
g82
ssg70
g2390
sg63
(lp2397
S'HTTP_CONNECTION'
p2398
asbag56
(g77
g58
NtRp2399
(dp2400
g61
(dp2401
g88
g89
ssg70
g2390
sg63
(lp2402
S':'
asbag56
(g77
g58
NtRp2403
(dp2404
g61
(dp2405
sg70
g2390
sg63
(lp2406
g56
(g57
g58
NtRp2407
(dp2408
g61
(dp2409
g69
I3
ssg70
g2403
sg63
(lp2410
g913
asbasbasbag56
(g72
g58
NtRp2411
(dp2412
g61
(dp2413
sg70
g2239
sg63
(lp2414
g56
(g77
g58
NtRp2415
(dp2416
g61
(dp2417
g81
g82
ssg70
g2411
sg63
(lp2418
S'HTTP_COOKIE'
p2419
asbag56
(g77
g58
NtRp2420
(dp2421
g61
(dp2422
g88
g89
ssg70
g2411
sg63
(lp2423
S':'
asbag56
(g77
g58
NtRp2424
(dp2425
g61
(dp2426
sg70
g2411
sg63
(lp2427
g56
(g57
g58
NtRp2428
(dp2429
g61
(dp2430
g69
I3
ssg70
g2424
sg63
(lp2431
g935
asbasbasbag56
(g72
g58
NtRp2432
(dp2433
g61
(dp2434
sg70
g2239
sg63
(lp2435
g56
(g77
g58
NtRp2436
(dp2437
g61
(dp2438
g81
g82
ssg70
g2432
sg63
(lp2439
S'HTTP_HOST'
p2440
asbag56
(g77
g58
NtRp2441
(dp2442
g61
(dp2443
g88
g89
ssg70
g2432
sg63
(lp2444
S':'
asbag56
(g77
g58
NtRp2445
(dp2446
g61
(dp2447
sg70
g2432
sg63
(lp2448
g56
(g57
g58
NtRp2449
(dp2450
g61
(dp2451
g69
I3
ssg70
g2445
sg63
(lp2452
g957
asbasbasbag56
(g72
g58
NtRp2453
(dp2454
g61
(dp2455
sg70
g2239
sg63
(lp2456
g56
(g77
g58
NtRp2457
(dp2458
g61
(dp2459
g81
g82
ssg70
g2453
sg63
(lp2460
S'HTTP_REFERER'
p2461
asbag56
(g77
g58
NtRp2462
(dp2463
g61
(dp2464
g88
g89
ssg70
g2453
sg63
(lp2465
S':'
asbag56
(g77
g58
NtRp2466
(dp2467
g61
(dp2468
sg70
g2453
sg63
(lp2469
g56
(g57
g58
NtRp2470
(dp2471
g61
(dp2472
g69
I3
ssg70
g2466
sg63
(lp2473
g979
asbasbasbag56
(g72
g58
NtRp2474
(dp2475
g61
(dp2476
sg70
g2239
sg63
(lp2477
g56
(g77
g58
NtRp2478
(dp2479
g61
(dp2480
g81
g82
ssg70
g2474
sg63
(lp2481
S'HTTP_USER_AGENT'
p2482
asbag56
(g77
g58
NtRp2483
(dp2484
g61
(dp2485
g88
g89
ssg70
g2474
sg63
(lp2486
S':'
asbag56
(g77
g58
NtRp2487
(dp2488
g61
(dp2489
sg70
g2474
sg63
(lp2490
g56
(g57
g58
NtRp2491
(dp2492
g61
(dp2493
g69
I3
ssg70
g2487
sg63
(lp2494
g1001
asbasbasbag56
(g72
g58
NtRp2495
(dp2496
g61
(dp2497
sg70
g2239
sg63
(lp2498
g56
(g77
g58
NtRp2499
(dp2500
g61
(dp2501
g81
g82
ssg70
g2495
sg63
(lp2502
S'PATH_INFO'
p2503
asbag56
(g77
g58
NtRp2504
(dp2505
g61
(dp2506
g88
g89
ssg70
g2495
sg63
(lp2507
S':'
asbag56
(g77
g58
NtRp2508
(dp2509
g61
(dp2510
sg70
g2495
sg63
(lp2511
g56
(g57
g58
NtRp2512
(dp2513
g61
(dp2514
g69
I3
ssg70
g2508
sg63
(lp2515
g1308
asbasbasbag56
(g72
g58
NtRp2516
(dp2517
g61
(dp2518
sg70
g2239
sg63
(lp2519
g56
(g77
g58
NtRp2520
(dp2521
g61
(dp2522
g81
g82
ssg70
g2516
sg63
(lp2523
S'PATH_TRANSLATED'
p2524
asbag56
(g77
g58
NtRp2525
(dp2526
g61
(dp2527
g88
g89
ssg70
g2516
sg63
(lp2528
S':'
asbag56
(g77
g58
NtRp2529
(dp2530
g61
(dp2531
sg70
g2516
sg63
(lp2532
g56
(g57
g58
NtRp2533
(dp2534
g61
(dp2535
g69
I3
ssg70
g2529
sg63
(lp2536
g1330
asbasbasbag56
(g72
g58
NtRp2537
(dp2538
g61
(dp2539
sg70
g2239
sg63
(lp2540
g56
(g77
g58
NtRp2541
(dp2542
g61
(dp2543
g81
g82
ssg70
g2537
sg63
(lp2544
S'QUERY_STRING'
p2545
asbag56
(g77
g58
NtRp2546
(dp2547
g61
(dp2548
g88
g89
ssg70
g2537
sg63
(lp2549
S':'
asbag56
(g77
g58
NtRp2550
(dp2551
g61
(dp2552
sg70
g2537
sg63
(lp2553
g56
(g57
g58
NtRp2554
(dp2555
g61
(dp2556
g69
I3
ssg70
g2550
sg63
(lp2557
S''
asbasbasbag56
(g72
g58
NtRp2558
(dp2559
g61
(dp2560
sg70
g2239
sg63
(lp2561
g56
(g77
g58
NtRp2562
(dp2563
g61
(dp2564
g81
g82
ssg70
g2558
sg63
(lp2565
S'REMOTE_ADDR'
p2566
asbag56
(g77
g58
NtRp2567
(dp2568
g61
(dp2569
g88
g89
ssg70
g2558
sg63
(lp2570
S':'
asbag56
(g77
g58
NtRp2571
(dp2572
g61
(dp2573
sg70
g2558
sg63
(lp2574
g56
(g57
g58
NtRp2575
(dp2576
g61
(dp2577
g69
I3
ssg70
g2571
sg63
(lp2578
g201
asbasbasbag56
(g72
g58
NtRp2579
(dp2580
g61
(dp2581
sg70
g2239
sg63
(lp2582
g56
(g77
g58
NtRp2583
(dp2584
g61
(dp2585
g81
g82
ssg70
g2579
sg63
(lp2586
S'REMOTE_PORT'
p2587
asbag56
(g77
g58
NtRp2588
(dp2589
g61
(dp2590
g88
g89
ssg70
g2579
sg63
(lp2591
S':'
asbag56
(g77
g58
NtRp2592
(dp2593
g61
(dp2594
sg70
g2579
sg63
(lp2595
g56
(g57
g58
NtRp2596
(dp2597
g61
(dp2598
g69
I3
ssg70
g2592
sg63
(lp2599
g1394
asbasbasbag56
(g72
g58
NtRp2600
(dp2601
g61
(dp2602
sg70
g2239
sg63
(lp2603
g56
(g77
g58
NtRp2604
(dp2605
g61
(dp2606
g81
g82
ssg70
g2600
sg63
(lp2607
S'REQUEST_METHOD'
p2608
asbag56
(g77
g58
NtRp2609
(dp2610
g61
(dp2611
g88
g89
ssg70
g2600
sg63
(lp2612
S':'
asbag56
(g77
g58
NtRp2613
(dp2614
g61
(dp2615
sg70
g2600
sg63
(lp2616
g56
(g57
g58
NtRp2617
(dp2618
g61
(dp2619
g69
I3
ssg70
g2613
sg63
(lp2620
g1416
asbasbasbag56
(g72
g58
NtRp2621
(dp2622
g61
(dp2623
sg70
g2239
sg63
(lp2624
g56
(g77
g58
NtRp2625
(dp2626
g61
(dp2627
g81
g82
ssg70
g2621
sg63
(lp2628
S'REQUEST_URI'
p2629
asbag56
(g77
g58
NtRp2630
(dp2631
g61
(dp2632
g88
g89
ssg70
g2621
sg63
(lp2633
S':'
asbag56
(g77
g58
NtRp2634
(dp2635
g61
(dp2636
sg70
g2621
sg63
(lp2637
g56
(g57
g58
NtRp2638
(dp2639
g61
(dp2640
g69
I3
ssg70
g2634
sg63
(lp2641
g1438
asbasbasbag56
(g72
g58
NtRp2642
(dp2643
g61
(dp2644
sg70
g2239
sg63
(lp2645
g56
(g77
g58
NtRp2646
(dp2647
g61
(dp2648
g81
g82
ssg70
g2642
sg63
(lp2649
S'SCRIPT_FILENAME'
p2650
asbag56
(g77
g58
NtRp2651
(dp2652
g61
(dp2653
g88
g89
ssg70
g2642
sg63
(lp2654
S':'
asbag56
(g77
g58
NtRp2655
(dp2656
g61
(dp2657
sg70
g2642
sg63
(lp2658
g56
(g57
g58
NtRp2659
(dp2660
g61
(dp2661
g69
I3
ssg70
g2655
sg63
(lp2662
g1460
asbasbasbag56
(g72
g58
NtRp2663
(dp2664
g61
(dp2665
sg70
g2239
sg63
(lp2666
g56
(g77
g58
NtRp2667
(dp2668
g61
(dp2669
g81
g82
ssg70
g2663
sg63
(lp2670
S'SCRIPT_NAME'
p2671
asbag56
(g77
g58
NtRp2672
(dp2673
g61
(dp2674
g88
g89
ssg70
g2663
sg63
(lp2675
S':'
asbag56
(g77
g58
NtRp2676
(dp2677
g61
(dp2678
sg70
g2663
sg63
(lp2679
g56
(g57
g58
NtRp2680
(dp2681
g61
(dp2682
g69
I3
ssg70
g2676
sg63
(lp2683
S''
asbasbasbag56
(g72
g58
NtRp2684
(dp2685
g61
(dp2686
sg70
g2239
sg63
(lp2687
g56
(g77
g58
NtRp2688
(dp2689
g61
(dp2690
g81
g82
ssg70
g2684
sg63
(lp2691
S'SERVER_ADDR'
p2692
asbag56
(g77
g58
NtRp2693
(dp2694
g61
(dp2695
g88
g89
ssg70
g2684
sg63
(lp2696
S':'
asbag56
(g77
g58
NtRp2697
(dp2698
g61
(dp2699
sg70
g2684
sg63
(lp2700
g56
(g57
g58
NtRp2701
(dp2702
g61
(dp2703
g69
I3
ssg70
g2697
sg63
(lp2704
g1503
asbasbasbag56
(g72
g58
NtRp2705
(dp2706
g61
(dp2707
sg70
g2239
sg63
(lp2708
g56
(g77
g58
NtRp2709
(dp2710
g61
(dp2711
g81
g82
ssg70
g2705
sg63
(lp2712
S'SERVER_ADMIN'
p2713
asbag56
(g77
g58
NtRp2714
(dp2715
g61
(dp2716
g88
g89
ssg70
g2705
sg63
(lp2717
S':'
asbag56
(g77
g58
NtRp2718
(dp2719
g61
(dp2720
sg70
g2705
sg63
(lp2721
g56
(g57
g58
NtRp2722
(dp2723
g61
(dp2724
g69
I3
ssg70
g2718
sg63
(lp2725
g1525
asbasbasbag56
(g72
g58
NtRp2726
(dp2727
g61
(dp2728
sg70
g2239
sg63
(lp2729
g56
(g77
g58
NtRp2730
(dp2731
g61
(dp2732
g81
g82
ssg70
g2726
sg63
(lp2733
S'SERVER_NAME'
p2734
asbag56
(g77
g58
NtRp2735
(dp2736
g61
(dp2737
g88
g89
ssg70
g2726
sg63
(lp2738
S':'
asbag56
(g77
g58
NtRp2739
(dp2740
g61
(dp2741
sg70
g2726
sg63
(lp2742
g56
(g57
g58
NtRp2743
(dp2744
g61
(dp2745
g69
I3
ssg70
g2739
sg63
(lp2746
g1547
asbasbasbag56
(g72
g58
NtRp2747
(dp2748
g61
(dp2749
sg70
g2239
sg63
(lp2750
g56
(g77
g58
NtRp2751
(dp2752
g61
(dp2753
g81
g82
ssg70
g2747
sg63
(lp2754
S'SERVER_PORT'
p2755
asbag56
(g77
g58
NtRp2756
(dp2757
g61
(dp2758
g88
g89
ssg70
g2747
sg63
(lp2759
S':'
asbag56
(g77
g58
NtRp2760
(dp2761
g61
(dp2762
sg70
g2747
sg63
(lp2763
g56
(g57
g58
NtRp2764
(dp2765
g61
(dp2766
g69
I3
ssg70
g2760
sg63
(lp2767
g1569
asbasbasbag56
(g72
g58
NtRp2768
(dp2769
g61
(dp2770
sg70
g2239
sg63
(lp2771
g56
(g77
g58
NtRp2772
(dp2773
g61
(dp2774
g81
g82
ssg70
g2768
sg63
(lp2775
S'SERVER_PROTOCOL'
p2776
asbag56
(g77
g58
NtRp2777
(dp2778
g61
(dp2779
g88
g89
ssg70
g2768
sg63
(lp2780
S':'
asbag56
(g77
g58
NtRp2781
(dp2782
g61
(dp2783
sg70
g2768
sg63
(lp2784
g56
(g57
g58
NtRp2785
(dp2786
g61
(dp2787
g69
I3
ssg70
g2781
sg63
(lp2788
g1591
asbasbasbag56
(g72
g58
NtRp2789
(dp2790
g61
(dp2791
sg70
g2239
sg63
(lp2792
g56
(g77
g58
NtRp2793
(dp2794
g61
(dp2795
g81
g82
ssg70
g2789
sg63
(lp2796
S'SERVER_SIGNATURE'
p2797
asbag56
(g77
g58
NtRp2798
(dp2799
g61
(dp2800
g88
g89
ssg70
g2789
sg63
(lp2801
S':'
asbag56
(g77
g58
NtRp2802
(dp2803
g61
(dp2804
sg70
g2789
sg63
(lp2805
g56
(g57
g58
NtRp2806
(dp2807
g61
(dp2808
g69
I3
ssg70
g2802
sg63
(lp2809
g1613
asbasbasbag56
(g72
g58
NtRp2810
(dp2811
g61
(dp2812
sg70
g2239
sg63
(lp2813
g56
(g77
g58
NtRp2814
(dp2815
g61
(dp2816
g81
g82
ssg70
g2810
sg63
(lp2817
S'SERVER_SOFTWARE'
p2818
asbag56
(g77
g58
NtRp2819
(dp2820
g61
(dp2821
g88
g89
ssg70
g2810
sg63
(lp2822
S':'
asbag56
(g77
g58
NtRp2823
(dp2824
g61
(dp2825
sg70
g2810
sg63
(lp2826
g56
(g57
g58
NtRp2827
(dp2828
g61
(dp2829
g69
I3
ssg70
g2823
sg63
(lp2830
g1635
asbasbasbag56
(g72
g58
NtRp2831
(dp2832
g61
(dp2833
sg70
g2239
sg63
(lp2834
g56
(g77
g58
NtRp2835
(dp2836
g61
(dp2837
g81
g82
ssg70
g2831
sg63
(lp2838
S'SSL_TLS_SNI'
p2839
asbag56
(g77
g58
NtRp2840
(dp2841
g61
(dp2842
g88
g89
ssg70
g2831
sg63
(lp2843
S':'
asbag56
(g77
g58
NtRp2844
(dp2845
g61
(dp2846
sg70
g2831
sg63
(lp2847
g56
(g57
g58
NtRp2848
(dp2849
g61
(dp2850
g69
I3
ssg70
g2844
sg63
(lp2851
g1657
asbasbasbag56
(g72
g58
NtRp2852
(dp2853
g61
(dp2854
sg70
g2239
sg63
(lp2855
g56
(g77
g58
NtRp2856
(dp2857
g61
(dp2858
g81
g82
ssg70
g2852
sg63
(lp2859
S'mod_wsgi.application_group'
p2860
asbag56
(g77
g58
NtRp2861
(dp2862
g61
(dp2863
g88
g89
ssg70
g2852
sg63
(lp2864
S':'
asbag56
(g77
g58
NtRp2865
(dp2866
g61
(dp2867
sg70
g2852
sg63
(lp2868
g56
(g57
g58
NtRp2869
(dp2870
g61
(dp2871
g69
I3
ssg70
g2865
sg63
(lp2872
g1065
asbasbasbag56
(g72
g58
NtRp2873
(dp2874
g61
(dp2875
sg70
g2239
sg63
(lp2876
g56
(g77
g58
NtRp2877
(dp2878
g61
(dp2879
g81
g82
ssg70
g2873
sg63
(lp2880
S'mod_wsgi.callable_object'
p2881
asbag56
(g77
g58
NtRp2882
(dp2883
g61
(dp2884
g88
g89
ssg70
g2873
sg63
(lp2885
S':'
asbag56
(g77
g58
NtRp2886
(dp2887
g61
(dp2888
sg70
g2873
sg63
(lp2889
g56
(g57
g58
NtRp2890
(dp2891
g61
(dp2892
g69
I3
ssg70
g2886
sg63
(lp2893
g1087
asbasbasbag56
(g72
g58
NtRp2894
(dp2895
g61
(dp2896
sg70
g2239
sg63
(lp2897
g56
(g77
g58
NtRp2898
(dp2899
g61
(dp2900
g81
g82
ssg70
g2894
sg63
(lp2901
S'mod_wsgi.handler_script'
p2902
asbag56
(g77
g58
NtRp2903
(dp2904
g61
(dp2905
g88
g89
ssg70
g2894
sg63
(lp2906
S':'
asbag56
(g77
g58
NtRp2907
(dp2908
g61
(dp2909
sg70
g2894
sg63
(lp2910
g56
(g57
g58
NtRp2911
(dp2912
g61
(dp2913
g69
I3
ssg70
g2907
sg63
(lp2914
S''
asbasbasbag56
(g72
g58
NtRp2915
(dp2916
g61
(dp2917
sg70
g2239
sg63
(lp2918
g56
(g77
g58
NtRp2919
(dp2920
g61
(dp2921
g81
g82
ssg70
g2915
sg63
(lp2922
S'mod_wsgi.input_chunked'
p2923
asbag56
(g77
g58
NtRp2924
(dp2925
g61
(dp2926
g88
g89
ssg70
g2915
sg63
(lp2927
S':'
asbag56
(g77
g58
NtRp2928
(dp2929
g61
(dp2930
sg70
g2915
sg63
(lp2931
g56
(g57
g58
NtRp2932
(dp2933
g61
(dp2934
g69
I3
ssg70
g2928
sg63
(lp2935
S'0'
asbasbasbag56
(g72
g58
NtRp2936
(dp2937
g61
(dp2938
sg70
g2239
sg63
(lp2939
g56
(g77
g58
NtRp2940
(dp2941
g61
(dp2942
g81
g82
ssg70
g2936
sg63
(lp2943
S'mod_wsgi.listener_host'
p2944
asbag56
(g77
g58
NtRp2945
(dp2946
g61
(dp2947
g88
g89
ssg70
g2936
sg63
(lp2948
S':'
asbag56
(g77
g58
NtRp2949
(dp2950
g61
(dp2951
sg70
g2936
sg63
(lp2952
g56
(g57
g58
NtRp2953
(dp2954
g61
(dp2955
g69
I3
ssg70
g2949
sg63
(lp2956
S''
asbasbasbag56
(g72
g58
NtRp2957
(dp2958
g61
(dp2959
sg70
g2239
sg63
(lp2960
g56
(g77
g58
NtRp2961
(dp2962
g61
(dp2963
g81
g82
ssg70
g2957
sg63
(lp2964
S'mod_wsgi.listener_port'
p2965
asbag56
(g77
g58
NtRp2966
(dp2967
g61
(dp2968
g88
g89
ssg70
g2957
sg63
(lp2969
S':'
asbag56
(g77
g58
NtRp2970
(dp2971
g61
(dp2972
sg70
g2957
sg63
(lp2973
g56
(g57
g58
NtRp2974
(dp2975
g61
(dp2976
g69
I3
ssg70
g2970
sg63
(lp2977
g1172
asbasbasbag56
(g72
g58
NtRp2978
(dp2979
g61
(dp2980
sg70
g2239
sg63
(lp2981
g56
(g77
g58
NtRp2982
(dp2983
g61
(dp2984
g81
g82
ssg70
g2978
sg63
(lp2985
S'mod_wsgi.process_group'
p2986
asbag56
(g77
g58
NtRp2987
(dp2988
g61
(dp2989
g88
g89
ssg70
g2978
sg63
(lp2990
S':'
asbag56
(g77
g58
NtRp2991
(dp2992
g61
(dp2993
sg70
g2978
sg63
(lp2994
g56
(g57
g58
NtRp2995
(dp2996
g61
(dp2997
g69
I3
ssg70
g2991
sg63
(lp2998
g1194
asbasbasbag56
(g72
g58
NtRp2999
(dp3000
g61
(dp3001
sg70
g2239
sg63
(lp3002
g56
(g77
g58
NtRp3003
(dp3004
g61
(dp3005
g81
g82
ssg70
g2999
sg63
(lp3006
S'mod_wsgi.request_handler'
p3007
asbag56
(g77
g58
NtRp3008
(dp3009
g61
(dp3010
g88
g89
ssg70
g2999
sg63
(lp3011
S':'
asbag56
(g77
g58
NtRp3012
(dp3013
g61
(dp3014
sg70
g2999
sg63
(lp3015
g56
(g57
g58
NtRp3016
(dp3017
g61
(dp3018
g69
I3
ssg70
g3012
sg63
(lp3019
g1216
asbasbasbag56
(g72
g58
NtRp3020
(dp3021
g61
(dp3022
sg70
g2239
sg63
(lp3023
g56
(g77
g58
NtRp3024
(dp3025
g61
(dp3026
g81
g82
ssg70
g3020
sg63
(lp3027
S'mod_wsgi.script_reloading'
p3028
asbag56
(g77
g58
NtRp3029
(dp3030
g61
(dp3031
g88
g89
ssg70
g3020
sg63
(lp3032
S':'
asbag56
(g77
g58
NtRp3033
(dp3034
g61
(dp3035
sg70
g3020
sg63
(lp3036
g56
(g57
g58
NtRp3037
(dp3038
g61
(dp3039
g69
I3
ssg70
g3033
sg63
(lp3040
S'1'
asbasbasbag56
(g72
g58
NtRp3041
(dp3042
g61
(dp3043
sg70
g2239
sg63
(lp3044
g56
(g77
g58
NtRp3045
(dp3046
g61
(dp3047
g81
g82
ssg70
g3041
sg63
(lp3048
S'mod_wsgi.version'
p3049
asbag56
(g77
g58
NtRp3050
(dp3051
g61
(dp3052
g88
g89
ssg70
g3041
sg63
(lp3053
S':'
asbag56
(g77
g58
NtRp3054
(dp3055
g61
(dp3056
sg70
g3041
sg63
(lp3057
g56
(g57
g58
NtRp3058
(dp3059
g61
(dp3060
g69
I3
ssg70
g3054
sg63
(lp3061
g56
(g65
g58
NtRp3062
(dp3063
g61
(dp3064
g69
I2
ssg70
Nsg63
(lp3065
g56
(g72
g58
NtRp3066
(dp3067
g61
(dp3068
sg70
g3062
sg63
(lp3069
g56
(g77
g58
NtRp3070
(dp3071
g61
(dp3072
sg70
g3066
sg63
(lp3073
g56
(g57
g58
NtRp3074
(dp3075
g61
(dp3076
g69
I2
ssg70
g3070
sg63
(lp3077
S'3'
asbasbasbag56
(g72
g58
NtRp3078
(dp3079
g61
(dp3080
sg70
g3062
sg63
(lp3081
g56
(g77
g58
NtRp3082
(dp3083
g61
(dp3084
sg70
g3078
sg63
(lp3085
g56
(g57
g58
NtRp3086
(dp3087
g61
(dp3088
g69
I2
ssg70
g3082
sg63
(lp3089
S'3'
asbasbasbasbasbasbasbag56
(g72
g58
NtRp3090
(dp3091
g61
(dp3092
sg70
g2239
sg63
(lp3093
g56
(g77
g58
NtRp3094
(dp3095
g61
(dp3096
g81
g82
ssg70
g3090
sg63
(lp3097
S'wsgi.errors'
p3098
asbag56
(g77
g58
NtRp3099
(dp3100
g61
(dp3101
g88
g89
ssg70
g3090
sg63
(lp3102
S':'
asbag56
(g77
g58
NtRp3103
(dp3104
g61
(dp3105
sg70
g3090
sg63
(lp3106
g56
(g57
g58
NtRp3107
(dp3108
g61
(dp3109
g69
I3
ssg70
g3103
sg63
(lp3110
S'<mod_wsgi.Log object at 0xb9270250>'
p3111
asbasbasbag56
(g72
g58
NtRp3112
(dp3113
g61
(dp3114
sg70
g2239
sg63
(lp3115
g56
(g77
g58
NtRp3116
(dp3117
g61
(dp3118
g81
g82
ssg70
g3112
sg63
(lp3119
S'wsgi.file_wrapper'
p3120
asbag56
(g77
g58
NtRp3121
(dp3122
g61
(dp3123
g88
g89
ssg70
g3112
sg63
(lp3124
S':'
asbag56
(g77
g58
NtRp3125
(dp3126
g61
(dp3127
sg70
g3112
sg63
(lp3128
g56
(g57
g58
NtRp3129
(dp3130
g61
(dp3131
g69
I3
ssg70
g3125
sg63
(lp3132
S'<built-in method file_wrapper of mod_wsgi.Adapter object at 0xb910f8d8>'
p3133
asbasbasbag56
(g72
g58
NtRp3134
(dp3135
g61
(dp3136
sg70
g2239
sg63
(lp3137
g56
(g77
g58
NtRp3138
(dp3139
g61
(dp3140
g81
g82
ssg70
g3134
sg63
(lp3141
S'wsgi.input'
p3142
asbag56
(g77
g58
NtRp3143
(dp3144
g61
(dp3145
g88
g89
ssg70
g3134
sg63
(lp3146
S':'
asbag56
(g77
g58
NtRp3147
(dp3148
g61
(dp3149
sg70
g3134
sg63
(lp3150
g56
(g57
g58
NtRp3151
(dp3152
g61
(dp3153
g69
I3
ssg70
g3147
sg63
(lp3154
S'<cStringIO.StringO object at 0xb907c380>'
p3155
asbasbasbag56
(g72
g58
NtRp3156
(dp3157
g61
(dp3158
sg70
g2239
sg63
(lp3159
g56
(g77
g58
NtRp3160
(dp3161
g61
(dp3162
g81
g82
ssg70
g3156
sg63
(lp3163
S'wsgi.multiprocess'
p3164
asbag56
(g77
g58
NtRp3165
(dp3166
g61
(dp3167
g88
g89
ssg70
g3156
sg63
(lp3168
S':'
asbag56
(g77
g58
NtRp3169
(dp3170
g61
(dp3171
sg70
g3156
sg63
(lp3172
g56
(g57
g58
NtRp3173
(dp3174
g61
(dp3175
g69
I3
ssg70
g3169
sg63
(lp3176
g99
asbasbasbag56
(g72
g58
NtRp3177
(dp3178
g61
(dp3179
sg70
g2239
sg63
(lp3180
g56
(g77
g58
NtRp3181
(dp3182
g61
(dp3183
g81
g82
ssg70
g3177
sg63
(lp3184
S'wsgi.multithread'
p3185
asbag56
(g77
g58
NtRp3186
(dp3187
g61
(dp3188
g88
g89
ssg70
g3177
sg63
(lp3189
S':'
asbag56
(g77
g58
NtRp3190
(dp3191
g61
(dp3192
sg70
g3177
sg63
(lp3193
g56
(g57
g58
NtRp3194
(dp3195
g61
(dp3196
g69
I3
ssg70
g3190
sg63
(lp3197
g1809
asbasbasbag56
(g72
g58
NtRp3198
(dp3199
g61
(dp3200
sg70
g2239
sg63
(lp3201
g56
(g77
g58
NtRp3202
(dp3203
g61
(dp3204
g81
g82
ssg70
g3198
sg63
(lp3205
S'wsgi.run_once'
p3206
asbag56
(g77
g58
NtRp3207
(dp3208
g61
(dp3209
g88
g89
ssg70
g3198
sg63
(lp3210
S':'
asbag56
(g77
g58
NtRp3211
(dp3212
g61
(dp3213
sg70
g3198
sg63
(lp3214
g56
(g57
g58
NtRp3215
(dp3216
g61
(dp3217
g69
I3
ssg70
g3211
sg63
(lp3218
g99
asbasbasbag56
(g72
g58
NtRp3219
(dp3220
g61
(dp3221
sg70
g2239
sg63
(lp3222
g56
(g77
g58
NtRp3223
(dp3224
g61
(dp3225
g81
g82
ssg70
g3219
sg63
(lp3226
S'wsgi.url_scheme'
p3227
asbag56
(g77
g58
NtRp3228
(dp3229
g61
(dp3230
g88
g89
ssg70
g3219
sg63
(lp3231
S':'
asbag56
(g77
g58
NtRp3232
(dp3233
g61
(dp3234
sg70
g3219
sg63
(lp3235
g56
(g57
g58
NtRp3236
(dp3237
g61
(dp3238
g69
I3
ssg70
g3232
sg63
(lp3239
g1852
asbasbasbag56
(g72
g58
NtRp3240
(dp3241
g61
(dp3242
sg70
g2239
sg63
(lp3243
g56
(g77
g58
NtRp3244
(dp3245
g61
(dp3246
g81
g82
ssg70
g3240
sg63
(lp3247
S'wsgi.version'
p3248
asbag56
(g77
g58
NtRp3249
(dp3250
g61
(dp3251
g88
g89
ssg70
g3240
sg63
(lp3252
S':'
asbag56
(g77
g58
NtRp3253
(dp3254
g61
(dp3255
sg70
g3240
sg63
(lp3256
g56
(g57
g58
NtRp3257
(dp3258
g61
(dp3259
g69
I3
ssg70
g3253
sg63
(lp3260
S'1'
asbasbasbasbasbasbasbasbasbasbasbasbasbsS'frames'
p3261
(lp3262
(dp3263
S'file'
p3264
S'/home/www-data/web2py/gluon/restricted.py'
p3265
sS'dump'
p3266
(dp3267
S'environment'
p3268
S"{'A': <class 'gluon.html.A'>, 'Auth': <class 'gluon.tools.Auth'>, 'B': <class 'gluon.html.B'>, 'BEAUTIFY': <class 'gluon.html.BEAUTIFY'>, 'BODY': <class 'gluon.html.BODY'>, 'BR': <class 'gluon.html.BR'>, 'BRAZILIAN_DATE': <gluon.validators.IS_DATE object>, 'BUTTON': <class 'gluon.html.BUTTON'>, 'CAT': <class 'gluon.html.CAT'>, 'CENTER': <class 'gluon.html.CENTER'>, ...}"
p3269
sS'ccode'
p3270
S'<code object <module> at 0xb91fe260, file "/home...ions/scrum/views/ticket/form_teste.html", line 1>'
p3271
ssS'lnum'
p3272
I192
sS'lines'
p3273
(dp3274
I192
S'        exec ccode in environment'
p3275
sI193
S'    except HTTP:'
p3276
sI194
S'        raise'
p3277
sI195
S'    except Exception, error:'
p3278
sI196
S'        # XXX Show exception in Wing IDE if running in debugger'
p3279
sI187
S'    try:'
p3280
sI188
S'        if type(code) == types.CodeType:'
p3281
sI189
S'            ccode = code'
p3282
sI190
S'        else:'
p3283
sI191
S'            ccode = compile2(code,layer)'
p3284
ssS'call'
p3285
S'(code=r"response.write(\'<TABLE WIDTH=696 CELLPADDING=0 C...>\\n\\t\\t</TD>\\n\\t</TR>\\n</TABLE>\\n\', escape=False)", environment={\'A\': <class \'gluon.html.A\'>, \'Auth\': <class \'gluon.tools.Auth\'>, \'B\': <class \'gluon.html.B\'>, \'BEAUTIFY\': <class \'gluon.html.BEAUTIFY\'>, \'BODY\': <class \'gluon.html.BODY\'>, \'BR\': <class \'gluon.html.BR\'>, \'BRAZILIAN_DATE\': <gluon.validators.IS_DATE object>, \'BUTTON\': <class \'gluon.html.BUTTON\'>, \'CAT\': <class \'gluon.html.CAT\'>, \'CENTER\': <class \'gluon.html.CENTER\'>, ...}, layer=\'/home/www-data/web2py/applications/scrum/views/ticket/form_teste.html\')'
p3286
sS'func'
p3287
S'restricted'
p3288
sa(dp3289
g3264
S'/home/www-data/web2py/applications/scrum/views/ticket/form_teste.html'
p3290
sg3266
(dp3291
S'FONT'
p3292
S'undefined'
p3293
sS'P'
S"<class 'gluon.html.P'>"
p3294
sS'B'
S"<class 'gluon.html.B'>"
p3295
sS'DE'
p3296
g3293
sS'TESTE'
p3297
g3293
ssg3272
I6
sg3273
(dp3298
I1
S'response.write(\'<TABLE WIDTH=696 CELLPADDING=0 CELLSPACING=0 STYLE="page-break-before: always">\\n\\t<TR>\\n\\t\\t<TD COLSPAN=14 WIDTH=694 VALIGN=TOP STYLE="; border: 1px solid #000000; padding: 0cm">\\n\\t\\t\\t<P CLASS="table-contents-western" ALIGN=CENTER STYLE="margin-top: 0.1cm; background: #e6e6e6">\\n\\t\\t\\t<FONT FACE="Trebuchet MS, sans-serif"><FONT SIZE=2><B>FORMUL\\xc3\\x81RIO\\n\\t\\t\\tDE TESTE</B></FONT></FONT></P>\\n\\t\\t</TD>\\n\\t</TR>\\n\\t<TR>\\n\\t\\t<TD COLSPAN=2 WIDTH=74 HEIGHT=14 STYLE="; border-top: 1px solid #000000; border-bottom: 1px solid #000000; border-left: 1px solid #000000; border-right: none; padding: 0cm">\\n\\t\\t\\t<P CLASS="western" STYLE="widows: 2; orphans: 2"><FONT FACE="Trebuchet MS, sans-serif"><FONT SIZE=1 STYLE="font-size: 8pt"><B>SPRINT: \', escape=False)'
p3299
sI2
S'response.write(ticket.sprint.numero)'
p3300
sI3
S'response.write(\'</B>\\n\\t\\t\\t</FONT></FONT>\\n\\t\\t\\t</P>\\n\\t\\t</TD>\\n\\t\\t<TD COLSPAN=6 WIDTH=254 STYLE="; border-top: 1px solid #000000; border-bottom: 1px solid #000000; border-left: 1px solid #000000; border-right: none; padding: 0cm">\\n\\t\\t\\t<P CLASS="western" STYLE="widows: 2; orphans: 2"><FONT face="Trebuchet MS, sans-serif"><FONT size=1 style="font-size: 8pt">Tipo:\\n\\t\\t\\t</FONT></FONT><FONT face="Trebuchet MS, sans-serif"><FONT SIZE=1 STYLE="font-size: 8pt"></FONT></FONT><FONT FACE="Trebuchet MS, sans-serif"></FONT></P>\\n\\t\\t</TD>\\n\\t\\t<TD COLSPAN=4 WIDTH=206 STYLE="; border-top: 1px solid #000000; border-bottom: 1px solid #000000; border-left: 1px solid #000000; border-right: none; padding: 0cm">\\n\\t\\t\\t<P CLASS="western" STYLE="widows: 2; orphans: 2"><FONT FACE="Trebuchet MS, sans-serif"><FONT SIZE=1 STYLE="font-size: 8pt">Cliente:\\n\\t\\t\\t </FONT></FONT></P>\\n\\t\\t</TD>\\n\\t\\t<TD COLSPAN=2 WIDTH=161 STYLE="; border: 1px solid #000000; padding: 0cm">\\n\\t\\t\\t<P CLASS="western" STYLE="widows: 2; orphans: 2"><FONT FACE="Trebuchet MS, sans-serif"><FONT SIZE=2><B>CHAMADO:</B></FONT></FONT>\\n\\t\\t\\t</P>\\n\\t\\t</TD>\\n\\t</TR>\\n\\t<TR>\\n\\t\\t<TD COLSPAN=11 WIDTH=423 HEIGHT=19 STYLE="; border-top: 1px solid #000000; border-bottom: 1px solid #000000; border-left: 1px solid #000000; border-right: none; padding: 0cm">\\n\\t\\t\\t<P CLASS="western" ALIGN=CENTER STYLE="widows: 2; orphans: 2"><FONT FACE="Trebuchet MS, sans-serif"><FONT SIZE=1 STYLE="font-size: 8pt">[ ]Desenvolvimento/teste\\n\\t\\t\\t  [ ]Re-desenvolvimento/Re-teste</FONT></FONT></P>\\n\\t\\t</TD>\\n\\t\\t<TD COLSPAN=3 WIDTH=271 STYLE="; border: 1px solid #000000; padding: 0cm">\\n\\t\\t\\t<P CLASS="western" ALIGN=CENTER STYLE="widows: 2; orphans: 2"><FONT FACE="Trebuchet MS, sans-serif">Sistema:<FONT SIZE=1 STYLE="font-size: 8pt"></FONT></FONT></P>\\n\\t\\t</TD>\\n\\t</TR>\\n\\t<TR>\\n\\t\\t<TD ROWSPAN=8 WIDTH=35 STYLE="; border-top: 1px solid #000000; border-bottom: 1px solid #000000; border-left: 1px solid #000000; border-right: none; padding: 0cm">\\n\\t\\t\\t<P CLASS="table-contents-western" ALIGN=CENTER STYLE="margin-left: 0.2cm; margin-right: 0.2cm">\\n\\t\\t\\t<FONT FACE="Tahoma, sans-serif"><FONT SIZE=4><B>D<br>E<br>S<br>E<br>N<br>V<br>O<br>L<br>V<br>I<br>M<br>E<br>N<br>T<br>O</B></FONT></FONT></P>\\n\\t\\t</TD>\\n\\t\\t<TD COLSPAN=13 WIDTH=659 VALIGN=TOP STYLE="; border: 1px solid #000000; padding: 0cm">\\n\\t\\t\\t<P CLASS="western" STYLE="widows: 2; orphans: 2"><FONT FACE="Trebuchet MS, sans-serif"><FONT SIZE=1 STYLE="font-size: 8pt">Nome do analista:\', escape=False)'
p3301
sI4
S'response.write(ticket.analista.first_name)'
p3302
sI5
S'response.write(\' <B> </B></FONT></FONT></P>\\n\\t\\t</TD>\\n\\t</TR>\\n\\t<TR>\\n\\t\\t<TD COLSPAN=4 WIDTH=172 VALIGN=TOP STYLE="; border-top: 1px solid #000000; border-bottom: 1px solid #000000; border-left: 1px solid #000000; border-right: none; padding: 0cm">\\n\\t\\t\\t<P CLASS="western" STYLE="widows: 2; orphans: 2"><FONT FACE="Trebuchet MS, sans-serif"><FONT SIZE=1 STYLE="font-size: 8pt">Data In\\xc3\\xadcio:\', escape=False)'
p3303
sI6
S'response.write(ticket.inicio)'
p3304
sI7
S'response.write(\'</FONT></FONT>\\n\\t\\t\\t</P>\\n\\t\\t</TD>\\n\\t\\t<TD COLSPAN=5 WIDTH=168 VALIGN=TOP STYLE="; border-top: 1px solid #000000; border-bottom: 1px solid #000000; border-left: 1px solid #000000; border-right: none; padding: 0cm">\\n\\t\\t\\t<P CLASS="western" STYLE="widows: 2; orphans: 2"><FONT FACE="Trebuchet MS, sans-serif"><FONT SIZE=1 STYLE="font-size: 8pt">Hora\\n\\t\\t\\tIn\\xc3\\xadcio: </FONT></FONT>\\n\\t\\t\\t</P>\\n\\t\\t</TD>\\n\\t\\t<TD COLSPAN=2 WIDTH=158 VALIGN=TOP STYLE="; border-top: 1px solid #000000; border-bottom: 1px solid #000000; border-left: 1px solid #000000; border-right: none; padding: 0cm">\\n\\t\\t\\t<P CLASS="western" STYLE="widows: 2; orphans: 2"><FONT FACE="Trebuchet MS, sans-serif"><FONT SIZE=1 STYLE="font-size: 8pt">Data Fim:\', escape=False)'
p3305
sI8
S'response.write(ticket.fim)'
p3306
sI9
S'response.write(\' </FONT></FONT><FONT FACE="Trebuchet MS, sans-serif"><FONT SIZE=1 STYLE="font-size: 8pt"><SDFIELD TYPE=DATETIME SDVAL="40795,7223842593" SDNUM="1046;1046;DD/MM/AAAA">09/09/2011</SDFIELD></FONT></FONT></P>\\n\\t\\t</TD>\\n\\t\\t<TD COLSPAN=2 WIDTH=161 VALIGN=TOP STYLE="; border: 1px solid #000000; padding: 0cm">\\n\\t\\t\\t<P CLASS="western" STYLE="widows: 2; orphans: 2"><FONT FACE="Trebuchet MS, sans-serif"><FONT SIZE=1 STYLE="font-size: 8pt">Hora\\n\\t\\t\\tFim: <SDFIELD TYPE=DATETIME SDVAL="40795,7223842593" SDNUM="1046;1046;HH:MM">17:20</SDFIELD></FONT></FONT></P>\\n\\t\\t</TD>\\n\\t</TR>\\n\\t<TR>\\n\\t\\t<TD COLSPAN=13 WIDTH=659 VALIGN=TOP STYLE="; border: 1px solid #000000; padding: 0cm">\\n\\t\\t\\t<P CLASS="western" STYLE="widows: 2; orphans: 2"><FONT FACE="Trebuchet MS, sans-serif"><FONT SIZE=1 STYLE="font-size: 8pt">Descri\\xc3\\xa7\\xc3\\xa3o\\n\\t\\t\\tanalista: </FONT></FONT>\\n\\t\\t\\t</P>\\n\\t\\t</TD>\\n\\t</TR>\\n\\t<TR>\\n\\t\\t<TD COLSPAN=13 WIDTH=659 VALIGN=TOP STYLE="; border: 1px solid #000000; padding: 0cm">\\n\\t\\t\\t<P CLASS="table-contents-western" STYLE="margin-bottom: 0.11cm"><BR><BR>\\n\\t\\t\\t</P>\\n\\t\\t\\t<TABLE WIDTH=656 CELLPADDING=0 CELLSPACING=0>\\n\\t\\t\\t\\t<COL WIDTH=86>\\n\\t\\t\\t\\t<COL WIDTH=213>\\n\\t\\t\\t\\t<COL WIDTH=354>\\n\\t\\t\\t\\t<TR VALIGN=TOP>\\n\\t\\t\\t\\t\\t<TD WIDTH=86 BGCOLOR="#e6e6e6" STYLE="border-top: 1px solid #000000; border-bottom: 1px solid #000000; border-left: 1px solid #000000; border-right: none; padding: 0cm">\\n\\t\\t\\t\\t\\t\\t<P CLASS="western" STYLE="widows: 2; orphans: 2"><FONT FACE="Trebuchet MS, sans-serif"><FONT SIZE=1 STYLE="font-size: 8pt">M\\xc3\\xb3dulo</FONT></FONT></P>\\n\\t\\t\\t\\t\\t</TD>\\n\\t\\t\\t\\t\\t<TD WIDTH=213 BGCOLOR="#e6e6e6" STYLE="border-top: 1px solid #000000; border-bottom: 1px solid #000000; border-left: 1px solid #000000; border-right: none; padding: 0cm">\\n\\t\\t\\t\\t\\t\\t<P CLASS="western" STYLE="widows: 2; orphans: 2"><FONT FACE="Trebuchet MS, sans-serif"><FONT SIZE=1 STYLE="font-size: 8pt">Nome\\n\\t\\t\\t\\t\\t\\tda Rotina:</FONT></FONT></P>\\n\\t\\t\\t\\t\\t</TD>\\n\\t\\t\\t\\t\\t<TD WIDTH=354 BGCOLOR="#e6e6e6" STYLE="border: 1px solid #000000; padding: 0cm">\\n\\t\\t\\t\\t\\t\\t<P CLASS="western" STYLE="widows: 2; orphans: 2"><FONT FACE="Trebuchet MS, sans-serif"><FONT SIZE=1 STYLE="font-size: 8pt">Menu\\n\\t\\t\\t\\t\\t\\tda Rotina:</FONT></FONT></P>\\n\\t\\t\\t\\t\\t</TD>\\n\\t\\t\\t\\t</TR>\\n\\t\\t\\t\\t<TR VALIGN=TOP>\\n\\t\\t\\t\\t\\t<TD WIDTH=86 STYLE="; border-top: none; border-bottom: 1px solid #000000; border-left: 1px solid #000000; border-right: none; padding: 0cm">\\n\\t\\t\\t\\t\\t\\t<P CLASS="western" STYLE="widows: 2; orphans: 2">\\n              \\n            </P>\\n\\t\\t\\t\\t\\t</TD>\\n\\t\\t\\t\\t\\t<TD WIDTH=213 STYLE="; border-top: none; border-bottom: 1px solid #000000; border-left: 1px solid #000000; border-right: none; padding: 0cm">\\n\\t\\t\\t\\t\\t\\t<P CLASS="western" STYLE="widows: 2; orphans: 2"><BR>\\n\\t\\t\\t\\t\\t\\t</P>\\n\\t\\t\\t\\t\\t</TD>\\n\\t\\t\\t\\t\\t<TD WIDTH=354 STYLE="; border-top: none; border-bottom: 1px solid #000000; border-left: 1px solid #000000; border-right: 1px solid #000000; padding: 0cm">\\n\\t\\t\\t\\t\\t\\t<P CLASS="western" STYLE="widows: 2; orphans: 2"><BR>\\n\\t\\t\\t\\t\\t\\t</P>\\n\\t\\t\\t\\t\\t</TD>\\n\\t\\t\\t\\t</TR>\\n\\t\\t\\t</TABLE>\\n\\t\\t\\t<P CLASS="table-contents-western"><BR><BR>\\n\\t\\t\\t</P>\\n\\t\\t</TD>\\n\\t</TR>\\n\\t<TR>\\n\\t\\t<TD COLSPAN=13 WIDTH=659 VALIGN=TOP STYLE="border: 1px solid #000000; padding: 0cm">\\n\\t\\t\\t<P CLASS="table-contents-western" STYLE="margin-bottom: 0.11cm"><BR><BR>\\n\\t\\t\\t</P>\\n\\t\\t\\t<TABLE WIDTH=656 CELLPADDING=0 CELLSPACING=0>\\n\\t\\t\\t\\t<COL WIDTH=91>\\n\\t\\t\\t\\t<COL WIDTH=434>\\n\\t\\t\\t\\t<COL WIDTH=74>\\n\\t\\t\\t\\t<COL WIDTH=54>\\n\\t\\t\\t\\t<TR VALIGN=TOP>\\n\\t\\t\\t\\t\\t<TD WIDTH=91 BGCOLOR="#e6e6e6" STYLE="border-top: 1px solid #000000; border-bottom: 1px solid #000000; border-left: 1px solid #000000; border-right: none; padding: 0cm">\\n\\t\\t\\t\\t\\t\\t<P CLASS="western" STYLE="widows: 2; orphans: 2"><FONT FACE="Trebuchet MS, sans-serif"><FONT SIZE=1 STYLE="font-size: 8pt">Pasta\\n\\t\\t\\t\\t\\t\\tRaiz:</FONT></FONT></P>\\n\\t\\t\\t\\t\\t</TD>\\n\\t\\t\\t\\t\\t<TD WIDTH=434 BGCOLOR="#e6e6e6" STYLE="border-top: 1px solid #000000; border-bottom: 1px solid #000000; border-left: 1px solid #000000; border-right: none; padding: 0cm">\\n\\t\\t\\t\\t\\t\\t<P CLASS="western" STYLE="widows: 2; orphans: 2"><FONT FACE="Trebuchet MS, sans-serif"><FONT SIZE=1 STYLE="font-size: 8pt">Formul\\xc3\\xa1rio\\n\\t\\t\\t\\t\\t\\tou Relat\\xc3\\xb3rio Alterado:</FONT></FONT></P>\\n\\t\\t\\t\\t\\t</TD>\\n\\t\\t\\t\\t\\t<TD WIDTH=74 BGCOLOR="#e6e6e6" STYLE="border-top: 1px solid #000000; border-bottom: 1px solid #000000; border-left: 1px solid #000000; border-right: none; padding: 0cm">\\n\\t\\t\\t\\t\\t\\t<P CLASS="western" ALIGN=CENTER STYLE="widows: 2; orphans: 2"><FONT FACE="Trebuchet MS, sans-serif"><FONT SIZE=1 STYLE="font-size: 8pt">Data\\n\\t\\t\\t\\t\\t\\tCommit:</FONT></FONT></P>\\n\\t\\t\\t\\t\\t</TD>\\n\\t\\t\\t\\t\\t<TD WIDTH=54 BGCOLOR="#e6e6e6" STYLE="border: 1px solid #000000; padding: 0cm">\\n\\t\\t\\t\\t\\t\\t<P CLASS="western" ALIGN=CENTER STYLE="widows: 2; orphans: 2"><FONT FACE="Trebuchet MS, sans-serif"><FONT SIZE=1 STYLE="font-size: 8pt">Form.WIKI:</FONT></FONT></P>\\n\\t\\t\\t\\t\\t</TD>\\n\\t\\t\\t\\t</TR>\\n\\t\\t\\t\\t<TR VALIGN=TOP>\\n\\t\\t\\t\\t\\t<TD WIDTH=91 STYLE="; border-top: none; border-bottom: 1px solid #000000; border-left: 1px solid #000000; border-right: none; padding: 0cm">\\n\\t\\t\\t\\t\\t\\t<P CLASS="western" STYLE="widows: 2; orphans: 2"><BR>\\n\\t\\t\\t\\t\\t\\t</P>\\n\\t\\t\\t\\t\\t</TD>\\n\\t\\t\\t\\t\\t<TD WIDTH=434 STYLE="; border-top: none; border-bottom: 1px solid #000000; border-left: 1px solid #000000; border-right: none; padding: 0cm">\\n\\t\\t\\t\\t\\t\\t<P CLASS="western" STYLE="widows: 2; orphans: 2"><BR>\\n\\t\\t\\t\\t\\t\\t</P>\\n\\t\\t\\t\\t\\t</TD>\\n\\t\\t\\t\\t\\t<TD WIDTH=74 STYLE="; border-top: none; border-bottom: 1px solid #000000; border-left: 1px solid #000000; border-right: none; padding: 0cm">\\n\\t\\t\\t\\t\\t\\t<P CLASS="western" STYLE="widows: 2; orphans: 2"><BR>\\n\\t\\t\\t\\t\\t\\t</P>\\n\\t\\t\\t\\t\\t</TD>\\n\\t\\t\\t\\t\\t<TD WIDTH=54 STYLE="; border-top: none; border-bottom: 1px solid #000000; border-left: 1px solid #000000; border-right: 1px solid #000000; padding: 0cm">\\n\\t\\t\\t\\t\\t\\t<P CLASS="western" STYLE="widows: 2; orphans: 2"><BR>\\n\\t\\t\\t\\t\\t\\t</P>\\n\\t\\t\\t\\t\\t</TD>\\n\\t\\t\\t\\t</TR>\\n\\t\\t\\t</TABLE>\\n\\t\\t\\t<P CLASS="table-contents-western"><BR><BR>\\n\\t\\t\\t</P>\\n\\t\\t</TD>\\n\\t</TR>\\n\\t<TR>\\n\\t\\t<TD COLSPAN=2 WIDTH=106 VALIGN=TOP STYLE="border-top: 1px solid #000000; border-bottom: 1px solid #000000; border-left: 1px solid #000000; border-right: none; padding: 0cm">\\n\\t\\t\\t<P CLASS="western" STYLE="margin-bottom: 0cm; widows: 2; orphans: 2">\\n        <FONT face="Trebuchet MS, sans-serif"><FONT size=1 style="font-size: 8pt"><B>TEM PATCH? \', escape=False)'
p3307
sI10
S'response.write(ticket.patch)'
p3308
sI11
S'response.write(\' </B></FONT></FONT><FONT face="Trebuchet MS, sans-serif"><FONT size=1 style="font-size: 8pt"><B><FONT SIZE=2 STYLE="font-size: 9pt"></FONT></B></FONT></FONT><FONT FACE="Trebuchet MS, sans-serif"><FONT SIZE=1 STYLE="font-size: 8pt"><B></B></FONT></FONT></P>\\n\\t\\t</TD>\\n\\t\\t<TD COLSPAN=4 WIDTH=105 VALIGN=TOP STYLE="; border-top: 1px solid #000000; border-bottom: 1px solid #000000; border-left: 1px solid #000000; border-right: none; padding: 0cm">\\n\\t\\t\\t<P CLASS="western" STYLE="margin-bottom: 0cm; widows: 2; orphans: 2">\\n        <FONT face="Trebuchet MS, sans-serif"><FONT size=1 style="font-size: 8pt"><B>MENU NOVO? </B></FONT></FONT><FONT face="Trebuchet MS, sans-serif"><FONT size=1 style="font-size: 8pt"><B><FONT SIZE=2 STYLE="font-size: 9pt"></FONT></B></FONT></FONT><FONT FACE="Trebuchet MS, sans-serif"><FONT SIZE=1 STYLE="font-size: 8pt"><B></B></FONT></FONT></P>\\n\\t\\t</TD>\\n\\t\\t<TD COLSPAN=7 WIDTH=448 VALIGN=TOP STYLE="; border: 1px solid #000000; padding: 0cm">\\n\\t\\t\\t<P CLASS="western" STYLE="margin-bottom: 0cm; widows: 2; orphans: 2">\\n        <FONT face="Trebuchet MS, sans-serif"><FONT size=1 style="font-size: 8pt">Local dos arquivos para teste: \', escape=False)'
p3309
sI12
S'response.write(ticket.local_teste)'
p3310
sI13
S'response.write(\'</FONT></FONT><FONT face="Trebuchet MS, sans-serif"><FONT size=1 style="font-size: 8pt"><B></B></FONT></FONT><FONT FACE="Trebuchet MS, sans-serif"><FONT SIZE=1 STYLE="font-size: 8pt"></FONT></FONT></P>\\n\\t\\t</TD>\\n\\t</TR>\\n\\t<TR>\\n\\t\\t<TD COLSPAN=13 WIDTH=659 VALIGN=TOP STYLE="; border: 1px solid #000000; padding: 0cm">\\n\\t\\t\\t<P CLASS="western" STYLE="margin-bottom: 0cm; widows: 2; orphans: 2">\\n\\t\\t\\t<FONT FACE="Trebuchet MS, sans-serif"><FONT SIZE=1 STYLE="font-size: 8pt">Documenta\\xc3\\xa7\\xc3\\xa3o\\n\\t\\t\\tda Rotina: </FONT></FONT>\\n\\t\\t\\t</P>\\n\\t\\t</TD>\\n\\t</TR>\\n\\t<TR>\\n\\t\\t<TD COLSPAN=13 WIDTH=659 VALIGN=TOP STYLE="; border: 1px solid #000000; padding: 0cm">\\n\\t\\t\\t<P CLASS="western" STYLE="margin-bottom: 0cm; widows: 2; orphans: 2">\\n\\t\\t\\t<FONT FACE="Trebuchet MS, sans-serif"><FONT SIZE=1 STYLE="font-size: 8pt">Descri\\xc3\\xa7\\xc3\\xa3o\\n\\t\\t\\tboletim: </FONT></FONT>\\n\\t\\t\\t</P>\\n\\t\\t</TD>\\n\\t</TR>\\n\\t<TR>\\n\\t\\t<TD COLSPAN=14 WIDTH=694 HEIGHT=15 VALIGN=TOP STYLE="; border-top: none; border-bottom: 1px solid #000000; border-left: 1px solid #000000; border-right: 1px solid #000000; padding: 0cm">\\n\\t\\t\\t<P CLASS="table-contents-western" STYLE="margin-bottom: 0.11cm; background: transparent">\\n\\t\\t\\t<BR><BR>\\n\\t\\t\\t</P>\\n\\t\\t</TD>\\n\\t</TR>\\n\\t<TR>\\n\\t\\t<TD ROWSPAN=16 WIDTH=35 STYLE="; border-top: 1px solid #000000; border-bottom: 1px solid #000000; border-left: 1px solid #000000; border-right: none; padding: 0cm">\\n\\t\\t\\t<P CLASS="table-contents-western" ALIGN=CENTER STYLE="margin-left: 0.2cm; margin-right: 0.2cm; margin-bottom: 0.11cm">\\n\\t\\t\\t<FONT FACE="Tahoma, sans-serif"><FONT SIZE=4><B>S<br>U<br>P<br>O<br>R<br>T<br>E</B></FONT></FONT></P>\\n\\t\\t</TD>\\n\\t\\t<TD COLSPAN=13 WIDTH=659 VALIGN=TOP STYLE="; border: 1px solid #000000; padding: 0cm">\\n\\t\\t\\t<P CLASS="western" STYLE="margin-bottom: 0cm; widows: 2; orphans: 2">\\n\\t\\t\\t<FONT FACE="Trebuchet MS, sans-serif"><FONT SIZE=1 STYLE="font-size: 8pt">Nome\\n\\t\\t\\tdo Consultor do TESTE: </FONT></FONT>\\n\\t\\t\\t</P>\\n\\t\\t</TD>\\n\\t</TR>\\n\\t<TR>\\n\\t\\t<TD COLSPAN=4 WIDTH=172 VALIGN=TOP STYLE="; border-top: none; border-bottom: 1px solid #000000; border-left: 1px solid #000000; border-right: none; padding: 0cm">\\n\\t\\t\\t<P CLASS="western" STYLE="margin-bottom: 0cm; widows: 2; orphans: 2">\\n\\t\\t\\t<FONT FACE="Trebuchet MS, sans-serif"><FONT SIZE=1 STYLE="font-size: 8pt">Data\\n\\t\\t\\tIn\\xc3\\xadcio: </FONT></FONT>\\n\\t\\t\\t</P>\\n\\t\\t</TD>\\n\\t\\t<TD COLSPAN=5 WIDTH=168 VALIGN=TOP STYLE="; border-top: none; border-bottom: 1px solid #000000; border-left: 1px solid #000000; border-right: none; padding: 0cm">\\n\\t\\t\\t<P CLASS="western" STYLE="margin-bottom: 0cm; widows: 2; orphans: 2">\\n\\t\\t\\t<FONT FACE="Trebuchet MS, sans-serif"><FONT SIZE=1 STYLE="font-size: 8pt">Hora\\n\\t\\t\\tIn\\xc3\\xadcio: </FONT></FONT>\\n\\t\\t\\t</P>\\n\\t\\t</TD>\\n\\t\\t<TD COLSPAN=2 WIDTH=158 VALIGN=TOP STYLE="; border-top: none; border-bottom: 1px solid #000000; border-left: 1px solid #000000; border-right: none; padding: 0cm">\\n\\t\\t\\t<P CLASS="western" STYLE="margin-bottom: 0cm; widows: 2; orphans: 2">\\n\\t\\t\\t<FONT FACE="Trebuchet MS, sans-serif"><FONT SIZE=1 STYLE="font-size: 8pt">Data\\n\\t\\t\\tFim: </FONT></FONT>\\n\\t\\t\\t</P>\\n\\t\\t</TD>\\n\\t\\t<TD COLSPAN=2 WIDTH=161 VALIGN=TOP STYLE="; border-top: none; border-bottom: 1px solid #000000; border-left: 1px solid #000000; border-right: 1px solid #000000; padding: 0cm">\\n\\t\\t\\t<P CLASS="western" STYLE="margin-bottom: 0cm; widows: 2; orphans: 2">\\n\\t\\t\\t<FONT FACE="Trebuchet MS, sans-serif"><FONT SIZE=1 STYLE="font-size: 8pt">Hora\\n\\t\\t\\tFim: </FONT></FONT>\\n\\t\\t\\t</P>\\n\\t\\t</TD>\\n\\t</TR>\\n\\t<TR>\\n\\t\\t<TD COLSPAN=11 WIDTH=498 VALIGN=TOP BGCOLOR="#e5e5e5" STYLE="border-top: 1px solid #000000; border-bottom: 1px solid #000000; border-left: 1px solid #000000; border-right: none; padding: 0cm">\\n\\t\\t\\t<P CLASS="western" STYLE="margin-bottom: 0cm; widows: 2; orphans: 2">\\n\\t\\t\\t<FONT FACE="Trebuchet MS, sans-serif"><FONT SIZE=1 STYLE="font-size: 8pt"><SPAN LANG="en-US">Check</SPAN><SPAN LANG="en-US">\\n\\t\\t\\tlist</SPAN></FONT></FONT></P>\\n\\t\\t</TD>\\n\\t\\t<TD WIDTH=85 VALIGN=TOP BGCOLOR="#e5e5e5" STYLE="border-top: 1px solid #000000; border-bottom: 1px solid #000000; border-left: 1px solid #000000; border-right: none; padding: 0cm">\\n\\t\\t\\t<P CLASS="western" ALIGN=CENTER STYLE="margin-bottom: 0cm; widows: 2; orphans: 2">\\n\\t\\t\\t<FONT FACE="Trebuchet MS, sans-serif"><FONT SIZE=1 STYLE="font-size: 8pt">SIM</FONT></FONT></P>\\n\\t\\t</TD>\\n\\t\\t<TD WIDTH=75 VALIGN=TOP BGCOLOR="#e5e5e5" STYLE="border: 1px solid #000000; padding: 0cm">\\n\\t\\t\\t<P CLASS="western" ALIGN=CENTER STYLE="margin-bottom: 0cm; widows: 2; orphans: 2">\\n\\t\\t\\t<FONT FACE="Trebuchet MS, sans-serif"><FONT SIZE=1 STYLE="font-size: 8pt">N\\xc3\\x83O</FONT></FONT></P>\\n\\t\\t</TD>\\n\\t</TR>\\n\\t<TR>\\n\\t\\t<TD COLSPAN=11 WIDTH=498 STYLE="; border-top: none; border-bottom: 1px solid #000000; border-left: 1px solid #000000; border-right: none; padding: 0cm">\\n\\t\\t\\t<P CLASS="western" STYLE="margin-bottom: 0cm; widows: 2; orphans: 2">\\n\\t\\t\\t<FONT FACE="Trebuchet MS, sans-serif"><FONT SIZE=1 STYLE="font-size: 8pt">1-\\n\\t\\t\\tTeste de interface j\\xc3\\xa1 est\\xc3\\xa1 conclu\\xc3\\xaddo?</FONT></FONT></P>\\n\\t\\t</TD>\\n\\t\\t<TD WIDTH=85 VALIGN=TOP STYLE="; border-top: none; border-bottom: 1px solid #000000; border-left: 1px solid #000000; border-right: none; padding: 0cm">\\n\\t\\t\\t<P CLASS="western" STYLE="margin-bottom: 0cm; widows: 2; orphans: 2">\\n\\t\\t\\t<BR>\\n\\t\\t\\t</P>\\n\\t\\t</TD>\\n\\t\\t<TD WIDTH=75 VALIGN=TOP STYLE="; border-top: none; border-bottom: 1px solid #000000; border-left: 1px solid #000000; border-right: 1px solid #000000; padding: 0cm">\\n\\t\\t\\t<P CLASS="western" STYLE="margin-bottom: 0cm; widows: 2; orphans: 2">\\n\\t\\t\\t<BR>\\n\\t\\t\\t</P>\\n\\t\\t</TD>\\n\\t</TR>\\n\\t<TR>\\n\\t\\t<TD COLSPAN=11 WIDTH=498 STYLE="; border-top: none; border-bottom: 1px solid #000000; border-left: 1px solid #000000; border-right: none; padding: 0cm">\\n\\t\\t\\t<P CLASS="western" STYLE="margin-bottom: 0cm; widows: 2; orphans: 2">\\n\\t\\t\\t<FONT FACE="Trebuchet MS, sans-serif"><FONT SIZE=1 STYLE="font-size: 8pt">2\\n\\t\\t\\t- Utilizado o banco de dados que simula a situa\\xc3\\xa7\\xc3\\xa3o do cliente?</FONT></FONT></P>\\n\\t\\t</TD>\\n\\t\\t<TD WIDTH=85 VALIGN=TOP STYLE="; border-top: none; border-bottom: 1px solid #000000; border-left: 1px solid #000000; border-right: none; padding: 0cm">\\n\\t\\t\\t<P CLASS="western" STYLE="margin-bottom: 0cm; widows: 2; orphans: 2">\\n\\t\\t\\t<BR>\\n\\t\\t\\t</P>\\n\\t\\t</TD>\\n\\t\\t<TD WIDTH=75 VALIGN=TOP STYLE="; border-top: none; border-bottom: 1px solid #000000; border-left: 1px solid #000000; border-right: 1px solid #000000; padding: 0cm">\\n\\t\\t\\t<P CLASS="western" STYLE="margin-bottom: 0cm; widows: 2; orphans: 2">\\n\\t\\t\\t<BR>\\n\\t\\t\\t</P>\\n\\t\\t</TD>\\n\\t</TR>\\n\\t<TR>\\n\\t\\t<TD COLSPAN=11 WIDTH=498 STYLE="; border-top: none; border-bottom: 1px solid #000000; border-left: 1px solid #000000; border-right: none; padding: 0cm">\\n\\t\\t\\t<P CLASS="western" STYLE="margin-bottom: 0cm; widows: 2; orphans: 2">\\n\\t\\t\\t<FONT FACE="Trebuchet MS, sans-serif"><FONT SIZE=1 STYLE="font-size: 8pt">3\\n\\t\\t\\t- Desenvolvedor especificou as principais rotinas a serem\\n\\t\\t\\ttestadas?</FONT></FONT></P>\\n\\t\\t</TD>\\n\\t\\t<TD WIDTH=85 VALIGN=TOP STYLE="; border-top: none; border-bottom: 1px solid #000000; border-left: 1px solid #000000; border-right: none; padding: 0cm">\\n\\t\\t\\t<P CLASS="western" STYLE="margin-bottom: 0cm; widows: 2; orphans: 2">\\n\\t\\t\\t<BR>\\n\\t\\t\\t</P>\\n\\t\\t</TD>\\n\\t\\t<TD WIDTH=75 VALIGN=TOP STYLE="; border-top: none; border-bottom: 1px solid #000000; border-left: 1px solid #000000; border-right: 1px solid #000000; padding: 0cm">\\n\\t\\t\\t<P CLASS="western" STYLE="margin-bottom: 0cm; widows: 2; orphans: 2">\\n\\t\\t\\t<BR>\\n\\t\\t\\t</P>\\n\\t\\t</TD>\\n\\t</TR>\\n\\t<TR>\\n\\t\\t<TD COLSPAN=11 WIDTH=498 STYLE="; border-top: none; border-bottom: 1px solid #000000; border-left: 1px solid #000000; border-right: none; padding: 0cm">\\n\\t\\t\\t<P CLASS="western" STYLE="margin-bottom: 0cm; widows: 2; orphans: 2">\\n\\t\\t\\t<FONT FACE="Trebuchet MS, sans-serif"><FONT SIZE=1 STYLE="font-size: 8pt">4\\n\\t\\t\\t- Desenvolvedor orientou quais outras fun\\xc3\\xa7\\xc3\\xb5es dever\\xc3\\xa3o ser\\n\\t\\t\\tverificadas?</FONT></FONT></P>\\n\\t\\t</TD>\\n\\t\\t<TD WIDTH=85 VALIGN=TOP STYLE="; border-top: none; border-bottom: 1px solid #000000; border-left: 1px solid #000000; border-right: none; padding: 0cm">\\n\\t\\t\\t<P CLASS="western" STYLE="margin-bottom: 0cm; widows: 2; orphans: 2">\\n\\t\\t\\t<BR>\\n\\t\\t\\t</P>\\n\\t\\t</TD>\\n\\t\\t<TD WIDTH=75 VALIGN=TOP STYLE="; border-top: none; border-bottom: 1px solid #000000; border-left: 1px solid #000000; border-right: 1px solid #000000; padding: 0cm">\\n\\t\\t\\t<P CLASS="western" STYLE="margin-bottom: 0cm; widows: 2; orphans: 2">\\n\\t\\t\\t<BR>\\n\\t\\t\\t</P>\\n\\t\\t</TD>\\n\\t</TR>\\n\\t<TR>\\n\\t\\t<TD COLSPAN=11 WIDTH=498 STYLE="; border-top: none; border-bottom: 1px solid #000000; border-left: 1px solid #000000; border-right: none; padding: 0cm">\\n\\t\\t\\t<P CLASS="western" STYLE="margin-bottom: 0cm; widows: 2; orphans: 2">\\n\\t\\t\\t<FONT FACE="Trebuchet MS, sans-serif"><FONT SIZE=1 STYLE="font-size: 8pt">5\\n\\t\\t\\t- Existe um relat\\xc3\\xb3rio que trabalha os dados cuja entrada \\xc3\\xa9 esta\\n\\t\\t\\tfun\\xc3\\xa7\\xc3\\xa3o?</FONT></FONT></P>\\n\\t\\t</TD>\\n\\t\\t<TD WIDTH=85 VALIGN=TOP STYLE="; border-top: none; border-bottom: 1px solid #000000; border-left: 1px solid #000000; border-right: none; padding: 0cm">\\n\\t\\t\\t<P CLASS="western" STYLE="margin-bottom: 0cm; widows: 2; orphans: 2">\\n\\t\\t\\t<BR>\\n\\t\\t\\t</P>\\n\\t\\t</TD>\\n\\t\\t<TD WIDTH=75 VALIGN=TOP STYLE="; border-top: none; border-bottom: 1px solid #000000; border-left: 1px solid #000000; border-right: 1px solid #000000; padding: 0cm">\\n\\t\\t\\t<P CLASS="western" STYLE="margin-bottom: 0cm; widows: 2; orphans: 2">\\n\\t\\t\\t<BR>\\n\\t\\t\\t</P>\\n\\t\\t</TD>\\n\\t</TR>\\n\\t<TR>\\n\\t\\t<TD COLSPAN=11 WIDTH=498 STYLE="; border-top: none; border-bottom: 1px solid #000000; border-left: 1px solid #000000; border-right: none; padding: 0cm">\\n\\t\\t\\t<P CLASS="western" STYLE="margin-bottom: 0cm; widows: 2; orphans: 2">\\n\\t\\t\\t<FONT FACE="Trebuchet MS, sans-serif"><FONT SIZE=1 STYLE="font-size: 8pt">6\\n\\t\\t\\t- Houve tempo h\\xc3\\xa1bil para o teste acontecer de forma segura?</FONT></FONT></P>\\n\\t\\t</TD>\\n\\t\\t<TD WIDTH=85 VALIGN=TOP STYLE="; border-top: none; border-bottom: 1px solid #000000; border-left: 1px solid #000000; border-right: none; padding: 0cm">\\n\\t\\t\\t<P CLASS="western" STYLE="margin-bottom: 0cm; widows: 2; orphans: 2">\\n\\t\\t\\t<BR>\\n\\t\\t\\t</P>\\n\\t\\t</TD>\\n\\t\\t<TD WIDTH=75 VALIGN=TOP STYLE="; border-top: none; border-bottom: 1px solid #000000; border-left: 1px solid #000000; border-right: 1px solid #000000; padding: 0cm">\\n\\t\\t\\t<P CLASS="western" STYLE="margin-bottom: 0cm; widows: 2; orphans: 2">\\n\\t\\t\\t<BR>\\n\\t\\t\\t</P>\\n\\t\\t</TD>\\n\\t</TR>\\n\\t<TR>\\n\\t\\t<TD COLSPAN=13 WIDTH=659 VALIGN=TOP STYLE="; border: 1px solid #000000; padding: 0cm">\\n\\t\\t\\t<P CLASS="western" STYLE="margin-bottom: 0cm; widows: 2; orphans: 2">\\n\\t\\t\\t<FONT FACE="Trebuchet MS, sans-serif"><FONT SIZE=1 STYLE="font-size: 8pt">Documenta\\xc3\\xa7\\xc3\\xa3o\\n\\t\\t\\tdo teste: </FONT></FONT>\\n\\t\\t\\t</P>\\n\\t\\t</TD>\\n\\t</TR>\\n\\t<TR>\\n\\t\\t<TD COLSPAN=3 WIDTH=156 STYLE="; border-top: 1px solid #000000; border-bottom: 1px solid #000000; border-left: 1px solid #000000; border-right: none; padding: 0cm">\\n\\t\\t\\t<P CLASS="western" STYLE="margin-bottom: 0cm; widows: 2; orphans: 2">\\n\\t\\t\\t<FONT FACE="Trebuchet MS, sans-serif"><FONT SIZE=2 STYLE="font-size: 9pt">PARECER\\n\\t\\t\\tTESTE:</FONT></FONT></P>\\n\\t\\t</TD>\\n\\t\\t<TD COLSPAN=5 WIDTH=174 STYLE="; border-top: 1px solid #000000; border-bottom: 1px solid #000000; border-left: 1px solid #000000; border-right: none; padding: 0cm">\\n\\t\\t\\t<P CLASS="western" STYLE="margin-bottom: 0cm; widows: 2; orphans: 2">\\n\\t\\t\\t<FONT FACE="Trebuchet MS, sans-serif"><FONT SIZE=2 STYLE="font-size: 9pt">[\\n\\t\\t\\t]Conclu\\xc3\\xaddo com sucesso</FONT></FONT></P>\\n\\t\\t</TD>\\n\\t\\t<TD COLSPAN=3 WIDTH=168 STYLE="; border-top: 1px solid #000000; border-bottom: 1px solid #000000; border-left: 1px solid #000000; border-right: none; padding: 0cm">\\n\\t\\t\\t<P CLASS="western" STYLE="margin-bottom: 0cm; widows: 2; orphans: 2">\\n\\t\\t\\t<FONT FACE="Trebuchet MS, sans-serif"><FONT SIZE=2 STYLE="font-size: 9pt">[\\n\\t\\t\\t]Atendido parcialmente</FONT></FONT></P>\\n\\t\\t</TD>\\n\\t\\t<TD COLSPAN=2 WIDTH=161 STYLE="; border: 1px solid #000000; padding: 0cm">\\n\\t\\t\\t<P CLASS="western" STYLE="margin-bottom: 0cm; widows: 2; orphans: 2">\\n\\t\\t\\t<FONT FACE="Trebuchet MS, sans-serif"><FONT SIZE=2 STYLE="font-size: 9pt">[\\n\\t\\t\\t]N\\xc3\\xa3o est\\xc3\\xa1 conforme</FONT></FONT></P>\\n\\t\\t</TD>\\n\\t</TR>\\n\\t<TR>\\n\\t\\t<TD COLSPAN=13 WIDTH=659 STYLE="; border-top: none; border-bottom: 1px solid #000000; border-left: 1px solid #000000; border-right: 1px solid #000000; padding: 0cm">\\n\\t\\t\\t<P CLASS="western" STYLE="margin-bottom: 0cm; widows: 2; orphans: 2">\\n\\t\\t\\t<BR>\\n\\t\\t\\t</P>\\n\\t\\t</TD>\\n\\t</TR>\\n\\t<TR>\\n\\t\\t<TD COLSPAN=13 WIDTH=659 BGCOLOR="#c0c0c0" STYLE="border-top: none; border-bottom: 1px solid #000000; border-left: 1px solid #000000; border-right: 1px solid #000000; padding: 0cm">\\n\\t\\t\\t<P CLASS="western" STYLE="margin-bottom: 0cm; widows: 2; orphans: 2">\\n\\t\\t\\t<FONT FACE="Trebuchet MS, sans-serif"><FONT SIZE=2 STYLE="font-size: 9pt"><B>RE-TESTE\\n\\t\\t\\tDE VERS\\xc3\\x83O:</B></FONT></FONT></P>\\n\\t\\t</TD>\\n\\t</TR>\\n\\t<TR>\\n\\t\\t<TD COLSPAN=13 WIDTH=659 STYLE="; border-top: none; border-bottom: 1px solid #000000; border-left: 1px solid #000000; border-right: 1px solid #000000; padding: 0cm">\\n\\t\\t\\t<P CLASS="western" STYLE="margin-bottom: 0cm; widows: 2; orphans: 2">\\n\\t\\t\\t<FONT FACE="Trebuchet MS, sans-serif"><FONT SIZE=2 STYLE="font-size: 9pt">Nome\\n\\t\\t\\tdo Consultor: </FONT></FONT>\\n\\t\\t\\t</P>\\n\\t\\t</TD>\\n\\t</TR>\\n\\t<TR>\\n\\t\\t<TD COLSPAN=3 WIDTH=156 STYLE="; border-top: none; border-bottom: 1px solid #000000; border-left: 1px solid #000000; border-right: none; padding: 0cm">\\n\\t\\t\\t<P CLASS="western" STYLE="margin-bottom: 0cm; widows: 2; orphans: 2">\\n\\t\\t\\t<FONT FACE="Trebuchet MS, sans-serif"><FONT SIZE=2 STYLE="font-size: 9pt">Data\\n\\t\\t\\tIn\\xc3\\xadcio: </FONT></FONT>\\n\\t\\t\\t</P>\\n\\t\\t</TD>\\n\\t\\t<TD COLSPAN=5 WIDTH=174 STYLE="; border-top: none; border-bottom: 1px solid #000000; border-left: 1px solid #000000; border-right: none; padding: 0cm">\\n\\t\\t\\t<P CLASS="western" STYLE="margin-bottom: 0cm; widows: 2; orphans: 2">\\n\\t\\t\\t<FONT FACE="Trebuchet MS, sans-serif"><FONT SIZE=2 STYLE="font-size: 9pt">Hora\\n\\t\\t\\tIn\\xc3\\xadcio:</FONT></FONT></P>\\n\\t\\t</TD>\\n\\t\\t<TD COLSPAN=3 WIDTH=168 STYLE="; border-top: none; border-bottom: 1px solid #000000; border-left: 1px solid #000000; border-right: none; padding: 0cm">\\n\\t\\t\\t<P CLASS="western" STYLE="margin-bottom: 0cm; widows: 2; orphans: 2">\\n\\t\\t\\t<FONT FACE="Trebuchet MS, sans-serif"><FONT SIZE=2 STYLE="font-size: 9pt">Data\\n\\t\\t\\tFim: </FONT></FONT>\\n\\t\\t\\t</P>\\n\\t\\t</TD>\\n\\t\\t<TD COLSPAN=2 WIDTH=161 STYLE="; border-top: none; border-bottom: 1px solid #000000; border-left: 1px solid #000000; border-right: 1px solid #000000; padding: 0cm">\\n\\t\\t\\t<P CLASS="western" STYLE="margin-bottom: 0cm; widows: 2; orphans: 2">\\n\\t\\t\\t<FONT FACE="Trebuchet MS, sans-serif"><FONT SIZE=2 STYLE="font-size: 9pt">Hora\\n\\t\\t\\tFim: </FONT></FONT>\\n\\t\\t\\t</P>\\n\\t\\t</TD>\\n\\t</TR>\\n\\t<TR>\\n\\t\\t<TD COLSPAN=3 WIDTH=156 STYLE="; border-top: none; border-bottom: 1px solid #000000; border-left: 1px solid #000000; border-right: none; padding: 0cm">\\n\\t\\t\\t<P CLASS="western" STYLE="margin-bottom: 0cm; widows: 2; orphans: 2">\\n\\t\\t\\t<FONT FACE="Trebuchet MS, sans-serif"><FONT SIZE=2 STYLE="font-size: 9pt">PARECER\\n\\t\\t\\tRE-TESTE:</FONT></FONT></P>\\n\\t\\t</TD>\\n\\t\\t<TD COLSPAN=5 WIDTH=174 STYLE="; border-top: none; border-bottom: 1px solid #000000; border-left: 1px solid #000000; border-right: none; padding: 0cm">\\n\\t\\t\\t<P CLASS="western" STYLE="margin-bottom: 0cm; widows: 2; orphans: 2">\\n\\t\\t\\t<FONT FACE="Trebuchet MS, sans-serif"><FONT SIZE=2 STYLE="font-size: 9pt">[\\n\\t\\t\\t]Conclu\\xc3\\xaddo com sucesso</FONT></FONT></P>\\n\\t\\t</TD>\\n\\t\\t<TD COLSPAN=3 WIDTH=168 STYLE="; border-top: none; border-bottom: 1px solid #000000; border-left: 1px solid #000000; border-right: none; padding: 0cm">\\n\\t\\t\\t<P CLASS="western" STYLE="margin-bottom: 0cm; widows: 2; orphans: 2">\\n\\t\\t\\t<FONT FACE="Trebuchet MS, sans-serif"><FONT SIZE=2 STYLE="font-size: 9pt">[\\n\\t\\t\\t]Atendido parcialmente</FONT></FONT></P>\\n\\t\\t</TD>\\n\\t\\t<TD COLSPAN=2 WIDTH=161 STYLE="; border-top: none; border-bottom: 1px solid #000000; border-left: 1px solid #000000; border-right: 1px solid #000000; padding: 0cm">\\n\\t\\t\\t<P CLASS="western" STYLE="margin-bottom: 0cm; widows: 2; orphans: 2">\\n\\t\\t\\t<FONT FACE="Trebuchet MS, sans-serif"><FONT SIZE=2 STYLE="font-size: 9pt">[\\n\\t\\t\\t]N\\xc3\\xa3o est\\xc3\\xa1 conforme</FONT></FONT></P>\\n\\t\\t</TD>\\n\\t</TR>\\n\\t<TR>\\n\\t\\t<TD COLSPAN=14 WIDTH=694 HEIGHT=15 VALIGN=TOP STYLE="; border: 1px solid #000000; padding: 0cm">\\n\\t\\t\\t<P CLASS="western" STYLE="margin-bottom: 0cm; widows: 2; orphans: 2">\\n\\t\\t\\t<BR>\\n\\t\\t\\t</P>\\n\\t\\t</TD>\\n\\t</TR>\\n\\t<TR VALIGN=TOP>\\n\\t\\t<TD COLSPAN=6 WIDTH=227 STYLE="; border-top: 1px solid #000000; border-bottom: 1px solid #000000; border-left: 1px solid #000000; border-right: none; padding: 0cm">\\n\\t\\t\\t<P CLASS="western" STYLE="margin-bottom: 0cm; widows: 2; orphans: 2">\\n\\t\\t\\t<FONT FACE="Trebuchet MS, sans-serif"><FONT SIZE=1 STYLE="font-size: 8pt">Corrigido\\n\\t\\t\\tna vers\\xc3\\xa3o:</FONT></FONT></P>\\n\\t\\t</TD>\\n\\t\\t<TD COLSPAN=3 WIDTH=138 STYLE="; border-top: 1px solid #000000; border-bottom: 1px solid #000000; border-left: 1px solid #000000; border-right: none; padding: 0cm">\\n\\t\\t\\t<P CLASS="western" STYLE="margin-bottom: 0cm; widows: 2; orphans: 2">\\n\\t\\t\\t<FONT FACE="Trebuchet MS, sans-serif"><FONT SIZE=1 STYLE="font-size: 8pt">PLS:</FONT></FONT></P>\\n\\t\\t</TD>\\n\\t\\t<TD COLSPAN=3 WIDTH=168 STYLE="; border-top: 1px solid #000000; border-bottom: 1px solid #000000; border-left: 1px solid #000000; border-right: none; padding: 0cm">\\n\\t\\t\\t<P CLASS="western" STYLE="margin-bottom: 0cm; widows: 2; orphans: 2">\\n\\t\\t\\t<FONT FACE="Trebuchet MS, sans-serif"><FONT SIZE=1 STYLE="font-size: 8pt">Data\\n\\t\\t\\tT\\xc3\\xa9rmino:</FONT></FONT></P>\\n\\t\\t</TD>\\n\\t\\t<TD COLSPAN=2 WIDTH=161 STYLE="; border: 1px solid #000000; padding: 0cm">\\n\\t\\t\\t<P CLASS="western" STYLE="margin-bottom: 0cm; widows: 2; orphans: 2">\\n\\t\\t\\t<FONT FACE="Trebuchet MS, sans-serif"><FONT SIZE=1 STYLE="font-size: 8pt">Chamado\\n\\t\\t\\tfinalizado no SITE:</FONT></FONT></P>\\n\\t\\t</TD>\\n\\t</TR>\\n</TABLE>\\n\', escape=False)'
p3311
ssg3285
S'()'
p3312
sg3287
S'<module>'
p3313
sa(dp3314
g3264
S'/home/www-data/web2py/gluon/dal.py'
p3315
sg3266
(dp3316
S'self'
p3317
S"<Row {'chamado': '11447', 'local_teste': '', 'co...lete_record': <function <lambda> at 0xb9208e9c>}>"
p3318
sS'key'
p3319
S"'inicio'"
p3320
ssg3272
I3786
sg3273
(dp3321
I3781
S''
sI3782
S'    def __setitem__(self, key, value):'
p3322
sI3783
S'        dict.__setitem__(self, str(key), value)'
p3323
sI3784
S''
sI3785
S'    def __getattr__(self, key):'
p3324
sI3786
S'        return self[key]'
p3325
sI3787
S''
sI3788
S'    def __setattr__(self, key, value):'
p3326
sI3789
S'        self[key] = value'
p3327
sI3790
S''
ssg3285
S"(self=<Row {'chamado': '11447', 'local_teste': '', 'co...lete_record': <function <lambda> at 0xb9208e9c>}>, key='inicio')"
p3328
sg3287
S'__getattr__'
p3329
sa(dp3330
g3264
S'/home/www-data/web2py/gluon/dal.py'
p3331
sg3266
(dp3332
S'self'
p3333
S"<Row {'chamado': '11447', 'local_teste': '', 'co...lete_record': <function <lambda> at 0xb9208e9c>}>"
p3334
sS'dict.__getitem__'
p3335
S"<method '__getitem__' of 'dict' objects>"
p3336
sS'key'
p3337
S"'inicio'"
p3338
sS'builtindict'
p3339
S"<type 'dict'>"
p3340
ssg3272
I3777
sg3273
(dp3341
I3776
S'            return self._extra[key]'
p3342
sI3777
S'        return dict.__getitem__(self, key)'
p3343
sI3778
S''
sI3779
S'    def __call__(self,key):'
p3344
sI3780
S'        return self.__getitem__(key)'
p3345
sI3781
S''
sI3772
S''
sI3773
S'    def __getitem__(self, key):'
p3346
sI3774
S'        key=str(key)'
p3347
sI3775
S"        if key in self.get('_extra',{}):"
p3348
ssg3285
S"(self=<Row {'chamado': '11447', 'local_teste': '', 'co...lete_record': <function <lambda> at 0xb9208e9c>}>, key='inicio')"
p3349
sg3287
g19
sasS'pyver'
p3350
S'Python 2.7.1+: /usr/bin/python'
p3351
sS'session'
p3352
g56
(g57
g58
NtRp3353
(dp3354
g61
(dp3355
sg63
(lp3356
g56
(g65
g58
NtRp3357
(dp3358
g61
(dp3359
g69
I5
ssg70
Nsg63
(lp3360
g56
(g72
g58
NtRp3361
(dp3362
g61
(dp3363
sg70
g3357
sg63
(lp3364
g56
(g77
g58
NtRp3365
(dp3366
g61
(dp3367
g81
g82
ssg70
g3361
sg63
(lp3368
S'auth'
p3369
asbag56
(g77
g58
NtRp3370
(dp3371
g61
(dp3372
g88
g89
ssg70
g3361
sg63
(lp3373
S':'
asbag56
(g77
g58
NtRp3374
(dp3375
g61
(dp3376
sg70
g3361
sg63
(lp3377
g56
(g57
g58
NtRp3378
(dp3379
g61
(dp3380
g69
I5
ssg70
g3374
sg63
(lp3381
g56
(g65
g58
NtRp3382
(dp3383
g61
(dp3384
g69
I4
ssg70
Nsg63
(lp3385
g56
(g72
g58
NtRp3386
(dp3387
g61
(dp3388
sg70
g3382
sg63
(lp3389
g56
(g77
g58
NtRp3390
(dp3391
g61
(dp3392
g81
g82
ssg70
g3386
sg63
(lp3393
S'expiration'
p3394
asbag56
(g77
g58
NtRp3395
(dp3396
g61
(dp3397
g88
g89
ssg70
g3386
sg63
(lp3398
S':'
asbag56
(g77
g58
NtRp3399
(dp3400
g61
(dp3401
sg70
g3386
sg63
(lp3402
g56
(g57
g58
NtRp3403
(dp3404
g61
(dp3405
g69
I4
ssg70
g3399
sg63
(lp3406
S'2592000'
p3407
asbasbasbag56
(g72
g58
NtRp3408
(dp3409
g61
(dp3410
sg70
g3382
sg63
(lp3411
g56
(g77
g58
NtRp3412
(dp3413
g61
(dp3414
g81
g82
ssg70
g3408
sg63
(lp3415
S'hmac_key'
p3416
asbag56
(g77
g58
NtRp3417
(dp3418
g61
(dp3419
g88
g89
ssg70
g3408
sg63
(lp3420
S':'
asbag56
(g77
g58
NtRp3421
(dp3422
g61
(dp3423
sg70
g3408
sg63
(lp3424
g56
(g57
g58
NtRp3425
(dp3426
g61
(dp3427
g69
I4
ssg70
g3421
sg63
(lp3428
S'ea0d0cd6-0e5a-4117-9fc3-debd8b48146a'
p3429
asbasbasbag56
(g72
g58
NtRp3430
(dp3431
g61
(dp3432
sg70
g3382
sg63
(lp3433
g56
(g77
g58
NtRp3434
(dp3435
g61
(dp3436
g81
g82
ssg70
g3430
sg63
(lp3437
S'last_visit'
p3438
asbag56
(g77
g58
NtRp3439
(dp3440
g61
(dp3441
g88
g89
ssg70
g3430
sg63
(lp3442
S':'
asbag56
(g77
g58
NtRp3443
(dp3444
g61
(dp3445
sg70
g3430
sg63
(lp3446
g56
(g57
g58
NtRp3447
(dp3448
g61
(dp3449
g69
I4
ssg70
g3443
sg63
(lp3450
S'datetime.datetime(2011, 9, 12, 15, 7, 26, 132996)'
p3451
asbasbasbag56
(g72
g58
NtRp3452
(dp3453
g61
(dp3454
sg70
g3382
sg63
(lp3455
g56
(g77
g58
NtRp3456
(dp3457
g61
(dp3458
g81
g82
ssg70
g3452
sg63
(lp3459
S'remember'
p3460
asbag56
(g77
g58
NtRp3461
(dp3462
g61
(dp3463
g88
g89
ssg70
g3452
sg63
(lp3464
S':'
asbag56
(g77
g58
NtRp3465
(dp3466
g61
(dp3467
sg70
g3452
sg63
(lp3468
g56
(g57
g58
NtRp3469
(dp3470
g61
(dp3471
g69
I4
ssg70
g3465
sg63
(lp3472
g99
asbasbasbag56
(g72
g58
NtRp3473
(dp3474
g61
(dp3475
sg70
g3382
sg63
(lp3476
g56
(g77
g58
NtRp3477
(dp3478
g61
(dp3479
g81
g82
ssg70
g3473
sg63
(lp3480
S'user'
p3481
asbag56
(g77
g58
NtRp3482
(dp3483
g61
(dp3484
g88
g89
ssg70
g3473
sg63
(lp3485
S':'
asbag56
(g77
g58
NtRp3486
(dp3487
g61
(dp3488
sg70
g3473
sg63
(lp3489
g56
(g57
g58
NtRp3490
(dp3491
g61
(dp3492
g69
I4
ssg70
g3486
sg63
(lp3493
g56
(g65
g58
NtRp3494
(dp3495
g61
(dp3496
g69
I3
ssg70
Nsg63
(lp3497
g56
(g72
g58
NtRp3498
(dp3499
g61
(dp3500
sg70
g3494
sg63
(lp3501
g56
(g77
g58
NtRp3502
(dp3503
g61
(dp3504
g81
g82
ssg70
g3498
sg63
(lp3505
S'email'
p3506
asbag56
(g77
g58
NtRp3507
(dp3508
g61
(dp3509
g88
g89
ssg70
g3498
sg63
(lp3510
S':'
asbag56
(g77
g58
NtRp3511
(dp3512
g61
(dp3513
sg70
g3498
sg63
(lp3514
g56
(g57
g58
NtRp3515
(dp3516
g61
(dp3517
g69
I3
ssg70
g3511
sg63
(lp3518
S'yamandu.costa@gmail.com'
p3519
asbasbasbag56
(g72
g58
NtRp3520
(dp3521
g61
(dp3522
sg70
g3494
sg63
(lp3523
g56
(g77
g58
NtRp3524
(dp3525
g61
(dp3526
g81
g82
ssg70
g3520
sg63
(lp3527
S'first_name'
p3528
asbag56
(g77
g58
NtRp3529
(dp3530
g61
(dp3531
g88
g89
ssg70
g3520
sg63
(lp3532
S':'
asbag56
(g77
g58
NtRp3533
(dp3534
g61
(dp3535
sg70
g3520
sg63
(lp3536
g56
(g57
g58
NtRp3537
(dp3538
g61
(dp3539
g69
I3
ssg70
g3533
sg63
(lp3540
S'Carlos'
p3541
asbasbasbag56
(g72
g58
NtRp3542
(dp3543
g61
(dp3544
sg70
g3494
sg63
(lp3545
g56
(g77
g58
NtRp3546
(dp3547
g61
(dp3548
g81
g82
ssg70
g3542
sg63
(lp3549
S'id'
p3550
asbag56
(g77
g58
NtRp3551
(dp3552
g61
(dp3553
g88
g89
ssg70
g3542
sg63
(lp3554
S':'
asbag56
(g77
g58
NtRp3555
(dp3556
g61
(dp3557
sg70
g3542
sg63
(lp3558
g56
(g57
g58
NtRp3559
(dp3560
g61
(dp3561
g69
I3
ssg70
g3555
sg63
(lp3562
S'2'
asbasbasbag56
(g72
g58
NtRp3563
(dp3564
g61
(dp3565
sg70
g3494
sg63
(lp3566
g56
(g77
g58
NtRp3567
(dp3568
g61
(dp3569
g81
g82
ssg70
g3563
sg63
(lp3570
S'last_name'
p3571
asbag56
(g77
g58
NtRp3572
(dp3573
g61
(dp3574
g88
g89
ssg70
g3563
sg63
(lp3575
S':'
asbag56
(g77
g58
NtRp3576
(dp3577
g61
(dp3578
sg70
g3563
sg63
(lp3579
g56
(g57
g58
NtRp3580
(dp3581
g61
(dp3582
g69
I3
ssg70
g3576
sg63
(lp3583
S'costa'
p3584
asbasbasbag56
(g72
g58
NtRp3585
(dp3586
g61
(dp3587
sg70
g3494
sg63
(lp3588
g56
(g77
g58
NtRp3589
(dp3590
g61
(dp3591
g81
g82
ssg70
g3585
sg63
(lp3592
S'password'
p3593
asbag56
(g77
g58
NtRp3594
(dp3595
g61
(dp3596
g88
g89
ssg70
g3585
sg63
(lp3597
S':'
asbag56
(g77
g58
NtRp3598
(dp3599
g61
(dp3600
sg70
g3585
sg63
(lp3601
g56
(g57
g58
NtRp3602
(dp3603
g61
(dp3604
g69
I3
ssg70
g3598
sg63
(lp3605
S'00a7a128f71552b063e36943370dd0944d5adb4000c6382d33eb3e1a93dc679cb99beb47e3003d318803f96ef839a18a379eae2e2bb917ca3c52c4e45231b331'
p3606
asbasbasbag56
(g72
g58
NtRp3607
(dp3608
g61
(dp3609
sg70
g3494
sg63
(lp3610
g56
(g77
g58
NtRp3611
(dp3612
g61
(dp3613
g81
g82
ssg70
g3607
sg63
(lp3614
S'registration_key'
p3615
asbag56
(g77
g58
NtRp3616
(dp3617
g61
(dp3618
g88
g89
ssg70
g3607
sg63
(lp3619
S':'
asbag56
(g77
g58
NtRp3620
(dp3621
g61
(dp3622
sg70
g3607
sg63
(lp3623
g56
(g57
g58
NtRp3624
(dp3625
g61
(dp3626
g69
I3
ssg70
g3620
sg63
(lp3627
S''
asbasbasbag56
(g72
g58
NtRp3628
(dp3629
g61
(dp3630
sg70
g3494
sg63
(lp3631
g56
(g77
g58
NtRp3632
(dp3633
g61
(dp3634
g81
g82
ssg70
g3628
sg63
(lp3635
S'reset_password_key'
p3636
asbag56
(g77
g58
NtRp3637
(dp3638
g61
(dp3639
g88
g89
ssg70
g3628
sg63
(lp3640
S':'
asbag56
(g77
g58
NtRp3641
(dp3642
g61
(dp3643
sg70
g3628
sg63
(lp3644
g56
(g57
g58
NtRp3645
(dp3646
g61
(dp3647
g69
I3
ssg70
g3641
sg63
(lp3648
S''
asbasbasbasbasbasbasbasbasbasbasbasbasbsS'etype'
p3649
S"<type 'exceptions.KeyError'>"
p3650
sS'date'
p3651
S'Mon Sep 12 15:08:45 2011'
p3652
sS'response'
p3653
g56
(g57
g58
NtRp3654
(dp3655
g61
(dp3656
sg63
(lp3657
g56
(g65
g58
NtRp3658
(dp3659
g61
(dp3660
g69
I5
ssg70
Nsg63
(lp3661
g56
(g72
g58
NtRp3662
(dp3663
g61
(dp3664
sg70
g3658
sg63
(lp3665
g56
(g77
g58
NtRp3666
(dp3667
g61
(dp3668
g81
g82
ssg70
g3662
sg63
(lp3669
g166
asbag56
(g77
g58
NtRp3670
(dp3671
g61
(dp3672
g88
g89
ssg70
g3662
sg63
(lp3673
S':'
asbag56
(g77
g58
NtRp3674
(dp3675
g61
(dp3676
sg70
g3662
sg63
(lp3677
g56
(g57
g58
NtRp3678
(dp3679
g61
(dp3680
g69
I5
ssg70
g3674
sg63
(lp3681
S'<cStringIO.StringO object at 0xb9071620>'
p3682
asbasbasbag56
(g72
g58
NtRp3683
(dp3684
g61
(dp3685
sg70
g3658
sg63
(lp3686
g56
(g77
g58
NtRp3687
(dp3688
g61
(dp3689
g81
g82
ssg70
g3683
sg63
(lp3690
g232
asbag56
(g77
g58
NtRp3691
(dp3692
g61
(dp3693
g88
g89
ssg70
g3683
sg63
(lp3694
S':'
asbag56
(g77
g58
NtRp3695
(dp3696
g61
(dp3697
sg70
g3683
sg63
(lp3698
g56
(g57
g58
NtRp3699
(dp3700
g61
(dp3701
g69
I5
ssg70
g3695
sg63
(lp3702
g56
(g65
g58
NtRp3703
(dp3704
g61
(dp3705
g69
I4
ssg70
Nsg63
(lp3706
g56
(g72
g58
NtRp3707
(dp3708
g61
(dp3709
sg70
g3703
sg63
(lp3710
g56
(g77
g58
NtRp3711
(dp3712
g61
(dp3713
g81
g82
ssg70
g3707
sg63
(lp3714
S'session_id_scrum'
p3715
asbag56
(g77
g58
NtRp3716
(dp3717
g61
(dp3718
g88
g89
ssg70
g3707
sg63
(lp3719
S':'
asbag56
(g77
g58
NtRp3720
(dp3721
g61
(dp3722
sg70
g3707
sg63
(lp3723
g56
(g57
g58
NtRp3724
(dp3725
g61
(dp3726
g69
I4
ssg70
g3720
sg63
(lp3727
g56
(g65
g58
NtRp3728
(dp3729
g61
(dp3730
g69
I3
ssg70
Nsg63
(lp3731
g56
(g72
g58
NtRp3732
(dp3733
g61
(dp3734
sg70
g3728
sg63
(lp3735
g56
(g77
g58
NtRp3736
(dp3737
g61
(dp3738
g81
g82
ssg70
g3732
sg63
(lp3739
g282
asbag56
(g77
g58
NtRp3740
(dp3741
g61
(dp3742
g88
g89
ssg70
g3732
sg63
(lp3743
S':'
asbag56
(g77
g58
NtRp3744
(dp3745
g61
(dp3746
sg70
g3732
sg63
(lp3747
g56
(g57
g58
NtRp3748
(dp3749
g61
(dp3750
g69
I3
ssg70
g3744
sg63
(lp3751
S''
asbasbasbag56
(g72
g58
NtRp3752
(dp3753
g61
(dp3754
sg70
g3728
sg63
(lp3755
g56
(g77
g58
NtRp3756
(dp3757
g61
(dp3758
g81
g82
ssg70
g3752
sg63
(lp3759
g303
asbag56
(g77
g58
NtRp3760
(dp3761
g61
(dp3762
g88
g89
ssg70
g3752
sg63
(lp3763
S':'
asbag56
(g77
g58
NtRp3764
(dp3765
g61
(dp3766
sg70
g3752
sg63
(lp3767
g56
(g57
g58
NtRp3768
(dp3769
g61
(dp3770
g69
I3
ssg70
g3764
sg63
(lp3771
S''
asbasbasbag56
(g72
g58
NtRp3772
(dp3773
g61
(dp3774
sg70
g3728
sg63
(lp3775
g56
(g77
g58
NtRp3776
(dp3777
g61
(dp3778
g81
g82
ssg70
g3772
sg63
(lp3779
g324
asbag56
(g77
g58
NtRp3780
(dp3781
g61
(dp3782
g88
g89
ssg70
g3772
sg63
(lp3783
S':'
asbag56
(g77
g58
NtRp3784
(dp3785
g61
(dp3786
sg70
g3772
sg63
(lp3787
g56
(g57
g58
NtRp3788
(dp3789
g61
(dp3790
g69
I3
ssg70
g3784
sg63
(lp3791
S''
asbasbasbag56
(g72
g58
NtRp3792
(dp3793
g61
(dp3794
sg70
g3728
sg63
(lp3795
g56
(g77
g58
NtRp3796
(dp3797
g61
(dp3798
g81
g82
ssg70
g3792
sg63
(lp3799
g345
asbag56
(g77
g58
NtRp3800
(dp3801
g61
(dp3802
g88
g89
ssg70
g3792
sg63
(lp3803
S':'
asbag56
(g77
g58
NtRp3804
(dp3805
g61
(dp3806
sg70
g3792
sg63
(lp3807
g56
(g57
g58
NtRp3808
(dp3809
g61
(dp3810
g69
I3
ssg70
g3804
sg63
(lp3811
S''
asbasbasbag56
(g72
g58
NtRp3812
(dp3813
g61
(dp3814
sg70
g3728
sg63
(lp3815
g56
(g77
g58
NtRp3816
(dp3817
g61
(dp3818
g81
g82
ssg70
g3812
sg63
(lp3819
g366
asbag56
(g77
g58
NtRp3820
(dp3821
g61
(dp3822
g88
g89
ssg70
g3812
sg63
(lp3823
S':'
asbag56
(g77
g58
NtRp3824
(dp3825
g61
(dp3826
sg70
g3812
sg63
(lp3827
g56
(g57
g58
NtRp3828
(dp3829
g61
(dp3830
g69
I3
ssg70
g3824
sg63
(lp3831
S''
asbasbasbag56
(g72
g58
NtRp3832
(dp3833
g61
(dp3834
sg70
g3728
sg63
(lp3835
g56
(g77
g58
NtRp3836
(dp3837
g61
(dp3838
g81
g82
ssg70
g3832
sg63
(lp3839
g387
asbag56
(g77
g58
NtRp3840
(dp3841
g61
(dp3842
g88
g89
ssg70
g3832
sg63
(lp3843
S':'
asbag56
(g77
g58
NtRp3844
(dp3845
g61
(dp3846
sg70
g3832
sg63
(lp3847
g56
(g57
g58
NtRp3848
(dp3849
g61
(dp3850
g69
I3
ssg70
g3844
sg63
(lp3851
S'/'
asbasbasbag56
(g72
g58
NtRp3852
(dp3853
g61
(dp3854
sg70
g3728
sg63
(lp3855
g56
(g77
g58
NtRp3856
(dp3857
g61
(dp3858
g81
g82
ssg70
g3852
sg63
(lp3859
g408
asbag56
(g77
g58
NtRp3860
(dp3861
g61
(dp3862
g88
g89
ssg70
g3852
sg63
(lp3863
S':'
asbag56
(g77
g58
NtRp3864
(dp3865
g61
(dp3866
sg70
g3852
sg63
(lp3867
g56
(g57
g58
NtRp3868
(dp3869
g61
(dp3870
g69
I3
ssg70
g3864
sg63
(lp3871
S''
asbasbasbag56
(g72
g58
NtRp3872
(dp3873
g61
(dp3874
sg70
g3728
sg63
(lp3875
g56
(g77
g58
NtRp3876
(dp3877
g61
(dp3878
g81
g82
ssg70
g3872
sg63
(lp3879
g429
asbag56
(g77
g58
NtRp3880
(dp3881
g61
(dp3882
g88
g89
ssg70
g3872
sg63
(lp3883
S':'
asbag56
(g77
g58
NtRp3884
(dp3885
g61
(dp3886
sg70
g3872
sg63
(lp3887
g56
(g57
g58
NtRp3888
(dp3889
g61
(dp3890
g69
I3
ssg70
g3884
sg63
(lp3891
S''
asbasbasbasbasbasbasbasbasbasbasbag56
(g72
g58
NtRp3892
(dp3893
g61
(dp3894
sg70
g3658
sg63
(lp3895
g56
(g77
g58
NtRp3896
(dp3897
g61
(dp3898
g81
g82
ssg70
g3892
sg63
(lp3899
S'files'
p3900
asbag56
(g77
g58
NtRp3901
(dp3902
g61
(dp3903
g88
g89
ssg70
g3892
sg63
(lp3904
S':'
asbag56
(g77
g58
NtRp3905
(dp3906
g61
(dp3907
sg70
g3892
sg63
(lp3908
g56
(g57
g58
NtRp3909
(dp3910
g61
(dp3911
g69
I5
ssg70
g3905
sg63
(lp3912
g56
(g65
g58
NtRp3913
(dp3914
g61
(dp3915
g69
I4
ssg70
Nsg63
(lp3916
sbasbasbasbag56
(g72
g58
NtRp3917
(dp3918
g61
(dp3919
sg70
g3658
sg63
(lp3920
g56
(g77
g58
NtRp3921
(dp3922
g61
(dp3923
g81
g82
ssg70
g3917
sg63
(lp3924
S'flash'
p3925
asbag56
(g77
g58
NtRp3926
(dp3927
g61
(dp3928
g88
g89
ssg70
g3917
sg63
(lp3929
S':'
asbag56
(g77
g58
NtRp3930
(dp3931
g61
(dp3932
sg70
g3917
sg63
(lp3933
g56
(g57
g58
NtRp3934
(dp3935
g61
(dp3936
g69
I5
ssg70
g3930
sg63
(lp3937
S''
asbasbasbag56
(g72
g58
NtRp3938
(dp3939
g61
(dp3940
sg70
g3658
sg63
(lp3941
g56
(g77
g58
NtRp3942
(dp3943
g61
(dp3944
g81
g82
ssg70
g3938
sg63
(lp3945
S'generic_patterns'
p3946
asbag56
(g77
g58
NtRp3947
(dp3948
g61
(dp3949
g88
g89
ssg70
g3938
sg63
(lp3950
S':'
asbag56
(g77
g58
NtRp3951
(dp3952
g61
(dp3953
sg70
g3938
sg63
(lp3954
g56
(g57
g58
NtRp3955
(dp3956
g61
(dp3957
g69
I5
ssg70
g3951
sg63
(lp3958
g56
(g65
g58
NtRp3959
(dp3960
g61
(dp3961
g69
I4
ssg70
Nsg63
(lp3962
sbasbasbasbag56
(g72
g58
NtRp3963
(dp3964
g61
(dp3965
sg70
g3658
sg63
(lp3966
g56
(g77
g58
NtRp3967
(dp3968
g61
(dp3969
g81
g82
ssg70
g3963
sg63
(lp3970
S'headers'
p3971
asbag56
(g77
g58
NtRp3972
(dp3973
g61
(dp3974
g88
g89
ssg70
g3963
sg63
(lp3975
S':'
asbag56
(g77
g58
NtRp3976
(dp3977
g61
(dp3978
sg70
g3963
sg63
(lp3979
g56
(g57
g58
NtRp3980
(dp3981
g61
(dp3982
g69
I5
ssg70
g3976
sg63
(lp3983
g56
(g65
g58
NtRp3984
(dp3985
g61
(dp3986
g69
I4
ssg70
Nsg63
(lp3987
g56
(g72
g58
NtRp3988
(dp3989
g61
(dp3990
sg70
g3984
sg63
(lp3991
g56
(g77
g58
NtRp3992
(dp3993
g61
(dp3994
g81
g82
ssg70
g3988
sg63
(lp3995
S'Cache-Control'
p3996
asbag56
(g77
g58
NtRp3997
(dp3998
g61
(dp3999
g88
g89
ssg70
g3988
sg63
(lp4000
S':'
asbag56
(g77
g58
NtRp4001
(dp4002
g61
(dp4003
sg70
g3988
sg63
(lp4004
g56
(g57
g58
NtRp4005
(dp4006
g61
(dp4007
g69
I4
ssg70
g4001
sg63
(lp4008
S'no-store, no-cache, must-revalidate, post-check=0, pre-check=0'
p4009
asbasbasbag56
(g72
g58
NtRp4010
(dp4011
g61
(dp4012
sg70
g3984
sg63
(lp4013
g56
(g77
g58
NtRp4014
(dp4015
g61
(dp4016
g81
g82
ssg70
g4010
sg63
(lp4017
S'Content-Type'
p4018
asbag56
(g77
g58
NtRp4019
(dp4020
g61
(dp4021
g88
g89
ssg70
g4010
sg63
(lp4022
S':'
asbag56
(g77
g58
NtRp4023
(dp4024
g61
(dp4025
sg70
g4010
sg63
(lp4026
g56
(g57
g58
NtRp4027
(dp4028
g61
(dp4029
g69
I4
ssg70
g4023
sg63
(lp4030
S'text/html; charset=utf-8'
p4031
asbasbasbag56
(g72
g58
NtRp4032
(dp4033
g61
(dp4034
sg70
g3984
sg63
(lp4035
g56
(g77
g58
NtRp4036
(dp4037
g61
(dp4038
g81
g82
ssg70
g4032
sg63
(lp4039
S'Expires'
p4040
asbag56
(g77
g58
NtRp4041
(dp4042
g61
(dp4043
g88
g89
ssg70
g4032
sg63
(lp4044
S':'
asbag56
(g77
g58
NtRp4045
(dp4046
g61
(dp4047
sg70
g4032
sg63
(lp4048
g56
(g57
g58
NtRp4049
(dp4050
g61
(dp4051
g69
I4
ssg70
g4045
sg63
(lp4052
S'Mon, 12 Sep 2011 18:08:45 GMT'
p4053
asbasbasbag56
(g72
g58
NtRp4054
(dp4055
g61
(dp4056
sg70
g3984
sg63
(lp4057
g56
(g77
g58
NtRp4058
(dp4059
g61
(dp4060
g81
g82
ssg70
g4054
sg63
(lp4061
S'Pragma'
p4062
asbag56
(g77
g58
NtRp4063
(dp4064
g61
(dp4065
g88
g89
ssg70
g4054
sg63
(lp4066
S':'
asbag56
(g77
g58
NtRp4067
(dp4068
g61
(dp4069
sg70
g4054
sg63
(lp4070
g56
(g57
g58
NtRp4071
(dp4072
g61
(dp4073
g69
I4
ssg70
g4067
sg63
(lp4074
S'no-cache'
p4075
asbasbasbag56
(g72
g58
NtRp4076
(dp4077
g61
(dp4078
sg70
g3984
sg63
(lp4079
g56
(g77
g58
NtRp4080
(dp4081
g61
(dp4082
g81
g82
ssg70
g4076
sg63
(lp4083
S'X-Powered-By'
p4084
asbag56
(g77
g58
NtRp4085
(dp4086
g61
(dp4087
g88
g89
ssg70
g4076
sg63
(lp4088
S':'
asbag56
(g77
g58
NtRp4089
(dp4090
g61
(dp4091
sg70
g4076
sg63
(lp4092
g56
(g57
g58
NtRp4093
(dp4094
g61
(dp4095
g69
I4
ssg70
g4089
sg63
(lp4096
S'web2py'
p4097
asbasbasbasbasbasbasbag56
(g72
g58
NtRp4098
(dp4099
g61
(dp4100
sg70
g3658
sg63
(lp4101
g56
(g77
g58
NtRp4102
(dp4103
g61
(dp4104
g81
g82
ssg70
g4098
sg63
(lp4105
S'menu'
p4106
asbag56
(g77
g58
NtRp4107
(dp4108
g61
(dp4109
g88
g89
ssg70
g4098
sg63
(lp4110
S':'
asbag56
(g77
g58
NtRp4111
(dp4112
g61
(dp4113
sg70
g4098
sg63
(lp4114
g56
(g57
g58
NtRp4115
(dp4116
g61
(dp4117
g69
I5
ssg70
g4111
sg63
(lp4118
g56
(g65
g58
NtRp4119
(dp4120
g61
(dp4121
g69
I4
ssg70
Nsg63
(lp4122
g56
(g72
g58
NtRp4123
(dp4124
g61
(dp4125
sg70
g4119
sg63
(lp4126
g56
(g77
g58
NtRp4127
(dp4128
g61
(dp4129
sg70
g4123
sg63
(lp4130
g56
(g57
g58
NtRp4131
(dp4132
g61
(dp4133
g69
I4
ssg70
g4127
sg63
(lp4134
g56
(g65
g58
NtRp4135
(dp4136
g61
(dp4137
g69
I3
ssg70
Nsg63
(lp4138
g56
(g72
g58
NtRp4139
(dp4140
g61
(dp4141
sg70
g4135
sg63
(lp4142
g56
(g77
g58
NtRp4143
(dp4144
g61
(dp4145
sg70
g4139
sg63
(lp4146
g56
(g57
g58
NtRp4147
(dp4148
g61
(dp4149
g69
I3
ssg70
g4143
sg63
(lp4150
cgluon.languages
lazyT_unpickle
p4151
(S't\x04\x00\x00\x00Home'
tRp4152
asbasbasbag56
(g72
g58
NtRp4153
(dp4154
g61
(dp4155
sg70
g4135
sg63
(lp4156
g56
(g77
g58
NtRp4157
(dp4158
g61
(dp4159
sg70
g4153
sg63
(lp4160
g56
(g57
g58
NtRp4161
(dp4162
g61
(dp4163
g69
I3
ssg70
g4157
sg63
(lp4164
g99
asbasbasbag56
(g72
g58
NtRp4165
(dp4166
g61
(dp4167
sg70
g4135
sg63
(lp4168
g56
(g77
g58
NtRp4169
(dp4170
g61
(dp4171
sg70
g4165
sg63
(lp4172
g56
(g57
g58
NtRp4173
(dp4174
g61
(dp4175
g69
I3
ssg70
g4169
sg63
(lp4176
S'/scrum/default/index'
p4177
asbasbasbag56
(g72
g58
NtRp4178
(dp4179
g61
(dp4180
sg70
g4135
sg63
(lp4181
g56
(g77
g58
NtRp4182
(dp4183
g61
(dp4184
sg70
g4178
sg63
(lp4185
g56
(g57
g58
NtRp4186
(dp4187
g61
(dp4188
g69
I3
ssg70
g4182
sg63
(lp4189
g56
(g65
g58
NtRp4190
(dp4191
g61
(dp4192
g69
I2
ssg70
Nsg63
(lp4193
sbasbasbasbasbasbasbasbag56
(g72
g58
NtRp4194
(dp4195
g61
(dp4196
sg70
g4119
sg63
(lp4197
g56
(g77
g58
NtRp4198
(dp4199
g61
(dp4200
sg70
g4194
sg63
(lp4201
g56
(g57
g58
NtRp4202
(dp4203
g61
(dp4204
g69
I4
ssg70
g4198
sg63
(lp4205
g56
(g65
g58
NtRp4206
(dp4207
g61
(dp4208
g69
I3
ssg70
Nsg63
(lp4209
g56
(g72
g58
NtRp4210
(dp4211
g61
(dp4212
sg70
g4206
sg63
(lp4213
g56
(g77
g58
NtRp4214
(dp4215
g61
(dp4216
sg70
g4210
sg63
(lp4217
g56
(g57
g58
NtRp4218
(dp4219
g61
(dp4220
g69
I3
ssg70
g4214
sg63
(lp4221
g4151
(S't\x03\x00\x00\x00BIV'
tRp4222
asbasbasbag56
(g72
g58
NtRp4223
(dp4224
g61
(dp4225
sg70
g4206
sg63
(lp4226
g56
(g77
g58
NtRp4227
(dp4228
g61
(dp4229
sg70
g4223
sg63
(lp4230
g56
(g57
g58
NtRp4231
(dp4232
g61
(dp4233
g69
I3
ssg70
g4227
sg63
(lp4234
g99
asbasbasbag56
(g72
g58
NtRp4235
(dp4236
g61
(dp4237
sg70
g4206
sg63
(lp4238
g56
(g77
g58
NtRp4239
(dp4240
g61
(dp4241
sg70
g4235
sg63
(lp4242
g56
(g57
g58
NtRp4243
(dp4244
g61
(dp4245
g69
I3
ssg70
g4239
sg63
(lp4246
S''
asbasbasbag56
(g72
g58
NtRp4247
(dp4248
g61
(dp4249
sg70
g4206
sg63
(lp4250
g56
(g77
g58
NtRp4251
(dp4252
g61
(dp4253
sg70
g4247
sg63
(lp4254
g56
(g57
g58
NtRp4255
(dp4256
g61
(dp4257
g69
I3
ssg70
g4251
sg63
(lp4258
g56
(g65
g58
NtRp4259
(dp4260
g61
(dp4261
g69
I2
ssg70
Nsg63
(lp4262
g56
(g72
g58
NtRp4263
(dp4264
g61
(dp4265
sg70
g4259
sg63
(lp4266
g56
(g77
g58
NtRp4267
(dp4268
g61
(dp4269
sg70
g4263
sg63
(lp4270
g56
(g57
g58
NtRp4271
(dp4272
g61
(dp4273
g69
I2
ssg70
g4267
sg63
(lp4274
g56
(g65
g58
NtRp4275
(dp4276
g61
(dp4277
g69
I1
ssg70
Nsg63
(lp4278
g56
(g72
g58
NtRp4279
(dp4280
g61
(dp4281
sg70
g4275
sg63
(lp4282
g56
(g77
g58
NtRp4283
(dp4284
g61
(dp4285
sg70
g4279
sg63
(lp4286
g56
(g57
g58
NtRp4287
(dp4288
g61
(dp4289
g69
I1
ssg70
g4283
sg63
(lp4290
g4151
(S't\x04\x00\x00\x00Novo'
tRp4291
asbasbasbag56
(g72
g58
NtRp4292
(dp4293
g61
(dp4294
sg70
g4275
sg63
(lp4295
g56
(g77
g58
NtRp4296
(dp4297
g61
(dp4298
sg70
g4292
sg63
(lp4299
g56
(g57
g58
NtRp4300
(dp4301
g61
(dp4302
g69
I1
ssg70
g4296
sg63
(lp4303
I00
asbasbasbag56
(g72
g58
NtRp4304
(dp4305
g61
(dp4306
sg70
g4275
sg63
(lp4307
g56
(g77
g58
NtRp4308
(dp4309
g61
(dp4310
sg70
g4304
sg63
(lp4311
g56
(g57
g58
NtRp4312
(dp4313
g61
(dp4314
g69
I1
ssg70
g4308
sg63
(lp4315
S'/scrum/default/novo_biv'
p4316
asbasbasbag56
(g72
g58
NtRp4317
(dp4318
g61
(dp4319
sg70
g4275
sg63
(lp4320
g56
(g77
g58
NtRp4321
(dp4322
g61
(dp4323
sg70
g4317
sg63
(lp4324
g56
(g57
g58
NtRp4325
(dp4326
g61
(dp4327
g69
I1
ssg70
g4321
sg63
(lp4328
(lp4329
asbasbasbasbasbasbasbag56
(g72
g58
NtRp4330
(dp4331
g61
(dp4332
sg70
g4259
sg63
(lp4333
g56
(g77
g58
NtRp4334
(dp4335
g61
(dp4336
sg70
g4330
sg63
(lp4337
g56
(g57
g58
NtRp4338
(dp4339
g61
(dp4340
g69
I2
ssg70
g4334
sg63
(lp4341
g56
(g65
g58
NtRp4342
(dp4343
g61
(dp4344
g69
I1
ssg70
Nsg63
(lp4345
g56
(g72
g58
NtRp4346
(dp4347
g61
(dp4348
sg70
g4342
sg63
(lp4349
g56
(g77
g58
NtRp4350
(dp4351
g61
(dp4352
sg70
g4346
sg63
(lp4353
g56
(g57
g58
NtRp4354
(dp4355
g61
(dp4356
g69
I1
ssg70
g4350
sg63
(lp4357
g4151
(S't\n\x00\x00\x00Selecionar'
tRp4358
asbasbasbag56
(g72
g58
NtRp4359
(dp4360
g61
(dp4361
sg70
g4342
sg63
(lp4362
g56
(g77
g58
NtRp4363
(dp4364
g61
(dp4365
sg70
g4359
sg63
(lp4366
g56
(g57
g58
NtRp4367
(dp4368
g61
(dp4369
g69
I1
ssg70
g4363
sg63
(lp4370
I00
asbasbasbag56
(g72
g58
NtRp4371
(dp4372
g61
(dp4373
sg70
g4342
sg63
(lp4374
g56
(g77
g58
NtRp4375
(dp4376
g61
(dp4377
sg70
g4371
sg63
(lp4378
g56
(g57
g58
NtRp4379
(dp4380
g61
(dp4381
g69
I1
ssg70
g4375
sg63
(lp4382
S'/scrum/default/selecionar_biv'
p4383
asbasbasbag56
(g72
g58
NtRp4384
(dp4385
g61
(dp4386
sg70
g4342
sg63
(lp4387
g56
(g77
g58
NtRp4388
(dp4389
g61
(dp4390
sg70
g4384
sg63
(lp4391
g56
(g57
g58
NtRp4392
(dp4393
g61
(dp4394
g69
I1
ssg70
g4388
sg63
(lp4395
(lp4396
asbasbasbasbasbasbasbasbasbasbasbasbasbasbasbag56
(g72
g58
NtRp4397
(dp4398
g61
(dp4399
sg70
g4119
sg63
(lp4400
g56
(g77
g58
NtRp4401
(dp4402
g61
(dp4403
sg70
g4397
sg63
(lp4404
g56
(g57
g58
NtRp4405
(dp4406
g61
(dp4407
g69
I4
ssg70
g4401
sg63
(lp4408
g56
(g65
g58
NtRp4409
(dp4410
g61
(dp4411
g69
I3
ssg70
Nsg63
(lp4412
g56
(g72
g58
NtRp4413
(dp4414
g61
(dp4415
sg70
g4409
sg63
(lp4416
g56
(g77
g58
NtRp4417
(dp4418
g61
(dp4419
sg70
g4413
sg63
(lp4420
g56
(g57
g58
NtRp4421
(dp4422
g61
(dp4423
g69
I3
ssg70
g4417
sg63
(lp4424
g4151
(S't\x07\x00\x00\x00Tickets'
tRp4425
asbasbasbag56
(g72
g58
NtRp4426
(dp4427
g61
(dp4428
sg70
g4409
sg63
(lp4429
g56
(g77
g58
NtRp4430
(dp4431
g61
(dp4432
sg70
g4426
sg63
(lp4433
g56
(g57
g58
NtRp4434
(dp4435
g61
(dp4436
g69
I3
ssg70
g4430
sg63
(lp4437
g99
asbasbasbag56
(g72
g58
NtRp4438
(dp4439
g61
(dp4440
sg70
g4409
sg63
(lp4441
g56
(g77
g58
NtRp4442
(dp4443
g61
(dp4444
sg70
g4438
sg63
(lp4445
g56
(g57
g58
NtRp4446
(dp4447
g61
(dp4448
g69
I3
ssg70
g4442
sg63
(lp4449
S'/scrum/ticket/index'
p4450
asbasbasbag56
(g72
g58
NtRp4451
(dp4452
g61
(dp4453
sg70
g4409
sg63
(lp4454
g56
(g77
g58
NtRp4455
(dp4456
g61
(dp4457
sg70
g4451
sg63
(lp4458
g56
(g57
g58
NtRp4459
(dp4460
g61
(dp4461
g69
I3
ssg70
g4455
sg63
(lp4462
g56
(g65
g58
NtRp4463
(dp4464
g61
(dp4465
g69
I2
ssg70
Nsg63
(lp4466
g56
(g72
g58
NtRp4467
(dp4468
g61
(dp4469
sg70
g4463
sg63
(lp4470
g56
(g77
g58
NtRp4471
(dp4472
g61
(dp4473
sg70
g4467
sg63
(lp4474
g56
(g57
g58
NtRp4475
(dp4476
g61
(dp4477
g69
I2
ssg70
g4471
sg63
(lp4478
g56
(g65
g58
NtRp4479
(dp4480
g61
(dp4481
g69
I1
ssg70
Nsg63
(lp4482
g56
(g72
g58
NtRp4483
(dp4484
g61
(dp4485
sg70
g4479
sg63
(lp4486
g56
(g77
g58
NtRp4487
(dp4488
g61
(dp4489
sg70
g4483
sg63
(lp4490
g56
(g57
g58
NtRp4491
(dp4492
g61
(dp4493
g69
I1
ssg70
g4487
sg63
(lp4494
g4151
(S't\x04\x00\x00\x00Novo'
tRp4495
asbasbasbag56
(g72
g58
NtRp4496
(dp4497
g61
(dp4498
sg70
g4479
sg63
(lp4499
g56
(g77
g58
NtRp4500
(dp4501
g61
(dp4502
sg70
g4496
sg63
(lp4503
g56
(g57
g58
NtRp4504
(dp4505
g61
(dp4506
g69
I1
ssg70
g4500
sg63
(lp4507
I00
asbasbasbag56
(g72
g58
NtRp4508
(dp4509
g61
(dp4510
sg70
g4479
sg63
(lp4511
g56
(g77
g58
NtRp4512
(dp4513
g61
(dp4514
sg70
g4508
sg63
(lp4515
g56
(g57
g58
NtRp4516
(dp4517
g61
(dp4518
g69
I1
ssg70
g4512
sg63
(lp4519
S'/scrum/ticket/novo'
p4520
asbasbasbag56
(g72
g58
NtRp4521
(dp4522
g61
(dp4523
sg70
g4479
sg63
(lp4524
g56
(g77
g58
NtRp4525
(dp4526
g61
(dp4527
sg70
g4521
sg63
(lp4528
g56
(g57
g58
NtRp4529
(dp4530
g61
(dp4531
g69
I1
ssg70
g4525
sg63
(lp4532
(lp4533
asbasbasbasbasbasbasbag56
(g72
g58
NtRp4534
(dp4535
g61
(dp4536
sg70
g4463
sg63
(lp4537
g56
(g77
g58
NtRp4538
(dp4539
g61
(dp4540
sg70
g4534
sg63
(lp4541
g56
(g57
g58
NtRp4542
(dp4543
g61
(dp4544
g69
I2
ssg70
g4538
sg63
(lp4545
g56
(g65
g58
NtRp4546
(dp4547
g61
(dp4548
g69
I1
ssg70
Nsg63
(lp4549
g56
(g72
g58
NtRp4550
(dp4551
g61
(dp4552
sg70
g4546
sg63
(lp4553
g56
(g77
g58
NtRp4554
(dp4555
g61
(dp4556
sg70
g4550
sg63
(lp4557
g56
(g57
g58
NtRp4558
(dp4559
g61
(dp4560
g69
I1
ssg70
g4554
sg63
(lp4561
g4151
(S't\n\x00\x00\x00Selecionar'
tRp4562
asbasbasbag56
(g72
g58
NtRp4563
(dp4564
g61
(dp4565
sg70
g4546
sg63
(lp4566
g56
(g77
g58
NtRp4567
(dp4568
g61
(dp4569
sg70
g4563
sg63
(lp4570
g56
(g57
g58
NtRp4571
(dp4572
g61
(dp4573
g69
I1
ssg70
g4567
sg63
(lp4574
I00
asbasbasbag56
(g72
g58
NtRp4575
(dp4576
g61
(dp4577
sg70
g4546
sg63
(lp4578
g56
(g77
g58
NtRp4579
(dp4580
g61
(dp4581
sg70
g4575
sg63
(lp4582
g56
(g57
g58
NtRp4583
(dp4584
g61
(dp4585
g69
I1
ssg70
g4579
sg63
(lp4586
S'/scrum/ticket/index'
p4587
asbasbasbag56
(g72
g58
NtRp4588
(dp4589
g61
(dp4590
sg70
g4546
sg63
(lp4591
g56
(g77
g58
NtRp4592
(dp4593
g61
(dp4594
sg70
g4588
sg63
(lp4595
g56
(g57
g58
NtRp4596
(dp4597
g61
(dp4598
g69
I1
ssg70
g4592
sg63
(lp4599
(lp4600
asbasbasbasbasbasbasbasbasbasbasbasbasbasbasbag56
(g72
g58
NtRp4601
(dp4602
g61
(dp4603
sg70
g4119
sg63
(lp4604
g56
(g77
g58
NtRp4605
(dp4606
g61
(dp4607
sg70
g4601
sg63
(lp4608
g56
(g57
g58
NtRp4609
(dp4610
g61
(dp4611
g69
I4
ssg70
g4605
sg63
(lp4612
g56
(g65
g58
NtRp4613
(dp4614
g61
(dp4615
g69
I3
ssg70
Nsg63
(lp4616
g56
(g72
g58
NtRp4617
(dp4618
g61
(dp4619
sg70
g4613
sg63
(lp4620
g56
(g77
g58
NtRp4621
(dp4622
g61
(dp4623
sg70
g4617
sg63
(lp4624
g56
(g57
g58
NtRp4625
(dp4626
g61
(dp4627
g69
I3
ssg70
g4621
sg63
(lp4628
g4151
(S't\x06\x00\x00\x00Sprint'
tRp4629
asbasbasbag56
(g72
g58
NtRp4630
(dp4631
g61
(dp4632
sg70
g4613
sg63
(lp4633
g56
(g77
g58
NtRp4634
(dp4635
g61
(dp4636
sg70
g4630
sg63
(lp4637
g56
(g57
g58
NtRp4638
(dp4639
g61
(dp4640
g69
I3
ssg70
g4634
sg63
(lp4641
g99
asbasbasbag56
(g72
g58
NtRp4642
(dp4643
g61
(dp4644
sg70
g4613
sg63
(lp4645
g56
(g77
g58
NtRp4646
(dp4647
g61
(dp4648
sg70
g4642
sg63
(lp4649
g56
(g57
g58
NtRp4650
(dp4651
g61
(dp4652
g69
I3
ssg70
g4646
sg63
(lp4653
S''
asbasbasbag56
(g72
g58
NtRp4654
(dp4655
g61
(dp4656
sg70
g4613
sg63
(lp4657
g56
(g77
g58
NtRp4658
(dp4659
g61
(dp4660
sg70
g4654
sg63
(lp4661
g56
(g57
g58
NtRp4662
(dp4663
g61
(dp4664
g69
I3
ssg70
g4658
sg63
(lp4665
g56
(g65
g58
NtRp4666
(dp4667
g61
(dp4668
g69
I2
ssg70
Nsg63
(lp4669
g56
(g72
g58
NtRp4670
(dp4671
g61
(dp4672
sg70
g4666
sg63
(lp4673
g56
(g77
g58
NtRp4674
(dp4675
g61
(dp4676
sg70
g4670
sg63
(lp4677
g56
(g57
g58
NtRp4678
(dp4679
g61
(dp4680
g69
I2
ssg70
g4674
sg63
(lp4681
g56
(g65
g58
NtRp4682
(dp4683
g61
(dp4684
g69
I1
ssg70
Nsg63
(lp4685
g56
(g72
g58
NtRp4686
(dp4687
g61
(dp4688
sg70
g4682
sg63
(lp4689
g56
(g77
g58
NtRp4690
(dp4691
g61
(dp4692
sg70
g4686
sg63
(lp4693
g56
(g57
g58
NtRp4694
(dp4695
g61
(dp4696
g69
I1
ssg70
g4690
sg63
(lp4697
g4151
(S't\x04\x00\x00\x00Novo'
tRp4698
asbasbasbag56
(g72
g58
NtRp4699
(dp4700
g61
(dp4701
sg70
g4682
sg63
(lp4702
g56
(g77
g58
NtRp4703
(dp4704
g61
(dp4705
sg70
g4699
sg63
(lp4706
g56
(g57
g58
NtRp4707
(dp4708
g61
(dp4709
g69
I1
ssg70
g4703
sg63
(lp4710
I00
asbasbasbag56
(g72
g58
NtRp4711
(dp4712
g61
(dp4713
sg70
g4682
sg63
(lp4714
g56
(g77
g58
NtRp4715
(dp4716
g61
(dp4717
sg70
g4711
sg63
(lp4718
g56
(g57
g58
NtRp4719
(dp4720
g61
(dp4721
g69
I1
ssg70
g4715
sg63
(lp4722
S'/scrum/sprint/novo'
p4723
asbasbasbag56
(g72
g58
NtRp4724
(dp4725
g61
(dp4726
sg70
g4682
sg63
(lp4727
g56
(g77
g58
NtRp4728
(dp4729
g61
(dp4730
sg70
g4724
sg63
(lp4731
g56
(g57
g58
NtRp4732
(dp4733
g61
(dp4734
g69
I1
ssg70
g4728
sg63
(lp4735
(lp4736
asbasbasbasbasbasbasbag56
(g72
g58
NtRp4737
(dp4738
g61
(dp4739
sg70
g4666
sg63
(lp4740
g56
(g77
g58
NtRp4741
(dp4742
g61
(dp4743
sg70
g4737
sg63
(lp4744
g56
(g57
g58
NtRp4745
(dp4746
g61
(dp4747
g69
I2
ssg70
g4741
sg63
(lp4748
g56
(g65
g58
NtRp4749
(dp4750
g61
(dp4751
g69
I1
ssg70
Nsg63
(lp4752
g56
(g72
g58
NtRp4753
(dp4754
g61
(dp4755
sg70
g4749
sg63
(lp4756
g56
(g77
g58
NtRp4757
(dp4758
g61
(dp4759
sg70
g4753
sg63
(lp4760
g56
(g57
g58
NtRp4761
(dp4762
g61
(dp4763
g69
I1
ssg70
g4757
sg63
(lp4764
g4151
(S't\n\x00\x00\x00Selecionar'
tRp4765
asbasbasbag56
(g72
g58
NtRp4766
(dp4767
g61
(dp4768
sg70
g4749
sg63
(lp4769
g56
(g77
g58
NtRp4770
(dp4771
g61
(dp4772
sg70
g4766
sg63
(lp4773
g56
(g57
g58
NtRp4774
(dp4775
g61
(dp4776
g69
I1
ssg70
g4770
sg63
(lp4777
I00
asbasbasbag56
(g72
g58
NtRp4778
(dp4779
g61
(dp4780
sg70
g4749
sg63
(lp4781
g56
(g77
g58
NtRp4782
(dp4783
g61
(dp4784
sg70
g4778
sg63
(lp4785
g56
(g57
g58
NtRp4786
(dp4787
g61
(dp4788
g69
I1
ssg70
g4782
sg63
(lp4789
S'/scrum/sprint/index'
p4790
asbasbasbag56
(g72
g58
NtRp4791
(dp4792
g61
(dp4793
sg70
g4749
sg63
(lp4794
g56
(g77
g58
NtRp4795
(dp4796
g61
(dp4797
sg70
g4791
sg63
(lp4798
g56
(g57
g58
NtRp4799
(dp4800
g61
(dp4801
g69
I1
ssg70
g4795
sg63
(lp4802
(lp4803
asbasbasbasbasbasbasbasbasbasbasbasbasbasbasbag56
(g72
g58
NtRp4804
(dp4805
g61
(dp4806
sg70
g4119
sg63
(lp4807
g56
(g77
g58
NtRp4808
(dp4809
g61
(dp4810
sg70
g4804
sg63
(lp4811
g56
(g57
g58
NtRp4812
(dp4813
g61
(dp4814
g69
I4
ssg70
g4808
sg63
(lp4815
g56
(g65
g58
NtRp4816
(dp4817
g61
(dp4818
g69
I3
ssg70
Nsg63
(lp4819
g56
(g72
g58
NtRp4820
(dp4821
g61
(dp4822
sg70
g4816
sg63
(lp4823
g56
(g77
g58
NtRp4824
(dp4825
g61
(dp4826
sg70
g4820
sg63
(lp4827
g56
(g57
g58
NtRp4828
(dp4829
g61
(dp4830
g69
I3
ssg70
g4824
sg63
(lp4831
g4151
(S't\x06\x00\x00\x00Config'
tRp4832
asbasbasbag56
(g72
g58
NtRp4833
(dp4834
g61
(dp4835
sg70
g4816
sg63
(lp4836
g56
(g77
g58
NtRp4837
(dp4838
g61
(dp4839
sg70
g4833
sg63
(lp4840
g56
(g57
g58
NtRp4841
(dp4842
g61
(dp4843
g69
I3
ssg70
g4837
sg63
(lp4844
g99
asbasbasbag56
(g72
g58
NtRp4845
(dp4846
g61
(dp4847
sg70
g4816
sg63
(lp4848
g56
(g77
g58
NtRp4849
(dp4850
g61
(dp4851
sg70
g4845
sg63
(lp4852
g56
(g57
g58
NtRp4853
(dp4854
g61
(dp4855
g69
I3
ssg70
g4849
sg63
(lp4856
S''
asbasbasbag56
(g72
g58
NtRp4857
(dp4858
g61
(dp4859
sg70
g4816
sg63
(lp4860
g56
(g77
g58
NtRp4861
(dp4862
g61
(dp4863
sg70
g4857
sg63
(lp4864
g56
(g57
g58
NtRp4865
(dp4866
g61
(dp4867
g69
I3
ssg70
g4861
sg63
(lp4868
g56
(g65
g58
NtRp4869
(dp4870
g61
(dp4871
g69
I2
ssg70
Nsg63
(lp4872
g56
(g72
g58
NtRp4873
(dp4874
g61
(dp4875
sg70
g4869
sg63
(lp4876
g56
(g77
g58
NtRp4877
(dp4878
g61
(dp4879
sg70
g4873
sg63
(lp4880
g56
(g57
g58
NtRp4881
(dp4882
g61
(dp4883
g69
I2
ssg70
g4877
sg63
(lp4884
g56
(g65
g58
NtRp4885
(dp4886
g61
(dp4887
g69
I1
ssg70
Nsg63
(lp4888
g56
(g72
g58
NtRp4889
(dp4890
g61
(dp4891
sg70
g4885
sg63
(lp4892
g56
(g77
g58
NtRp4893
(dp4894
g61
(dp4895
sg70
g4889
sg63
(lp4896
g56
(g57
g58
NtRp4897
(dp4898
g61
(dp4899
g69
I1
ssg70
g4893
sg63
(lp4900
g4151
(S't\x05\x00\x00\x00Geral'
tRp4901
asbasbasbag56
(g72
g58
NtRp4902
(dp4903
g61
(dp4904
sg70
g4885
sg63
(lp4905
g56
(g77
g58
NtRp4906
(dp4907
g61
(dp4908
sg70
g4902
sg63
(lp4909
g56
(g57
g58
NtRp4910
(dp4911
g61
(dp4912
g69
I1
ssg70
g4906
sg63
(lp4913
I00
asbasbasbag56
(g72
g58
NtRp4914
(dp4915
g61
(dp4916
sg70
g4885
sg63
(lp4917
g56
(g77
g58
NtRp4918
(dp4919
g61
(dp4920
sg70
g4914
sg63
(lp4921
g56
(g57
g58
NtRp4922
(dp4923
g61
(dp4924
g69
I1
ssg70
g4918
sg63
(lp4925
S'/scrum/config/index'
p4926
asbasbasbag56
(g72
g58
NtRp4927
(dp4928
g61
(dp4929
sg70
g4885
sg63
(lp4930
g56
(g77
g58
NtRp4931
(dp4932
g61
(dp4933
sg70
g4927
sg63
(lp4934
g56
(g57
g58
NtRp4935
(dp4936
g61
(dp4937
g69
I1
ssg70
g4931
sg63
(lp4938
(lp4939
asbasbasbasbasbasbasbag56
(g72
g58
NtRp4940
(dp4941
g61
(dp4942
sg70
g4869
sg63
(lp4943
g56
(g77
g58
NtRp4944
(dp4945
g61
(dp4946
sg70
g4940
sg63
(lp4947
g56
(g57
g58
NtRp4948
(dp4949
g61
(dp4950
g69
I2
ssg70
g4944
sg63
(lp4951
g56
(g65
g58
NtRp4952
(dp4953
g61
(dp4954
g69
I1
ssg70
Nsg63
(lp4955
g56
(g72
g58
NtRp4956
(dp4957
g61
(dp4958
sg70
g4952
sg63
(lp4959
g56
(g77
g58
NtRp4960
(dp4961
g61
(dp4962
sg70
g4956
sg63
(lp4963
g56
(g57
g58
NtRp4964
(dp4965
g61
(dp4966
g69
I1
ssg70
g4960
sg63
(lp4967
g4151
(S's\x12\x00\x00\x00Estados de Tickets'
tRp4968
asbasbasbag56
(g72
g58
NtRp4969
(dp4970
g61
(dp4971
sg70
g4952
sg63
(lp4972
g56
(g77
g58
NtRp4973
(dp4974
g61
(dp4975
sg70
g4969
sg63
(lp4976
g56
(g57
g58
NtRp4977
(dp4978
g61
(dp4979
g69
I1
ssg70
g4973
sg63
(lp4980
I00
asbasbasbag56
(g72
g58
NtRp4981
(dp4982
g61
(dp4983
sg70
g4952
sg63
(lp4984
g56
(g77
g58
NtRp4985
(dp4986
g61
(dp4987
sg70
g4981
sg63
(lp4988
g56
(g57
g58
NtRp4989
(dp4990
g61
(dp4991
g69
I1
ssg70
g4985
sg63
(lp4992
S'/scrum/config/estado_ticket'
p4993
asbasbasbag56
(g72
g58
NtRp4994
(dp4995
g61
(dp4996
sg70
g4952
sg63
(lp4997
g56
(g77
g58
NtRp4998
(dp4999
g61
(dp5000
sg70
g4994
sg63
(lp5001
g56
(g57
g58
NtRp5002
(dp5003
g61
(dp5004
g69
I1
ssg70
g4998
sg63
(lp5005
(lp5006
asbasbasbasbasbasbasbasbasbasbasbasbasbasbasbasbasbasbasbag56
(g72
g58
NtRp5007
(dp5008
g61
(dp5009
sg70
g3658
sg63
(lp5010
g56
(g77
g58
NtRp5011
(dp5012
g61
(dp5013
g81
g82
ssg70
g5007
sg63
(lp5014
S'meta'
p5015
asbag56
(g77
g58
NtRp5016
(dp5017
g61
(dp5018
g88
g89
ssg70
g5007
sg63
(lp5019
S':'
asbag56
(g77
g58
NtRp5020
(dp5021
g61
(dp5022
sg70
g5007
sg63
(lp5023
g56
(g57
g58
NtRp5024
(dp5025
g61
(dp5026
g69
I5
ssg70
g5020
sg63
(lp5027
g56
(g65
g58
NtRp5028
(dp5029
g61
(dp5030
g69
I4
ssg70
Nsg63
(lp5031
g56
(g72
g58
NtRp5032
(dp5033
g61
(dp5034
sg70
g5028
sg63
(lp5035
g56
(g77
g58
NtRp5036
(dp5037
g61
(dp5038
g81
g82
ssg70
g5032
sg63
(lp5039
S'author'
p5040
asbag56
(g77
g58
NtRp5041
(dp5042
g61
(dp5043
g88
g89
ssg70
g5032
sg63
(lp5044
S':'
asbag56
(g77
g58
NtRp5045
(dp5046
g61
(dp5047
sg70
g5032
sg63
(lp5048
g56
(g57
g58
NtRp5049
(dp5050
g61
(dp5051
g69
I4
ssg70
g5045
sg63
(lp5052
S'Carlos J. Costa'
p5053
asbasbasbag56
(g72
g58
NtRp5054
(dp5055
g61
(dp5056
sg70
g5028
sg63
(lp5057
g56
(g77
g58
NtRp5058
(dp5059
g61
(dp5060
g81
g82
ssg70
g5054
sg63
(lp5061
S'copyright'
p5062
asbag56
(g77
g58
NtRp5063
(dp5064
g61
(dp5065
g88
g89
ssg70
g5054
sg63
(lp5066
S':'
asbag56
(g77
g58
NtRp5067
(dp5068
g61
(dp5069
sg70
g5054
sg63
(lp5070
g56
(g57
g58
NtRp5071
(dp5072
g61
(dp5073
g69
I4
ssg70
g5067
sg63
(lp5074
S'Copyright 2007-2010'
p5075
asbasbasbag56
(g72
g58
NtRp5076
(dp5077
g61
(dp5078
sg70
g5028
sg63
(lp5079
g56
(g77
g58
NtRp5080
(dp5081
g61
(dp5082
g81
g82
ssg70
g5076
sg63
(lp5083
S'description'
p5084
asbag56
(g77
g58
NtRp5085
(dp5086
g61
(dp5087
g88
g89
ssg70
g5076
sg63
(lp5088
S':'
asbag56
(g77
g58
NtRp5089
(dp5090
g61
(dp5091
sg70
g5076
sg63
(lp5092
g56
(g57
g58
NtRp5093
(dp5094
g61
(dp5095
g69
I4
ssg70
g5089
sg63
(lp5096
S'Development track'
p5097
asbasbasbag56
(g72
g58
NtRp5098
(dp5099
g61
(dp5100
sg70
g5028
sg63
(lp5101
g56
(g77
g58
NtRp5102
(dp5103
g61
(dp5104
g81
g82
ssg70
g5098
sg63
(lp5105
S'generator'
p5106
asbag56
(g77
g58
NtRp5107
(dp5108
g61
(dp5109
g88
g89
ssg70
g5098
sg63
(lp5110
S':'
asbag56
(g77
g58
NtRp5111
(dp5112
g61
(dp5113
sg70
g5098
sg63
(lp5114
g56
(g57
g58
NtRp5115
(dp5116
g61
(dp5117
g69
I4
ssg70
g5111
sg63
(lp5118
S'Web2py Enterprise Framework'
p5119
asbasbasbag56
(g72
g58
NtRp5120
(dp5121
g61
(dp5122
sg70
g5028
sg63
(lp5123
g56
(g77
g58
NtRp5124
(dp5125
g61
(dp5126
g81
g82
ssg70
g5120
sg63
(lp5127
S'keywords'
p5128
asbag56
(g77
g58
NtRp5129
(dp5130
g61
(dp5131
g88
g89
ssg70
g5120
sg63
(lp5132
S':'
asbag56
(g77
g58
NtRp5133
(dp5134
g61
(dp5135
sg70
g5120
sg63
(lp5136
g56
(g57
g58
NtRp5137
(dp5138
g61
(dp5139
g69
I4
ssg70
g5133
sg63
(lp5140
S'test, issue'
p5141
asbasbasbasbasbasbasbag56
(g72
g58
NtRp5142
(dp5143
g61
(dp5144
sg70
g3658
sg63
(lp5145
g56
(g77
g58
NtRp5146
(dp5147
g61
(dp5148
g81
g82
ssg70
g5142
sg63
(lp5149
S'postprocessing'
p5150
asbag56
(g77
g58
NtRp5151
(dp5152
g61
(dp5153
g88
g89
ssg70
g5142
sg63
(lp5154
S':'
asbag56
(g77
g58
NtRp5155
(dp5156
g61
(dp5157
sg70
g5142
sg63
(lp5158
g56
(g57
g58
NtRp5159
(dp5160
g61
(dp5161
g69
I5
ssg70
g5155
sg63
(lp5162
g56
(g65
g58
NtRp5163
(dp5164
g61
(dp5165
g69
I4
ssg70
Nsg63
(lp5166
sbasbasbasbag56
(g72
g58
NtRp5167
(dp5168
g61
(dp5169
sg70
g3658
sg63
(lp5170
g56
(g77
g58
NtRp5171
(dp5172
g61
(dp5173
g81
g82
ssg70
g5167
sg63
(lp5174
S'session_file'
p5175
asbag56
(g77
g58
NtRp5176
(dp5177
g61
(dp5178
g88
g89
ssg70
g5167
sg63
(lp5179
S':'
asbag56
(g77
g58
NtRp5180
(dp5181
g61
(dp5182
sg70
g5167
sg63
(lp5183
g56
(g57
g58
NtRp5184
(dp5185
g61
(dp5186
g69
I5
ssg70
g5180
sg63
(lp5187
S"<open file '/home/www-data/web2py/applications/scrum/sessions/127.0.0.1-acc155dc-1d39-4558-b401-1701a16e3472', mode 'rb+' at 0xb911a338>"
p5188
asbasbasbag56
(g72
g58
NtRp5189
(dp5190
g61
(dp5191
sg70
g3658
sg63
(lp5192
g56
(g77
g58
NtRp5193
(dp5194
g61
(dp5195
g81
g82
ssg70
g5189
sg63
(lp5196
S'session_filename'
p5197
asbag56
(g77
g58
NtRp5198
(dp5199
g61
(dp5200
g88
g89
ssg70
g5189
sg63
(lp5201
S':'
asbag56
(g77
g58
NtRp5202
(dp5203
g61
(dp5204
sg70
g5189
sg63
(lp5205
g56
(g57
g58
NtRp5206
(dp5207
g61
(dp5208
g69
I5
ssg70
g5202
sg63
(lp5209
S'/home/www-data/web2py/applications/scrum/sessions/127.0.0.1-acc155dc-1d39-4558-b401-1701a16e3472'
p5210
asbasbasbag56
(g72
g58
NtRp5211
(dp5212
g61
(dp5213
sg70
g3658
sg63
(lp5214
g56
(g77
g58
NtRp5215
(dp5216
g61
(dp5217
g81
g82
ssg70
g5211
sg63
(lp5218
S'session_id'
p5219
asbag56
(g77
g58
NtRp5220
(dp5221
g61
(dp5222
g88
g89
ssg70
g5211
sg63
(lp5223
S':'
asbag56
(g77
g58
NtRp5224
(dp5225
g61
(dp5226
sg70
g5211
sg63
(lp5227
g56
(g57
g58
NtRp5228
(dp5229
g61
(dp5230
g69
I5
ssg70
g5224
sg63
(lp5231
S'127.0.0.1-acc155dc-1d39-4558-b401-1701a16e3472'
p5232
asbasbasbag56
(g72
g58
NtRp5233
(dp5234
g61
(dp5235
sg70
g3658
sg63
(lp5236
g56
(g77
g58
NtRp5237
(dp5238
g61
(dp5239
g81
g82
ssg70
g5233
sg63
(lp5240
S'session_id_name'
p5241
asbag56
(g77
g58
NtRp5242
(dp5243
g61
(dp5244
g88
g89
ssg70
g5233
sg63
(lp5245
S':'
asbag56
(g77
g58
NtRp5246
(dp5247
g61
(dp5248
sg70
g5233
sg63
(lp5249
g56
(g57
g58
NtRp5250
(dp5251
g61
(dp5252
g69
I5
ssg70
g5246
sg63
(lp5253
g3715
asbasbasbag56
(g72
g58
NtRp5254
(dp5255
g61
(dp5256
sg70
g3658
sg63
(lp5257
g56
(g77
g58
NtRp5258
(dp5259
g61
(dp5260
g81
g82
ssg70
g5254
sg63
(lp5261
S'session_locked'
p5262
asbag56
(g77
g58
NtRp5263
(dp5264
g61
(dp5265
g88
g89
ssg70
g5254
sg63
(lp5266
S':'
asbag56
(g77
g58
NtRp5267
(dp5268
g61
(dp5269
sg70
g5254
sg63
(lp5270
g56
(g57
g58
NtRp5271
(dp5272
g61
(dp5273
g69
I5
ssg70
g5267
sg63
(lp5274
g1809
asbasbasbag56
(g72
g58
NtRp5275
(dp5276
g61
(dp5277
sg70
g3658
sg63
(lp5278
g56
(g77
g58
NtRp5279
(dp5280
g61
(dp5281
g81
g82
ssg70
g5275
sg63
(lp5282
S'session_new'
p5283
asbag56
(g77
g58
NtRp5284
(dp5285
g61
(dp5286
g88
g89
ssg70
g5275
sg63
(lp5287
S':'
asbag56
(g77
g58
NtRp5288
(dp5289
g61
(dp5290
sg70
g5275
sg63
(lp5291
g56
(g57
g58
NtRp5292
(dp5293
g61
(dp5294
g69
I5
ssg70
g5288
sg63
(lp5295
g99
asbasbasbag56
(g72
g58
NtRp5296
(dp5297
g61
(dp5298
sg70
g3658
sg63
(lp5299
g56
(g77
g58
NtRp5300
(dp5301
g61
(dp5302
g81
g82
ssg70
g5296
sg63
(lp5303
S'status'
p5304
asbag56
(g77
g58
NtRp5305
(dp5306
g61
(dp5307
g88
g89
ssg70
g5296
sg63
(lp5308
S':'
asbag56
(g77
g58
NtRp5309
(dp5310
g61
(dp5311
sg70
g5296
sg63
(lp5312
g56
(g57
g58
NtRp5313
(dp5314
g61
(dp5315
g69
I5
ssg70
g5309
sg63
(lp5316
S'200'
p5317
asbasbasbag56
(g72
g58
NtRp5318
(dp5319
g61
(dp5320
sg70
g3658
sg63
(lp5321
g56
(g77
g58
NtRp5322
(dp5323
g61
(dp5324
g81
g82
ssg70
g5318
sg63
(lp5325
S'subtitle'
p5326
asbag56
(g77
g58
NtRp5327
(dp5328
g61
(dp5329
g88
g89
ssg70
g5318
sg63
(lp5330
S':'
asbag56
(g77
g58
NtRp5331
(dp5332
g61
(dp5333
sg70
g5318
sg63
(lp5334
g56
(g57
g58
NtRp5335
(dp5336
g61
(dp5337
g69
I5
ssg70
g5331
sg63
(lp5338
g4151
(S's\x0f\x00\x00\x00Personalize-me!'
tRp5339
asbasbasbag56
(g72
g58
NtRp5340
(dp5341
g61
(dp5342
sg70
g3658
sg63
(lp5343
g56
(g77
g58
NtRp5344
(dp5345
g61
(dp5346
g81
g82
ssg70
g5340
sg63
(lp5347
S'title'
p5348
asbag56
(g77
g58
NtRp5349
(dp5350
g61
(dp5351
g88
g89
ssg70
g5340
sg63
(lp5352
S':'
asbag56
(g77
g58
NtRp5353
(dp5354
g61
(dp5355
sg70
g5340
sg63
(lp5356
g56
(g57
g58
NtRp5357
(dp5358
g61
(dp5359
g69
I5
ssg70
g5353
sg63
(lp5360
g121
asbasbasbag56
(g72
g58
NtRp5361
(dp5362
g61
(dp5363
sg70
g3658
sg63
(lp5364
g56
(g77
g58
NtRp5365
(dp5366
g61
(dp5367
g81
g82
ssg70
g5361
sg63
(lp5368
g2154
asbag56
(g77
g58
NtRp5369
(dp5370
g61
(dp5371
g88
g89
ssg70
g5361
sg63
(lp5372
S':'
asbag56
(g77
g58
NtRp5373
(dp5374
g61
(dp5375
sg70
g5361
sg63
(lp5376
g56
(g57
g58
NtRp5377
(dp5378
g61
(dp5379
g69
I5
ssg70
g5373
sg63
(lp5380
g2167
asbasbasbag56
(g72
g58
NtRp5381
(dp5382
g61
(dp5383
sg70
g3658
sg63
(lp5384
g56
(g77
g58
NtRp5385
(dp5386
g61
(dp5387
g81
g82
ssg70
g5381
sg63
(lp5388
S'view'
p5389
asbag56
(g77
g58
NtRp5390
(dp5391
g61
(dp5392
g88
g89
ssg70
g5381
sg63
(lp5393
S':'
asbag56
(g77
g58
NtRp5394
(dp5395
g61
(dp5396
sg70
g5381
sg63
(lp5397
g56
(g57
g58
NtRp5398
(dp5399
g61
(dp5400
g69
I5
ssg70
g5394
sg63
(lp5401
S'ticket/form_teste.html'
p5402
asbasbasbasbasbsS'locals'
p5403
(dp5404
S'self'
p5405
S"<Row {'chamado': '11447', 'local_teste': '', 'co...lete_record': <function <lambda> at 0xb9208e9c>}>"
p5406
sS'key'
p5407
S"'inicio'"
p5408
sssS'traceback'
p5409
S'Traceback (most recent call last):\n  File "/home/www-data/web2py/gluon/restricted.py", line 192, in restricted\n    exec ccode in environment\n  File "/home/www-data/web2py/applications/scrum/views/ticket/form_teste.html", line 6, in <module>\n    DE TESTE</B></FONT></FONT></P>\n  File "/home/www-data/web2py/gluon/dal.py", line 3786, in __getattr__\n    return self[key]\n  File "/home/www-data/web2py/gluon/dal.py", line 3777, in __getitem__\n    return dict.__getitem__(self, key)\nKeyError: \'inicio\'\n'
p5410
s.