(dp1
S'output'
p2
S''
sS'layer'
p3
S'/home/www-data/web2py/applications/scrum/controllers/sprint.py'
p4
sS'code'
p5
S"# coding: utf8\n\n@auth.requires_login()\ndef index(): \n    sprints = db(db.sprint).select()\n    return dict(sprints=crud.select(db.sprint))\n\n@auth.requires_login()   \ndef novo():\n    form = crud.create(db.sprint)\n    response.view = 'simple_form.html'\n    return dict(form=form)\n\n@auth.requires_login()\ndef editar():\n    form = crud.update(db.sprint,request.args(0))\n    response.subtitle = 'Editar Sprint' \n    powerTable = plugins.powerTable\n    powerTable.datasource = db.sprint.id == db.ticket.sprint\n    powerTable.headers = 'labels'\n    powerTable.showkeycolumn = False\n    powerTable.keycolumn = 'sprint.id'\n    powerTable.columns = ['sprint.id','sprint.numero']\n    powerTable.extrajs = dict(autoresize={},\n                             tooltip={},\n                             details={'detailscolumns':'ticket.id,\\\n                                                        ticket.chamado,\\\n                                                        ticket.analista,\\\n                                                        ticket.cliente',\n                                     'detailscallback':URL(c='sprint',f='detalhes')\n                             })\n    return dict(form=form,table=powerTable.create())\n    \ndef detalhes():\n    #Key Processing\n    key = None\n    cols = None\n    for k in request.vars.keys():\n        if k[:3] == 'dt_':\n            key = request.vars[k]\n        elif k[:6] == 'dtcols':\n            cols = request.vars[k]\n    \n    #vars to work\n    tablename = key.split('.')[0]\n    fieldname = key.split('.')[1]\n    value = key.split('.')[2]\n    \n    tickets = db(db.ticket.sprint == value).select(db.ticket.ALL)\n    #return SQLTABLE(tickets)\n    return SQLTABLE(tickets,headers='lables')\n\nresponse._vars=response._caller(detalhes)\n"
p6
sS'snapshot'
p7
(dp8
S'exception'
p9
(dp10
S'__hash__'
p11
S"<method-wrapper '__hash__' of exceptions.AttributeError object>"
p12
sS'__setattr__'
p13
S"<method-wrapper '__setattr__' of exceptions.AttributeError object>"
p14
sS'__reduce_ex__'
p15
S'<built-in method __reduce_ex__ of exceptions.AttributeError object>'
p16
sS'__getslice__'
p17
S"<method-wrapper '__getslice__' of exceptions.AttributeError object>"
p18
sS'__getitem__'
p19
S"<method-wrapper '__getitem__' of exceptions.AttributeError object>"
p20
sS'__setstate__'
p21
S'<built-in method __setstate__ of exceptions.AttributeError object>'
p22
sS'__reduce__'
p23
S'<built-in method __reduce__ of exceptions.AttributeError object>'
p24
sS'__str__'
p25
S"<method-wrapper '__str__' of exceptions.AttributeError object>"
p26
sS'__format__'
p27
S'<built-in method __format__ of exceptions.AttributeError object>'
p28
sS'__getattribute__'
p29
S"<method-wrapper '__getattribute__' of exceptions.AttributeError object>"
p30
sS'__class__'
p31
S"<type 'exceptions.AttributeError'>"
p32
sS'__unicode__'
p33
S'<built-in method __unicode__ of exceptions.AttributeError object>'
p34
sS'__delattr__'
p35
S"<method-wrapper '__delattr__' of exceptions.AttributeError object>"
p36
sS'__subclasshook__'
p37
S'<built-in method __subclasshook__ of type object>'
p38
sS'__repr__'
p39
S"<method-wrapper '__repr__' of exceptions.AttributeError object>"
p40
sS'args'
p41
S'("\'str\' object has no attribute \'get\'",)'
p42
sS'__dict__'
p43
S'{}'
p44
sS'__sizeof__'
p45
S'<built-in method __sizeof__ of exceptions.AttributeError object>'
p46
sS'__doc__'
p47
S"'Attribute not found.'"
p48
sS'__init__'
p49
S"<method-wrapper '__init__' of exceptions.AttributeError object>"
p50
sS'__new__'
p51
S'<built-in method __new__ of type object>'
p52
ssS'evalue'
p53
S"'str' object has no attribute 'get'"
p54
sS'request'
p55
ccopy_reg
_reconstructor
p56
(cgluon.html
BEAUTIFY
p57
c__builtin__
object
p58
NtRp59
(dp60
S'attributes'
p61
(dp62
sS'components'
p63
(lp64
g56
(cgluon.html
TABLE
p65
g58
NtRp66
(dp67
g61
(dp68
S'level'
p69
I5
ssS'parent'
p70
Nsg63
(lp71
g56
(cgluon.html
TR
p72
g58
NtRp73
(dp74
g61
(dp75
sg70
g66
sg63
(lp76
g56
(cgluon.html
TD
p77
g58
NtRp78
(dp79
g61
(dp80
S'_style'
p81
S'font-weight:bold;'
p82
ssg70
g73
sg63
(lp83
S'ajax'
p84
asbag56
(g77
g58
NtRp85
(dp86
g61
(dp87
S'_valign'
p88
S'top'
p89
ssg70
g73
sg63
(lp90
S':'
asbag56
(g77
g58
NtRp91
(dp92
g61
(dp93
sg70
g73
sg63
(lp94
g56
(g57
g58
NtRp95
(dp96
g61
(dp97
g69
I5
ssg70
g91
sg63
(lp98
S'True'
p99
asbasbasbag56
(g72
g58
NtRp100
(dp101
g61
(dp102
sg70
g66
sg63
(lp103
g56
(g77
g58
NtRp104
(dp105
g61
(dp106
g81
g82
ssg70
g100
sg63
(lp107
S'application'
p108
asbag56
(g77
g58
NtRp109
(dp110
g61
(dp111
g88
g89
ssg70
g100
sg63
(lp112
S':'
asbag56
(g77
g58
NtRp113
(dp114
g61
(dp115
sg70
g100
sg63
(lp116
g56
(g57
g58
NtRp117
(dp118
g61
(dp119
g69
I5
ssg70
g113
sg63
(lp120
S'scrum'
p121
asbasbasbag56
(g72
g58
NtRp122
(dp123
g61
(dp124
sg70
g66
sg63
(lp125
g56
(g77
g58
NtRp126
(dp127
g61
(dp128
g81
g82
ssg70
g122
sg63
(lp129
g41
asbag56
(g77
g58
NtRp130
(dp131
g61
(dp132
g88
g89
ssg70
g122
sg63
(lp133
S':'
asbag56
(g77
g58
NtRp134
(dp135
g61
(dp136
sg70
g122
sg63
(lp137
g56
(g57
g58
NtRp138
(dp139
g61
(dp140
g69
I5
ssg70
g134
sg63
(lp141
g56
(g65
g58
NtRp142
(dp143
g61
(dp144
g69
I4
ssg70
Nsg63
(lp145
sbasbasbasbag56
(g72
g58
NtRp146
(dp147
g61
(dp148
sg70
g66
sg63
(lp149
g56
(g77
g58
NtRp150
(dp151
g61
(dp152
g81
g82
ssg70
g146
sg63
(lp153
S'body'
p154
asbag56
(g77
g58
NtRp155
(dp156
g61
(dp157
g88
g89
ssg70
g146
sg63
(lp158
S':'
asbag56
(g77
g58
NtRp159
(dp160
g61
(dp161
sg70
g146
sg63
(lp162
g56
(g57
g58
NtRp163
(dp164
g61
(dp165
g69
I5
ssg70
g159
sg63
(lp166
S"<open file '<fdopen>', mode 'w+b' at 0xb9409de0>"
p167
asbasbasbag56
(g72
g58
NtRp168
(dp169
g61
(dp170
sg70
g66
sg63
(lp171
g56
(g77
g58
NtRp172
(dp173
g61
(dp174
g81
g82
ssg70
g168
sg63
(lp175
S'client'
p176
asbag56
(g77
g58
NtRp177
(dp178
g61
(dp179
g88
g89
ssg70
g168
sg63
(lp180
S':'
asbag56
(g77
g58
NtRp181
(dp182
g61
(dp183
sg70
g168
sg63
(lp184
g56
(g57
g58
NtRp185
(dp186
g61
(dp187
g69
I5
ssg70
g181
sg63
(lp188
S'127.0.0.1'
p189
asbasbasbag56
(g72
g58
NtRp190
(dp191
g61
(dp192
sg70
g66
sg63
(lp193
g56
(g77
g58
NtRp194
(dp195
g61
(dp196
g81
g82
ssg70
g190
sg63
(lp197
S'controller'
p198
asbag56
(g77
g58
NtRp199
(dp200
g61
(dp201
g88
g89
ssg70
g190
sg63
(lp202
S':'
asbag56
(g77
g58
NtRp203
(dp204
g61
(dp205
sg70
g190
sg63
(lp206
g56
(g57
g58
NtRp207
(dp208
g61
(dp209
g69
I5
ssg70
g203
sg63
(lp210
S'sprint'
p211
asbasbasbag56
(g72
g58
NtRp212
(dp213
g61
(dp214
sg70
g66
sg63
(lp215
g56
(g77
g58
NtRp216
(dp217
g61
(dp218
g81
g82
ssg70
g212
sg63
(lp219
S'cookies'
p220
asbag56
(g77
g58
NtRp221
(dp222
g61
(dp223
g88
g89
ssg70
g212
sg63
(lp224
S':'
asbag56
(g77
g58
NtRp225
(dp226
g61
(dp227
sg70
g212
sg63
(lp228
g56
(g57
g58
NtRp229
(dp230
g61
(dp231
g69
I5
ssg70
g225
sg63
(lp232
g56
(g65
g58
NtRp233
(dp234
g61
(dp235
g69
I4
ssg70
Nsg63
(lp236
g56
(g72
g58
NtRp237
(dp238
g61
(dp239
sg70
g233
sg63
(lp240
g56
(g77
g58
NtRp241
(dp242
g61
(dp243
g81
g82
ssg70
g237
sg63
(lp244
S'session_id_admin'
p245
asbag56
(g77
g58
NtRp246
(dp247
g61
(dp248
g88
g89
ssg70
g237
sg63
(lp249
S':'
asbag56
(g77
g58
NtRp250
(dp251
g61
(dp252
sg70
g237
sg63
(lp253
g56
(g57
g58
NtRp254
(dp255
g61
(dp256
g69
I4
ssg70
g250
sg63
(lp257
g56
(g65
g58
NtRp258
(dp259
g61
(dp260
g69
I3
ssg70
Nsg63
(lp261
g56
(g72
g58
NtRp262
(dp263
g61
(dp264
sg70
g258
sg63
(lp265
g56
(g77
g58
NtRp266
(dp267
g61
(dp268
g81
g82
ssg70
g262
sg63
(lp269
S'comment'
p270
asbag56
(g77
g58
NtRp271
(dp272
g61
(dp273
g88
g89
ssg70
g262
sg63
(lp274
S':'
asbag56
(g77
g58
NtRp275
(dp276
g61
(dp277
sg70
g262
sg63
(lp278
g56
(g57
g58
NtRp279
(dp280
g61
(dp281
g69
I3
ssg70
g275
sg63
(lp282
S''
asbasbasbag56
(g72
g58
NtRp283
(dp284
g61
(dp285
sg70
g258
sg63
(lp286
g56
(g77
g58
NtRp287
(dp288
g61
(dp289
g81
g82
ssg70
g283
sg63
(lp290
S'domain'
p291
asbag56
(g77
g58
NtRp292
(dp293
g61
(dp294
g88
g89
ssg70
g283
sg63
(lp295
S':'
asbag56
(g77
g58
NtRp296
(dp297
g61
(dp298
sg70
g283
sg63
(lp299
g56
(g57
g58
NtRp300
(dp301
g61
(dp302
g69
I3
ssg70
g296
sg63
(lp303
S''
asbasbasbag56
(g72
g58
NtRp304
(dp305
g61
(dp306
sg70
g258
sg63
(lp307
g56
(g77
g58
NtRp308
(dp309
g61
(dp310
g81
g82
ssg70
g304
sg63
(lp311
S'expires'
p312
asbag56
(g77
g58
NtRp313
(dp314
g61
(dp315
g88
g89
ssg70
g304
sg63
(lp316
S':'
asbag56
(g77
g58
NtRp317
(dp318
g61
(dp319
sg70
g304
sg63
(lp320
g56
(g57
g58
NtRp321
(dp322
g61
(dp323
g69
I3
ssg70
g317
sg63
(lp324
S''
asbasbasbag56
(g72
g58
NtRp325
(dp326
g61
(dp327
sg70
g258
sg63
(lp328
g56
(g77
g58
NtRp329
(dp330
g61
(dp331
g81
g82
ssg70
g325
sg63
(lp332
S'httponly'
p333
asbag56
(g77
g58
NtRp334
(dp335
g61
(dp336
g88
g89
ssg70
g325
sg63
(lp337
S':'
asbag56
(g77
g58
NtRp338
(dp339
g61
(dp340
sg70
g325
sg63
(lp341
g56
(g57
g58
NtRp342
(dp343
g61
(dp344
g69
I3
ssg70
g338
sg63
(lp345
S''
asbasbasbag56
(g72
g58
NtRp346
(dp347
g61
(dp348
sg70
g258
sg63
(lp349
g56
(g77
g58
NtRp350
(dp351
g61
(dp352
g81
g82
ssg70
g346
sg63
(lp353
S'max-age'
p354
asbag56
(g77
g58
NtRp355
(dp356
g61
(dp357
g88
g89
ssg70
g346
sg63
(lp358
S':'
asbag56
(g77
g58
NtRp359
(dp360
g61
(dp361
sg70
g346
sg63
(lp362
g56
(g57
g58
NtRp363
(dp364
g61
(dp365
g69
I3
ssg70
g359
sg63
(lp366
S''
asbasbasbag56
(g72
g58
NtRp367
(dp368
g61
(dp369
sg70
g258
sg63
(lp370
g56
(g77
g58
NtRp371
(dp372
g61
(dp373
g81
g82
ssg70
g367
sg63
(lp374
S'path'
p375
asbag56
(g77
g58
NtRp376
(dp377
g61
(dp378
g88
g89
ssg70
g367
sg63
(lp379
S':'
asbag56
(g77
g58
NtRp380
(dp381
g61
(dp382
sg70
g367
sg63
(lp383
g56
(g57
g58
NtRp384
(dp385
g61
(dp386
g69
I3
ssg70
g380
sg63
(lp387
S''
asbasbasbag56
(g72
g58
NtRp388
(dp389
g61
(dp390
sg70
g258
sg63
(lp391
g56
(g77
g58
NtRp392
(dp393
g61
(dp394
g81
g82
ssg70
g388
sg63
(lp395
S'secure'
p396
asbag56
(g77
g58
NtRp397
(dp398
g61
(dp399
g88
g89
ssg70
g388
sg63
(lp400
S':'
asbag56
(g77
g58
NtRp401
(dp402
g61
(dp403
sg70
g388
sg63
(lp404
g56
(g57
g58
NtRp405
(dp406
g61
(dp407
g69
I3
ssg70
g401
sg63
(lp408
S''
asbasbasbag56
(g72
g58
NtRp409
(dp410
g61
(dp411
sg70
g258
sg63
(lp412
g56
(g77
g58
NtRp413
(dp414
g61
(dp415
g81
g82
ssg70
g409
sg63
(lp416
S'version'
p417
asbag56
(g77
g58
NtRp418
(dp419
g61
(dp420
g88
g89
ssg70
g409
sg63
(lp421
S':'
asbag56
(g77
g58
NtRp422
(dp423
g61
(dp424
sg70
g409
sg63
(lp425
g56
(g57
g58
NtRp426
(dp427
g61
(dp428
g69
I3
ssg70
g422
sg63
(lp429
S''
asbasbasbasbasbasbasbag56
(g72
g58
NtRp430
(dp431
g61
(dp432
sg70
g233
sg63
(lp433
g56
(g77
g58
NtRp434
(dp435
g61
(dp436
g81
g82
ssg70
g430
sg63
(lp437
S'session_id_scrum'
p438
asbag56
(g77
g58
NtRp439
(dp440
g61
(dp441
g88
g89
ssg70
g430
sg63
(lp442
S':'
asbag56
(g77
g58
NtRp443
(dp444
g61
(dp445
sg70
g430
sg63
(lp446
g56
(g57
g58
NtRp447
(dp448
g61
(dp449
g69
I4
ssg70
g443
sg63
(lp450
g56
(g65
g58
NtRp451
(dp452
g61
(dp453
g69
I3
ssg70
Nsg63
(lp454
g56
(g72
g58
NtRp455
(dp456
g61
(dp457
sg70
g451
sg63
(lp458
g56
(g77
g58
NtRp459
(dp460
g61
(dp461
g81
g82
ssg70
g455
sg63
(lp462
g270
asbag56
(g77
g58
NtRp463
(dp464
g61
(dp465
g88
g89
ssg70
g455
sg63
(lp466
S':'
asbag56
(g77
g58
NtRp467
(dp468
g61
(dp469
sg70
g455
sg63
(lp470
g56
(g57
g58
NtRp471
(dp472
g61
(dp473
g69
I3
ssg70
g467
sg63
(lp474
S''
asbasbasbag56
(g72
g58
NtRp475
(dp476
g61
(dp477
sg70
g451
sg63
(lp478
g56
(g77
g58
NtRp479
(dp480
g61
(dp481
g81
g82
ssg70
g475
sg63
(lp482
g291
asbag56
(g77
g58
NtRp483
(dp484
g61
(dp485
g88
g89
ssg70
g475
sg63
(lp486
S':'
asbag56
(g77
g58
NtRp487
(dp488
g61
(dp489
sg70
g475
sg63
(lp490
g56
(g57
g58
NtRp491
(dp492
g61
(dp493
g69
I3
ssg70
g487
sg63
(lp494
S''
asbasbasbag56
(g72
g58
NtRp495
(dp496
g61
(dp497
sg70
g451
sg63
(lp498
g56
(g77
g58
NtRp499
(dp500
g61
(dp501
g81
g82
ssg70
g495
sg63
(lp502
g312
asbag56
(g77
g58
NtRp503
(dp504
g61
(dp505
g88
g89
ssg70
g495
sg63
(lp506
S':'
asbag56
(g77
g58
NtRp507
(dp508
g61
(dp509
sg70
g495
sg63
(lp510
g56
(g57
g58
NtRp511
(dp512
g61
(dp513
g69
I3
ssg70
g507
sg63
(lp514
S''
asbasbasbag56
(g72
g58
NtRp515
(dp516
g61
(dp517
sg70
g451
sg63
(lp518
g56
(g77
g58
NtRp519
(dp520
g61
(dp521
g81
g82
ssg70
g515
sg63
(lp522
g333
asbag56
(g77
g58
NtRp523
(dp524
g61
(dp525
g88
g89
ssg70
g515
sg63
(lp526
S':'
asbag56
(g77
g58
NtRp527
(dp528
g61
(dp529
sg70
g515
sg63
(lp530
g56
(g57
g58
NtRp531
(dp532
g61
(dp533
g69
I3
ssg70
g527
sg63
(lp534
S''
asbasbasbag56
(g72
g58
NtRp535
(dp536
g61
(dp537
sg70
g451
sg63
(lp538
g56
(g77
g58
NtRp539
(dp540
g61
(dp541
g81
g82
ssg70
g535
sg63
(lp542
g354
asbag56
(g77
g58
NtRp543
(dp544
g61
(dp545
g88
g89
ssg70
g535
sg63
(lp546
S':'
asbag56
(g77
g58
NtRp547
(dp548
g61
(dp549
sg70
g535
sg63
(lp550
g56
(g57
g58
NtRp551
(dp552
g61
(dp553
g69
I3
ssg70
g547
sg63
(lp554
S''
asbasbasbag56
(g72
g58
NtRp555
(dp556
g61
(dp557
sg70
g451
sg63
(lp558
g56
(g77
g58
NtRp559
(dp560
g61
(dp561
g81
g82
ssg70
g555
sg63
(lp562
g375
asbag56
(g77
g58
NtRp563
(dp564
g61
(dp565
g88
g89
ssg70
g555
sg63
(lp566
S':'
asbag56
(g77
g58
NtRp567
(dp568
g61
(dp569
sg70
g555
sg63
(lp570
g56
(g57
g58
NtRp571
(dp572
g61
(dp573
g69
I3
ssg70
g567
sg63
(lp574
S''
asbasbasbag56
(g72
g58
NtRp575
(dp576
g61
(dp577
sg70
g451
sg63
(lp578
g56
(g77
g58
NtRp579
(dp580
g61
(dp581
g81
g82
ssg70
g575
sg63
(lp582
g396
asbag56
(g77
g58
NtRp583
(dp584
g61
(dp585
g88
g89
ssg70
g575
sg63
(lp586
S':'
asbag56
(g77
g58
NtRp587
(dp588
g61
(dp589
sg70
g575
sg63
(lp590
g56
(g57
g58
NtRp591
(dp592
g61
(dp593
g69
I3
ssg70
g587
sg63
(lp594
S''
asbasbasbag56
(g72
g58
NtRp595
(dp596
g61
(dp597
sg70
g451
sg63
(lp598
g56
(g77
g58
NtRp599
(dp600
g61
(dp601
g81
g82
ssg70
g595
sg63
(lp602
g417
asbag56
(g77
g58
NtRp603
(dp604
g61
(dp605
g88
g89
ssg70
g595
sg63
(lp606
S':'
asbag56
(g77
g58
NtRp607
(dp608
g61
(dp609
sg70
g595
sg63
(lp610
g56
(g57
g58
NtRp611
(dp612
g61
(dp613
g69
I3
ssg70
g607
sg63
(lp614
S''
asbasbasbasbasbasbasbasbasbasbasbag56
(g72
g58
NtRp615
(dp616
g61
(dp617
sg70
g66
sg63
(lp618
g56
(g77
g58
NtRp619
(dp620
g61
(dp621
g81
g82
ssg70
g615
sg63
(lp622
S'env'
p623
asbag56
(g77
g58
NtRp624
(dp625
g61
(dp626
g88
g89
ssg70
g615
sg63
(lp627
S':'
asbag56
(g77
g58
NtRp628
(dp629
g61
(dp630
sg70
g615
sg63
(lp631
g56
(g57
g58
NtRp632
(dp633
g61
(dp634
g69
I5
ssg70
g628
sg63
(lp635
g56
(g65
g58
NtRp636
(dp637
g61
(dp638
g69
I4
ssg70
Nsg63
(lp639
g56
(g72
g58
NtRp640
(dp641
g61
(dp642
sg70
g636
sg63
(lp643
g56
(g77
g58
NtRp644
(dp645
g61
(dp646
g81
g82
ssg70
g640
sg63
(lp647
S'app_folders'
p648
asbag56
(g77
g58
NtRp649
(dp650
g61
(dp651
g88
g89
ssg70
g640
sg63
(lp652
S':'
asbag56
(g77
g58
NtRp653
(dp654
g61
(dp655
sg70
g640
sg63
(lp656
g56
(g57
g58
NtRp657
(dp658
g61
(dp659
g69
I4
ssg70
g653
sg63
(lp660
S"set(['/home/www-data/web2py/applications/scrum/', '/home/www-data/web2py/applications/admin/'])"
p661
asbasbasbag56
(g72
g58
NtRp662
(dp663
g61
(dp664
sg70
g636
sg63
(lp665
g56
(g77
g58
NtRp666
(dp667
g61
(dp668
g81
g82
ssg70
g662
sg63
(lp669
S'applications_parent'
p670
asbag56
(g77
g58
NtRp671
(dp672
g61
(dp673
g88
g89
ssg70
g662
sg63
(lp674
S':'
asbag56
(g77
g58
NtRp675
(dp676
g61
(dp677
sg70
g662
sg63
(lp678
g56
(g57
g58
NtRp679
(dp680
g61
(dp681
g69
I4
ssg70
g675
sg63
(lp682
S'/home/www-data/web2py'
p683
asbasbasbag56
(g72
g58
NtRp684
(dp685
g61
(dp686
sg70
g636
sg63
(lp687
g56
(g77
g58
NtRp688
(dp689
g61
(dp690
g81
g82
ssg70
g684
sg63
(lp691
S'content_length'
p692
asbag56
(g77
g58
NtRp693
(dp694
g61
(dp695
g88
g89
ssg70
g684
sg63
(lp696
S':'
asbag56
(g77
g58
NtRp697
(dp698
g61
(dp699
sg70
g684
sg63
(lp700
g56
(g57
g58
NtRp701
(dp702
g61
(dp703
g69
I4
ssg70
g697
sg63
(lp704
S'255'
p705
asbasbasbag56
(g72
g58
NtRp706
(dp707
g61
(dp708
sg70
g636
sg63
(lp709
g56
(g77
g58
NtRp710
(dp711
g61
(dp712
g81
g82
ssg70
g706
sg63
(lp713
S'content_type'
p714
asbag56
(g77
g58
NtRp715
(dp716
g61
(dp717
g88
g89
ssg70
g706
sg63
(lp718
S':'
asbag56
(g77
g58
NtRp719
(dp720
g61
(dp721
sg70
g706
sg63
(lp722
g56
(g57
g58
NtRp723
(dp724
g61
(dp725
g69
I4
ssg70
g719
sg63
(lp726
S'application/x-www-form-urlencoded; charset=UTF-8'
p727
asbasbasbag56
(g72
g58
NtRp728
(dp729
g61
(dp730
sg70
g636
sg63
(lp731
g56
(g77
g58
NtRp732
(dp733
g61
(dp734
g81
g82
ssg70
g728
sg63
(lp735
S'db_sessions'
p736
asbag56
(g77
g58
NtRp737
(dp738
g61
(dp739
g88
g89
ssg70
g728
sg63
(lp740
S':'
asbag56
(g77
g58
NtRp741
(dp742
g61
(dp743
sg70
g728
sg63
(lp744
g56
(g57
g58
NtRp745
(dp746
g61
(dp747
g69
I4
ssg70
g741
sg63
(lp748
S'set([])'
p749
asbasbasbag56
(g72
g58
NtRp750
(dp751
g61
(dp752
sg70
g636
sg63
(lp753
g56
(g77
g58
NtRp754
(dp755
g61
(dp756
g81
g82
ssg70
g750
sg63
(lp757
S'debugging'
p758
asbag56
(g77
g58
NtRp759
(dp760
g61
(dp761
g88
g89
ssg70
g750
sg63
(lp762
S':'
asbag56
(g77
g58
NtRp763
(dp764
g61
(dp765
sg70
g750
sg63
(lp766
g56
(g57
g58
NtRp767
(dp768
g61
(dp769
g69
I4
ssg70
g763
sg63
(lp770
S'False'
p771
asbasbasbag56
(g72
g58
NtRp772
(dp773
g61
(dp774
sg70
g636
sg63
(lp775
g56
(g77
g58
NtRp776
(dp777
g61
(dp778
g81
g82
ssg70
g772
sg63
(lp779
S'document_root'
p780
asbag56
(g77
g58
NtRp781
(dp782
g61
(dp783
g88
g89
ssg70
g772
sg63
(lp784
S':'
asbag56
(g77
g58
NtRp785
(dp786
g61
(dp787
sg70
g772
sg63
(lp788
g56
(g57
g58
NtRp789
(dp790
g61
(dp791
g69
I4
ssg70
g785
sg63
(lp792
S'/etc/apache2/htdocs'
p793
asbasbasbag56
(g72
g58
NtRp794
(dp795
g61
(dp796
sg70
g636
sg63
(lp797
g56
(g77
g58
NtRp798
(dp799
g61
(dp800
g81
g82
ssg70
g794
sg63
(lp801
S'gateway_interface'
p802
asbag56
(g77
g58
NtRp803
(dp804
g61
(dp805
g88
g89
ssg70
g794
sg63
(lp806
S':'
asbag56
(g77
g58
NtRp807
(dp808
g61
(dp809
sg70
g794
sg63
(lp810
g56
(g57
g58
NtRp811
(dp812
g61
(dp813
g69
I4
ssg70
g807
sg63
(lp814
S'CGI/1.1'
p815
asbasbasbag56
(g72
g58
NtRp816
(dp817
g61
(dp818
sg70
g636
sg63
(lp819
g56
(g77
g58
NtRp820
(dp821
g61
(dp822
g81
g82
ssg70
g816
sg63
(lp823
S'gluon_parent'
p824
asbag56
(g77
g58
NtRp825
(dp826
g61
(dp827
g88
g89
ssg70
g816
sg63
(lp828
S':'
asbag56
(g77
g58
NtRp829
(dp830
g61
(dp831
sg70
g816
sg63
(lp832
g56
(g57
g58
NtRp833
(dp834
g61
(dp835
g69
I4
ssg70
g829
sg63
(lp836
g683
asbasbasbag56
(g72
g58
NtRp837
(dp838
g61
(dp839
sg70
g636
sg63
(lp840
g56
(g77
g58
NtRp841
(dp842
g61
(dp843
g81
g82
ssg70
g837
sg63
(lp844
S'http_accept'
p845
asbag56
(g77
g58
NtRp846
(dp847
g61
(dp848
g88
g89
ssg70
g837
sg63
(lp849
S':'
asbag56
(g77
g58
NtRp850
(dp851
g61
(dp852
sg70
g837
sg63
(lp853
g56
(g57
g58
NtRp854
(dp855
g61
(dp856
g69
I4
ssg70
g850
sg63
(lp857
S'*/*'
p858
asbasbasbag56
(g72
g58
NtRp859
(dp860
g61
(dp861
sg70
g636
sg63
(lp862
g56
(g77
g58
NtRp863
(dp864
g61
(dp865
g81
g82
ssg70
g859
sg63
(lp866
S'http_accept_charset'
p867
asbag56
(g77
g58
NtRp868
(dp869
g61
(dp870
g88
g89
ssg70
g859
sg63
(lp871
S':'
asbag56
(g77
g58
NtRp872
(dp873
g61
(dp874
sg70
g859
sg63
(lp875
g56
(g57
g58
NtRp876
(dp877
g61
(dp878
g69
I4
ssg70
g872
sg63
(lp879
S'ISO-8859-1,utf-8;q=0.7,*;q=0.7'
p880
asbasbasbag56
(g72
g58
NtRp881
(dp882
g61
(dp883
sg70
g636
sg63
(lp884
g56
(g77
g58
NtRp885
(dp886
g61
(dp887
g81
g82
ssg70
g881
sg63
(lp888
S'http_accept_encoding'
p889
asbag56
(g77
g58
NtRp890
(dp891
g61
(dp892
g88
g89
ssg70
g881
sg63
(lp893
S':'
asbag56
(g77
g58
NtRp894
(dp895
g61
(dp896
sg70
g881
sg63
(lp897
g56
(g57
g58
NtRp898
(dp899
g61
(dp900
g69
I4
ssg70
g894
sg63
(lp901
S'gzip, deflate'
p902
asbasbasbag56
(g72
g58
NtRp903
(dp904
g61
(dp905
sg70
g636
sg63
(lp906
g56
(g77
g58
NtRp907
(dp908
g61
(dp909
g81
g82
ssg70
g903
sg63
(lp910
S'http_accept_language'
p911
asbag56
(g77
g58
NtRp912
(dp913
g61
(dp914
g88
g89
ssg70
g903
sg63
(lp915
S':'
asbag56
(g77
g58
NtRp916
(dp917
g61
(dp918
sg70
g903
sg63
(lp919
g56
(g57
g58
NtRp920
(dp921
g61
(dp922
g69
I4
ssg70
g916
sg63
(lp923
S'pt-br,pt;q=0.8,en-us;q=0.5,en;q=0.3'
p924
asbasbasbag56
(g72
g58
NtRp925
(dp926
g61
(dp927
sg70
g636
sg63
(lp928
g56
(g77
g58
NtRp929
(dp930
g61
(dp931
g81
g82
ssg70
g925
sg63
(lp932
S'http_cache_control'
p933
asbag56
(g77
g58
NtRp934
(dp935
g61
(dp936
g88
g89
ssg70
g925
sg63
(lp937
S':'
asbag56
(g77
g58
NtRp938
(dp939
g61
(dp940
sg70
g925
sg63
(lp941
g56
(g57
g58
NtRp942
(dp943
g61
(dp944
g69
I4
ssg70
g938
sg63
(lp945
S'no-cache'
p946
asbasbasbag56
(g72
g58
NtRp947
(dp948
g61
(dp949
sg70
g636
sg63
(lp950
g56
(g77
g58
NtRp951
(dp952
g61
(dp953
g81
g82
ssg70
g947
sg63
(lp954
S'http_connection'
p955
asbag56
(g77
g58
NtRp956
(dp957
g61
(dp958
g88
g89
ssg70
g947
sg63
(lp959
S':'
asbag56
(g77
g58
NtRp960
(dp961
g61
(dp962
sg70
g947
sg63
(lp963
g56
(g57
g58
NtRp964
(dp965
g61
(dp966
g69
I4
ssg70
g960
sg63
(lp967
S'keep-alive'
p968
asbasbasbag56
(g72
g58
NtRp969
(dp970
g61
(dp971
sg70
g636
sg63
(lp972
g56
(g77
g58
NtRp973
(dp974
g61
(dp975
g81
g82
ssg70
g969
sg63
(lp976
S'http_cookie'
p977
asbag56
(g77
g58
NtRp978
(dp979
g61
(dp980
g88
g89
ssg70
g969
sg63
(lp981
S':'
asbag56
(g77
g58
NtRp982
(dp983
g61
(dp984
sg70
g969
sg63
(lp985
g56
(g57
g58
NtRp986
(dp987
g61
(dp988
g69
I4
ssg70
g982
sg63
(lp989
S'session_id_admin=127.0.0.1-e5192660-39ef-4b4b-a6d6-48f8215e8275; session_id_scrum=127.0.0.1-8741b6aa-dd8d-45b3-88a3-6f21c23a3c79'
p990
asbasbasbag56
(g72
g58
NtRp991
(dp992
g61
(dp993
sg70
g636
sg63
(lp994
g56
(g77
g58
NtRp995
(dp996
g61
(dp997
g81
g82
ssg70
g991
sg63
(lp998
S'http_host'
p999
asbag56
(g77
g58
NtRp1000
(dp1001
g61
(dp1002
g88
g89
ssg70
g991
sg63
(lp1003
S':'
asbag56
(g77
g58
NtRp1004
(dp1005
g61
(dp1006
sg70
g991
sg63
(lp1007
g56
(g57
g58
NtRp1008
(dp1009
g61
(dp1010
g69
I4
ssg70
g1004
sg63
(lp1011
S'localhost'
p1012
asbasbasbag56
(g72
g58
NtRp1013
(dp1014
g61
(dp1015
sg70
g636
sg63
(lp1016
g56
(g77
g58
NtRp1017
(dp1018
g61
(dp1019
g81
g82
ssg70
g1013
sg63
(lp1020
S'http_pragma'
p1021
asbag56
(g77
g58
NtRp1022
(dp1023
g61
(dp1024
g88
g89
ssg70
g1013
sg63
(lp1025
S':'
asbag56
(g77
g58
NtRp1026
(dp1027
g61
(dp1028
sg70
g1013
sg63
(lp1029
g56
(g57
g58
NtRp1030
(dp1031
g61
(dp1032
g69
I4
ssg70
g1026
sg63
(lp1033
S'no-cache'
p1034
asbasbasbag56
(g72
g58
NtRp1035
(dp1036
g61
(dp1037
sg70
g636
sg63
(lp1038
g56
(g77
g58
NtRp1039
(dp1040
g61
(dp1041
g81
g82
ssg70
g1035
sg63
(lp1042
S'http_referer'
p1043
asbag56
(g77
g58
NtRp1044
(dp1045
g61
(dp1046
g88
g89
ssg70
g1035
sg63
(lp1047
S':'
asbag56
(g77
g58
NtRp1048
(dp1049
g61
(dp1050
sg70
g1035
sg63
(lp1051
g56
(g57
g58
NtRp1052
(dp1053
g61
(dp1054
g69
I4
ssg70
g1048
sg63
(lp1055
S'https://localhost/scrum/sprint/editar/1'
p1056
asbasbasbag56
(g72
g58
NtRp1057
(dp1058
g61
(dp1059
sg70
g636
sg63
(lp1060
g56
(g77
g58
NtRp1061
(dp1062
g61
(dp1063
g81
g82
ssg70
g1057
sg63
(lp1064
S'http_user_agent'
p1065
asbag56
(g77
g58
NtRp1066
(dp1067
g61
(dp1068
g88
g89
ssg70
g1057
sg63
(lp1069
S':'
asbag56
(g77
g58
NtRp1070
(dp1071
g61
(dp1072
sg70
g1057
sg63
(lp1073
g56
(g57
g58
NtRp1074
(dp1075
g61
(dp1076
g69
I4
ssg70
g1070
sg63
(lp1077
S'Mozilla/5.0 (X11; Linux i686; rv:6.0.2) Gecko/20100101 Firefox/6.0.2'
p1078
asbasbasbag56
(g72
g58
NtRp1079
(dp1080
g61
(dp1081
sg70
g636
sg63
(lp1082
g56
(g77
g58
NtRp1083
(dp1084
g61
(dp1085
g81
g82
ssg70
g1079
sg63
(lp1086
S'http_x_requested_with'
p1087
asbag56
(g77
g58
NtRp1088
(dp1089
g61
(dp1090
g88
g89
ssg70
g1079
sg63
(lp1091
S':'
asbag56
(g77
g58
NtRp1092
(dp1093
g61
(dp1094
sg70
g1079
sg63
(lp1095
g56
(g57
g58
NtRp1096
(dp1097
g61
(dp1098
g69
I4
ssg70
g1092
sg63
(lp1099
S'XMLHttpRequest'
p1100
asbasbasbag56
(g72
g58
NtRp1101
(dp1102
g61
(dp1103
sg70
g636
sg63
(lp1104
g56
(g77
g58
NtRp1105
(dp1106
g61
(dp1107
g81
g82
ssg70
g1101
sg63
(lp1108
S'https'
p1109
asbag56
(g77
g58
NtRp1110
(dp1111
g61
(dp1112
g88
g89
ssg70
g1101
sg63
(lp1113
S':'
asbag56
(g77
g58
NtRp1114
(dp1115
g61
(dp1116
sg70
g1101
sg63
(lp1117
g56
(g57
g58
NtRp1118
(dp1119
g61
(dp1120
g69
I4
ssg70
g1114
sg63
(lp1121
S'1'
asbasbasbag56
(g72
g58
NtRp1122
(dp1123
g61
(dp1124
sg70
g636
sg63
(lp1125
g56
(g77
g58
NtRp1126
(dp1127
g61
(dp1128
g81
g82
ssg70
g1122
sg63
(lp1129
S'is_jython'
p1130
asbag56
(g77
g58
NtRp1131
(dp1132
g61
(dp1133
g88
g89
ssg70
g1122
sg63
(lp1134
S':'
asbag56
(g77
g58
NtRp1135
(dp1136
g61
(dp1137
sg70
g1122
sg63
(lp1138
g56
(g57
g58
NtRp1139
(dp1140
g61
(dp1141
g69
I4
ssg70
g1135
sg63
(lp1142
g771
asbasbasbag56
(g72
g58
NtRp1143
(dp1144
g61
(dp1145
sg70
g636
sg63
(lp1146
g56
(g77
g58
NtRp1147
(dp1148
g61
(dp1149
g81
g82
ssg70
g1143
sg63
(lp1150
S'mod_wsgi_application_group'
p1151
asbag56
(g77
g58
NtRp1152
(dp1153
g61
(dp1154
g88
g89
ssg70
g1143
sg63
(lp1155
S':'
asbag56
(g77
g58
NtRp1156
(dp1157
g61
(dp1158
sg70
g1143
sg63
(lp1159
g56
(g57
g58
NtRp1160
(dp1161
g61
(dp1162
g69
I4
ssg70
g1156
sg63
(lp1163
S'localhost.localdomain|'
p1164
asbasbasbag56
(g72
g58
NtRp1165
(dp1166
g61
(dp1167
sg70
g636
sg63
(lp1168
g56
(g77
g58
NtRp1169
(dp1170
g61
(dp1171
g81
g82
ssg70
g1165
sg63
(lp1172
S'mod_wsgi_callable_object'
p1173
asbag56
(g77
g58
NtRp1174
(dp1175
g61
(dp1176
g88
g89
ssg70
g1165
sg63
(lp1177
S':'
asbag56
(g77
g58
NtRp1178
(dp1179
g61
(dp1180
sg70
g1165
sg63
(lp1181
g56
(g57
g58
NtRp1182
(dp1183
g61
(dp1184
g69
I4
ssg70
g1178
sg63
(lp1185
S'application'
p1186
asbasbasbag56
(g72
g58
NtRp1187
(dp1188
g61
(dp1189
sg70
g636
sg63
(lp1190
g56
(g77
g58
NtRp1191
(dp1192
g61
(dp1193
g81
g82
ssg70
g1187
sg63
(lp1194
S'mod_wsgi_handler_script'
p1195
asbag56
(g77
g58
NtRp1196
(dp1197
g61
(dp1198
g88
g89
ssg70
g1187
sg63
(lp1199
S':'
asbag56
(g77
g58
NtRp1200
(dp1201
g61
(dp1202
sg70
g1187
sg63
(lp1203
g56
(g57
g58
NtRp1204
(dp1205
g61
(dp1206
g69
I4
ssg70
g1200
sg63
(lp1207
S''
asbasbasbag56
(g72
g58
NtRp1208
(dp1209
g61
(dp1210
sg70
g636
sg63
(lp1211
g56
(g77
g58
NtRp1212
(dp1213
g61
(dp1214
g81
g82
ssg70
g1208
sg63
(lp1215
S'mod_wsgi_input_chunked'
p1216
asbag56
(g77
g58
NtRp1217
(dp1218
g61
(dp1219
g88
g89
ssg70
g1208
sg63
(lp1220
S':'
asbag56
(g77
g58
NtRp1221
(dp1222
g61
(dp1223
sg70
g1208
sg63
(lp1224
g56
(g57
g58
NtRp1225
(dp1226
g61
(dp1227
g69
I4
ssg70
g1221
sg63
(lp1228
S'0'
asbasbasbag56
(g72
g58
NtRp1229
(dp1230
g61
(dp1231
sg70
g636
sg63
(lp1232
g56
(g77
g58
NtRp1233
(dp1234
g61
(dp1235
g81
g82
ssg70
g1229
sg63
(lp1236
S'mod_wsgi_listener_host'
p1237
asbag56
(g77
g58
NtRp1238
(dp1239
g61
(dp1240
g88
g89
ssg70
g1229
sg63
(lp1241
S':'
asbag56
(g77
g58
NtRp1242
(dp1243
g61
(dp1244
sg70
g1229
sg63
(lp1245
g56
(g57
g58
NtRp1246
(dp1247
g61
(dp1248
g69
I4
ssg70
g1242
sg63
(lp1249
S''
asbasbasbag56
(g72
g58
NtRp1250
(dp1251
g61
(dp1252
sg70
g636
sg63
(lp1253
g56
(g77
g58
NtRp1254
(dp1255
g61
(dp1256
g81
g82
ssg70
g1250
sg63
(lp1257
S'mod_wsgi_listener_port'
p1258
asbag56
(g77
g58
NtRp1259
(dp1260
g61
(dp1261
g88
g89
ssg70
g1250
sg63
(lp1262
S':'
asbag56
(g77
g58
NtRp1263
(dp1264
g61
(dp1265
sg70
g1250
sg63
(lp1266
g56
(g57
g58
NtRp1267
(dp1268
g61
(dp1269
g69
I4
ssg70
g1263
sg63
(lp1270
S'443'
p1271
asbasbasbag56
(g72
g58
NtRp1272
(dp1273
g61
(dp1274
sg70
g636
sg63
(lp1275
g56
(g77
g58
NtRp1276
(dp1277
g61
(dp1278
g81
g82
ssg70
g1272
sg63
(lp1279
S'mod_wsgi_process_group'
p1280
asbag56
(g77
g58
NtRp1281
(dp1282
g61
(dp1283
g88
g89
ssg70
g1272
sg63
(lp1284
S':'
asbag56
(g77
g58
NtRp1285
(dp1286
g61
(dp1287
sg70
g1272
sg63
(lp1288
g56
(g57
g58
NtRp1289
(dp1290
g61
(dp1291
g69
I4
ssg70
g1285
sg63
(lp1292
S'web2py'
p1293
asbasbasbag56
(g72
g58
NtRp1294
(dp1295
g61
(dp1296
sg70
g636
sg63
(lp1297
g56
(g77
g58
NtRp1298
(dp1299
g61
(dp1300
g81
g82
ssg70
g1294
sg63
(lp1301
S'mod_wsgi_request_handler'
p1302
asbag56
(g77
g58
NtRp1303
(dp1304
g61
(dp1305
g88
g89
ssg70
g1294
sg63
(lp1306
S':'
asbag56
(g77
g58
NtRp1307
(dp1308
g61
(dp1309
sg70
g1294
sg63
(lp1310
g56
(g57
g58
NtRp1311
(dp1312
g61
(dp1313
g69
I4
ssg70
g1307
sg63
(lp1314
S'wsgi-script'
p1315
asbasbasbag56
(g72
g58
NtRp1316
(dp1317
g61
(dp1318
sg70
g636
sg63
(lp1319
g56
(g77
g58
NtRp1320
(dp1321
g61
(dp1322
g81
g82
ssg70
g1316
sg63
(lp1323
S'mod_wsgi_script_reloading'
p1324
asbag56
(g77
g58
NtRp1325
(dp1326
g61
(dp1327
g88
g89
ssg70
g1316
sg63
(lp1328
S':'
asbag56
(g77
g58
NtRp1329
(dp1330
g61
(dp1331
sg70
g1316
sg63
(lp1332
g56
(g57
g58
NtRp1333
(dp1334
g61
(dp1335
g69
I4
ssg70
g1329
sg63
(lp1336
S'1'
asbasbasbag56
(g72
g58
NtRp1337
(dp1338
g61
(dp1339
sg70
g636
sg63
(lp1340
g56
(g77
g58
NtRp1341
(dp1342
g61
(dp1343
g81
g82
ssg70
g1337
sg63
(lp1344
S'mod_wsgi_version'
p1345
asbag56
(g77
g58
NtRp1346
(dp1347
g61
(dp1348
g88
g89
ssg70
g1337
sg63
(lp1349
S':'
asbag56
(g77
g58
NtRp1350
(dp1351
g61
(dp1352
sg70
g1337
sg63
(lp1353
g56
(g57
g58
NtRp1354
(dp1355
g61
(dp1356
g69
I4
ssg70
g1350
sg63
(lp1357
g56
(g65
g58
NtRp1358
(dp1359
g61
(dp1360
g69
I3
ssg70
Nsg63
(lp1361
g56
(g72
g58
NtRp1362
(dp1363
g61
(dp1364
sg70
g1358
sg63
(lp1365
g56
(g77
g58
NtRp1366
(dp1367
g61
(dp1368
sg70
g1362
sg63
(lp1369
g56
(g57
g58
NtRp1370
(dp1371
g61
(dp1372
g69
I3
ssg70
g1366
sg63
(lp1373
S'3'
asbasbasbag56
(g72
g58
NtRp1374
(dp1375
g61
(dp1376
sg70
g1358
sg63
(lp1377
g56
(g77
g58
NtRp1378
(dp1379
g61
(dp1380
sg70
g1374
sg63
(lp1381
g56
(g57
g58
NtRp1382
(dp1383
g61
(dp1384
g69
I3
ssg70
g1378
sg63
(lp1385
S'3'
asbasbasbasbasbasbasbag56
(g72
g58
NtRp1386
(dp1387
g61
(dp1388
sg70
g636
sg63
(lp1389
g56
(g77
g58
NtRp1390
(dp1391
g61
(dp1392
g81
g82
ssg70
g1386
sg63
(lp1393
S'path_info'
p1394
asbag56
(g77
g58
NtRp1395
(dp1396
g61
(dp1397
g88
g89
ssg70
g1386
sg63
(lp1398
S':'
asbag56
(g77
g58
NtRp1399
(dp1400
g61
(dp1401
sg70
g1386
sg63
(lp1402
g56
(g57
g58
NtRp1403
(dp1404
g61
(dp1405
g69
I4
ssg70
g1399
sg63
(lp1406
S'/scrum/sprint/detalhes'
p1407
asbasbasbag56
(g72
g58
NtRp1408
(dp1409
g61
(dp1410
sg70
g636
sg63
(lp1411
g56
(g77
g58
NtRp1412
(dp1413
g61
(dp1414
g81
g82
ssg70
g1408
sg63
(lp1415
S'path_translated'
p1416
asbag56
(g77
g58
NtRp1417
(dp1418
g61
(dp1419
g88
g89
ssg70
g1408
sg63
(lp1420
S':'
asbag56
(g77
g58
NtRp1421
(dp1422
g61
(dp1423
sg70
g1408
sg63
(lp1424
g56
(g57
g58
NtRp1425
(dp1426
g61
(dp1427
g69
I4
ssg70
g1421
sg63
(lp1428
S'/home/www-data/web2py/wsgihandler.py/scrum/sprint/detalhes'
p1429
asbasbasbag56
(g72
g58
NtRp1430
(dp1431
g61
(dp1432
sg70
g636
sg63
(lp1433
g56
(g77
g58
NtRp1434
(dp1435
g61
(dp1436
g81
g82
ssg70
g1430
sg63
(lp1437
S'query_string'
p1438
asbag56
(g77
g58
NtRp1439
(dp1440
g61
(dp1441
g88
g89
ssg70
g1430
sg63
(lp1442
S':'
asbag56
(g77
g58
NtRp1443
(dp1444
g61
(dp1445
sg70
g1430
sg63
(lp1446
g56
(g57
g58
NtRp1447
(dp1448
g61
(dp1449
g69
I4
ssg70
g1443
sg63
(lp1450
S''
asbasbasbag56
(g72
g58
NtRp1451
(dp1452
g61
(dp1453
sg70
g636
sg63
(lp1454
g56
(g77
g58
NtRp1455
(dp1456
g61
(dp1457
g81
g82
ssg70
g1451
sg63
(lp1458
S'remote_addr'
p1459
asbag56
(g77
g58
NtRp1460
(dp1461
g61
(dp1462
g88
g89
ssg70
g1451
sg63
(lp1463
S':'
asbag56
(g77
g58
NtRp1464
(dp1465
g61
(dp1466
sg70
g1451
sg63
(lp1467
g56
(g57
g58
NtRp1468
(dp1469
g61
(dp1470
g69
I4
ssg70
g1464
sg63
(lp1471
g189
asbasbasbag56
(g72
g58
NtRp1472
(dp1473
g61
(dp1474
sg70
g636
sg63
(lp1475
g56
(g77
g58
NtRp1476
(dp1477
g61
(dp1478
g81
g82
ssg70
g1472
sg63
(lp1479
S'remote_port'
p1480
asbag56
(g77
g58
NtRp1481
(dp1482
g61
(dp1483
g88
g89
ssg70
g1472
sg63
(lp1484
S':'
asbag56
(g77
g58
NtRp1485
(dp1486
g61
(dp1487
sg70
g1472
sg63
(lp1488
g56
(g57
g58
NtRp1489
(dp1490
g61
(dp1491
g69
I4
ssg70
g1485
sg63
(lp1492
S'47604'
p1493
asbasbasbag56
(g72
g58
NtRp1494
(dp1495
g61
(dp1496
sg70
g636
sg63
(lp1497
g56
(g77
g58
NtRp1498
(dp1499
g61
(dp1500
g81
g82
ssg70
g1494
sg63
(lp1501
S'request_method'
p1502
asbag56
(g77
g58
NtRp1503
(dp1504
g61
(dp1505
g88
g89
ssg70
g1494
sg63
(lp1506
S':'
asbag56
(g77
g58
NtRp1507
(dp1508
g61
(dp1509
sg70
g1494
sg63
(lp1510
g56
(g57
g58
NtRp1511
(dp1512
g61
(dp1513
g69
I4
ssg70
g1507
sg63
(lp1514
S'POST'
p1515
asbasbasbag56
(g72
g58
NtRp1516
(dp1517
g61
(dp1518
sg70
g636
sg63
(lp1519
g56
(g77
g58
NtRp1520
(dp1521
g61
(dp1522
g81
g82
ssg70
g1516
sg63
(lp1523
S'request_uri'
p1524
asbag56
(g77
g58
NtRp1525
(dp1526
g61
(dp1527
g88
g89
ssg70
g1516
sg63
(lp1528
S':'
asbag56
(g77
g58
NtRp1529
(dp1530
g61
(dp1531
sg70
g1516
sg63
(lp1532
g56
(g57
g58
NtRp1533
(dp1534
g61
(dp1535
g69
I4
ssg70
g1529
sg63
(lp1536
S'/scrum/sprint/detalhes'
p1537
asbasbasbag56
(g72
g58
NtRp1538
(dp1539
g61
(dp1540
sg70
g636
sg63
(lp1541
g56
(g77
g58
NtRp1542
(dp1543
g61
(dp1544
g81
g82
ssg70
g1538
sg63
(lp1545
S'script_filename'
p1546
asbag56
(g77
g58
NtRp1547
(dp1548
g61
(dp1549
g88
g89
ssg70
g1538
sg63
(lp1550
S':'
asbag56
(g77
g58
NtRp1551
(dp1552
g61
(dp1553
sg70
g1538
sg63
(lp1554
g56
(g57
g58
NtRp1555
(dp1556
g61
(dp1557
g69
I4
ssg70
g1551
sg63
(lp1558
S'/home/www-data/web2py/wsgihandler.py'
p1559
asbasbasbag56
(g72
g58
NtRp1560
(dp1561
g61
(dp1562
sg70
g636
sg63
(lp1563
g56
(g77
g58
NtRp1564
(dp1565
g61
(dp1566
g81
g82
ssg70
g1560
sg63
(lp1567
S'script_name'
p1568
asbag56
(g77
g58
NtRp1569
(dp1570
g61
(dp1571
g88
g89
ssg70
g1560
sg63
(lp1572
S':'
asbag56
(g77
g58
NtRp1573
(dp1574
g61
(dp1575
sg70
g1560
sg63
(lp1576
g56
(g57
g58
NtRp1577
(dp1578
g61
(dp1579
g69
I4
ssg70
g1573
sg63
(lp1580
S''
asbasbasbag56
(g72
g58
NtRp1581
(dp1582
g61
(dp1583
sg70
g636
sg63
(lp1584
g56
(g77
g58
NtRp1585
(dp1586
g61
(dp1587
g81
g82
ssg70
g1581
sg63
(lp1588
S'server_addr'
p1589
asbag56
(g77
g58
NtRp1590
(dp1591
g61
(dp1592
g88
g89
ssg70
g1581
sg63
(lp1593
S':'
asbag56
(g77
g58
NtRp1594
(dp1595
g61
(dp1596
sg70
g1581
sg63
(lp1597
g56
(g57
g58
NtRp1598
(dp1599
g61
(dp1600
g69
I4
ssg70
g1594
sg63
(lp1601
S'127.0.0.1'
p1602
asbasbasbag56
(g72
g58
NtRp1603
(dp1604
g61
(dp1605
sg70
g636
sg63
(lp1606
g56
(g77
g58
NtRp1607
(dp1608
g61
(dp1609
g81
g82
ssg70
g1603
sg63
(lp1610
S'server_admin'
p1611
asbag56
(g77
g58
NtRp1612
(dp1613
g61
(dp1614
g88
g89
ssg70
g1603
sg63
(lp1615
S':'
asbag56
(g77
g58
NtRp1616
(dp1617
g61
(dp1618
sg70
g1603
sg63
(lp1619
g56
(g57
g58
NtRp1620
(dp1621
g61
(dp1622
g69
I4
ssg70
g1616
sg63
(lp1623
S'[no address given]'
p1624
asbasbasbag56
(g72
g58
NtRp1625
(dp1626
g61
(dp1627
sg70
g636
sg63
(lp1628
g56
(g77
g58
NtRp1629
(dp1630
g61
(dp1631
g81
g82
ssg70
g1625
sg63
(lp1632
S'server_name'
p1633
asbag56
(g77
g58
NtRp1634
(dp1635
g61
(dp1636
g88
g89
ssg70
g1625
sg63
(lp1637
S':'
asbag56
(g77
g58
NtRp1638
(dp1639
g61
(dp1640
sg70
g1625
sg63
(lp1641
g56
(g57
g58
NtRp1642
(dp1643
g61
(dp1644
g69
I4
ssg70
g1638
sg63
(lp1645
S'localhost'
p1646
asbasbasbag56
(g72
g58
NtRp1647
(dp1648
g61
(dp1649
sg70
g636
sg63
(lp1650
g56
(g77
g58
NtRp1651
(dp1652
g61
(dp1653
g81
g82
ssg70
g1647
sg63
(lp1654
S'server_port'
p1655
asbag56
(g77
g58
NtRp1656
(dp1657
g61
(dp1658
g88
g89
ssg70
g1647
sg63
(lp1659
S':'
asbag56
(g77
g58
NtRp1660
(dp1661
g61
(dp1662
sg70
g1647
sg63
(lp1663
g56
(g57
g58
NtRp1664
(dp1665
g61
(dp1666
g69
I4
ssg70
g1660
sg63
(lp1667
S'443'
p1668
asbasbasbag56
(g72
g58
NtRp1669
(dp1670
g61
(dp1671
sg70
g636
sg63
(lp1672
g56
(g77
g58
NtRp1673
(dp1674
g61
(dp1675
g81
g82
ssg70
g1669
sg63
(lp1676
S'server_protocol'
p1677
asbag56
(g77
g58
NtRp1678
(dp1679
g61
(dp1680
g88
g89
ssg70
g1669
sg63
(lp1681
S':'
asbag56
(g77
g58
NtRp1682
(dp1683
g61
(dp1684
sg70
g1669
sg63
(lp1685
g56
(g57
g58
NtRp1686
(dp1687
g61
(dp1688
g69
I4
ssg70
g1682
sg63
(lp1689
S'HTTP/1.1'
p1690
asbasbasbag56
(g72
g58
NtRp1691
(dp1692
g61
(dp1693
sg70
g636
sg63
(lp1694
g56
(g77
g58
NtRp1695
(dp1696
g61
(dp1697
g81
g82
ssg70
g1691
sg63
(lp1698
S'server_signature'
p1699
asbag56
(g77
g58
NtRp1700
(dp1701
g61
(dp1702
g88
g89
ssg70
g1691
sg63
(lp1703
S':'
asbag56
(g77
g58
NtRp1704
(dp1705
g61
(dp1706
sg70
g1691
sg63
(lp1707
g56
(g57
g58
NtRp1708
(dp1709
g61
(dp1710
g69
I4
ssg70
g1704
sg63
(lp1711
S'<address>Apache/2.2.17 (Ubuntu) Server at localhost Port 443</address>\n'
p1712
asbasbasbag56
(g72
g58
NtRp1713
(dp1714
g61
(dp1715
sg70
g636
sg63
(lp1716
g56
(g77
g58
NtRp1717
(dp1718
g61
(dp1719
g81
g82
ssg70
g1713
sg63
(lp1720
S'server_software'
p1721
asbag56
(g77
g58
NtRp1722
(dp1723
g61
(dp1724
g88
g89
ssg70
g1713
sg63
(lp1725
S':'
asbag56
(g77
g58
NtRp1726
(dp1727
g61
(dp1728
sg70
g1713
sg63
(lp1729
g56
(g57
g58
NtRp1730
(dp1731
g61
(dp1732
g69
I4
ssg70
g1726
sg63
(lp1733
S'Apache/2.2.17 (Ubuntu)'
p1734
asbasbasbag56
(g72
g58
NtRp1735
(dp1736
g61
(dp1737
sg70
g636
sg63
(lp1738
g56
(g77
g58
NtRp1739
(dp1740
g61
(dp1741
g81
g82
ssg70
g1735
sg63
(lp1742
S'ssl_tls_sni'
p1743
asbag56
(g77
g58
NtRp1744
(dp1745
g61
(dp1746
g88
g89
ssg70
g1735
sg63
(lp1747
S':'
asbag56
(g77
g58
NtRp1748
(dp1749
g61
(dp1750
sg70
g1735
sg63
(lp1751
g56
(g57
g58
NtRp1752
(dp1753
g61
(dp1754
g69
I4
ssg70
g1748
sg63
(lp1755
S'localhost'
p1756
asbasbasbag56
(g72
g58
NtRp1757
(dp1758
g61
(dp1759
sg70
g636
sg63
(lp1760
g56
(g77
g58
NtRp1761
(dp1762
g61
(dp1763
g81
g82
ssg70
g1757
sg63
(lp1764
S'web2py_path'
p1765
asbag56
(g77
g58
NtRp1766
(dp1767
g61
(dp1768
g88
g89
ssg70
g1757
sg63
(lp1769
S':'
asbag56
(g77
g58
NtRp1770
(dp1771
g61
(dp1772
sg70
g1757
sg63
(lp1773
g56
(g57
g58
NtRp1774
(dp1775
g61
(dp1776
g69
I4
ssg70
g1770
sg63
(lp1777
g683
asbasbasbag56
(g72
g58
NtRp1778
(dp1779
g61
(dp1780
sg70
g636
sg63
(lp1781
g56
(g77
g58
NtRp1782
(dp1783
g61
(dp1784
g81
g82
ssg70
g1778
sg63
(lp1785
S'web2py_version'
p1786
asbag56
(g77
g58
NtRp1787
(dp1788
g61
(dp1789
g88
g89
ssg70
g1778
sg63
(lp1790
S':'
asbag56
(g77
g58
NtRp1791
(dp1792
g61
(dp1793
sg70
g1778
sg63
(lp1794
g56
(g57
g58
NtRp1795
(dp1796
g61
(dp1797
g69
I4
ssg70
g1791
sg63
(lp1798
S'Version 1.98.2 (2011-08-04 00:47:09)\n'
p1799
asbasbasbag56
(g72
g58
NtRp1800
(dp1801
g61
(dp1802
sg70
g636
sg63
(lp1803
g56
(g77
g58
NtRp1804
(dp1805
g61
(dp1806
g81
g82
ssg70
g1800
sg63
(lp1807
S'wsgi_errors'
p1808
asbag56
(g77
g58
NtRp1809
(dp1810
g61
(dp1811
g88
g89
ssg70
g1800
sg63
(lp1812
S':'
asbag56
(g77
g58
NtRp1813
(dp1814
g61
(dp1815
sg70
g1800
sg63
(lp1816
g56
(g57
g58
NtRp1817
(dp1818
g61
(dp1819
g69
I4
ssg70
g1813
sg63
(lp1820
S'<mod_wsgi.Log object at 0xb93d58b8>'
p1821
asbasbasbag56
(g72
g58
NtRp1822
(dp1823
g61
(dp1824
sg70
g636
sg63
(lp1825
g56
(g77
g58
NtRp1826
(dp1827
g61
(dp1828
g81
g82
ssg70
g1822
sg63
(lp1829
S'wsgi_file_wrapper'
p1830
asbag56
(g77
g58
NtRp1831
(dp1832
g61
(dp1833
g88
g89
ssg70
g1822
sg63
(lp1834
S':'
asbag56
(g77
g58
NtRp1835
(dp1836
g61
(dp1837
sg70
g1822
sg63
(lp1838
g56
(g57
g58
NtRp1839
(dp1840
g61
(dp1841
g69
I4
ssg70
g1835
sg63
(lp1842
S'<built-in method file_wrapper of mod_wsgi.Adapter object at 0xb9872c80>'
p1843
asbasbasbag56
(g72
g58
NtRp1844
(dp1845
g61
(dp1846
sg70
g636
sg63
(lp1847
g56
(g77
g58
NtRp1848
(dp1849
g61
(dp1850
g81
g82
ssg70
g1844
sg63
(lp1851
S'wsgi_input'
p1852
asbag56
(g77
g58
NtRp1853
(dp1854
g61
(dp1855
g88
g89
ssg70
g1844
sg63
(lp1856
S':'
asbag56
(g77
g58
NtRp1857
(dp1858
g61
(dp1859
sg70
g1844
sg63
(lp1860
g56
(g57
g58
NtRp1861
(dp1862
g61
(dp1863
g69
I4
ssg70
g1857
sg63
(lp1864
S'<mod_wsgi.Input object at 0xb92751d8>'
p1865
asbasbasbag56
(g72
g58
NtRp1866
(dp1867
g61
(dp1868
sg70
g636
sg63
(lp1869
g56
(g77
g58
NtRp1870
(dp1871
g61
(dp1872
g81
g82
ssg70
g1866
sg63
(lp1873
S'wsgi_multiprocess'
p1874
asbag56
(g77
g58
NtRp1875
(dp1876
g61
(dp1877
g88
g89
ssg70
g1866
sg63
(lp1878
S':'
asbag56
(g77
g58
NtRp1879
(dp1880
g61
(dp1881
sg70
g1866
sg63
(lp1882
g56
(g57
g58
NtRp1883
(dp1884
g61
(dp1885
g69
I4
ssg70
g1879
sg63
(lp1886
g771
asbasbasbag56
(g72
g58
NtRp1887
(dp1888
g61
(dp1889
sg70
g636
sg63
(lp1890
g56
(g77
g58
NtRp1891
(dp1892
g61
(dp1893
g81
g82
ssg70
g1887
sg63
(lp1894
S'wsgi_multithread'
p1895
asbag56
(g77
g58
NtRp1896
(dp1897
g61
(dp1898
g88
g89
ssg70
g1887
sg63
(lp1899
S':'
asbag56
(g77
g58
NtRp1900
(dp1901
g61
(dp1902
sg70
g1887
sg63
(lp1903
g56
(g57
g58
NtRp1904
(dp1905
g61
(dp1906
g69
I4
ssg70
g1900
sg63
(lp1907
g99
asbasbasbag56
(g72
g58
NtRp1908
(dp1909
g61
(dp1910
sg70
g636
sg63
(lp1911
g56
(g77
g58
NtRp1912
(dp1913
g61
(dp1914
g81
g82
ssg70
g1908
sg63
(lp1915
S'wsgi_run_once'
p1916
asbag56
(g77
g58
NtRp1917
(dp1918
g61
(dp1919
g88
g89
ssg70
g1908
sg63
(lp1920
S':'
asbag56
(g77
g58
NtRp1921
(dp1922
g61
(dp1923
sg70
g1908
sg63
(lp1924
g56
(g57
g58
NtRp1925
(dp1926
g61
(dp1927
g69
I4
ssg70
g1921
sg63
(lp1928
g771
asbasbasbag56
(g72
g58
NtRp1929
(dp1930
g61
(dp1931
sg70
g636
sg63
(lp1932
g56
(g77
g58
NtRp1933
(dp1934
g61
(dp1935
g81
g82
ssg70
g1929
sg63
(lp1936
S'wsgi_url_scheme'
p1937
asbag56
(g77
g58
NtRp1938
(dp1939
g61
(dp1940
g88
g89
ssg70
g1929
sg63
(lp1941
S':'
asbag56
(g77
g58
NtRp1942
(dp1943
g61
(dp1944
sg70
g1929
sg63
(lp1945
g56
(g57
g58
NtRp1946
(dp1947
g61
(dp1948
g69
I4
ssg70
g1942
sg63
(lp1949
S'https'
p1950
asbasbasbag56
(g72
g58
NtRp1951
(dp1952
g61
(dp1953
sg70
g636
sg63
(lp1954
g56
(g77
g58
NtRp1955
(dp1956
g61
(dp1957
g81
g82
ssg70
g1951
sg63
(lp1958
S'wsgi_version'
p1959
asbag56
(g77
g58
NtRp1960
(dp1961
g61
(dp1962
g88
g89
ssg70
g1951
sg63
(lp1963
S':'
asbag56
(g77
g58
NtRp1964
(dp1965
g61
(dp1966
sg70
g1951
sg63
(lp1967
g56
(g57
g58
NtRp1968
(dp1969
g61
(dp1970
g69
I4
ssg70
g1964
sg63
(lp1971
g56
(g65
g58
NtRp1972
(dp1973
g61
(dp1974
g69
I3
ssg70
Nsg63
(lp1975
g56
(g72
g58
NtRp1976
(dp1977
g61
(dp1978
sg70
g1972
sg63
(lp1979
g56
(g77
g58
NtRp1980
(dp1981
g61
(dp1982
sg70
g1976
sg63
(lp1983
g56
(g57
g58
NtRp1984
(dp1985
g61
(dp1986
g69
I3
ssg70
g1980
sg63
(lp1987
S'1'
asbasbasbag56
(g72
g58
NtRp1988
(dp1989
g61
(dp1990
sg70
g1972
sg63
(lp1991
g56
(g77
g58
NtRp1992
(dp1993
g61
(dp1994
sg70
g1988
sg63
(lp1995
g56
(g57
g58
NtRp1996
(dp1997
g61
(dp1998
g69
I3
ssg70
g1992
sg63
(lp1999
S'1'
asbasbasbasbasbasbasbasbasbasbasbag56
(g72
g58
NtRp2000
(dp2001
g61
(dp2002
sg70
g66
sg63
(lp2003
g56
(g77
g58
NtRp2004
(dp2005
g61
(dp2006
g81
g82
ssg70
g2000
sg63
(lp2007
S'extension'
p2008
asbag56
(g77
g58
NtRp2009
(dp2010
g61
(dp2011
g88
g89
ssg70
g2000
sg63
(lp2012
S':'
asbag56
(g77
g58
NtRp2013
(dp2014
g61
(dp2015
sg70
g2000
sg63
(lp2016
g56
(g57
g58
NtRp2017
(dp2018
g61
(dp2019
g69
I5
ssg70
g2013
sg63
(lp2020
S'html'
p2021
asbasbasbag56
(g72
g58
NtRp2022
(dp2023
g61
(dp2024
sg70
g66
sg63
(lp2025
g56
(g77
g58
NtRp2026
(dp2027
g61
(dp2028
g81
g82
ssg70
g2022
sg63
(lp2029
S'folder'
p2030
asbag56
(g77
g58
NtRp2031
(dp2032
g61
(dp2033
g88
g89
ssg70
g2022
sg63
(lp2034
S':'
asbag56
(g77
g58
NtRp2035
(dp2036
g61
(dp2037
sg70
g2022
sg63
(lp2038
g56
(g57
g58
NtRp2039
(dp2040
g61
(dp2041
g69
I5
ssg70
g2035
sg63
(lp2042
S'/home/www-data/web2py/applications/scrum/'
p2043
asbasbasbag56
(g72
g58
NtRp2044
(dp2045
g61
(dp2046
sg70
g66
sg63
(lp2047
g56
(g77
g58
NtRp2048
(dp2049
g61
(dp2050
g81
g82
ssg70
g2044
sg63
(lp2051
S'function'
p2052
asbag56
(g77
g58
NtRp2053
(dp2054
g61
(dp2055
g88
g89
ssg70
g2044
sg63
(lp2056
S':'
asbag56
(g77
g58
NtRp2057
(dp2058
g61
(dp2059
sg70
g2044
sg63
(lp2060
g56
(g57
g58
NtRp2061
(dp2062
g61
(dp2063
g69
I5
ssg70
g2057
sg63
(lp2064
S'detalhes'
p2065
asbasbasbag56
(g72
g58
NtRp2066
(dp2067
g61
(dp2068
sg70
g66
sg63
(lp2069
g56
(g77
g58
NtRp2070
(dp2071
g61
(dp2072
g81
g82
ssg70
g2066
sg63
(lp2073
S'get_vars'
p2074
asbag56
(g77
g58
NtRp2075
(dp2076
g61
(dp2077
g88
g89
ssg70
g2066
sg63
(lp2078
S':'
asbag56
(g77
g58
NtRp2079
(dp2080
g61
(dp2081
sg70
g2066
sg63
(lp2082
g56
(g57
g58
NtRp2083
(dp2084
g61
(dp2085
g69
I5
ssg70
g2079
sg63
(lp2086
g56
(g65
g58
NtRp2087
(dp2088
g61
(dp2089
g69
I4
ssg70
Nsg63
(lp2090
sbasbasbasbag56
(g72
g58
NtRp2091
(dp2092
g61
(dp2093
sg70
g66
sg63
(lp2094
g56
(g77
g58
NtRp2095
(dp2096
g61
(dp2097
g81
g82
ssg70
g2091
sg63
(lp2098
S'is_https'
p2099
asbag56
(g77
g58
NtRp2100
(dp2101
g61
(dp2102
g88
g89
ssg70
g2091
sg63
(lp2103
S':'
asbag56
(g77
g58
NtRp2104
(dp2105
g61
(dp2106
sg70
g2091
sg63
(lp2107
g56
(g57
g58
NtRp2108
(dp2109
g61
(dp2110
g69
I5
ssg70
g2104
sg63
(lp2111
g99
asbasbasbag56
(g72
g58
NtRp2112
(dp2113
g61
(dp2114
sg70
g66
sg63
(lp2115
g56
(g77
g58
NtRp2116
(dp2117
g61
(dp2118
g81
g82
ssg70
g2112
sg63
(lp2119
S'is_local'
p2120
asbag56
(g77
g58
NtRp2121
(dp2122
g61
(dp2123
g88
g89
ssg70
g2112
sg63
(lp2124
S':'
asbag56
(g77
g58
NtRp2125
(dp2126
g61
(dp2127
sg70
g2112
sg63
(lp2128
g56
(g57
g58
NtRp2129
(dp2130
g61
(dp2131
g69
I5
ssg70
g2125
sg63
(lp2132
g99
asbasbasbag56
(g72
g58
NtRp2133
(dp2134
g61
(dp2135
sg70
g66
sg63
(lp2136
g56
(g77
g58
NtRp2137
(dp2138
g61
(dp2139
g81
g82
ssg70
g2133
sg63
(lp2140
S'is_restful'
p2141
asbag56
(g77
g58
NtRp2142
(dp2143
g61
(dp2144
g88
g89
ssg70
g2133
sg63
(lp2145
S':'
asbag56
(g77
g58
NtRp2146
(dp2147
g61
(dp2148
sg70
g2133
sg63
(lp2149
g56
(g57
g58
NtRp2150
(dp2151
g61
(dp2152
g69
I5
ssg70
g2146
sg63
(lp2153
g771
asbasbasbag56
(g72
g58
NtRp2154
(dp2155
g61
(dp2156
sg70
g66
sg63
(lp2157
g56
(g77
g58
NtRp2158
(dp2159
g61
(dp2160
g81
g82
ssg70
g2154
sg63
(lp2161
S'now'
p2162
asbag56
(g77
g58
NtRp2163
(dp2164
g61
(dp2165
g88
g89
ssg70
g2154
sg63
(lp2166
S':'
asbag56
(g77
g58
NtRp2167
(dp2168
g61
(dp2169
sg70
g2154
sg63
(lp2170
g56
(g57
g58
NtRp2171
(dp2172
g61
(dp2173
g69
I5
ssg70
g2167
sg63
(lp2174
S'datetime.datetime(2011, 9, 12, 16, 54, 41, 778174)'
p2175
asbasbasbag56
(g72
g58
NtRp2176
(dp2177
g61
(dp2178
sg70
g66
sg63
(lp2179
g56
(g77
g58
NtRp2180
(dp2181
g61
(dp2182
g81
g82
ssg70
g2176
sg63
(lp2183
S'post_vars'
p2184
asbag56
(g77
g58
NtRp2185
(dp2186
g61
(dp2187
g88
g89
ssg70
g2176
sg63
(lp2188
S':'
asbag56
(g77
g58
NtRp2189
(dp2190
g61
(dp2191
sg70
g2176
sg63
(lp2192
g56
(g57
g58
NtRp2193
(dp2194
g61
(dp2195
g69
I5
ssg70
g2189
sg63
(lp2196
g56
(g65
g58
NtRp2197
(dp2198
g61
(dp2199
g69
I4
ssg70
Nsg63
(lp2200
g56
(g72
g58
NtRp2201
(dp2202
g61
(dp2203
sg70
g2197
sg63
(lp2204
g56
(g77
g58
NtRp2205
(dp2206
g61
(dp2207
g81
g82
ssg70
g2201
sg63
(lp2208
S'dt_1'
p2209
asbag56
(g77
g58
NtRp2210
(dp2211
g61
(dp2212
g88
g89
ssg70
g2201
sg63
(lp2213
S':'
asbag56
(g77
g58
NtRp2214
(dp2215
g61
(dp2216
sg70
g2201
sg63
(lp2217
g56
(g57
g58
NtRp2218
(dp2219
g61
(dp2220
g69
I4
ssg70
g2214
sg63
(lp2221
S'sprint.id.1'
p2222
asbasbasbag56
(g72
g58
NtRp2223
(dp2224
g61
(dp2225
sg70
g2197
sg63
(lp2226
g56
(g77
g58
NtRp2227
(dp2228
g61
(dp2229
g81
g82
ssg70
g2223
sg63
(lp2230
S'dtcols_1'
p2231
asbag56
(g77
g58
NtRp2232
(dp2233
g61
(dp2234
g88
g89
ssg70
g2223
sg63
(lp2235
S':'
asbag56
(g77
g58
NtRp2236
(dp2237
g61
(dp2238
sg70
g2223
sg63
(lp2239
g56
(g57
g58
NtRp2240
(dp2241
g61
(dp2242
g69
I4
ssg70
g2236
sg63
(lp2243
S'ticket.id,                                                        ticket.chamado,                                                        ticket.analista,                                                        ticket.cliente'
p2244
asbasbasbasbasbasbasbag56
(g72
g58
NtRp2245
(dp2246
g61
(dp2247
sg70
g66
sg63
(lp2248
g56
(g77
g58
NtRp2249
(dp2250
g61
(dp2251
g81
g82
ssg70
g2245
sg63
(lp2252
S'url'
p2253
asbag56
(g77
g58
NtRp2254
(dp2255
g61
(dp2256
g88
g89
ssg70
g2245
sg63
(lp2257
S':'
asbag56
(g77
g58
NtRp2258
(dp2259
g61
(dp2260
sg70
g2245
sg63
(lp2261
g56
(g57
g58
NtRp2262
(dp2263
g61
(dp2264
g69
I5
ssg70
g2258
sg63
(lp2265
S'/scrum/sprint/detalhes'
p2266
asbasbasbag56
(g72
g58
NtRp2267
(dp2268
g61
(dp2269
sg70
g66
sg63
(lp2270
g56
(g77
g58
NtRp2271
(dp2272
g61
(dp2273
g81
g82
ssg70
g2267
sg63
(lp2274
S'uuid'
p2275
asbag56
(g77
g58
NtRp2276
(dp2277
g61
(dp2278
g88
g89
ssg70
g2267
sg63
(lp2279
S':'
asbag56
(g77
g58
NtRp2280
(dp2281
g61
(dp2282
sg70
g2267
sg63
(lp2283
g56
(g57
g58
NtRp2284
(dp2285
g61
(dp2286
g69
I5
ssg70
g2280
sg63
(lp2287
S'scrum/127.0.0.1.2011-09-12.16-54-41.c0267031-517e-4b4a-af11-1944187a678f'
p2288
asbasbasbag56
(g72
g58
NtRp2289
(dp2290
g61
(dp2291
sg70
g66
sg63
(lp2292
g56
(g77
g58
NtRp2293
(dp2294
g61
(dp2295
g81
g82
ssg70
g2289
sg63
(lp2296
S'vars'
p2297
asbag56
(g77
g58
NtRp2298
(dp2299
g61
(dp2300
g88
g89
ssg70
g2289
sg63
(lp2301
S':'
asbag56
(g77
g58
NtRp2302
(dp2303
g61
(dp2304
sg70
g2289
sg63
(lp2305
g56
(g57
g58
NtRp2306
(dp2307
g61
(dp2308
g69
I5
ssg70
g2302
sg63
(lp2309
g56
(g65
g58
NtRp2310
(dp2311
g61
(dp2312
g69
I4
ssg70
Nsg63
(lp2313
g56
(g72
g58
NtRp2314
(dp2315
g61
(dp2316
sg70
g2310
sg63
(lp2317
g56
(g77
g58
NtRp2318
(dp2319
g61
(dp2320
g81
g82
ssg70
g2314
sg63
(lp2321
g2209
asbag56
(g77
g58
NtRp2322
(dp2323
g61
(dp2324
g88
g89
ssg70
g2314
sg63
(lp2325
S':'
asbag56
(g77
g58
NtRp2326
(dp2327
g61
(dp2328
sg70
g2314
sg63
(lp2329
g56
(g57
g58
NtRp2330
(dp2331
g61
(dp2332
g69
I4
ssg70
g2326
sg63
(lp2333
g2222
asbasbasbag56
(g72
g58
NtRp2334
(dp2335
g61
(dp2336
sg70
g2310
sg63
(lp2337
g56
(g77
g58
NtRp2338
(dp2339
g61
(dp2340
g81
g82
ssg70
g2334
sg63
(lp2341
g2231
asbag56
(g77
g58
NtRp2342
(dp2343
g61
(dp2344
g88
g89
ssg70
g2334
sg63
(lp2345
S':'
asbag56
(g77
g58
NtRp2346
(dp2347
g61
(dp2348
sg70
g2334
sg63
(lp2349
g56
(g57
g58
NtRp2350
(dp2351
g61
(dp2352
g69
I4
ssg70
g2346
sg63
(lp2353
g2244
asbasbasbasbasbasbasbag56
(g72
g58
NtRp2354
(dp2355
g61
(dp2356
sg70
g66
sg63
(lp2357
g56
(g77
g58
NtRp2358
(dp2359
g61
(dp2360
g81
g82
ssg70
g2354
sg63
(lp2361
S'wsgi'
p2362
asbag56
(g77
g58
NtRp2363
(dp2364
g61
(dp2365
g88
g89
ssg70
g2354
sg63
(lp2366
S':'
asbag56
(g77
g58
NtRp2367
(dp2368
g61
(dp2369
sg70
g2354
sg63
(lp2370
g56
(g57
g58
NtRp2371
(dp2372
g61
(dp2373
g69
I5
ssg70
g2367
sg63
(lp2374
g56
(g65
g58
NtRp2375
(dp2376
g61
(dp2377
g69
I4
ssg70
Nsg63
(lp2378
g56
(g72
g58
NtRp2379
(dp2380
g61
(dp2381
sg70
g2375
sg63
(lp2382
g56
(g77
g58
NtRp2383
(dp2384
g61
(dp2385
g81
g82
ssg70
g2379
sg63
(lp2386
S'environ'
p2387
asbag56
(g77
g58
NtRp2388
(dp2389
g61
(dp2390
g88
g89
ssg70
g2379
sg63
(lp2391
S':'
asbag56
(g77
g58
NtRp2392
(dp2393
g61
(dp2394
sg70
g2379
sg63
(lp2395
g56
(g57
g58
NtRp2396
(dp2397
g61
(dp2398
g69
I4
ssg70
g2392
sg63
(lp2399
g56
(g65
g58
NtRp2400
(dp2401
g61
(dp2402
g69
I3
ssg70
Nsg63
(lp2403
g56
(g72
g58
NtRp2404
(dp2405
g61
(dp2406
sg70
g2400
sg63
(lp2407
g56
(g77
g58
NtRp2408
(dp2409
g61
(dp2410
g81
g82
ssg70
g2404
sg63
(lp2411
S'CONTENT_LENGTH'
p2412
asbag56
(g77
g58
NtRp2413
(dp2414
g61
(dp2415
g88
g89
ssg70
g2404
sg63
(lp2416
S':'
asbag56
(g77
g58
NtRp2417
(dp2418
g61
(dp2419
sg70
g2404
sg63
(lp2420
g56
(g57
g58
NtRp2421
(dp2422
g61
(dp2423
g69
I3
ssg70
g2417
sg63
(lp2424
g705
asbasbasbag56
(g72
g58
NtRp2425
(dp2426
g61
(dp2427
sg70
g2400
sg63
(lp2428
g56
(g77
g58
NtRp2429
(dp2430
g61
(dp2431
g81
g82
ssg70
g2425
sg63
(lp2432
S'CONTENT_TYPE'
p2433
asbag56
(g77
g58
NtRp2434
(dp2435
g61
(dp2436
g88
g89
ssg70
g2425
sg63
(lp2437
S':'
asbag56
(g77
g58
NtRp2438
(dp2439
g61
(dp2440
sg70
g2425
sg63
(lp2441
g56
(g57
g58
NtRp2442
(dp2443
g61
(dp2444
g69
I3
ssg70
g2438
sg63
(lp2445
g727
asbasbasbag56
(g72
g58
NtRp2446
(dp2447
g61
(dp2448
sg70
g2400
sg63
(lp2449
g56
(g77
g58
NtRp2450
(dp2451
g61
(dp2452
g81
g82
ssg70
g2446
sg63
(lp2453
S'DOCUMENT_ROOT'
p2454
asbag56
(g77
g58
NtRp2455
(dp2456
g61
(dp2457
g88
g89
ssg70
g2446
sg63
(lp2458
S':'
asbag56
(g77
g58
NtRp2459
(dp2460
g61
(dp2461
sg70
g2446
sg63
(lp2462
g56
(g57
g58
NtRp2463
(dp2464
g61
(dp2465
g69
I3
ssg70
g2459
sg63
(lp2466
g793
asbasbasbag56
(g72
g58
NtRp2467
(dp2468
g61
(dp2469
sg70
g2400
sg63
(lp2470
g56
(g77
g58
NtRp2471
(dp2472
g61
(dp2473
g81
g82
ssg70
g2467
sg63
(lp2474
S'GATEWAY_INTERFACE'
p2475
asbag56
(g77
g58
NtRp2476
(dp2477
g61
(dp2478
g88
g89
ssg70
g2467
sg63
(lp2479
S':'
asbag56
(g77
g58
NtRp2480
(dp2481
g61
(dp2482
sg70
g2467
sg63
(lp2483
g56
(g57
g58
NtRp2484
(dp2485
g61
(dp2486
g69
I3
ssg70
g2480
sg63
(lp2487
g815
asbasbasbag56
(g72
g58
NtRp2488
(dp2489
g61
(dp2490
sg70
g2400
sg63
(lp2491
g56
(g77
g58
NtRp2492
(dp2493
g61
(dp2494
g81
g82
ssg70
g2488
sg63
(lp2495
S'HTTPS'
p2496
asbag56
(g77
g58
NtRp2497
(dp2498
g61
(dp2499
g88
g89
ssg70
g2488
sg63
(lp2500
S':'
asbag56
(g77
g58
NtRp2501
(dp2502
g61
(dp2503
sg70
g2488
sg63
(lp2504
g56
(g57
g58
NtRp2505
(dp2506
g61
(dp2507
g69
I3
ssg70
g2501
sg63
(lp2508
S'1'
asbasbasbag56
(g72
g58
NtRp2509
(dp2510
g61
(dp2511
sg70
g2400
sg63
(lp2512
g56
(g77
g58
NtRp2513
(dp2514
g61
(dp2515
g81
g82
ssg70
g2509
sg63
(lp2516
S'HTTP_ACCEPT'
p2517
asbag56
(g77
g58
NtRp2518
(dp2519
g61
(dp2520
g88
g89
ssg70
g2509
sg63
(lp2521
S':'
asbag56
(g77
g58
NtRp2522
(dp2523
g61
(dp2524
sg70
g2509
sg63
(lp2525
g56
(g57
g58
NtRp2526
(dp2527
g61
(dp2528
g69
I3
ssg70
g2522
sg63
(lp2529
g858
asbasbasbag56
(g72
g58
NtRp2530
(dp2531
g61
(dp2532
sg70
g2400
sg63
(lp2533
g56
(g77
g58
NtRp2534
(dp2535
g61
(dp2536
g81
g82
ssg70
g2530
sg63
(lp2537
S'HTTP_ACCEPT_CHARSET'
p2538
asbag56
(g77
g58
NtRp2539
(dp2540
g61
(dp2541
g88
g89
ssg70
g2530
sg63
(lp2542
S':'
asbag56
(g77
g58
NtRp2543
(dp2544
g61
(dp2545
sg70
g2530
sg63
(lp2546
g56
(g57
g58
NtRp2547
(dp2548
g61
(dp2549
g69
I3
ssg70
g2543
sg63
(lp2550
g880
asbasbasbag56
(g72
g58
NtRp2551
(dp2552
g61
(dp2553
sg70
g2400
sg63
(lp2554
g56
(g77
g58
NtRp2555
(dp2556
g61
(dp2557
g81
g82
ssg70
g2551
sg63
(lp2558
S'HTTP_ACCEPT_ENCODING'
p2559
asbag56
(g77
g58
NtRp2560
(dp2561
g61
(dp2562
g88
g89
ssg70
g2551
sg63
(lp2563
S':'
asbag56
(g77
g58
NtRp2564
(dp2565
g61
(dp2566
sg70
g2551
sg63
(lp2567
g56
(g57
g58
NtRp2568
(dp2569
g61
(dp2570
g69
I3
ssg70
g2564
sg63
(lp2571
g902
asbasbasbag56
(g72
g58
NtRp2572
(dp2573
g61
(dp2574
sg70
g2400
sg63
(lp2575
g56
(g77
g58
NtRp2576
(dp2577
g61
(dp2578
g81
g82
ssg70
g2572
sg63
(lp2579
S'HTTP_ACCEPT_LANGUAGE'
p2580
asbag56
(g77
g58
NtRp2581
(dp2582
g61
(dp2583
g88
g89
ssg70
g2572
sg63
(lp2584
S':'
asbag56
(g77
g58
NtRp2585
(dp2586
g61
(dp2587
sg70
g2572
sg63
(lp2588
g56
(g57
g58
NtRp2589
(dp2590
g61
(dp2591
g69
I3
ssg70
g2585
sg63
(lp2592
g924
asbasbasbag56
(g72
g58
NtRp2593
(dp2594
g61
(dp2595
sg70
g2400
sg63
(lp2596
g56
(g77
g58
NtRp2597
(dp2598
g61
(dp2599
g81
g82
ssg70
g2593
sg63
(lp2600
S'HTTP_CACHE_CONTROL'
p2601
asbag56
(g77
g58
NtRp2602
(dp2603
g61
(dp2604
g88
g89
ssg70
g2593
sg63
(lp2605
S':'
asbag56
(g77
g58
NtRp2606
(dp2607
g61
(dp2608
sg70
g2593
sg63
(lp2609
g56
(g57
g58
NtRp2610
(dp2611
g61
(dp2612
g69
I3
ssg70
g2606
sg63
(lp2613
g946
asbasbasbag56
(g72
g58
NtRp2614
(dp2615
g61
(dp2616
sg70
g2400
sg63
(lp2617
g56
(g77
g58
NtRp2618
(dp2619
g61
(dp2620
g81
g82
ssg70
g2614
sg63
(lp2621
S'HTTP_CONNECTION'
p2622
asbag56
(g77
g58
NtRp2623
(dp2624
g61
(dp2625
g88
g89
ssg70
g2614
sg63
(lp2626
S':'
asbag56
(g77
g58
NtRp2627
(dp2628
g61
(dp2629
sg70
g2614
sg63
(lp2630
g56
(g57
g58
NtRp2631
(dp2632
g61
(dp2633
g69
I3
ssg70
g2627
sg63
(lp2634
g968
asbasbasbag56
(g72
g58
NtRp2635
(dp2636
g61
(dp2637
sg70
g2400
sg63
(lp2638
g56
(g77
g58
NtRp2639
(dp2640
g61
(dp2641
g81
g82
ssg70
g2635
sg63
(lp2642
S'HTTP_COOKIE'
p2643
asbag56
(g77
g58
NtRp2644
(dp2645
g61
(dp2646
g88
g89
ssg70
g2635
sg63
(lp2647
S':'
asbag56
(g77
g58
NtRp2648
(dp2649
g61
(dp2650
sg70
g2635
sg63
(lp2651
g56
(g57
g58
NtRp2652
(dp2653
g61
(dp2654
g69
I3
ssg70
g2648
sg63
(lp2655
g990
asbasbasbag56
(g72
g58
NtRp2656
(dp2657
g61
(dp2658
sg70
g2400
sg63
(lp2659
g56
(g77
g58
NtRp2660
(dp2661
g61
(dp2662
g81
g82
ssg70
g2656
sg63
(lp2663
S'HTTP_HOST'
p2664
asbag56
(g77
g58
NtRp2665
(dp2666
g61
(dp2667
g88
g89
ssg70
g2656
sg63
(lp2668
S':'
asbag56
(g77
g58
NtRp2669
(dp2670
g61
(dp2671
sg70
g2656
sg63
(lp2672
g56
(g57
g58
NtRp2673
(dp2674
g61
(dp2675
g69
I3
ssg70
g2669
sg63
(lp2676
g1012
asbasbasbag56
(g72
g58
NtRp2677
(dp2678
g61
(dp2679
sg70
g2400
sg63
(lp2680
g56
(g77
g58
NtRp2681
(dp2682
g61
(dp2683
g81
g82
ssg70
g2677
sg63
(lp2684
S'HTTP_PRAGMA'
p2685
asbag56
(g77
g58
NtRp2686
(dp2687
g61
(dp2688
g88
g89
ssg70
g2677
sg63
(lp2689
S':'
asbag56
(g77
g58
NtRp2690
(dp2691
g61
(dp2692
sg70
g2677
sg63
(lp2693
g56
(g57
g58
NtRp2694
(dp2695
g61
(dp2696
g69
I3
ssg70
g2690
sg63
(lp2697
g1034
asbasbasbag56
(g72
g58
NtRp2698
(dp2699
g61
(dp2700
sg70
g2400
sg63
(lp2701
g56
(g77
g58
NtRp2702
(dp2703
g61
(dp2704
g81
g82
ssg70
g2698
sg63
(lp2705
S'HTTP_REFERER'
p2706
asbag56
(g77
g58
NtRp2707
(dp2708
g61
(dp2709
g88
g89
ssg70
g2698
sg63
(lp2710
S':'
asbag56
(g77
g58
NtRp2711
(dp2712
g61
(dp2713
sg70
g2698
sg63
(lp2714
g56
(g57
g58
NtRp2715
(dp2716
g61
(dp2717
g69
I3
ssg70
g2711
sg63
(lp2718
g1056
asbasbasbag56
(g72
g58
NtRp2719
(dp2720
g61
(dp2721
sg70
g2400
sg63
(lp2722
g56
(g77
g58
NtRp2723
(dp2724
g61
(dp2725
g81
g82
ssg70
g2719
sg63
(lp2726
S'HTTP_USER_AGENT'
p2727
asbag56
(g77
g58
NtRp2728
(dp2729
g61
(dp2730
g88
g89
ssg70
g2719
sg63
(lp2731
S':'
asbag56
(g77
g58
NtRp2732
(dp2733
g61
(dp2734
sg70
g2719
sg63
(lp2735
g56
(g57
g58
NtRp2736
(dp2737
g61
(dp2738
g69
I3
ssg70
g2732
sg63
(lp2739
g1078
asbasbasbag56
(g72
g58
NtRp2740
(dp2741
g61
(dp2742
sg70
g2400
sg63
(lp2743
g56
(g77
g58
NtRp2744
(dp2745
g61
(dp2746
g81
g82
ssg70
g2740
sg63
(lp2747
S'HTTP_X_REQUESTED_WITH'
p2748
asbag56
(g77
g58
NtRp2749
(dp2750
g61
(dp2751
g88
g89
ssg70
g2740
sg63
(lp2752
S':'
asbag56
(g77
g58
NtRp2753
(dp2754
g61
(dp2755
sg70
g2740
sg63
(lp2756
g56
(g57
g58
NtRp2757
(dp2758
g61
(dp2759
g69
I3
ssg70
g2753
sg63
(lp2760
g1100
asbasbasbag56
(g72
g58
NtRp2761
(dp2762
g61
(dp2763
sg70
g2400
sg63
(lp2764
g56
(g77
g58
NtRp2765
(dp2766
g61
(dp2767
g81
g82
ssg70
g2761
sg63
(lp2768
S'PATH_INFO'
p2769
asbag56
(g77
g58
NtRp2770
(dp2771
g61
(dp2772
g88
g89
ssg70
g2761
sg63
(lp2773
S':'
asbag56
(g77
g58
NtRp2774
(dp2775
g61
(dp2776
sg70
g2761
sg63
(lp2777
g56
(g57
g58
NtRp2778
(dp2779
g61
(dp2780
g69
I3
ssg70
g2774
sg63
(lp2781
g1407
asbasbasbag56
(g72
g58
NtRp2782
(dp2783
g61
(dp2784
sg70
g2400
sg63
(lp2785
g56
(g77
g58
NtRp2786
(dp2787
g61
(dp2788
g81
g82
ssg70
g2782
sg63
(lp2789
S'PATH_TRANSLATED'
p2790
asbag56
(g77
g58
NtRp2791
(dp2792
g61
(dp2793
g88
g89
ssg70
g2782
sg63
(lp2794
S':'
asbag56
(g77
g58
NtRp2795
(dp2796
g61
(dp2797
sg70
g2782
sg63
(lp2798
g56
(g57
g58
NtRp2799
(dp2800
g61
(dp2801
g69
I3
ssg70
g2795
sg63
(lp2802
g1429
asbasbasbag56
(g72
g58
NtRp2803
(dp2804
g61
(dp2805
sg70
g2400
sg63
(lp2806
g56
(g77
g58
NtRp2807
(dp2808
g61
(dp2809
g81
g82
ssg70
g2803
sg63
(lp2810
S'QUERY_STRING'
p2811
asbag56
(g77
g58
NtRp2812
(dp2813
g61
(dp2814
g88
g89
ssg70
g2803
sg63
(lp2815
S':'
asbag56
(g77
g58
NtRp2816
(dp2817
g61
(dp2818
sg70
g2803
sg63
(lp2819
g56
(g57
g58
NtRp2820
(dp2821
g61
(dp2822
g69
I3
ssg70
g2816
sg63
(lp2823
S''
asbasbasbag56
(g72
g58
NtRp2824
(dp2825
g61
(dp2826
sg70
g2400
sg63
(lp2827
g56
(g77
g58
NtRp2828
(dp2829
g61
(dp2830
g81
g82
ssg70
g2824
sg63
(lp2831
S'REMOTE_ADDR'
p2832
asbag56
(g77
g58
NtRp2833
(dp2834
g61
(dp2835
g88
g89
ssg70
g2824
sg63
(lp2836
S':'
asbag56
(g77
g58
NtRp2837
(dp2838
g61
(dp2839
sg70
g2824
sg63
(lp2840
g56
(g57
g58
NtRp2841
(dp2842
g61
(dp2843
g69
I3
ssg70
g2837
sg63
(lp2844
g189
asbasbasbag56
(g72
g58
NtRp2845
(dp2846
g61
(dp2847
sg70
g2400
sg63
(lp2848
g56
(g77
g58
NtRp2849
(dp2850
g61
(dp2851
g81
g82
ssg70
g2845
sg63
(lp2852
S'REMOTE_PORT'
p2853
asbag56
(g77
g58
NtRp2854
(dp2855
g61
(dp2856
g88
g89
ssg70
g2845
sg63
(lp2857
S':'
asbag56
(g77
g58
NtRp2858
(dp2859
g61
(dp2860
sg70
g2845
sg63
(lp2861
g56
(g57
g58
NtRp2862
(dp2863
g61
(dp2864
g69
I3
ssg70
g2858
sg63
(lp2865
g1493
asbasbasbag56
(g72
g58
NtRp2866
(dp2867
g61
(dp2868
sg70
g2400
sg63
(lp2869
g56
(g77
g58
NtRp2870
(dp2871
g61
(dp2872
g81
g82
ssg70
g2866
sg63
(lp2873
S'REQUEST_METHOD'
p2874
asbag56
(g77
g58
NtRp2875
(dp2876
g61
(dp2877
g88
g89
ssg70
g2866
sg63
(lp2878
S':'
asbag56
(g77
g58
NtRp2879
(dp2880
g61
(dp2881
sg70
g2866
sg63
(lp2882
g56
(g57
g58
NtRp2883
(dp2884
g61
(dp2885
g69
I3
ssg70
g2879
sg63
(lp2886
g1515
asbasbasbag56
(g72
g58
NtRp2887
(dp2888
g61
(dp2889
sg70
g2400
sg63
(lp2890
g56
(g77
g58
NtRp2891
(dp2892
g61
(dp2893
g81
g82
ssg70
g2887
sg63
(lp2894
S'REQUEST_URI'
p2895
asbag56
(g77
g58
NtRp2896
(dp2897
g61
(dp2898
g88
g89
ssg70
g2887
sg63
(lp2899
S':'
asbag56
(g77
g58
NtRp2900
(dp2901
g61
(dp2902
sg70
g2887
sg63
(lp2903
g56
(g57
g58
NtRp2904
(dp2905
g61
(dp2906
g69
I3
ssg70
g2900
sg63
(lp2907
g1537
asbasbasbag56
(g72
g58
NtRp2908
(dp2909
g61
(dp2910
sg70
g2400
sg63
(lp2911
g56
(g77
g58
NtRp2912
(dp2913
g61
(dp2914
g81
g82
ssg70
g2908
sg63
(lp2915
S'SCRIPT_FILENAME'
p2916
asbag56
(g77
g58
NtRp2917
(dp2918
g61
(dp2919
g88
g89
ssg70
g2908
sg63
(lp2920
S':'
asbag56
(g77
g58
NtRp2921
(dp2922
g61
(dp2923
sg70
g2908
sg63
(lp2924
g56
(g57
g58
NtRp2925
(dp2926
g61
(dp2927
g69
I3
ssg70
g2921
sg63
(lp2928
g1559
asbasbasbag56
(g72
g58
NtRp2929
(dp2930
g61
(dp2931
sg70
g2400
sg63
(lp2932
g56
(g77
g58
NtRp2933
(dp2934
g61
(dp2935
g81
g82
ssg70
g2929
sg63
(lp2936
S'SCRIPT_NAME'
p2937
asbag56
(g77
g58
NtRp2938
(dp2939
g61
(dp2940
g88
g89
ssg70
g2929
sg63
(lp2941
S':'
asbag56
(g77
g58
NtRp2942
(dp2943
g61
(dp2944
sg70
g2929
sg63
(lp2945
g56
(g57
g58
NtRp2946
(dp2947
g61
(dp2948
g69
I3
ssg70
g2942
sg63
(lp2949
S''
asbasbasbag56
(g72
g58
NtRp2950
(dp2951
g61
(dp2952
sg70
g2400
sg63
(lp2953
g56
(g77
g58
NtRp2954
(dp2955
g61
(dp2956
g81
g82
ssg70
g2950
sg63
(lp2957
S'SERVER_ADDR'
p2958
asbag56
(g77
g58
NtRp2959
(dp2960
g61
(dp2961
g88
g89
ssg70
g2950
sg63
(lp2962
S':'
asbag56
(g77
g58
NtRp2963
(dp2964
g61
(dp2965
sg70
g2950
sg63
(lp2966
g56
(g57
g58
NtRp2967
(dp2968
g61
(dp2969
g69
I3
ssg70
g2963
sg63
(lp2970
g1602
asbasbasbag56
(g72
g58
NtRp2971
(dp2972
g61
(dp2973
sg70
g2400
sg63
(lp2974
g56
(g77
g58
NtRp2975
(dp2976
g61
(dp2977
g81
g82
ssg70
g2971
sg63
(lp2978
S'SERVER_ADMIN'
p2979
asbag56
(g77
g58
NtRp2980
(dp2981
g61
(dp2982
g88
g89
ssg70
g2971
sg63
(lp2983
S':'
asbag56
(g77
g58
NtRp2984
(dp2985
g61
(dp2986
sg70
g2971
sg63
(lp2987
g56
(g57
g58
NtRp2988
(dp2989
g61
(dp2990
g69
I3
ssg70
g2984
sg63
(lp2991
g1624
asbasbasbag56
(g72
g58
NtRp2992
(dp2993
g61
(dp2994
sg70
g2400
sg63
(lp2995
g56
(g77
g58
NtRp2996
(dp2997
g61
(dp2998
g81
g82
ssg70
g2992
sg63
(lp2999
S'SERVER_NAME'
p3000
asbag56
(g77
g58
NtRp3001
(dp3002
g61
(dp3003
g88
g89
ssg70
g2992
sg63
(lp3004
S':'
asbag56
(g77
g58
NtRp3005
(dp3006
g61
(dp3007
sg70
g2992
sg63
(lp3008
g56
(g57
g58
NtRp3009
(dp3010
g61
(dp3011
g69
I3
ssg70
g3005
sg63
(lp3012
g1646
asbasbasbag56
(g72
g58
NtRp3013
(dp3014
g61
(dp3015
sg70
g2400
sg63
(lp3016
g56
(g77
g58
NtRp3017
(dp3018
g61
(dp3019
g81
g82
ssg70
g3013
sg63
(lp3020
S'SERVER_PORT'
p3021
asbag56
(g77
g58
NtRp3022
(dp3023
g61
(dp3024
g88
g89
ssg70
g3013
sg63
(lp3025
S':'
asbag56
(g77
g58
NtRp3026
(dp3027
g61
(dp3028
sg70
g3013
sg63
(lp3029
g56
(g57
g58
NtRp3030
(dp3031
g61
(dp3032
g69
I3
ssg70
g3026
sg63
(lp3033
g1668
asbasbasbag56
(g72
g58
NtRp3034
(dp3035
g61
(dp3036
sg70
g2400
sg63
(lp3037
g56
(g77
g58
NtRp3038
(dp3039
g61
(dp3040
g81
g82
ssg70
g3034
sg63
(lp3041
S'SERVER_PROTOCOL'
p3042
asbag56
(g77
g58
NtRp3043
(dp3044
g61
(dp3045
g88
g89
ssg70
g3034
sg63
(lp3046
S':'
asbag56
(g77
g58
NtRp3047
(dp3048
g61
(dp3049
sg70
g3034
sg63
(lp3050
g56
(g57
g58
NtRp3051
(dp3052
g61
(dp3053
g69
I3
ssg70
g3047
sg63
(lp3054
g1690
asbasbasbag56
(g72
g58
NtRp3055
(dp3056
g61
(dp3057
sg70
g2400
sg63
(lp3058
g56
(g77
g58
NtRp3059
(dp3060
g61
(dp3061
g81
g82
ssg70
g3055
sg63
(lp3062
S'SERVER_SIGNATURE'
p3063
asbag56
(g77
g58
NtRp3064
(dp3065
g61
(dp3066
g88
g89
ssg70
g3055
sg63
(lp3067
S':'
asbag56
(g77
g58
NtRp3068
(dp3069
g61
(dp3070
sg70
g3055
sg63
(lp3071
g56
(g57
g58
NtRp3072
(dp3073
g61
(dp3074
g69
I3
ssg70
g3068
sg63
(lp3075
g1712
asbasbasbag56
(g72
g58
NtRp3076
(dp3077
g61
(dp3078
sg70
g2400
sg63
(lp3079
g56
(g77
g58
NtRp3080
(dp3081
g61
(dp3082
g81
g82
ssg70
g3076
sg63
(lp3083
S'SERVER_SOFTWARE'
p3084
asbag56
(g77
g58
NtRp3085
(dp3086
g61
(dp3087
g88
g89
ssg70
g3076
sg63
(lp3088
S':'
asbag56
(g77
g58
NtRp3089
(dp3090
g61
(dp3091
sg70
g3076
sg63
(lp3092
g56
(g57
g58
NtRp3093
(dp3094
g61
(dp3095
g69
I3
ssg70
g3089
sg63
(lp3096
g1734
asbasbasbag56
(g72
g58
NtRp3097
(dp3098
g61
(dp3099
sg70
g2400
sg63
(lp3100
g56
(g77
g58
NtRp3101
(dp3102
g61
(dp3103
g81
g82
ssg70
g3097
sg63
(lp3104
S'SSL_TLS_SNI'
p3105
asbag56
(g77
g58
NtRp3106
(dp3107
g61
(dp3108
g88
g89
ssg70
g3097
sg63
(lp3109
S':'
asbag56
(g77
g58
NtRp3110
(dp3111
g61
(dp3112
sg70
g3097
sg63
(lp3113
g56
(g57
g58
NtRp3114
(dp3115
g61
(dp3116
g69
I3
ssg70
g3110
sg63
(lp3117
g1756
asbasbasbag56
(g72
g58
NtRp3118
(dp3119
g61
(dp3120
sg70
g2400
sg63
(lp3121
g56
(g77
g58
NtRp3122
(dp3123
g61
(dp3124
g81
g82
ssg70
g3118
sg63
(lp3125
S'mod_wsgi.application_group'
p3126
asbag56
(g77
g58
NtRp3127
(dp3128
g61
(dp3129
g88
g89
ssg70
g3118
sg63
(lp3130
S':'
asbag56
(g77
g58
NtRp3131
(dp3132
g61
(dp3133
sg70
g3118
sg63
(lp3134
g56
(g57
g58
NtRp3135
(dp3136
g61
(dp3137
g69
I3
ssg70
g3131
sg63
(lp3138
g1164
asbasbasbag56
(g72
g58
NtRp3139
(dp3140
g61
(dp3141
sg70
g2400
sg63
(lp3142
g56
(g77
g58
NtRp3143
(dp3144
g61
(dp3145
g81
g82
ssg70
g3139
sg63
(lp3146
S'mod_wsgi.callable_object'
p3147
asbag56
(g77
g58
NtRp3148
(dp3149
g61
(dp3150
g88
g89
ssg70
g3139
sg63
(lp3151
S':'
asbag56
(g77
g58
NtRp3152
(dp3153
g61
(dp3154
sg70
g3139
sg63
(lp3155
g56
(g57
g58
NtRp3156
(dp3157
g61
(dp3158
g69
I3
ssg70
g3152
sg63
(lp3159
g1186
asbasbasbag56
(g72
g58
NtRp3160
(dp3161
g61
(dp3162
sg70
g2400
sg63
(lp3163
g56
(g77
g58
NtRp3164
(dp3165
g61
(dp3166
g81
g82
ssg70
g3160
sg63
(lp3167
S'mod_wsgi.handler_script'
p3168
asbag56
(g77
g58
NtRp3169
(dp3170
g61
(dp3171
g88
g89
ssg70
g3160
sg63
(lp3172
S':'
asbag56
(g77
g58
NtRp3173
(dp3174
g61
(dp3175
sg70
g3160
sg63
(lp3176
g56
(g57
g58
NtRp3177
(dp3178
g61
(dp3179
g69
I3
ssg70
g3173
sg63
(lp3180
S''
asbasbasbag56
(g72
g58
NtRp3181
(dp3182
g61
(dp3183
sg70
g2400
sg63
(lp3184
g56
(g77
g58
NtRp3185
(dp3186
g61
(dp3187
g81
g82
ssg70
g3181
sg63
(lp3188
S'mod_wsgi.input_chunked'
p3189
asbag56
(g77
g58
NtRp3190
(dp3191
g61
(dp3192
g88
g89
ssg70
g3181
sg63
(lp3193
S':'
asbag56
(g77
g58
NtRp3194
(dp3195
g61
(dp3196
sg70
g3181
sg63
(lp3197
g56
(g57
g58
NtRp3198
(dp3199
g61
(dp3200
g69
I3
ssg70
g3194
sg63
(lp3201
S'0'
asbasbasbag56
(g72
g58
NtRp3202
(dp3203
g61
(dp3204
sg70
g2400
sg63
(lp3205
g56
(g77
g58
NtRp3206
(dp3207
g61
(dp3208
g81
g82
ssg70
g3202
sg63
(lp3209
S'mod_wsgi.listener_host'
p3210
asbag56
(g77
g58
NtRp3211
(dp3212
g61
(dp3213
g88
g89
ssg70
g3202
sg63
(lp3214
S':'
asbag56
(g77
g58
NtRp3215
(dp3216
g61
(dp3217
sg70
g3202
sg63
(lp3218
g56
(g57
g58
NtRp3219
(dp3220
g61
(dp3221
g69
I3
ssg70
g3215
sg63
(lp3222
S''
asbasbasbag56
(g72
g58
NtRp3223
(dp3224
g61
(dp3225
sg70
g2400
sg63
(lp3226
g56
(g77
g58
NtRp3227
(dp3228
g61
(dp3229
g81
g82
ssg70
g3223
sg63
(lp3230
S'mod_wsgi.listener_port'
p3231
asbag56
(g77
g58
NtRp3232
(dp3233
g61
(dp3234
g88
g89
ssg70
g3223
sg63
(lp3235
S':'
asbag56
(g77
g58
NtRp3236
(dp3237
g61
(dp3238
sg70
g3223
sg63
(lp3239
g56
(g57
g58
NtRp3240
(dp3241
g61
(dp3242
g69
I3
ssg70
g3236
sg63
(lp3243
g1271
asbasbasbag56
(g72
g58
NtRp3244
(dp3245
g61
(dp3246
sg70
g2400
sg63
(lp3247
g56
(g77
g58
NtRp3248
(dp3249
g61
(dp3250
g81
g82
ssg70
g3244
sg63
(lp3251
S'mod_wsgi.process_group'
p3252
asbag56
(g77
g58
NtRp3253
(dp3254
g61
(dp3255
g88
g89
ssg70
g3244
sg63
(lp3256
S':'
asbag56
(g77
g58
NtRp3257
(dp3258
g61
(dp3259
sg70
g3244
sg63
(lp3260
g56
(g57
g58
NtRp3261
(dp3262
g61
(dp3263
g69
I3
ssg70
g3257
sg63
(lp3264
g1293
asbasbasbag56
(g72
g58
NtRp3265
(dp3266
g61
(dp3267
sg70
g2400
sg63
(lp3268
g56
(g77
g58
NtRp3269
(dp3270
g61
(dp3271
g81
g82
ssg70
g3265
sg63
(lp3272
S'mod_wsgi.request_handler'
p3273
asbag56
(g77
g58
NtRp3274
(dp3275
g61
(dp3276
g88
g89
ssg70
g3265
sg63
(lp3277
S':'
asbag56
(g77
g58
NtRp3278
(dp3279
g61
(dp3280
sg70
g3265
sg63
(lp3281
g56
(g57
g58
NtRp3282
(dp3283
g61
(dp3284
g69
I3
ssg70
g3278
sg63
(lp3285
g1315
asbasbasbag56
(g72
g58
NtRp3286
(dp3287
g61
(dp3288
sg70
g2400
sg63
(lp3289
g56
(g77
g58
NtRp3290
(dp3291
g61
(dp3292
g81
g82
ssg70
g3286
sg63
(lp3293
S'mod_wsgi.script_reloading'
p3294
asbag56
(g77
g58
NtRp3295
(dp3296
g61
(dp3297
g88
g89
ssg70
g3286
sg63
(lp3298
S':'
asbag56
(g77
g58
NtRp3299
(dp3300
g61
(dp3301
sg70
g3286
sg63
(lp3302
g56
(g57
g58
NtRp3303
(dp3304
g61
(dp3305
g69
I3
ssg70
g3299
sg63
(lp3306
S'1'
asbasbasbag56
(g72
g58
NtRp3307
(dp3308
g61
(dp3309
sg70
g2400
sg63
(lp3310
g56
(g77
g58
NtRp3311
(dp3312
g61
(dp3313
g81
g82
ssg70
g3307
sg63
(lp3314
S'mod_wsgi.version'
p3315
asbag56
(g77
g58
NtRp3316
(dp3317
g61
(dp3318
g88
g89
ssg70
g3307
sg63
(lp3319
S':'
asbag56
(g77
g58
NtRp3320
(dp3321
g61
(dp3322
sg70
g3307
sg63
(lp3323
g56
(g57
g58
NtRp3324
(dp3325
g61
(dp3326
g69
I3
ssg70
g3320
sg63
(lp3327
g56
(g65
g58
NtRp3328
(dp3329
g61
(dp3330
g69
I2
ssg70
Nsg63
(lp3331
g56
(g72
g58
NtRp3332
(dp3333
g61
(dp3334
sg70
g3328
sg63
(lp3335
g56
(g77
g58
NtRp3336
(dp3337
g61
(dp3338
sg70
g3332
sg63
(lp3339
g56
(g57
g58
NtRp3340
(dp3341
g61
(dp3342
g69
I2
ssg70
g3336
sg63
(lp3343
S'3'
asbasbasbag56
(g72
g58
NtRp3344
(dp3345
g61
(dp3346
sg70
g3328
sg63
(lp3347
g56
(g77
g58
NtRp3348
(dp3349
g61
(dp3350
sg70
g3344
sg63
(lp3351
g56
(g57
g58
NtRp3352
(dp3353
g61
(dp3354
g69
I2
ssg70
g3348
sg63
(lp3355
S'3'
asbasbasbasbasbasbasbag56
(g72
g58
NtRp3356
(dp3357
g61
(dp3358
sg70
g2400
sg63
(lp3359
g56
(g77
g58
NtRp3360
(dp3361
g61
(dp3362
g81
g82
ssg70
g3356
sg63
(lp3363
S'wsgi.errors'
p3364
asbag56
(g77
g58
NtRp3365
(dp3366
g61
(dp3367
g88
g89
ssg70
g3356
sg63
(lp3368
S':'
asbag56
(g77
g58
NtRp3369
(dp3370
g61
(dp3371
sg70
g3356
sg63
(lp3372
g56
(g57
g58
NtRp3373
(dp3374
g61
(dp3375
g69
I3
ssg70
g3369
sg63
(lp3376
S'<mod_wsgi.Log object at 0xb93d58b8>'
p3377
asbasbasbag56
(g72
g58
NtRp3378
(dp3379
g61
(dp3380
sg70
g2400
sg63
(lp3381
g56
(g77
g58
NtRp3382
(dp3383
g61
(dp3384
g81
g82
ssg70
g3378
sg63
(lp3385
S'wsgi.file_wrapper'
p3386
asbag56
(g77
g58
NtRp3387
(dp3388
g61
(dp3389
g88
g89
ssg70
g3378
sg63
(lp3390
S':'
asbag56
(g77
g58
NtRp3391
(dp3392
g61
(dp3393
sg70
g3378
sg63
(lp3394
g56
(g57
g58
NtRp3395
(dp3396
g61
(dp3397
g69
I3
ssg70
g3391
sg63
(lp3398
S'<built-in method file_wrapper of mod_wsgi.Adapter object at 0xb9872c80>'
p3399
asbasbasbag56
(g72
g58
NtRp3400
(dp3401
g61
(dp3402
sg70
g2400
sg63
(lp3403
g56
(g77
g58
NtRp3404
(dp3405
g61
(dp3406
g81
g82
ssg70
g3400
sg63
(lp3407
S'wsgi.input'
p3408
asbag56
(g77
g58
NtRp3409
(dp3410
g61
(dp3411
g88
g89
ssg70
g3400
sg63
(lp3412
S':'
asbag56
(g77
g58
NtRp3413
(dp3414
g61
(dp3415
sg70
g3400
sg63
(lp3416
g56
(g57
g58
NtRp3417
(dp3418
g61
(dp3419
g69
I3
ssg70
g3413
sg63
(lp3420
S"<open file '<fdopen>', mode 'w+b' at 0xb9409de0>"
p3421
asbasbasbag56
(g72
g58
NtRp3422
(dp3423
g61
(dp3424
sg70
g2400
sg63
(lp3425
g56
(g77
g58
NtRp3426
(dp3427
g61
(dp3428
g81
g82
ssg70
g3422
sg63
(lp3429
S'wsgi.multiprocess'
p3430
asbag56
(g77
g58
NtRp3431
(dp3432
g61
(dp3433
g88
g89
ssg70
g3422
sg63
(lp3434
S':'
asbag56
(g77
g58
NtRp3435
(dp3436
g61
(dp3437
sg70
g3422
sg63
(lp3438
g56
(g57
g58
NtRp3439
(dp3440
g61
(dp3441
g69
I3
ssg70
g3435
sg63
(lp3442
g771
asbasbasbag56
(g72
g58
NtRp3443
(dp3444
g61
(dp3445
sg70
g2400
sg63
(lp3446
g56
(g77
g58
NtRp3447
(dp3448
g61
(dp3449
g81
g82
ssg70
g3443
sg63
(lp3450
S'wsgi.multithread'
p3451
asbag56
(g77
g58
NtRp3452
(dp3453
g61
(dp3454
g88
g89
ssg70
g3443
sg63
(lp3455
S':'
asbag56
(g77
g58
NtRp3456
(dp3457
g61
(dp3458
sg70
g3443
sg63
(lp3459
g56
(g57
g58
NtRp3460
(dp3461
g61
(dp3462
g69
I3
ssg70
g3456
sg63
(lp3463
g99
asbasbasbag56
(g72
g58
NtRp3464
(dp3465
g61
(dp3466
sg70
g2400
sg63
(lp3467
g56
(g77
g58
NtRp3468
(dp3469
g61
(dp3470
g81
g82
ssg70
g3464
sg63
(lp3471
S'wsgi.run_once'
p3472
asbag56
(g77
g58
NtRp3473
(dp3474
g61
(dp3475
g88
g89
ssg70
g3464
sg63
(lp3476
S':'
asbag56
(g77
g58
NtRp3477
(dp3478
g61
(dp3479
sg70
g3464
sg63
(lp3480
g56
(g57
g58
NtRp3481
(dp3482
g61
(dp3483
g69
I3
ssg70
g3477
sg63
(lp3484
g771
asbasbasbag56
(g72
g58
NtRp3485
(dp3486
g61
(dp3487
sg70
g2400
sg63
(lp3488
g56
(g77
g58
NtRp3489
(dp3490
g61
(dp3491
g81
g82
ssg70
g3485
sg63
(lp3492
S'wsgi.url_scheme'
p3493
asbag56
(g77
g58
NtRp3494
(dp3495
g61
(dp3496
g88
g89
ssg70
g3485
sg63
(lp3497
S':'
asbag56
(g77
g58
NtRp3498
(dp3499
g61
(dp3500
sg70
g3485
sg63
(lp3501
g56
(g57
g58
NtRp3502
(dp3503
g61
(dp3504
g69
I3
ssg70
g3498
sg63
(lp3505
g1950
asbasbasbag56
(g72
g58
NtRp3506
(dp3507
g61
(dp3508
sg70
g2400
sg63
(lp3509
g56
(g77
g58
NtRp3510
(dp3511
g61
(dp3512
g81
g82
ssg70
g3506
sg63
(lp3513
S'wsgi.version'
p3514
asbag56
(g77
g58
NtRp3515
(dp3516
g61
(dp3517
g88
g89
ssg70
g3506
sg63
(lp3518
S':'
asbag56
(g77
g58
NtRp3519
(dp3520
g61
(dp3521
sg70
g3506
sg63
(lp3522
g56
(g57
g58
NtRp3523
(dp3524
g61
(dp3525
g69
I3
ssg70
g3519
sg63
(lp3526
S'1'
asbasbasbasbasbasbasbasbasbasbasbasbasbsS'frames'
p3527
(lp3528
(dp3529
S'file'
p3530
S'/home/www-data/web2py/gluon/restricted.py'
p3531
sS'dump'
p3532
(dp3533
S'environment'
p3534
S"{'A': <class 'gluon.html.A'>, 'Auth': <class 'gluon.tools.Auth'>, 'B': <class 'gluon.html.B'>, 'BEAUTIFY': <class 'gluon.html.BEAUTIFY'>, 'BODY': <class 'gluon.html.BODY'>, 'BR': <class 'gluon.html.BR'>, 'BRAZILIAN_DATE': <gluon.validators.IS_DATE object>, 'BUTTON': <class 'gluon.html.BUTTON'>, 'CAT': <class 'gluon.html.CAT'>, 'CENTER': <class 'gluon.html.CENTER'>, ...}"
p3535
sS'ccode'
p3536
S'<code object <module> at 0xb97d0c80, file "/home...pplications/scrum/controllers/sprint.py", line 3>'
p3537
ssS'lnum'
p3538
I192
sS'lines'
p3539
(dp3540
I192
S'        exec ccode in environment'
p3541
sI193
S'    except HTTP:'
p3542
sI194
S'        raise'
p3543
sI195
S'    except Exception, error:'
p3544
sI196
S'        # XXX Show exception in Wing IDE if running in debugger'
p3545
sI187
S'    try:'
p3546
sI188
S'        if type(code) == types.CodeType:'
p3547
sI189
S'            ccode = code'
p3548
sI190
S'        else:'
p3549
sI191
S'            ccode = compile2(code,layer)'
p3550
ssS'call'
p3551
S'(code="# coding: utf8\\n\\n@auth.requires_login()\\ndef index...les\')\\n\\nresponse._vars=response._caller(detalhes)\\n", environment={\'A\': <class \'gluon.html.A\'>, \'Auth\': <class \'gluon.tools.Auth\'>, \'B\': <class \'gluon.html.B\'>, \'BEAUTIFY\': <class \'gluon.html.BEAUTIFY\'>, \'BODY\': <class \'gluon.html.BODY\'>, \'BR\': <class \'gluon.html.BR\'>, \'BRAZILIAN_DATE\': <gluon.validators.IS_DATE object>, \'BUTTON\': <class \'gluon.html.BUTTON\'>, \'CAT\': <class \'gluon.html.CAT\'>, \'CENTER\': <class \'gluon.html.CENTER\'>, ...}, layer=\'/home/www-data/web2py/applications/scrum/controllers/sprint.py\')'
p3552
sS'func'
p3553
S'restricted'
p3554
sa(dp3555
g3530
S'/home/www-data/web2py/applications/scrum/controllers/sprint.py'
p3556
sg3532
(dp3557
sg3538
I53
sg3539
(dp3558
I42
S'            cols = request.vars[k]'
p3559
sI43
S''
sI44
S'    #vars to work'
p3560
sI45
S"    tablename = key.split('.')[0]"
p3561
sI46
S"    fieldname = key.split('.')[1]"
p3562
sI47
S"    value = key.split('.')[2]"
p3563
sI48
S''
sI49
S'    tickets = db(db.ticket.sprint == value).select(db.ticket.ALL)'
p3564
sI50
S'    #return SQLTABLE(tickets)'
p3565
sI51
S"    return SQLTABLE(tickets,headers='lables')"
p3566
ssg3551
S'()'
p3567
sg3553
S'<module>'
p3568
sa(dp3569
g3530
S'/home/www-data/web2py/gluon/globals.py'
p3570
sg3532
(dp3571
S'self'
p3572
S'undefined'
p3573
sS'f'
S'<function detalhes>'
p3574
ssg3538
I145
sg3539
(dp3575
I140
S'        self.meta = Storage()      # used by web2py_ajax.html'
p3576
sI141
S'        self.menu = []             # used by the default view layout'
p3577
sI142
S'        self.files = []            # used by web2py_ajax.html'
p3578
sI143
S'        self.generic_patterns = [] # patterns to allow generic views'
p3579
sI144
S'        self._vars = None'
p3580
sI145
S'        self._caller = lambda f: f()'
p3581
sI146
S'        self._view_environment = None'
p3582
sI147
S'        self._custom_commit = None'
p3583
sI148
S'        self._custom_rollback = None'
p3584
sI149
S''
ssg3551
S'(f=<function detalhes>)'
p3585
sg3553
S'<lambda>'
p3586
sa(dp3587
g3530
S'/home/www-data/web2py/applications/scrum/controllers/sprint.py'
p3588
sg3532
(dp3589
S'tickets'
p3590
S'<gluon.dal.Rows object>'
p3591
sS'headers'
p3592
g3573
sS'global SQLTABLE'
p3593
S"<class 'gluon.sqlhtml.SQLTABLE'>"
p3594
ssg3538
I51
sg3539
(dp3595
I42
S'            cols = request.vars[k]'
p3596
sI43
S''
sI44
S'    #vars to work'
p3597
sI45
S"    tablename = key.split('.')[0]"
p3598
sI46
S"    fieldname = key.split('.')[1]"
p3599
sI47
S"    value = key.split('.')[2]"
p3600
sI48
S''
sI49
S'    tickets = db(db.ticket.sprint == value).select(db.ticket.ALL)'
p3601
sI50
S'    #return SQLTABLE(tickets)'
p3602
sI51
S"    return SQLTABLE(tickets,headers='lables')"
p3603
ssg3551
S'()'
p3604
sg3553
S'detalhes'
p3605
sa(dp3606
g3530
S'/home/www-data/web2py/gluon/sqlhtml.py'
p3607
sg3532
(dp3608
S'builtinisinstance'
p3609
S'<built-in function isinstance>'
p3610
sS'c'
S"'ticket.id'"
p3611
sS'headers.get'
p3612
g3573
sS'builtindict'
p3613
S"<type 'dict'>"
p3614
sS'headers'
p3615
S"'lables'"
p3616
ssg3538
I1360
sg3539
(dp3617
I1355
S"                (t,f) = c.split('.')"
p3618
sI1356
S'                field = sqlrows.db[t][f]'
p3619
sI1357
S'                headers[c] = field.label'
p3620
sI1358
S'        if headers!=None:'
p3621
sI1359
S'            for c in columns:#new implement dict'
p3622
sI1360
S'                if isinstance(headers.get(c, c), dict):'
p3623
sI1361
S'                    coldict = headers.get(c, c)'
p3624
sI1362
S'                    attrcol = dict()'
p3625
sI1363
S'                    if coldict[\'width\']!="":'
p3626
sI1364
S"                        attrcol.update(_width=coldict['width'])"
p3627
ssg3551
S"(self=<gluon.sqlhtml.SQLTABLE object>, sqlrows=<gluon.dal.Rows object>, linkto=None, upload=None, orderby=None, headers='lables', truncate=16, columns=['ticket.id', 'ticket.chamado', 'ticket.sprint', 'ticket.consultor', 'ticket.analista', 'ticket.estado', 'ticket.patch', 'ticket.local_teste', 'ticket.inicio', 'ticket.fim', 'ticket.sistema', 'ticket.cliente'], th_link='', extracolumns=None, selectid=None, renderstyle=False, **attributes={})"
p3628
sg3553
g49
sasS'pyver'
p3629
S'Python 2.7.1+: /usr/bin/python'
p3630
sS'session'
p3631
g56
(g57
g58
NtRp3632
(dp3633
g61
(dp3634
sg63
(lp3635
g56
(g65
g58
NtRp3636
(dp3637
g61
(dp3638
g69
I5
ssg70
Nsg63
(lp3639
g56
(g72
g58
NtRp3640
(dp3641
g61
(dp3642
sg70
g3636
sg63
(lp3643
g56
(g77
g58
NtRp3644
(dp3645
g61
(dp3646
g81
g82
ssg70
g3640
sg63
(lp3647
S'auth'
p3648
asbag56
(g77
g58
NtRp3649
(dp3650
g61
(dp3651
g88
g89
ssg70
g3640
sg63
(lp3652
S':'
asbag56
(g77
g58
NtRp3653
(dp3654
g61
(dp3655
sg70
g3640
sg63
(lp3656
g56
(g57
g58
NtRp3657
(dp3658
g61
(dp3659
g69
I5
ssg70
g3653
sg63
(lp3660
g56
(g65
g58
NtRp3661
(dp3662
g61
(dp3663
g69
I4
ssg70
Nsg63
(lp3664
g56
(g72
g58
NtRp3665
(dp3666
g61
(dp3667
sg70
g3661
sg63
(lp3668
g56
(g77
g58
NtRp3669
(dp3670
g61
(dp3671
g81
g82
ssg70
g3665
sg63
(lp3672
S'expiration'
p3673
asbag56
(g77
g58
NtRp3674
(dp3675
g61
(dp3676
g88
g89
ssg70
g3665
sg63
(lp3677
S':'
asbag56
(g77
g58
NtRp3678
(dp3679
g61
(dp3680
sg70
g3665
sg63
(lp3681
g56
(g57
g58
NtRp3682
(dp3683
g61
(dp3684
g69
I4
ssg70
g3678
sg63
(lp3685
S'2592000'
p3686
asbasbasbag56
(g72
g58
NtRp3687
(dp3688
g61
(dp3689
sg70
g3661
sg63
(lp3690
g56
(g77
g58
NtRp3691
(dp3692
g61
(dp3693
g81
g82
ssg70
g3687
sg63
(lp3694
S'hmac_key'
p3695
asbag56
(g77
g58
NtRp3696
(dp3697
g61
(dp3698
g88
g89
ssg70
g3687
sg63
(lp3699
S':'
asbag56
(g77
g58
NtRp3700
(dp3701
g61
(dp3702
sg70
g3687
sg63
(lp3703
g56
(g57
g58
NtRp3704
(dp3705
g61
(dp3706
g69
I4
ssg70
g3700
sg63
(lp3707
S'0eb5913b-5067-4036-a2e3-0b783a415d41'
p3708
asbasbasbag56
(g72
g58
NtRp3709
(dp3710
g61
(dp3711
sg70
g3661
sg63
(lp3712
g56
(g77
g58
NtRp3713
(dp3714
g61
(dp3715
g81
g82
ssg70
g3709
sg63
(lp3716
S'last_visit'
p3717
asbag56
(g77
g58
NtRp3718
(dp3719
g61
(dp3720
g88
g89
ssg70
g3709
sg63
(lp3721
S':'
asbag56
(g77
g58
NtRp3722
(dp3723
g61
(dp3724
sg70
g3709
sg63
(lp3725
g56
(g57
g58
NtRp3726
(dp3727
g61
(dp3728
g69
I4
ssg70
g3722
sg63
(lp3729
S'datetime.datetime(2011, 9, 12, 16, 10, 17, 480100)'
p3730
asbasbasbag56
(g72
g58
NtRp3731
(dp3732
g61
(dp3733
sg70
g3661
sg63
(lp3734
g56
(g77
g58
NtRp3735
(dp3736
g61
(dp3737
g81
g82
ssg70
g3731
sg63
(lp3738
S'remember'
p3739
asbag56
(g77
g58
NtRp3740
(dp3741
g61
(dp3742
g88
g89
ssg70
g3731
sg63
(lp3743
S':'
asbag56
(g77
g58
NtRp3744
(dp3745
g61
(dp3746
sg70
g3731
sg63
(lp3747
g56
(g57
g58
NtRp3748
(dp3749
g61
(dp3750
g69
I4
ssg70
g3744
sg63
(lp3751
g771
asbasbasbag56
(g72
g58
NtRp3752
(dp3753
g61
(dp3754
sg70
g3661
sg63
(lp3755
g56
(g77
g58
NtRp3756
(dp3757
g61
(dp3758
g81
g82
ssg70
g3752
sg63
(lp3759
S'user'
p3760
asbag56
(g77
g58
NtRp3761
(dp3762
g61
(dp3763
g88
g89
ssg70
g3752
sg63
(lp3764
S':'
asbag56
(g77
g58
NtRp3765
(dp3766
g61
(dp3767
sg70
g3752
sg63
(lp3768
g56
(g57
g58
NtRp3769
(dp3770
g61
(dp3771
g69
I4
ssg70
g3765
sg63
(lp3772
g56
(g65
g58
NtRp3773
(dp3774
g61
(dp3775
g69
I3
ssg70
Nsg63
(lp3776
g56
(g72
g58
NtRp3777
(dp3778
g61
(dp3779
sg70
g3773
sg63
(lp3780
g56
(g77
g58
NtRp3781
(dp3782
g61
(dp3783
g81
g82
ssg70
g3777
sg63
(lp3784
S'email'
p3785
asbag56
(g77
g58
NtRp3786
(dp3787
g61
(dp3788
g88
g89
ssg70
g3777
sg63
(lp3789
S':'
asbag56
(g77
g58
NtRp3790
(dp3791
g61
(dp3792
sg70
g3777
sg63
(lp3793
g56
(g57
g58
NtRp3794
(dp3795
g61
(dp3796
g69
I3
ssg70
g3790
sg63
(lp3797
S'yamandu.costa@gmail.com'
p3798
asbasbasbag56
(g72
g58
NtRp3799
(dp3800
g61
(dp3801
sg70
g3773
sg63
(lp3802
g56
(g77
g58
NtRp3803
(dp3804
g61
(dp3805
g81
g82
ssg70
g3799
sg63
(lp3806
S'first_name'
p3807
asbag56
(g77
g58
NtRp3808
(dp3809
g61
(dp3810
g88
g89
ssg70
g3799
sg63
(lp3811
S':'
asbag56
(g77
g58
NtRp3812
(dp3813
g61
(dp3814
sg70
g3799
sg63
(lp3815
g56
(g57
g58
NtRp3816
(dp3817
g61
(dp3818
g69
I3
ssg70
g3812
sg63
(lp3819
S'Carlos'
p3820
asbasbasbag56
(g72
g58
NtRp3821
(dp3822
g61
(dp3823
sg70
g3773
sg63
(lp3824
g56
(g77
g58
NtRp3825
(dp3826
g61
(dp3827
g81
g82
ssg70
g3821
sg63
(lp3828
S'id'
p3829
asbag56
(g77
g58
NtRp3830
(dp3831
g61
(dp3832
g88
g89
ssg70
g3821
sg63
(lp3833
S':'
asbag56
(g77
g58
NtRp3834
(dp3835
g61
(dp3836
sg70
g3821
sg63
(lp3837
g56
(g57
g58
NtRp3838
(dp3839
g61
(dp3840
g69
I3
ssg70
g3834
sg63
(lp3841
S'2'
asbasbasbag56
(g72
g58
NtRp3842
(dp3843
g61
(dp3844
sg70
g3773
sg63
(lp3845
g56
(g77
g58
NtRp3846
(dp3847
g61
(dp3848
g81
g82
ssg70
g3842
sg63
(lp3849
S'last_name'
p3850
asbag56
(g77
g58
NtRp3851
(dp3852
g61
(dp3853
g88
g89
ssg70
g3842
sg63
(lp3854
S':'
asbag56
(g77
g58
NtRp3855
(dp3856
g61
(dp3857
sg70
g3842
sg63
(lp3858
g56
(g57
g58
NtRp3859
(dp3860
g61
(dp3861
g69
I3
ssg70
g3855
sg63
(lp3862
S'costa'
p3863
asbasbasbag56
(g72
g58
NtRp3864
(dp3865
g61
(dp3866
sg70
g3773
sg63
(lp3867
g56
(g77
g58
NtRp3868
(dp3869
g61
(dp3870
g81
g82
ssg70
g3864
sg63
(lp3871
S'password'
p3872
asbag56
(g77
g58
NtRp3873
(dp3874
g61
(dp3875
g88
g89
ssg70
g3864
sg63
(lp3876
S':'
asbag56
(g77
g58
NtRp3877
(dp3878
g61
(dp3879
sg70
g3864
sg63
(lp3880
g56
(g57
g58
NtRp3881
(dp3882
g61
(dp3883
g69
I3
ssg70
g3877
sg63
(lp3884
S'00a7a128f71552b063e36943370dd0944d5adb4000c6382d33eb3e1a93dc679cb99beb47e3003d318803f96ef839a18a379eae2e2bb917ca3c52c4e45231b331'
p3885
asbasbasbag56
(g72
g58
NtRp3886
(dp3887
g61
(dp3888
sg70
g3773
sg63
(lp3889
g56
(g77
g58
NtRp3890
(dp3891
g61
(dp3892
g81
g82
ssg70
g3886
sg63
(lp3893
S'registration_key'
p3894
asbag56
(g77
g58
NtRp3895
(dp3896
g61
(dp3897
g88
g89
ssg70
g3886
sg63
(lp3898
S':'
asbag56
(g77
g58
NtRp3899
(dp3900
g61
(dp3901
sg70
g3886
sg63
(lp3902
g56
(g57
g58
NtRp3903
(dp3904
g61
(dp3905
g69
I3
ssg70
g3899
sg63
(lp3906
S''
asbasbasbag56
(g72
g58
NtRp3907
(dp3908
g61
(dp3909
sg70
g3773
sg63
(lp3910
g56
(g77
g58
NtRp3911
(dp3912
g61
(dp3913
g81
g82
ssg70
g3907
sg63
(lp3914
S'reset_password_key'
p3915
asbag56
(g77
g58
NtRp3916
(dp3917
g61
(dp3918
g88
g89
ssg70
g3907
sg63
(lp3919
S':'
asbag56
(g77
g58
NtRp3920
(dp3921
g61
(dp3922
sg70
g3907
sg63
(lp3923
g56
(g57
g58
NtRp3924
(dp3925
g61
(dp3926
g69
I3
ssg70
g3920
sg63
(lp3927
S''
asbasbasbasbasbasbasbasbasbasbasbasbasbsS'etype'
p3928
S"<type 'exceptions.AttributeError'>"
p3929
sS'date'
p3930
S'Mon Sep 12 16:54:41 2011'
p3931
sS'response'
p3932
g56
(g57
g58
NtRp3933
(dp3934
g61
(dp3935
sg63
(lp3936
g56
(g65
g58
NtRp3937
(dp3938
g61
(dp3939
g69
I5
ssg70
Nsg63
(lp3940
g56
(g72
g58
NtRp3941
(dp3942
g61
(dp3943
sg70
g3937
sg63
(lp3944
g56
(g77
g58
NtRp3945
(dp3946
g61
(dp3947
g81
g82
ssg70
g3941
sg63
(lp3948
g154
asbag56
(g77
g58
NtRp3949
(dp3950
g61
(dp3951
g88
g89
ssg70
g3941
sg63
(lp3952
S':'
asbag56
(g77
g58
NtRp3953
(dp3954
g61
(dp3955
sg70
g3941
sg63
(lp3956
g56
(g57
g58
NtRp3957
(dp3958
g61
(dp3959
g69
I5
ssg70
g3953
sg63
(lp3960
S'<cStringIO.StringO object at 0xb9658080>'
p3961
asbasbasbag56
(g72
g58
NtRp3962
(dp3963
g61
(dp3964
sg70
g3937
sg63
(lp3965
g56
(g77
g58
NtRp3966
(dp3967
g61
(dp3968
g81
g82
ssg70
g3962
sg63
(lp3969
g220
asbag56
(g77
g58
NtRp3970
(dp3971
g61
(dp3972
g88
g89
ssg70
g3962
sg63
(lp3973
S':'
asbag56
(g77
g58
NtRp3974
(dp3975
g61
(dp3976
sg70
g3962
sg63
(lp3977
g56
(g57
g58
NtRp3978
(dp3979
g61
(dp3980
g69
I5
ssg70
g3974
sg63
(lp3981
g56
(g65
g58
NtRp3982
(dp3983
g61
(dp3984
g69
I4
ssg70
Nsg63
(lp3985
g56
(g72
g58
NtRp3986
(dp3987
g61
(dp3988
sg70
g3982
sg63
(lp3989
g56
(g77
g58
NtRp3990
(dp3991
g61
(dp3992
g81
g82
ssg70
g3986
sg63
(lp3993
S'session_id_scrum'
p3994
asbag56
(g77
g58
NtRp3995
(dp3996
g61
(dp3997
g88
g89
ssg70
g3986
sg63
(lp3998
S':'
asbag56
(g77
g58
NtRp3999
(dp4000
g61
(dp4001
sg70
g3986
sg63
(lp4002
g56
(g57
g58
NtRp4003
(dp4004
g61
(dp4005
g69
I4
ssg70
g3999
sg63
(lp4006
g56
(g65
g58
NtRp4007
(dp4008
g61
(dp4009
g69
I3
ssg70
Nsg63
(lp4010
g56
(g72
g58
NtRp4011
(dp4012
g61
(dp4013
sg70
g4007
sg63
(lp4014
g56
(g77
g58
NtRp4015
(dp4016
g61
(dp4017
g81
g82
ssg70
g4011
sg63
(lp4018
g270
asbag56
(g77
g58
NtRp4019
(dp4020
g61
(dp4021
g88
g89
ssg70
g4011
sg63
(lp4022
S':'
asbag56
(g77
g58
NtRp4023
(dp4024
g61
(dp4025
sg70
g4011
sg63
(lp4026
g56
(g57
g58
NtRp4027
(dp4028
g61
(dp4029
g69
I3
ssg70
g4023
sg63
(lp4030
S''
asbasbasbag56
(g72
g58
NtRp4031
(dp4032
g61
(dp4033
sg70
g4007
sg63
(lp4034
g56
(g77
g58
NtRp4035
(dp4036
g61
(dp4037
g81
g82
ssg70
g4031
sg63
(lp4038
g291
asbag56
(g77
g58
NtRp4039
(dp4040
g61
(dp4041
g88
g89
ssg70
g4031
sg63
(lp4042
S':'
asbag56
(g77
g58
NtRp4043
(dp4044
g61
(dp4045
sg70
g4031
sg63
(lp4046
g56
(g57
g58
NtRp4047
(dp4048
g61
(dp4049
g69
I3
ssg70
g4043
sg63
(lp4050
S''
asbasbasbag56
(g72
g58
NtRp4051
(dp4052
g61
(dp4053
sg70
g4007
sg63
(lp4054
g56
(g77
g58
NtRp4055
(dp4056
g61
(dp4057
g81
g82
ssg70
g4051
sg63
(lp4058
g312
asbag56
(g77
g58
NtRp4059
(dp4060
g61
(dp4061
g88
g89
ssg70
g4051
sg63
(lp4062
S':'
asbag56
(g77
g58
NtRp4063
(dp4064
g61
(dp4065
sg70
g4051
sg63
(lp4066
g56
(g57
g58
NtRp4067
(dp4068
g61
(dp4069
g69
I3
ssg70
g4063
sg63
(lp4070
S''
asbasbasbag56
(g72
g58
NtRp4071
(dp4072
g61
(dp4073
sg70
g4007
sg63
(lp4074
g56
(g77
g58
NtRp4075
(dp4076
g61
(dp4077
g81
g82
ssg70
g4071
sg63
(lp4078
g333
asbag56
(g77
g58
NtRp4079
(dp4080
g61
(dp4081
g88
g89
ssg70
g4071
sg63
(lp4082
S':'
asbag56
(g77
g58
NtRp4083
(dp4084
g61
(dp4085
sg70
g4071
sg63
(lp4086
g56
(g57
g58
NtRp4087
(dp4088
g61
(dp4089
g69
I3
ssg70
g4083
sg63
(lp4090
S''
asbasbasbag56
(g72
g58
NtRp4091
(dp4092
g61
(dp4093
sg70
g4007
sg63
(lp4094
g56
(g77
g58
NtRp4095
(dp4096
g61
(dp4097
g81
g82
ssg70
g4091
sg63
(lp4098
g354
asbag56
(g77
g58
NtRp4099
(dp4100
g61
(dp4101
g88
g89
ssg70
g4091
sg63
(lp4102
S':'
asbag56
(g77
g58
NtRp4103
(dp4104
g61
(dp4105
sg70
g4091
sg63
(lp4106
g56
(g57
g58
NtRp4107
(dp4108
g61
(dp4109
g69
I3
ssg70
g4103
sg63
(lp4110
S''
asbasbasbag56
(g72
g58
NtRp4111
(dp4112
g61
(dp4113
sg70
g4007
sg63
(lp4114
g56
(g77
g58
NtRp4115
(dp4116
g61
(dp4117
g81
g82
ssg70
g4111
sg63
(lp4118
g375
asbag56
(g77
g58
NtRp4119
(dp4120
g61
(dp4121
g88
g89
ssg70
g4111
sg63
(lp4122
S':'
asbag56
(g77
g58
NtRp4123
(dp4124
g61
(dp4125
sg70
g4111
sg63
(lp4126
g56
(g57
g58
NtRp4127
(dp4128
g61
(dp4129
g69
I3
ssg70
g4123
sg63
(lp4130
S'/'
asbasbasbag56
(g72
g58
NtRp4131
(dp4132
g61
(dp4133
sg70
g4007
sg63
(lp4134
g56
(g77
g58
NtRp4135
(dp4136
g61
(dp4137
g81
g82
ssg70
g4131
sg63
(lp4138
g396
asbag56
(g77
g58
NtRp4139
(dp4140
g61
(dp4141
g88
g89
ssg70
g4131
sg63
(lp4142
S':'
asbag56
(g77
g58
NtRp4143
(dp4144
g61
(dp4145
sg70
g4131
sg63
(lp4146
g56
(g57
g58
NtRp4147
(dp4148
g61
(dp4149
g69
I3
ssg70
g4143
sg63
(lp4150
S''
asbasbasbag56
(g72
g58
NtRp4151
(dp4152
g61
(dp4153
sg70
g4007
sg63
(lp4154
g56
(g77
g58
NtRp4155
(dp4156
g61
(dp4157
g81
g82
ssg70
g4151
sg63
(lp4158
g417
asbag56
(g77
g58
NtRp4159
(dp4160
g61
(dp4161
g88
g89
ssg70
g4151
sg63
(lp4162
S':'
asbag56
(g77
g58
NtRp4163
(dp4164
g61
(dp4165
sg70
g4151
sg63
(lp4166
g56
(g57
g58
NtRp4167
(dp4168
g61
(dp4169
g69
I3
ssg70
g4163
sg63
(lp4170
S''
asbasbasbasbasbasbasbasbasbasbasbag56
(g72
g58
NtRp4171
(dp4172
g61
(dp4173
sg70
g3937
sg63
(lp4174
g56
(g77
g58
NtRp4175
(dp4176
g61
(dp4177
g81
g82
ssg70
g4171
sg63
(lp4178
S'files'
p4179
asbag56
(g77
g58
NtRp4180
(dp4181
g61
(dp4182
g88
g89
ssg70
g4171
sg63
(lp4183
S':'
asbag56
(g77
g58
NtRp4184
(dp4185
g61
(dp4186
sg70
g4171
sg63
(lp4187
g56
(g57
g58
NtRp4188
(dp4189
g61
(dp4190
g69
I5
ssg70
g4184
sg63
(lp4191
g56
(g65
g58
NtRp4192
(dp4193
g61
(dp4194
g69
I4
ssg70
Nsg63
(lp4195
sbasbasbasbag56
(g72
g58
NtRp4196
(dp4197
g61
(dp4198
sg70
g3937
sg63
(lp4199
g56
(g77
g58
NtRp4200
(dp4201
g61
(dp4202
g81
g82
ssg70
g4196
sg63
(lp4203
S'flash'
p4204
asbag56
(g77
g58
NtRp4205
(dp4206
g61
(dp4207
g88
g89
ssg70
g4196
sg63
(lp4208
S':'
asbag56
(g77
g58
NtRp4209
(dp4210
g61
(dp4211
sg70
g4196
sg63
(lp4212
g56
(g57
g58
NtRp4213
(dp4214
g61
(dp4215
g69
I5
ssg70
g4209
sg63
(lp4216
S''
asbasbasbag56
(g72
g58
NtRp4217
(dp4218
g61
(dp4219
sg70
g3937
sg63
(lp4220
g56
(g77
g58
NtRp4221
(dp4222
g61
(dp4223
g81
g82
ssg70
g4217
sg63
(lp4224
S'generic_patterns'
p4225
asbag56
(g77
g58
NtRp4226
(dp4227
g61
(dp4228
g88
g89
ssg70
g4217
sg63
(lp4229
S':'
asbag56
(g77
g58
NtRp4230
(dp4231
g61
(dp4232
sg70
g4217
sg63
(lp4233
g56
(g57
g58
NtRp4234
(dp4235
g61
(dp4236
g69
I5
ssg70
g4230
sg63
(lp4237
g56
(g65
g58
NtRp4238
(dp4239
g61
(dp4240
g69
I4
ssg70
Nsg63
(lp4241
sbasbasbasbag56
(g72
g58
NtRp4242
(dp4243
g61
(dp4244
sg70
g3937
sg63
(lp4245
g56
(g77
g58
NtRp4246
(dp4247
g61
(dp4248
g81
g82
ssg70
g4242
sg63
(lp4249
S'headers'
p4250
asbag56
(g77
g58
NtRp4251
(dp4252
g61
(dp4253
g88
g89
ssg70
g4242
sg63
(lp4254
S':'
asbag56
(g77
g58
NtRp4255
(dp4256
g61
(dp4257
sg70
g4242
sg63
(lp4258
g56
(g57
g58
NtRp4259
(dp4260
g61
(dp4261
g69
I5
ssg70
g4255
sg63
(lp4262
g56
(g65
g58
NtRp4263
(dp4264
g61
(dp4265
g69
I4
ssg70
Nsg63
(lp4266
g56
(g72
g58
NtRp4267
(dp4268
g61
(dp4269
sg70
g4263
sg63
(lp4270
g56
(g77
g58
NtRp4271
(dp4272
g61
(dp4273
g81
g82
ssg70
g4267
sg63
(lp4274
S'Cache-Control'
p4275
asbag56
(g77
g58
NtRp4276
(dp4277
g61
(dp4278
g88
g89
ssg70
g4267
sg63
(lp4279
S':'
asbag56
(g77
g58
NtRp4280
(dp4281
g61
(dp4282
sg70
g4267
sg63
(lp4283
g56
(g57
g58
NtRp4284
(dp4285
g61
(dp4286
g69
I4
ssg70
g4280
sg63
(lp4287
S'no-store, no-cache, must-revalidate, post-check=0, pre-check=0'
p4288
asbasbasbag56
(g72
g58
NtRp4289
(dp4290
g61
(dp4291
sg70
g4263
sg63
(lp4292
g56
(g77
g58
NtRp4293
(dp4294
g61
(dp4295
g81
g82
ssg70
g4289
sg63
(lp4296
S'Content-Type'
p4297
asbag56
(g77
g58
NtRp4298
(dp4299
g61
(dp4300
g88
g89
ssg70
g4289
sg63
(lp4301
S':'
asbag56
(g77
g58
NtRp4302
(dp4303
g61
(dp4304
sg70
g4289
sg63
(lp4305
g56
(g57
g58
NtRp4306
(dp4307
g61
(dp4308
g69
I4
ssg70
g4302
sg63
(lp4309
S'text/html; charset=utf-8'
p4310
asbasbasbag56
(g72
g58
NtRp4311
(dp4312
g61
(dp4313
sg70
g4263
sg63
(lp4314
g56
(g77
g58
NtRp4315
(dp4316
g61
(dp4317
g81
g82
ssg70
g4311
sg63
(lp4318
S'Expires'
p4319
asbag56
(g77
g58
NtRp4320
(dp4321
g61
(dp4322
g88
g89
ssg70
g4311
sg63
(lp4323
S':'
asbag56
(g77
g58
NtRp4324
(dp4325
g61
(dp4326
sg70
g4311
sg63
(lp4327
g56
(g57
g58
NtRp4328
(dp4329
g61
(dp4330
g69
I4
ssg70
g4324
sg63
(lp4331
S'Mon, 12 Sep 2011 19:54:41 GMT'
p4332
asbasbasbag56
(g72
g58
NtRp4333
(dp4334
g61
(dp4335
sg70
g4263
sg63
(lp4336
g56
(g77
g58
NtRp4337
(dp4338
g61
(dp4339
g81
g82
ssg70
g4333
sg63
(lp4340
S'Pragma'
p4341
asbag56
(g77
g58
NtRp4342
(dp4343
g61
(dp4344
g88
g89
ssg70
g4333
sg63
(lp4345
S':'
asbag56
(g77
g58
NtRp4346
(dp4347
g61
(dp4348
sg70
g4333
sg63
(lp4349
g56
(g57
g58
NtRp4350
(dp4351
g61
(dp4352
g69
I4
ssg70
g4346
sg63
(lp4353
S'no-cache'
p4354
asbasbasbag56
(g72
g58
NtRp4355
(dp4356
g61
(dp4357
sg70
g4263
sg63
(lp4358
g56
(g77
g58
NtRp4359
(dp4360
g61
(dp4361
g81
g82
ssg70
g4355
sg63
(lp4362
S'X-Powered-By'
p4363
asbag56
(g77
g58
NtRp4364
(dp4365
g61
(dp4366
g88
g89
ssg70
g4355
sg63
(lp4367
S':'
asbag56
(g77
g58
NtRp4368
(dp4369
g61
(dp4370
sg70
g4355
sg63
(lp4371
g56
(g57
g58
NtRp4372
(dp4373
g61
(dp4374
g69
I4
ssg70
g4368
sg63
(lp4375
S'web2py'
p4376
asbasbasbasbasbasbasbag56
(g72
g58
NtRp4377
(dp4378
g61
(dp4379
sg70
g3937
sg63
(lp4380
g56
(g77
g58
NtRp4381
(dp4382
g61
(dp4383
g81
g82
ssg70
g4377
sg63
(lp4384
S'menu'
p4385
asbag56
(g77
g58
NtRp4386
(dp4387
g61
(dp4388
g88
g89
ssg70
g4377
sg63
(lp4389
S':'
asbag56
(g77
g58
NtRp4390
(dp4391
g61
(dp4392
sg70
g4377
sg63
(lp4393
g56
(g57
g58
NtRp4394
(dp4395
g61
(dp4396
g69
I5
ssg70
g4390
sg63
(lp4397
g56
(g65
g58
NtRp4398
(dp4399
g61
(dp4400
g69
I4
ssg70
Nsg63
(lp4401
g56
(g72
g58
NtRp4402
(dp4403
g61
(dp4404
sg70
g4398
sg63
(lp4405
g56
(g77
g58
NtRp4406
(dp4407
g61
(dp4408
sg70
g4402
sg63
(lp4409
g56
(g57
g58
NtRp4410
(dp4411
g61
(dp4412
g69
I4
ssg70
g4406
sg63
(lp4413
g56
(g65
g58
NtRp4414
(dp4415
g61
(dp4416
g69
I3
ssg70
Nsg63
(lp4417
g56
(g72
g58
NtRp4418
(dp4419
g61
(dp4420
sg70
g4414
sg63
(lp4421
g56
(g77
g58
NtRp4422
(dp4423
g61
(dp4424
sg70
g4418
sg63
(lp4425
g56
(g57
g58
NtRp4426
(dp4427
g61
(dp4428
g69
I3
ssg70
g4422
sg63
(lp4429
cgluon.languages
lazyT_unpickle
p4430
(S't\x04\x00\x00\x00Home'
tRp4431
asbasbasbag56
(g72
g58
NtRp4432
(dp4433
g61
(dp4434
sg70
g4414
sg63
(lp4435
g56
(g77
g58
NtRp4436
(dp4437
g61
(dp4438
sg70
g4432
sg63
(lp4439
g56
(g57
g58
NtRp4440
(dp4441
g61
(dp4442
g69
I3
ssg70
g4436
sg63
(lp4443
g771
asbasbasbag56
(g72
g58
NtRp4444
(dp4445
g61
(dp4446
sg70
g4414
sg63
(lp4447
g56
(g77
g58
NtRp4448
(dp4449
g61
(dp4450
sg70
g4444
sg63
(lp4451
g56
(g57
g58
NtRp4452
(dp4453
g61
(dp4454
g69
I3
ssg70
g4448
sg63
(lp4455
S'/scrum/default/index'
p4456
asbasbasbag56
(g72
g58
NtRp4457
(dp4458
g61
(dp4459
sg70
g4414
sg63
(lp4460
g56
(g77
g58
NtRp4461
(dp4462
g61
(dp4463
sg70
g4457
sg63
(lp4464
g56
(g57
g58
NtRp4465
(dp4466
g61
(dp4467
g69
I3
ssg70
g4461
sg63
(lp4468
g56
(g65
g58
NtRp4469
(dp4470
g61
(dp4471
g69
I2
ssg70
Nsg63
(lp4472
sbasbasbasbasbasbasbasbag56
(g72
g58
NtRp4473
(dp4474
g61
(dp4475
sg70
g4398
sg63
(lp4476
g56
(g77
g58
NtRp4477
(dp4478
g61
(dp4479
sg70
g4473
sg63
(lp4480
g56
(g57
g58
NtRp4481
(dp4482
g61
(dp4483
g69
I4
ssg70
g4477
sg63
(lp4484
g56
(g65
g58
NtRp4485
(dp4486
g61
(dp4487
g69
I3
ssg70
Nsg63
(lp4488
g56
(g72
g58
NtRp4489
(dp4490
g61
(dp4491
sg70
g4485
sg63
(lp4492
g56
(g77
g58
NtRp4493
(dp4494
g61
(dp4495
sg70
g4489
sg63
(lp4496
g56
(g57
g58
NtRp4497
(dp4498
g61
(dp4499
g69
I3
ssg70
g4493
sg63
(lp4500
g4430
(S't\x03\x00\x00\x00BIV'
tRp4501
asbasbasbag56
(g72
g58
NtRp4502
(dp4503
g61
(dp4504
sg70
g4485
sg63
(lp4505
g56
(g77
g58
NtRp4506
(dp4507
g61
(dp4508
sg70
g4502
sg63
(lp4509
g56
(g57
g58
NtRp4510
(dp4511
g61
(dp4512
g69
I3
ssg70
g4506
sg63
(lp4513
g771
asbasbasbag56
(g72
g58
NtRp4514
(dp4515
g61
(dp4516
sg70
g4485
sg63
(lp4517
g56
(g77
g58
NtRp4518
(dp4519
g61
(dp4520
sg70
g4514
sg63
(lp4521
g56
(g57
g58
NtRp4522
(dp4523
g61
(dp4524
g69
I3
ssg70
g4518
sg63
(lp4525
S''
asbasbasbag56
(g72
g58
NtRp4526
(dp4527
g61
(dp4528
sg70
g4485
sg63
(lp4529
g56
(g77
g58
NtRp4530
(dp4531
g61
(dp4532
sg70
g4526
sg63
(lp4533
g56
(g57
g58
NtRp4534
(dp4535
g61
(dp4536
g69
I3
ssg70
g4530
sg63
(lp4537
g56
(g65
g58
NtRp4538
(dp4539
g61
(dp4540
g69
I2
ssg70
Nsg63
(lp4541
g56
(g72
g58
NtRp4542
(dp4543
g61
(dp4544
sg70
g4538
sg63
(lp4545
g56
(g77
g58
NtRp4546
(dp4547
g61
(dp4548
sg70
g4542
sg63
(lp4549
g56
(g57
g58
NtRp4550
(dp4551
g61
(dp4552
g69
I2
ssg70
g4546
sg63
(lp4553
g56
(g65
g58
NtRp4554
(dp4555
g61
(dp4556
g69
I1
ssg70
Nsg63
(lp4557
g56
(g72
g58
NtRp4558
(dp4559
g61
(dp4560
sg70
g4554
sg63
(lp4561
g56
(g77
g58
NtRp4562
(dp4563
g61
(dp4564
sg70
g4558
sg63
(lp4565
g56
(g57
g58
NtRp4566
(dp4567
g61
(dp4568
g69
I1
ssg70
g4562
sg63
(lp4569
g4430
(S't\x04\x00\x00\x00Novo'
tRp4570
asbasbasbag56
(g72
g58
NtRp4571
(dp4572
g61
(dp4573
sg70
g4554
sg63
(lp4574
g56
(g77
g58
NtRp4575
(dp4576
g61
(dp4577
sg70
g4571
sg63
(lp4578
g56
(g57
g58
NtRp4579
(dp4580
g61
(dp4581
g69
I1
ssg70
g4575
sg63
(lp4582
I00
asbasbasbag56
(g72
g58
NtRp4583
(dp4584
g61
(dp4585
sg70
g4554
sg63
(lp4586
g56
(g77
g58
NtRp4587
(dp4588
g61
(dp4589
sg70
g4583
sg63
(lp4590
g56
(g57
g58
NtRp4591
(dp4592
g61
(dp4593
g69
I1
ssg70
g4587
sg63
(lp4594
S'/scrum/default/novo_biv'
p4595
asbasbasbag56
(g72
g58
NtRp4596
(dp4597
g61
(dp4598
sg70
g4554
sg63
(lp4599
g56
(g77
g58
NtRp4600
(dp4601
g61
(dp4602
sg70
g4596
sg63
(lp4603
g56
(g57
g58
NtRp4604
(dp4605
g61
(dp4606
g69
I1
ssg70
g4600
sg63
(lp4607
(lp4608
asbasbasbasbasbasbasbag56
(g72
g58
NtRp4609
(dp4610
g61
(dp4611
sg70
g4538
sg63
(lp4612
g56
(g77
g58
NtRp4613
(dp4614
g61
(dp4615
sg70
g4609
sg63
(lp4616
g56
(g57
g58
NtRp4617
(dp4618
g61
(dp4619
g69
I2
ssg70
g4613
sg63
(lp4620
g56
(g65
g58
NtRp4621
(dp4622
g61
(dp4623
g69
I1
ssg70
Nsg63
(lp4624
g56
(g72
g58
NtRp4625
(dp4626
g61
(dp4627
sg70
g4621
sg63
(lp4628
g56
(g77
g58
NtRp4629
(dp4630
g61
(dp4631
sg70
g4625
sg63
(lp4632
g56
(g57
g58
NtRp4633
(dp4634
g61
(dp4635
g69
I1
ssg70
g4629
sg63
(lp4636
g4430
(S't\n\x00\x00\x00Selecionar'
tRp4637
asbasbasbag56
(g72
g58
NtRp4638
(dp4639
g61
(dp4640
sg70
g4621
sg63
(lp4641
g56
(g77
g58
NtRp4642
(dp4643
g61
(dp4644
sg70
g4638
sg63
(lp4645
g56
(g57
g58
NtRp4646
(dp4647
g61
(dp4648
g69
I1
ssg70
g4642
sg63
(lp4649
I00
asbasbasbag56
(g72
g58
NtRp4650
(dp4651
g61
(dp4652
sg70
g4621
sg63
(lp4653
g56
(g77
g58
NtRp4654
(dp4655
g61
(dp4656
sg70
g4650
sg63
(lp4657
g56
(g57
g58
NtRp4658
(dp4659
g61
(dp4660
g69
I1
ssg70
g4654
sg63
(lp4661
S'/scrum/default/selecionar_biv'
p4662
asbasbasbag56
(g72
g58
NtRp4663
(dp4664
g61
(dp4665
sg70
g4621
sg63
(lp4666
g56
(g77
g58
NtRp4667
(dp4668
g61
(dp4669
sg70
g4663
sg63
(lp4670
g56
(g57
g58
NtRp4671
(dp4672
g61
(dp4673
g69
I1
ssg70
g4667
sg63
(lp4674
(lp4675
asbasbasbasbasbasbasbasbasbasbasbasbasbasbasbag56
(g72
g58
NtRp4676
(dp4677
g61
(dp4678
sg70
g4398
sg63
(lp4679
g56
(g77
g58
NtRp4680
(dp4681
g61
(dp4682
sg70
g4676
sg63
(lp4683
g56
(g57
g58
NtRp4684
(dp4685
g61
(dp4686
g69
I4
ssg70
g4680
sg63
(lp4687
g56
(g65
g58
NtRp4688
(dp4689
g61
(dp4690
g69
I3
ssg70
Nsg63
(lp4691
g56
(g72
g58
NtRp4692
(dp4693
g61
(dp4694
sg70
g4688
sg63
(lp4695
g56
(g77
g58
NtRp4696
(dp4697
g61
(dp4698
sg70
g4692
sg63
(lp4699
g56
(g57
g58
NtRp4700
(dp4701
g61
(dp4702
g69
I3
ssg70
g4696
sg63
(lp4703
g4430
(S't\x07\x00\x00\x00Tickets'
tRp4704
asbasbasbag56
(g72
g58
NtRp4705
(dp4706
g61
(dp4707
sg70
g4688
sg63
(lp4708
g56
(g77
g58
NtRp4709
(dp4710
g61
(dp4711
sg70
g4705
sg63
(lp4712
g56
(g57
g58
NtRp4713
(dp4714
g61
(dp4715
g69
I3
ssg70
g4709
sg63
(lp4716
g771
asbasbasbag56
(g72
g58
NtRp4717
(dp4718
g61
(dp4719
sg70
g4688
sg63
(lp4720
g56
(g77
g58
NtRp4721
(dp4722
g61
(dp4723
sg70
g4717
sg63
(lp4724
g56
(g57
g58
NtRp4725
(dp4726
g61
(dp4727
g69
I3
ssg70
g4721
sg63
(lp4728
S'/scrum/ticket/index'
p4729
asbasbasbag56
(g72
g58
NtRp4730
(dp4731
g61
(dp4732
sg70
g4688
sg63
(lp4733
g56
(g77
g58
NtRp4734
(dp4735
g61
(dp4736
sg70
g4730
sg63
(lp4737
g56
(g57
g58
NtRp4738
(dp4739
g61
(dp4740
g69
I3
ssg70
g4734
sg63
(lp4741
g56
(g65
g58
NtRp4742
(dp4743
g61
(dp4744
g69
I2
ssg70
Nsg63
(lp4745
g56
(g72
g58
NtRp4746
(dp4747
g61
(dp4748
sg70
g4742
sg63
(lp4749
g56
(g77
g58
NtRp4750
(dp4751
g61
(dp4752
sg70
g4746
sg63
(lp4753
g56
(g57
g58
NtRp4754
(dp4755
g61
(dp4756
g69
I2
ssg70
g4750
sg63
(lp4757
g56
(g65
g58
NtRp4758
(dp4759
g61
(dp4760
g69
I1
ssg70
Nsg63
(lp4761
g56
(g72
g58
NtRp4762
(dp4763
g61
(dp4764
sg70
g4758
sg63
(lp4765
g56
(g77
g58
NtRp4766
(dp4767
g61
(dp4768
sg70
g4762
sg63
(lp4769
g56
(g57
g58
NtRp4770
(dp4771
g61
(dp4772
g69
I1
ssg70
g4766
sg63
(lp4773
g4430
(S't\x04\x00\x00\x00Novo'
tRp4774
asbasbasbag56
(g72
g58
NtRp4775
(dp4776
g61
(dp4777
sg70
g4758
sg63
(lp4778
g56
(g77
g58
NtRp4779
(dp4780
g61
(dp4781
sg70
g4775
sg63
(lp4782
g56
(g57
g58
NtRp4783
(dp4784
g61
(dp4785
g69
I1
ssg70
g4779
sg63
(lp4786
I00
asbasbasbag56
(g72
g58
NtRp4787
(dp4788
g61
(dp4789
sg70
g4758
sg63
(lp4790
g56
(g77
g58
NtRp4791
(dp4792
g61
(dp4793
sg70
g4787
sg63
(lp4794
g56
(g57
g58
NtRp4795
(dp4796
g61
(dp4797
g69
I1
ssg70
g4791
sg63
(lp4798
S'/scrum/ticket/novo'
p4799
asbasbasbag56
(g72
g58
NtRp4800
(dp4801
g61
(dp4802
sg70
g4758
sg63
(lp4803
g56
(g77
g58
NtRp4804
(dp4805
g61
(dp4806
sg70
g4800
sg63
(lp4807
g56
(g57
g58
NtRp4808
(dp4809
g61
(dp4810
g69
I1
ssg70
g4804
sg63
(lp4811
(lp4812
asbasbasbasbasbasbasbag56
(g72
g58
NtRp4813
(dp4814
g61
(dp4815
sg70
g4742
sg63
(lp4816
g56
(g77
g58
NtRp4817
(dp4818
g61
(dp4819
sg70
g4813
sg63
(lp4820
g56
(g57
g58
NtRp4821
(dp4822
g61
(dp4823
g69
I2
ssg70
g4817
sg63
(lp4824
g56
(g65
g58
NtRp4825
(dp4826
g61
(dp4827
g69
I1
ssg70
Nsg63
(lp4828
g56
(g72
g58
NtRp4829
(dp4830
g61
(dp4831
sg70
g4825
sg63
(lp4832
g56
(g77
g58
NtRp4833
(dp4834
g61
(dp4835
sg70
g4829
sg63
(lp4836
g56
(g57
g58
NtRp4837
(dp4838
g61
(dp4839
g69
I1
ssg70
g4833
sg63
(lp4840
g4430
(S't\n\x00\x00\x00Selecionar'
tRp4841
asbasbasbag56
(g72
g58
NtRp4842
(dp4843
g61
(dp4844
sg70
g4825
sg63
(lp4845
g56
(g77
g58
NtRp4846
(dp4847
g61
(dp4848
sg70
g4842
sg63
(lp4849
g56
(g57
g58
NtRp4850
(dp4851
g61
(dp4852
g69
I1
ssg70
g4846
sg63
(lp4853
I00
asbasbasbag56
(g72
g58
NtRp4854
(dp4855
g61
(dp4856
sg70
g4825
sg63
(lp4857
g56
(g77
g58
NtRp4858
(dp4859
g61
(dp4860
sg70
g4854
sg63
(lp4861
g56
(g57
g58
NtRp4862
(dp4863
g61
(dp4864
g69
I1
ssg70
g4858
sg63
(lp4865
S'/scrum/ticket/index'
p4866
asbasbasbag56
(g72
g58
NtRp4867
(dp4868
g61
(dp4869
sg70
g4825
sg63
(lp4870
g56
(g77
g58
NtRp4871
(dp4872
g61
(dp4873
sg70
g4867
sg63
(lp4874
g56
(g57
g58
NtRp4875
(dp4876
g61
(dp4877
g69
I1
ssg70
g4871
sg63
(lp4878
(lp4879
asbasbasbasbasbasbasbasbasbasbasbasbasbasbasbag56
(g72
g58
NtRp4880
(dp4881
g61
(dp4882
sg70
g4398
sg63
(lp4883
g56
(g77
g58
NtRp4884
(dp4885
g61
(dp4886
sg70
g4880
sg63
(lp4887
g56
(g57
g58
NtRp4888
(dp4889
g61
(dp4890
g69
I4
ssg70
g4884
sg63
(lp4891
g56
(g65
g58
NtRp4892
(dp4893
g61
(dp4894
g69
I3
ssg70
Nsg63
(lp4895
g56
(g72
g58
NtRp4896
(dp4897
g61
(dp4898
sg70
g4892
sg63
(lp4899
g56
(g77
g58
NtRp4900
(dp4901
g61
(dp4902
sg70
g4896
sg63
(lp4903
g56
(g57
g58
NtRp4904
(dp4905
g61
(dp4906
g69
I3
ssg70
g4900
sg63
(lp4907
g4430
(S't\x06\x00\x00\x00Sprint'
tRp4908
asbasbasbag56
(g72
g58
NtRp4909
(dp4910
g61
(dp4911
sg70
g4892
sg63
(lp4912
g56
(g77
g58
NtRp4913
(dp4914
g61
(dp4915
sg70
g4909
sg63
(lp4916
g56
(g57
g58
NtRp4917
(dp4918
g61
(dp4919
g69
I3
ssg70
g4913
sg63
(lp4920
g771
asbasbasbag56
(g72
g58
NtRp4921
(dp4922
g61
(dp4923
sg70
g4892
sg63
(lp4924
g56
(g77
g58
NtRp4925
(dp4926
g61
(dp4927
sg70
g4921
sg63
(lp4928
g56
(g57
g58
NtRp4929
(dp4930
g61
(dp4931
g69
I3
ssg70
g4925
sg63
(lp4932
S''
asbasbasbag56
(g72
g58
NtRp4933
(dp4934
g61
(dp4935
sg70
g4892
sg63
(lp4936
g56
(g77
g58
NtRp4937
(dp4938
g61
(dp4939
sg70
g4933
sg63
(lp4940
g56
(g57
g58
NtRp4941
(dp4942
g61
(dp4943
g69
I3
ssg70
g4937
sg63
(lp4944
g56
(g65
g58
NtRp4945
(dp4946
g61
(dp4947
g69
I2
ssg70
Nsg63
(lp4948
g56
(g72
g58
NtRp4949
(dp4950
g61
(dp4951
sg70
g4945
sg63
(lp4952
g56
(g77
g58
NtRp4953
(dp4954
g61
(dp4955
sg70
g4949
sg63
(lp4956
g56
(g57
g58
NtRp4957
(dp4958
g61
(dp4959
g69
I2
ssg70
g4953
sg63
(lp4960
g56
(g65
g58
NtRp4961
(dp4962
g61
(dp4963
g69
I1
ssg70
Nsg63
(lp4964
g56
(g72
g58
NtRp4965
(dp4966
g61
(dp4967
sg70
g4961
sg63
(lp4968
g56
(g77
g58
NtRp4969
(dp4970
g61
(dp4971
sg70
g4965
sg63
(lp4972
g56
(g57
g58
NtRp4973
(dp4974
g61
(dp4975
g69
I1
ssg70
g4969
sg63
(lp4976
g4430
(S't\x04\x00\x00\x00Novo'
tRp4977
asbasbasbag56
(g72
g58
NtRp4978
(dp4979
g61
(dp4980
sg70
g4961
sg63
(lp4981
g56
(g77
g58
NtRp4982
(dp4983
g61
(dp4984
sg70
g4978
sg63
(lp4985
g56
(g57
g58
NtRp4986
(dp4987
g61
(dp4988
g69
I1
ssg70
g4982
sg63
(lp4989
I00
asbasbasbag56
(g72
g58
NtRp4990
(dp4991
g61
(dp4992
sg70
g4961
sg63
(lp4993
g56
(g77
g58
NtRp4994
(dp4995
g61
(dp4996
sg70
g4990
sg63
(lp4997
g56
(g57
g58
NtRp4998
(dp4999
g61
(dp5000
g69
I1
ssg70
g4994
sg63
(lp5001
S'/scrum/sprint/novo'
p5002
asbasbasbag56
(g72
g58
NtRp5003
(dp5004
g61
(dp5005
sg70
g4961
sg63
(lp5006
g56
(g77
g58
NtRp5007
(dp5008
g61
(dp5009
sg70
g5003
sg63
(lp5010
g56
(g57
g58
NtRp5011
(dp5012
g61
(dp5013
g69
I1
ssg70
g5007
sg63
(lp5014
(lp5015
asbasbasbasbasbasbasbag56
(g72
g58
NtRp5016
(dp5017
g61
(dp5018
sg70
g4945
sg63
(lp5019
g56
(g77
g58
NtRp5020
(dp5021
g61
(dp5022
sg70
g5016
sg63
(lp5023
g56
(g57
g58
NtRp5024
(dp5025
g61
(dp5026
g69
I2
ssg70
g5020
sg63
(lp5027
g56
(g65
g58
NtRp5028
(dp5029
g61
(dp5030
g69
I1
ssg70
Nsg63
(lp5031
g56
(g72
g58
NtRp5032
(dp5033
g61
(dp5034
sg70
g5028
sg63
(lp5035
g56
(g77
g58
NtRp5036
(dp5037
g61
(dp5038
sg70
g5032
sg63
(lp5039
g56
(g57
g58
NtRp5040
(dp5041
g61
(dp5042
g69
I1
ssg70
g5036
sg63
(lp5043
g4430
(S't\n\x00\x00\x00Selecionar'
tRp5044
asbasbasbag56
(g72
g58
NtRp5045
(dp5046
g61
(dp5047
sg70
g5028
sg63
(lp5048
g56
(g77
g58
NtRp5049
(dp5050
g61
(dp5051
sg70
g5045
sg63
(lp5052
g56
(g57
g58
NtRp5053
(dp5054
g61
(dp5055
g69
I1
ssg70
g5049
sg63
(lp5056
I00
asbasbasbag56
(g72
g58
NtRp5057
(dp5058
g61
(dp5059
sg70
g5028
sg63
(lp5060
g56
(g77
g58
NtRp5061
(dp5062
g61
(dp5063
sg70
g5057
sg63
(lp5064
g56
(g57
g58
NtRp5065
(dp5066
g61
(dp5067
g69
I1
ssg70
g5061
sg63
(lp5068
S'/scrum/sprint/index'
p5069
asbasbasbag56
(g72
g58
NtRp5070
(dp5071
g61
(dp5072
sg70
g5028
sg63
(lp5073
g56
(g77
g58
NtRp5074
(dp5075
g61
(dp5076
sg70
g5070
sg63
(lp5077
g56
(g57
g58
NtRp5078
(dp5079
g61
(dp5080
g69
I1
ssg70
g5074
sg63
(lp5081
(lp5082
asbasbasbasbasbasbasbasbasbasbasbasbasbasbasbag56
(g72
g58
NtRp5083
(dp5084
g61
(dp5085
sg70
g4398
sg63
(lp5086
g56
(g77
g58
NtRp5087
(dp5088
g61
(dp5089
sg70
g5083
sg63
(lp5090
g56
(g57
g58
NtRp5091
(dp5092
g61
(dp5093
g69
I4
ssg70
g5087
sg63
(lp5094
g56
(g65
g58
NtRp5095
(dp5096
g61
(dp5097
g69
I3
ssg70
Nsg63
(lp5098
g56
(g72
g58
NtRp5099
(dp5100
g61
(dp5101
sg70
g5095
sg63
(lp5102
g56
(g77
g58
NtRp5103
(dp5104
g61
(dp5105
sg70
g5099
sg63
(lp5106
g56
(g57
g58
NtRp5107
(dp5108
g61
(dp5109
g69
I3
ssg70
g5103
sg63
(lp5110
g4430
(S't\x06\x00\x00\x00Config'
tRp5111
asbasbasbag56
(g72
g58
NtRp5112
(dp5113
g61
(dp5114
sg70
g5095
sg63
(lp5115
g56
(g77
g58
NtRp5116
(dp5117
g61
(dp5118
sg70
g5112
sg63
(lp5119
g56
(g57
g58
NtRp5120
(dp5121
g61
(dp5122
g69
I3
ssg70
g5116
sg63
(lp5123
g771
asbasbasbag56
(g72
g58
NtRp5124
(dp5125
g61
(dp5126
sg70
g5095
sg63
(lp5127
g56
(g77
g58
NtRp5128
(dp5129
g61
(dp5130
sg70
g5124
sg63
(lp5131
g56
(g57
g58
NtRp5132
(dp5133
g61
(dp5134
g69
I3
ssg70
g5128
sg63
(lp5135
S''
asbasbasbag56
(g72
g58
NtRp5136
(dp5137
g61
(dp5138
sg70
g5095
sg63
(lp5139
g56
(g77
g58
NtRp5140
(dp5141
g61
(dp5142
sg70
g5136
sg63
(lp5143
g56
(g57
g58
NtRp5144
(dp5145
g61
(dp5146
g69
I3
ssg70
g5140
sg63
(lp5147
g56
(g65
g58
NtRp5148
(dp5149
g61
(dp5150
g69
I2
ssg70
Nsg63
(lp5151
g56
(g72
g58
NtRp5152
(dp5153
g61
(dp5154
sg70
g5148
sg63
(lp5155
g56
(g77
g58
NtRp5156
(dp5157
g61
(dp5158
sg70
g5152
sg63
(lp5159
g56
(g57
g58
NtRp5160
(dp5161
g61
(dp5162
g69
I2
ssg70
g5156
sg63
(lp5163
g56
(g65
g58
NtRp5164
(dp5165
g61
(dp5166
g69
I1
ssg70
Nsg63
(lp5167
g56
(g72
g58
NtRp5168
(dp5169
g61
(dp5170
sg70
g5164
sg63
(lp5171
g56
(g77
g58
NtRp5172
(dp5173
g61
(dp5174
sg70
g5168
sg63
(lp5175
g56
(g57
g58
NtRp5176
(dp5177
g61
(dp5178
g69
I1
ssg70
g5172
sg63
(lp5179
g4430
(S't\x05\x00\x00\x00Geral'
tRp5180
asbasbasbag56
(g72
g58
NtRp5181
(dp5182
g61
(dp5183
sg70
g5164
sg63
(lp5184
g56
(g77
g58
NtRp5185
(dp5186
g61
(dp5187
sg70
g5181
sg63
(lp5188
g56
(g57
g58
NtRp5189
(dp5190
g61
(dp5191
g69
I1
ssg70
g5185
sg63
(lp5192
I00
asbasbasbag56
(g72
g58
NtRp5193
(dp5194
g61
(dp5195
sg70
g5164
sg63
(lp5196
g56
(g77
g58
NtRp5197
(dp5198
g61
(dp5199
sg70
g5193
sg63
(lp5200
g56
(g57
g58
NtRp5201
(dp5202
g61
(dp5203
g69
I1
ssg70
g5197
sg63
(lp5204
S'/scrum/config/index'
p5205
asbasbasbag56
(g72
g58
NtRp5206
(dp5207
g61
(dp5208
sg70
g5164
sg63
(lp5209
g56
(g77
g58
NtRp5210
(dp5211
g61
(dp5212
sg70
g5206
sg63
(lp5213
g56
(g57
g58
NtRp5214
(dp5215
g61
(dp5216
g69
I1
ssg70
g5210
sg63
(lp5217
(lp5218
asbasbasbasbasbasbasbag56
(g72
g58
NtRp5219
(dp5220
g61
(dp5221
sg70
g5148
sg63
(lp5222
g56
(g77
g58
NtRp5223
(dp5224
g61
(dp5225
sg70
g5219
sg63
(lp5226
g56
(g57
g58
NtRp5227
(dp5228
g61
(dp5229
g69
I2
ssg70
g5223
sg63
(lp5230
g56
(g65
g58
NtRp5231
(dp5232
g61
(dp5233
g69
I1
ssg70
Nsg63
(lp5234
g56
(g72
g58
NtRp5235
(dp5236
g61
(dp5237
sg70
g5231
sg63
(lp5238
g56
(g77
g58
NtRp5239
(dp5240
g61
(dp5241
sg70
g5235
sg63
(lp5242
g56
(g57
g58
NtRp5243
(dp5244
g61
(dp5245
g69
I1
ssg70
g5239
sg63
(lp5246
g4430
(S's\x12\x00\x00\x00Estados de Tickets'
tRp5247
asbasbasbag56
(g72
g58
NtRp5248
(dp5249
g61
(dp5250
sg70
g5231
sg63
(lp5251
g56
(g77
g58
NtRp5252
(dp5253
g61
(dp5254
sg70
g5248
sg63
(lp5255
g56
(g57
g58
NtRp5256
(dp5257
g61
(dp5258
g69
I1
ssg70
g5252
sg63
(lp5259
I00
asbasbasbag56
(g72
g58
NtRp5260
(dp5261
g61
(dp5262
sg70
g5231
sg63
(lp5263
g56
(g77
g58
NtRp5264
(dp5265
g61
(dp5266
sg70
g5260
sg63
(lp5267
g56
(g57
g58
NtRp5268
(dp5269
g61
(dp5270
g69
I1
ssg70
g5264
sg63
(lp5271
S'/scrum/config/estado_ticket'
p5272
asbasbasbag56
(g72
g58
NtRp5273
(dp5274
g61
(dp5275
sg70
g5231
sg63
(lp5276
g56
(g77
g58
NtRp5277
(dp5278
g61
(dp5279
sg70
g5273
sg63
(lp5280
g56
(g57
g58
NtRp5281
(dp5282
g61
(dp5283
g69
I1
ssg70
g5277
sg63
(lp5284
(lp5285
asbasbasbasbasbasbasbasbasbasbasbasbasbasbasbasbasbasbasbag56
(g72
g58
NtRp5286
(dp5287
g61
(dp5288
sg70
g3937
sg63
(lp5289
g56
(g77
g58
NtRp5290
(dp5291
g61
(dp5292
g81
g82
ssg70
g5286
sg63
(lp5293
S'meta'
p5294
asbag56
(g77
g58
NtRp5295
(dp5296
g61
(dp5297
g88
g89
ssg70
g5286
sg63
(lp5298
S':'
asbag56
(g77
g58
NtRp5299
(dp5300
g61
(dp5301
sg70
g5286
sg63
(lp5302
g56
(g57
g58
NtRp5303
(dp5304
g61
(dp5305
g69
I5
ssg70
g5299
sg63
(lp5306
g56
(g65
g58
NtRp5307
(dp5308
g61
(dp5309
g69
I4
ssg70
Nsg63
(lp5310
g56
(g72
g58
NtRp5311
(dp5312
g61
(dp5313
sg70
g5307
sg63
(lp5314
g56
(g77
g58
NtRp5315
(dp5316
g61
(dp5317
g81
g82
ssg70
g5311
sg63
(lp5318
S'author'
p5319
asbag56
(g77
g58
NtRp5320
(dp5321
g61
(dp5322
g88
g89
ssg70
g5311
sg63
(lp5323
S':'
asbag56
(g77
g58
NtRp5324
(dp5325
g61
(dp5326
sg70
g5311
sg63
(lp5327
g56
(g57
g58
NtRp5328
(dp5329
g61
(dp5330
g69
I4
ssg70
g5324
sg63
(lp5331
S'Carlos J. Costa'
p5332
asbasbasbag56
(g72
g58
NtRp5333
(dp5334
g61
(dp5335
sg70
g5307
sg63
(lp5336
g56
(g77
g58
NtRp5337
(dp5338
g61
(dp5339
g81
g82
ssg70
g5333
sg63
(lp5340
S'copyright'
p5341
asbag56
(g77
g58
NtRp5342
(dp5343
g61
(dp5344
g88
g89
ssg70
g5333
sg63
(lp5345
S':'
asbag56
(g77
g58
NtRp5346
(dp5347
g61
(dp5348
sg70
g5333
sg63
(lp5349
g56
(g57
g58
NtRp5350
(dp5351
g61
(dp5352
g69
I4
ssg70
g5346
sg63
(lp5353
S'Copyright 2007-2010'
p5354
asbasbasbag56
(g72
g58
NtRp5355
(dp5356
g61
(dp5357
sg70
g5307
sg63
(lp5358
g56
(g77
g58
NtRp5359
(dp5360
g61
(dp5361
g81
g82
ssg70
g5355
sg63
(lp5362
S'description'
p5363
asbag56
(g77
g58
NtRp5364
(dp5365
g61
(dp5366
g88
g89
ssg70
g5355
sg63
(lp5367
S':'
asbag56
(g77
g58
NtRp5368
(dp5369
g61
(dp5370
sg70
g5355
sg63
(lp5371
g56
(g57
g58
NtRp5372
(dp5373
g61
(dp5374
g69
I4
ssg70
g5368
sg63
(lp5375
S'Development track'
p5376
asbasbasbag56
(g72
g58
NtRp5377
(dp5378
g61
(dp5379
sg70
g5307
sg63
(lp5380
g56
(g77
g58
NtRp5381
(dp5382
g61
(dp5383
g81
g82
ssg70
g5377
sg63
(lp5384
S'generator'
p5385
asbag56
(g77
g58
NtRp5386
(dp5387
g61
(dp5388
g88
g89
ssg70
g5377
sg63
(lp5389
S':'
asbag56
(g77
g58
NtRp5390
(dp5391
g61
(dp5392
sg70
g5377
sg63
(lp5393
g56
(g57
g58
NtRp5394
(dp5395
g61
(dp5396
g69
I4
ssg70
g5390
sg63
(lp5397
S'Web2py Enterprise Framework'
p5398
asbasbasbag56
(g72
g58
NtRp5399
(dp5400
g61
(dp5401
sg70
g5307
sg63
(lp5402
g56
(g77
g58
NtRp5403
(dp5404
g61
(dp5405
g81
g82
ssg70
g5399
sg63
(lp5406
S'keywords'
p5407
asbag56
(g77
g58
NtRp5408
(dp5409
g61
(dp5410
g88
g89
ssg70
g5399
sg63
(lp5411
S':'
asbag56
(g77
g58
NtRp5412
(dp5413
g61
(dp5414
sg70
g5399
sg63
(lp5415
g56
(g57
g58
NtRp5416
(dp5417
g61
(dp5418
g69
I4
ssg70
g5412
sg63
(lp5419
S'test, issue'
p5420
asbasbasbasbasbasbasbag56
(g72
g58
NtRp5421
(dp5422
g61
(dp5423
sg70
g3937
sg63
(lp5424
g56
(g77
g58
NtRp5425
(dp5426
g61
(dp5427
g81
g82
ssg70
g5421
sg63
(lp5428
S'postprocessing'
p5429
asbag56
(g77
g58
NtRp5430
(dp5431
g61
(dp5432
g88
g89
ssg70
g5421
sg63
(lp5433
S':'
asbag56
(g77
g58
NtRp5434
(dp5435
g61
(dp5436
sg70
g5421
sg63
(lp5437
g56
(g57
g58
NtRp5438
(dp5439
g61
(dp5440
g69
I5
ssg70
g5434
sg63
(lp5441
g56
(g65
g58
NtRp5442
(dp5443
g61
(dp5444
g69
I4
ssg70
Nsg63
(lp5445
sbasbasbasbag56
(g72
g58
NtRp5446
(dp5447
g61
(dp5448
sg70
g3937
sg63
(lp5449
g56
(g77
g58
NtRp5450
(dp5451
g61
(dp5452
g81
g82
ssg70
g5446
sg63
(lp5453
S'session_file'
p5454
asbag56
(g77
g58
NtRp5455
(dp5456
g61
(dp5457
g88
g89
ssg70
g5446
sg63
(lp5458
S':'
asbag56
(g77
g58
NtRp5459
(dp5460
g61
(dp5461
sg70
g5446
sg63
(lp5462
g56
(g57
g58
NtRp5463
(dp5464
g61
(dp5465
g69
I5
ssg70
g5459
sg63
(lp5466
S"<open file '/home/www-data/web2py/applications/scrum/sessions/127.0.0.1-8741b6aa-dd8d-45b3-88a3-6f21c23a3c79', mode 'rb+' at 0xb9409b78>"
p5467
asbasbasbag56
(g72
g58
NtRp5468
(dp5469
g61
(dp5470
sg70
g3937
sg63
(lp5471
g56
(g77
g58
NtRp5472
(dp5473
g61
(dp5474
g81
g82
ssg70
g5468
sg63
(lp5475
S'session_filename'
p5476
asbag56
(g77
g58
NtRp5477
(dp5478
g61
(dp5479
g88
g89
ssg70
g5468
sg63
(lp5480
S':'
asbag56
(g77
g58
NtRp5481
(dp5482
g61
(dp5483
sg70
g5468
sg63
(lp5484
g56
(g57
g58
NtRp5485
(dp5486
g61
(dp5487
g69
I5
ssg70
g5481
sg63
(lp5488
S'/home/www-data/web2py/applications/scrum/sessions/127.0.0.1-8741b6aa-dd8d-45b3-88a3-6f21c23a3c79'
p5489
asbasbasbag56
(g72
g58
NtRp5490
(dp5491
g61
(dp5492
sg70
g3937
sg63
(lp5493
g56
(g77
g58
NtRp5494
(dp5495
g61
(dp5496
g81
g82
ssg70
g5490
sg63
(lp5497
S'session_id'
p5498
asbag56
(g77
g58
NtRp5499
(dp5500
g61
(dp5501
g88
g89
ssg70
g5490
sg63
(lp5502
S':'
asbag56
(g77
g58
NtRp5503
(dp5504
g61
(dp5505
sg70
g5490
sg63
(lp5506
g56
(g57
g58
NtRp5507
(dp5508
g61
(dp5509
g69
I5
ssg70
g5503
sg63
(lp5510
S'127.0.0.1-8741b6aa-dd8d-45b3-88a3-6f21c23a3c79'
p5511
asbasbasbag56
(g72
g58
NtRp5512
(dp5513
g61
(dp5514
sg70
g3937
sg63
(lp5515
g56
(g77
g58
NtRp5516
(dp5517
g61
(dp5518
g81
g82
ssg70
g5512
sg63
(lp5519
S'session_id_name'
p5520
asbag56
(g77
g58
NtRp5521
(dp5522
g61
(dp5523
g88
g89
ssg70
g5512
sg63
(lp5524
S':'
asbag56
(g77
g58
NtRp5525
(dp5526
g61
(dp5527
sg70
g5512
sg63
(lp5528
g56
(g57
g58
NtRp5529
(dp5530
g61
(dp5531
g69
I5
ssg70
g5525
sg63
(lp5532
g3994
asbasbasbag56
(g72
g58
NtRp5533
(dp5534
g61
(dp5535
sg70
g3937
sg63
(lp5536
g56
(g77
g58
NtRp5537
(dp5538
g61
(dp5539
g81
g82
ssg70
g5533
sg63
(lp5540
S'session_locked'
p5541
asbag56
(g77
g58
NtRp5542
(dp5543
g61
(dp5544
g88
g89
ssg70
g5533
sg63
(lp5545
S':'
asbag56
(g77
g58
NtRp5546
(dp5547
g61
(dp5548
sg70
g5533
sg63
(lp5549
g56
(g57
g58
NtRp5550
(dp5551
g61
(dp5552
g69
I5
ssg70
g5546
sg63
(lp5553
g99
asbasbasbag56
(g72
g58
NtRp5554
(dp5555
g61
(dp5556
sg70
g3937
sg63
(lp5557
g56
(g77
g58
NtRp5558
(dp5559
g61
(dp5560
g81
g82
ssg70
g5554
sg63
(lp5561
S'session_new'
p5562
asbag56
(g77
g58
NtRp5563
(dp5564
g61
(dp5565
g88
g89
ssg70
g5554
sg63
(lp5566
S':'
asbag56
(g77
g58
NtRp5567
(dp5568
g61
(dp5569
sg70
g5554
sg63
(lp5570
g56
(g57
g58
NtRp5571
(dp5572
g61
(dp5573
g69
I5
ssg70
g5567
sg63
(lp5574
g771
asbasbasbag56
(g72
g58
NtRp5575
(dp5576
g61
(dp5577
sg70
g3937
sg63
(lp5578
g56
(g77
g58
NtRp5579
(dp5580
g61
(dp5581
g81
g82
ssg70
g5575
sg63
(lp5582
S'status'
p5583
asbag56
(g77
g58
NtRp5584
(dp5585
g61
(dp5586
g88
g89
ssg70
g5575
sg63
(lp5587
S':'
asbag56
(g77
g58
NtRp5588
(dp5589
g61
(dp5590
sg70
g5575
sg63
(lp5591
g56
(g57
g58
NtRp5592
(dp5593
g61
(dp5594
g69
I5
ssg70
g5588
sg63
(lp5595
S'200'
p5596
asbasbasbag56
(g72
g58
NtRp5597
(dp5598
g61
(dp5599
sg70
g3937
sg63
(lp5600
g56
(g77
g58
NtRp5601
(dp5602
g61
(dp5603
g81
g82
ssg70
g5597
sg63
(lp5604
S'subtitle'
p5605
asbag56
(g77
g58
NtRp5606
(dp5607
g61
(dp5608
g88
g89
ssg70
g5597
sg63
(lp5609
S':'
asbag56
(g77
g58
NtRp5610
(dp5611
g61
(dp5612
sg70
g5597
sg63
(lp5613
g56
(g57
g58
NtRp5614
(dp5615
g61
(dp5616
g69
I5
ssg70
g5610
sg63
(lp5617
g4430
(S's\x0f\x00\x00\x00Personalize-me!'
tRp5618
asbasbasbag56
(g72
g58
NtRp5619
(dp5620
g61
(dp5621
sg70
g3937
sg63
(lp5622
g56
(g77
g58
NtRp5623
(dp5624
g61
(dp5625
g81
g82
ssg70
g5619
sg63
(lp5626
S'title'
p5627
asbag56
(g77
g58
NtRp5628
(dp5629
g61
(dp5630
g88
g89
ssg70
g5619
sg63
(lp5631
S':'
asbag56
(g77
g58
NtRp5632
(dp5633
g61
(dp5634
sg70
g5619
sg63
(lp5635
g56
(g57
g58
NtRp5636
(dp5637
g61
(dp5638
g69
I5
ssg70
g5632
sg63
(lp5639
g121
asbasbasbag56
(g72
g58
NtRp5640
(dp5641
g61
(dp5642
sg70
g3937
sg63
(lp5643
g56
(g77
g58
NtRp5644
(dp5645
g61
(dp5646
g81
g82
ssg70
g5640
sg63
(lp5647
g2275
asbag56
(g77
g58
NtRp5648
(dp5649
g61
(dp5650
g88
g89
ssg70
g5640
sg63
(lp5651
S':'
asbag56
(g77
g58
NtRp5652
(dp5653
g61
(dp5654
sg70
g5640
sg63
(lp5655
g56
(g57
g58
NtRp5656
(dp5657
g61
(dp5658
g69
I5
ssg70
g5652
sg63
(lp5659
g2288
asbasbasbag56
(g72
g58
NtRp5660
(dp5661
g61
(dp5662
sg70
g3937
sg63
(lp5663
g56
(g77
g58
NtRp5664
(dp5665
g61
(dp5666
g81
g82
ssg70
g5660
sg63
(lp5667
S'view'
p5668
asbag56
(g77
g58
NtRp5669
(dp5670
g61
(dp5671
g88
g89
ssg70
g5660
sg63
(lp5672
S':'
asbag56
(g77
g58
NtRp5673
(dp5674
g61
(dp5675
sg70
g5660
sg63
(lp5676
g56
(g57
g58
NtRp5677
(dp5678
g61
(dp5679
g69
I5
ssg70
g5673
sg63
(lp5680
S'sprint/detalhes.html'
p5681
asbasbasbasbasbsS'locals'
p5682
(dp5683
S'orderby'
p5684
S'None'
p5685
sS'c'
S"'ticket.id'"
p5686
sS'extracolumns'
p5687
S'None'
p5688
sS'linkto'
p5689
S'None'
p5690
sS'truncate'
p5691
S'16'
p5692
sS'self'
p5693
S'<gluon.sqlhtml.SQLTABLE object>'
p5694
sS'renderstyle'
p5695
g771
sS'upload'
p5696
S'None'
p5697
sS'selectid'
p5698
S'None'
p5699
sg4250
S"'lables'"
p5700
sg63
S'[]'
p5701
sS'th_link'
p5702
S"''"
p5703
sg61
g44
sS'sqlrows'
p5704
S'<gluon.dal.Rows object>'
p5705
sS'columns'
p5706
S"['ticket.id', 'ticket.chamado', 'ticket.sprint', 'ticket.consultor', 'ticket.analista', 'ticket.estado', 'ticket.patch', 'ticket.local_teste', 'ticket.inicio', 'ticket.fim', 'ticket.sistema', 'ticket.cliente']"
p5707
sS'row'
p5708
S'[]'
p5709
sssS'traceback'
p5710
S'Traceback (most recent call last):\n  File "/home/www-data/web2py/gluon/restricted.py", line 192, in restricted\n    exec ccode in environment\n  File "/home/www-data/web2py/applications/scrum/controllers/sprint.py", line 53, in <module>\n  File "/home/www-data/web2py/gluon/globals.py", line 145, in <lambda>\n    self._caller = lambda f: f()\n  File "/home/www-data/web2py/applications/scrum/controllers/sprint.py", line 51, in detalhes\n    return SQLTABLE(tickets,headers=\'lables\')\n  File "/home/www-data/web2py/gluon/sqlhtml.py", line 1360, in __init__\n    if isinstance(headers.get(c, c), dict):\nAttributeError: \'str\' object has no attribute \'get\'\n'
p5711
s.