(dp1
S'output'
p2
S''
sS'layer'
p3
S'/home/www-data/web2py/applications/scrum/models/db1.py'
p4
sS'code'
p5
S"#coding: utf8\nBRAZILIAN_DATE = IS_DATE(format=T('%Y-%m-%d'), error_message=T('deve ser dd/mm/yyyy!'))\nconfig = db(db.config).select().first()\nif len(config) == 0:\n    return redirect(URL(r=request,c='config',f='index'))\n\ndb.define_table('biv',\n                Field('numero','integer'),\n                Field('data','date',requires= BRAZILIAN_DATE),\n                Field('versao'))\ndb.biv.id.represent = lambda id: A('Editar BIV %i' % db.biv[id].numero,_href=URL(r=request,f='edita_biv',args=[id]))                                                       \n\ndb.define_table('menu',\n                Field('caminho'))\n               \ndb.define_table('menu_dom',\n                Field('codigo'),\n                Field('descricao'),\n                Field('nome'),\n                Field('modulo'))\n           \ndb.define_table('modulo',\n                Field('codigo','integer'),\n                Field('nome'))\n               \ndb.define_table('sprint',\n                Field('numero'),\n                Field('inicio','date',requires=BRAZILIAN_DATE),\n                Field('fim','date',requires=BRAZILIAN_DATE))\ndb.sprint.id.represent = lambda id: A('Editar %i' % id, _href=URL(r=request,c='sprint',f='editar',args=[id]))\n\ndb.define_table('ticket',\n                Field('chamado'),\n                Field('consultor',db.auth_user),\n                Field('analista',db.auth_user),\n                Field('estado'),\n                Field('patch','boolean'),\n                Field('local_teste'))\ndb.ticket.consultor.requires = IS_IN_DB(db((db.auth_user.id == db.auth_membership) & \n                                           (db.auth_membership.group_id==config.grupo_consultor)),\n                                        'auth_user.id','%(name)' )\n               \ndb.define_table('caso_teste',\n                Field('ticket',db.ticket),\n                Field('acao','text'),\n                Field('resultado','text'),\n                Field('anexo','upload'), \n                Field('ordem','integer'))\n\ndb.define_table('item_biv',\n                Field('biv',db.biv),\n                Field('ticket',db.ticket), \n                Field('menu','text',widget=SQLFORM.widgets.autocomplete(request,db.menu.caminho,limitby=(0,10), min_length=2)),\n                Field('modulo',widget=SQLFORM.widgets.autocomplete(request,db.modulo.nome,limitby=(0,10), min_length=2)),\n                Field('texto','text'))\n\ndb.define_table('teste',\n                Field('ticket',db.ticket),\n                Field('caso',db.caso_teste),\n                Field('data','date'), \n                Field('resultado','text'),\n                Field('conclusao'))      \n\ndb.define_table('config',\n                Field('grupo_desenvolvedor',db.auth_group),\n                Field('grupo_consultor',db.auth_group),\n                Field('grupo_administrador',db.auth_group))                           \n               \nconfig = db(db.config).select().first()\n\ndb.item_biv.id.represent = lambda id: SPAN(A('Editar',_href=URL(r=request,c='default',f='edita_biv',args=[db.item_biv[id].biv,id])))                \n               \ndef insere_menu(form):       \n    if len(form.vars.menu) > 0:\n       db.menu.insert(caminho=form.vars.menu) \n\ndef insere_modulo(form):\n    if len(form.vars.modulo) > 0:\n       db.modulo.insert(nome=form.vars.modulo)        \n      \ncrud.settings.create_onaccept.item_biv.append(lambda form: insere_menu(form))\ncrud.settings.create_onaccept.item_biv.append(lambda form: insere_modulo(form))\n"
p6
sS'snapshot'
p7
(dp8
S'exception'
p9
(dp10
S'__getslice__'
p11
S"<method-wrapper '__getslice__' of exceptions.SyntaxError object>"
p12
sS'text'
p13
S'"return redirect(URL(r=request,c=\'config\',f=\'index\'))\\n"'
p14
sS'__str__'
p15
S"<method-wrapper '__str__' of exceptions.SyntaxError object>"
p16
sS'__reduce__'
p17
S'<built-in method __reduce__ of exceptions.SyntaxError object>'
p18
sS'__dict__'
p19
S'{}'
p20
sS'__sizeof__'
p21
S'<built-in method __sizeof__ of exceptions.SyntaxError object>'
p22
sS'__init__'
p23
S"<method-wrapper '__init__' of exceptions.SyntaxError object>"
p24
sS'__setattr__'
p25
S"<method-wrapper '__setattr__' of exceptions.SyntaxError object>"
p26
sS'__reduce_ex__'
p27
S'<built-in method __reduce_ex__ of exceptions.SyntaxError object>'
p28
sS'__new__'
p29
S'<built-in method __new__ of type object>'
p30
sS'__format__'
p31
S'<built-in method __format__ of exceptions.SyntaxError object>'
p32
sS'__class__'
p33
S"<type 'exceptions.SyntaxError'>"
p34
sS'filename'
p35
S"'/home/www-data/web2py/applications/scrum/models/db1.py'"
p36
sS'lineno'
p37
S'5'
sS'msg'
p38
S'"\'return\' outside function"'
p39
sS'__doc__'
p40
S"'Invalid syntax.'"
p41
sS'__getitem__'
p42
S"<method-wrapper '__getitem__' of exceptions.SyntaxError object>"
p43
sS'__setstate__'
p44
S'<built-in method __setstate__ of exceptions.SyntaxError object>'
p45
sS'__getattribute__'
p46
S"<method-wrapper '__getattribute__' of exceptions.SyntaxError object>"
p47
sS'print_file_and_line'
p48
S'None'
p49
sS'args'
p50
S'("\'return\' outside function", (\'/home/www-data/web2py/applications/scrum/models/db1.py\', 5, None, "return redirect(URL(r=request,c=\'config\',f=\'index\'))\\n"))'
p51
sS'__subclasshook__'
p52
S'<built-in method __subclasshook__ of type object>'
p53
sS'offset'
p54
S'None'
p55
sS'__unicode__'
p56
S'<built-in method __unicode__ of exceptions.SyntaxError object>'
p57
sS'__delattr__'
p58
S"<method-wrapper '__delattr__' of exceptions.SyntaxError object>"
p59
sS'__repr__'
p60
S"<method-wrapper '__repr__' of exceptions.SyntaxError object>"
p61
sS'__hash__'
p62
S"<method-wrapper '__hash__' of exceptions.SyntaxError object>"
p63
ssS'evalue'
p64
S"'return' outside function (db1.py, line 5)"
p65
sS'request'
p66
ccopy_reg
_reconstructor
p67
(cgluon.html
BEAUTIFY
p68
c__builtin__
object
p69
NtRp70
(dp71
S'attributes'
p72
(dp73
sS'components'
p74
(lp75
g67
(cgluon.html
TABLE
p76
g69
NtRp77
(dp78
g72
(dp79
S'level'
p80
I5
ssS'parent'
p81
Nsg74
(lp82
g67
(cgluon.html
TR
p83
g69
NtRp84
(dp85
g72
(dp86
sg81
g77
sg74
(lp87
g67
(cgluon.html
TD
p88
g69
NtRp89
(dp90
g72
(dp91
S'_style'
p92
S'font-weight:bold;'
p93
ssg81
g84
sg74
(lp94
S'ajax'
p95
asbag67
(g88
g69
NtRp96
(dp97
g72
(dp98
S'_valign'
p99
S'top'
p100
ssg81
g84
sg74
(lp101
S':'
asbag67
(g88
g69
NtRp102
(dp103
g72
(dp104
sg81
g84
sg74
(lp105
g67
(g68
g69
NtRp106
(dp107
g72
(dp108
g80
I5
ssg81
g102
sg74
(lp109
S'False'
p110
asbasbasbag67
(g83
g69
NtRp111
(dp112
g72
(dp113
sg81
g77
sg74
(lp114
g67
(g88
g69
NtRp115
(dp116
g72
(dp117
g92
g93
ssg81
g111
sg74
(lp118
S'application'
p119
asbag67
(g88
g69
NtRp120
(dp121
g72
(dp122
g99
g100
ssg81
g111
sg74
(lp123
S':'
asbag67
(g88
g69
NtRp124
(dp125
g72
(dp126
sg81
g111
sg74
(lp127
g67
(g68
g69
NtRp128
(dp129
g72
(dp130
g80
I5
ssg81
g124
sg74
(lp131
S'scrum'
p132
asbasbasbag67
(g83
g69
NtRp133
(dp134
g72
(dp135
sg81
g77
sg74
(lp136
g67
(g88
g69
NtRp137
(dp138
g72
(dp139
g92
g93
ssg81
g133
sg74
(lp140
g50
asbag67
(g88
g69
NtRp141
(dp142
g72
(dp143
g99
g100
ssg81
g133
sg74
(lp144
S':'
asbag67
(g88
g69
NtRp145
(dp146
g72
(dp147
sg81
g133
sg74
(lp148
g67
(g68
g69
NtRp149
(dp150
g72
(dp151
g80
I5
ssg81
g145
sg74
(lp152
g67
(g76
g69
NtRp153
(dp154
g72
(dp155
g80
I4
ssg81
Nsg74
(lp156
sbasbasbasbag67
(g83
g69
NtRp157
(dp158
g72
(dp159
sg81
g77
sg74
(lp160
g67
(g88
g69
NtRp161
(dp162
g72
(dp163
g92
g93
ssg81
g157
sg74
(lp164
S'body'
p165
asbag67
(g88
g69
NtRp166
(dp167
g72
(dp168
g99
g100
ssg81
g157
sg74
(lp169
S':'
asbag67
(g88
g69
NtRp170
(dp171
g72
(dp172
sg81
g157
sg74
(lp173
g67
(g68
g69
NtRp174
(dp175
g72
(dp176
g80
I5
ssg81
g170
sg74
(lp177
S'<cStringIO.StringO object at 0xb9a00500>'
p178
asbasbasbag67
(g83
g69
NtRp179
(dp180
g72
(dp181
sg81
g77
sg74
(lp182
g67
(g88
g69
NtRp183
(dp184
g72
(dp185
g92
g93
ssg81
g179
sg74
(lp186
S'client'
p187
asbag67
(g88
g69
NtRp188
(dp189
g72
(dp190
g99
g100
ssg81
g179
sg74
(lp191
S':'
asbag67
(g88
g69
NtRp192
(dp193
g72
(dp194
sg81
g179
sg74
(lp195
g67
(g68
g69
NtRp196
(dp197
g72
(dp198
g80
I5
ssg81
g192
sg74
(lp199
S'127.0.0.1'
p200
asbasbasbag67
(g83
g69
NtRp201
(dp202
g72
(dp203
sg81
g77
sg74
(lp204
g67
(g88
g69
NtRp205
(dp206
g72
(dp207
g92
g93
ssg81
g201
sg74
(lp208
S'controller'
p209
asbag67
(g88
g69
NtRp210
(dp211
g72
(dp212
g99
g100
ssg81
g201
sg74
(lp213
S':'
asbag67
(g88
g69
NtRp214
(dp215
g72
(dp216
sg81
g201
sg74
(lp217
g67
(g68
g69
NtRp218
(dp219
g72
(dp220
g80
I5
ssg81
g214
sg74
(lp221
S'ticket'
p222
asbasbasbag67
(g83
g69
NtRp223
(dp224
g72
(dp225
sg81
g77
sg74
(lp226
g67
(g88
g69
NtRp227
(dp228
g72
(dp229
g92
g93
ssg81
g223
sg74
(lp230
S'cookies'
p231
asbag67
(g88
g69
NtRp232
(dp233
g72
(dp234
g99
g100
ssg81
g223
sg74
(lp235
S':'
asbag67
(g88
g69
NtRp236
(dp237
g72
(dp238
sg81
g223
sg74
(lp239
g67
(g68
g69
NtRp240
(dp241
g72
(dp242
g80
I5
ssg81
g236
sg74
(lp243
g67
(g76
g69
NtRp244
(dp245
g72
(dp246
g80
I4
ssg81
Nsg74
(lp247
g67
(g83
g69
NtRp248
(dp249
g72
(dp250
sg81
g244
sg74
(lp251
g67
(g88
g69
NtRp252
(dp253
g72
(dp254
g92
g93
ssg81
g248
sg74
(lp255
S'session_id_admin'
p256
asbag67
(g88
g69
NtRp257
(dp258
g72
(dp259
g99
g100
ssg81
g248
sg74
(lp260
S':'
asbag67
(g88
g69
NtRp261
(dp262
g72
(dp263
sg81
g248
sg74
(lp264
g67
(g68
g69
NtRp265
(dp266
g72
(dp267
g80
I4
ssg81
g261
sg74
(lp268
g67
(g76
g69
NtRp269
(dp270
g72
(dp271
g80
I3
ssg81
Nsg74
(lp272
g67
(g83
g69
NtRp273
(dp274
g72
(dp275
sg81
g269
sg74
(lp276
g67
(g88
g69
NtRp277
(dp278
g72
(dp279
g92
g93
ssg81
g273
sg74
(lp280
S'comment'
p281
asbag67
(g88
g69
NtRp282
(dp283
g72
(dp284
g99
g100
ssg81
g273
sg74
(lp285
S':'
asbag67
(g88
g69
NtRp286
(dp287
g72
(dp288
sg81
g273
sg74
(lp289
g67
(g68
g69
NtRp290
(dp291
g72
(dp292
g80
I3
ssg81
g286
sg74
(lp293
S''
asbasbasbag67
(g83
g69
NtRp294
(dp295
g72
(dp296
sg81
g269
sg74
(lp297
g67
(g88
g69
NtRp298
(dp299
g72
(dp300
g92
g93
ssg81
g294
sg74
(lp301
S'domain'
p302
asbag67
(g88
g69
NtRp303
(dp304
g72
(dp305
g99
g100
ssg81
g294
sg74
(lp306
S':'
asbag67
(g88
g69
NtRp307
(dp308
g72
(dp309
sg81
g294
sg74
(lp310
g67
(g68
g69
NtRp311
(dp312
g72
(dp313
g80
I3
ssg81
g307
sg74
(lp314
S''
asbasbasbag67
(g83
g69
NtRp315
(dp316
g72
(dp317
sg81
g269
sg74
(lp318
g67
(g88
g69
NtRp319
(dp320
g72
(dp321
g92
g93
ssg81
g315
sg74
(lp322
S'expires'
p323
asbag67
(g88
g69
NtRp324
(dp325
g72
(dp326
g99
g100
ssg81
g315
sg74
(lp327
S':'
asbag67
(g88
g69
NtRp328
(dp329
g72
(dp330
sg81
g315
sg74
(lp331
g67
(g68
g69
NtRp332
(dp333
g72
(dp334
g80
I3
ssg81
g328
sg74
(lp335
S''
asbasbasbag67
(g83
g69
NtRp336
(dp337
g72
(dp338
sg81
g269
sg74
(lp339
g67
(g88
g69
NtRp340
(dp341
g72
(dp342
g92
g93
ssg81
g336
sg74
(lp343
S'httponly'
p344
asbag67
(g88
g69
NtRp345
(dp346
g72
(dp347
g99
g100
ssg81
g336
sg74
(lp348
S':'
asbag67
(g88
g69
NtRp349
(dp350
g72
(dp351
sg81
g336
sg74
(lp352
g67
(g68
g69
NtRp353
(dp354
g72
(dp355
g80
I3
ssg81
g349
sg74
(lp356
S''
asbasbasbag67
(g83
g69
NtRp357
(dp358
g72
(dp359
sg81
g269
sg74
(lp360
g67
(g88
g69
NtRp361
(dp362
g72
(dp363
g92
g93
ssg81
g357
sg74
(lp364
S'max-age'
p365
asbag67
(g88
g69
NtRp366
(dp367
g72
(dp368
g99
g100
ssg81
g357
sg74
(lp369
S':'
asbag67
(g88
g69
NtRp370
(dp371
g72
(dp372
sg81
g357
sg74
(lp373
g67
(g68
g69
NtRp374
(dp375
g72
(dp376
g80
I3
ssg81
g370
sg74
(lp377
S''
asbasbasbag67
(g83
g69
NtRp378
(dp379
g72
(dp380
sg81
g269
sg74
(lp381
g67
(g88
g69
NtRp382
(dp383
g72
(dp384
g92
g93
ssg81
g378
sg74
(lp385
S'path'
p386
asbag67
(g88
g69
NtRp387
(dp388
g72
(dp389
g99
g100
ssg81
g378
sg74
(lp390
S':'
asbag67
(g88
g69
NtRp391
(dp392
g72
(dp393
sg81
g378
sg74
(lp394
g67
(g68
g69
NtRp395
(dp396
g72
(dp397
g80
I3
ssg81
g391
sg74
(lp398
S''
asbasbasbag67
(g83
g69
NtRp399
(dp400
g72
(dp401
sg81
g269
sg74
(lp402
g67
(g88
g69
NtRp403
(dp404
g72
(dp405
g92
g93
ssg81
g399
sg74
(lp406
S'secure'
p407
asbag67
(g88
g69
NtRp408
(dp409
g72
(dp410
g99
g100
ssg81
g399
sg74
(lp411
S':'
asbag67
(g88
g69
NtRp412
(dp413
g72
(dp414
sg81
g399
sg74
(lp415
g67
(g68
g69
NtRp416
(dp417
g72
(dp418
g80
I3
ssg81
g412
sg74
(lp419
S''
asbasbasbag67
(g83
g69
NtRp420
(dp421
g72
(dp422
sg81
g269
sg74
(lp423
g67
(g88
g69
NtRp424
(dp425
g72
(dp426
g92
g93
ssg81
g420
sg74
(lp427
S'version'
p428
asbag67
(g88
g69
NtRp429
(dp430
g72
(dp431
g99
g100
ssg81
g420
sg74
(lp432
S':'
asbag67
(g88
g69
NtRp433
(dp434
g72
(dp435
sg81
g420
sg74
(lp436
g67
(g68
g69
NtRp437
(dp438
g72
(dp439
g80
I3
ssg81
g433
sg74
(lp440
S''
asbasbasbasbasbasbasbag67
(g83
g69
NtRp441
(dp442
g72
(dp443
sg81
g244
sg74
(lp444
g67
(g88
g69
NtRp445
(dp446
g72
(dp447
g92
g93
ssg81
g441
sg74
(lp448
S'session_id_scrum'
p449
asbag67
(g88
g69
NtRp450
(dp451
g72
(dp452
g99
g100
ssg81
g441
sg74
(lp453
S':'
asbag67
(g88
g69
NtRp454
(dp455
g72
(dp456
sg81
g441
sg74
(lp457
g67
(g68
g69
NtRp458
(dp459
g72
(dp460
g80
I4
ssg81
g454
sg74
(lp461
g67
(g76
g69
NtRp462
(dp463
g72
(dp464
g80
I3
ssg81
Nsg74
(lp465
g67
(g83
g69
NtRp466
(dp467
g72
(dp468
sg81
g462
sg74
(lp469
g67
(g88
g69
NtRp470
(dp471
g72
(dp472
g92
g93
ssg81
g466
sg74
(lp473
g281
asbag67
(g88
g69
NtRp474
(dp475
g72
(dp476
g99
g100
ssg81
g466
sg74
(lp477
S':'
asbag67
(g88
g69
NtRp478
(dp479
g72
(dp480
sg81
g466
sg74
(lp481
g67
(g68
g69
NtRp482
(dp483
g72
(dp484
g80
I3
ssg81
g478
sg74
(lp485
S''
asbasbasbag67
(g83
g69
NtRp486
(dp487
g72
(dp488
sg81
g462
sg74
(lp489
g67
(g88
g69
NtRp490
(dp491
g72
(dp492
g92
g93
ssg81
g486
sg74
(lp493
g302
asbag67
(g88
g69
NtRp494
(dp495
g72
(dp496
g99
g100
ssg81
g486
sg74
(lp497
S':'
asbag67
(g88
g69
NtRp498
(dp499
g72
(dp500
sg81
g486
sg74
(lp501
g67
(g68
g69
NtRp502
(dp503
g72
(dp504
g80
I3
ssg81
g498
sg74
(lp505
S''
asbasbasbag67
(g83
g69
NtRp506
(dp507
g72
(dp508
sg81
g462
sg74
(lp509
g67
(g88
g69
NtRp510
(dp511
g72
(dp512
g92
g93
ssg81
g506
sg74
(lp513
g323
asbag67
(g88
g69
NtRp514
(dp515
g72
(dp516
g99
g100
ssg81
g506
sg74
(lp517
S':'
asbag67
(g88
g69
NtRp518
(dp519
g72
(dp520
sg81
g506
sg74
(lp521
g67
(g68
g69
NtRp522
(dp523
g72
(dp524
g80
I3
ssg81
g518
sg74
(lp525
S''
asbasbasbag67
(g83
g69
NtRp526
(dp527
g72
(dp528
sg81
g462
sg74
(lp529
g67
(g88
g69
NtRp530
(dp531
g72
(dp532
g92
g93
ssg81
g526
sg74
(lp533
g344
asbag67
(g88
g69
NtRp534
(dp535
g72
(dp536
g99
g100
ssg81
g526
sg74
(lp537
S':'
asbag67
(g88
g69
NtRp538
(dp539
g72
(dp540
sg81
g526
sg74
(lp541
g67
(g68
g69
NtRp542
(dp543
g72
(dp544
g80
I3
ssg81
g538
sg74
(lp545
S''
asbasbasbag67
(g83
g69
NtRp546
(dp547
g72
(dp548
sg81
g462
sg74
(lp549
g67
(g88
g69
NtRp550
(dp551
g72
(dp552
g92
g93
ssg81
g546
sg74
(lp553
g365
asbag67
(g88
g69
NtRp554
(dp555
g72
(dp556
g99
g100
ssg81
g546
sg74
(lp557
S':'
asbag67
(g88
g69
NtRp558
(dp559
g72
(dp560
sg81
g546
sg74
(lp561
g67
(g68
g69
NtRp562
(dp563
g72
(dp564
g80
I3
ssg81
g558
sg74
(lp565
S''
asbasbasbag67
(g83
g69
NtRp566
(dp567
g72
(dp568
sg81
g462
sg74
(lp569
g67
(g88
g69
NtRp570
(dp571
g72
(dp572
g92
g93
ssg81
g566
sg74
(lp573
g386
asbag67
(g88
g69
NtRp574
(dp575
g72
(dp576
g99
g100
ssg81
g566
sg74
(lp577
S':'
asbag67
(g88
g69
NtRp578
(dp579
g72
(dp580
sg81
g566
sg74
(lp581
g67
(g68
g69
NtRp582
(dp583
g72
(dp584
g80
I3
ssg81
g578
sg74
(lp585
S''
asbasbasbag67
(g83
g69
NtRp586
(dp587
g72
(dp588
sg81
g462
sg74
(lp589
g67
(g88
g69
NtRp590
(dp591
g72
(dp592
g92
g93
ssg81
g586
sg74
(lp593
g407
asbag67
(g88
g69
NtRp594
(dp595
g72
(dp596
g99
g100
ssg81
g586
sg74
(lp597
S':'
asbag67
(g88
g69
NtRp598
(dp599
g72
(dp600
sg81
g586
sg74
(lp601
g67
(g68
g69
NtRp602
(dp603
g72
(dp604
g80
I3
ssg81
g598
sg74
(lp605
S''
asbasbasbag67
(g83
g69
NtRp606
(dp607
g72
(dp608
sg81
g462
sg74
(lp609
g67
(g88
g69
NtRp610
(dp611
g72
(dp612
g92
g93
ssg81
g606
sg74
(lp613
g428
asbag67
(g88
g69
NtRp614
(dp615
g72
(dp616
g99
g100
ssg81
g606
sg74
(lp617
S':'
asbag67
(g88
g69
NtRp618
(dp619
g72
(dp620
sg81
g606
sg74
(lp621
g67
(g68
g69
NtRp622
(dp623
g72
(dp624
g80
I3
ssg81
g618
sg74
(lp625
S''
asbasbasbasbasbasbasbasbasbasbasbag67
(g83
g69
NtRp626
(dp627
g72
(dp628
sg81
g77
sg74
(lp629
g67
(g88
g69
NtRp630
(dp631
g72
(dp632
g92
g93
ssg81
g626
sg74
(lp633
S'env'
p634
asbag67
(g88
g69
NtRp635
(dp636
g72
(dp637
g99
g100
ssg81
g626
sg74
(lp638
S':'
asbag67
(g88
g69
NtRp639
(dp640
g72
(dp641
sg81
g626
sg74
(lp642
g67
(g68
g69
NtRp643
(dp644
g72
(dp645
g80
I5
ssg81
g639
sg74
(lp646
g67
(g76
g69
NtRp647
(dp648
g72
(dp649
g80
I4
ssg81
Nsg74
(lp650
g67
(g83
g69
NtRp651
(dp652
g72
(dp653
sg81
g647
sg74
(lp654
g67
(g88
g69
NtRp655
(dp656
g72
(dp657
g92
g93
ssg81
g651
sg74
(lp658
S'app_folders'
p659
asbag67
(g88
g69
NtRp660
(dp661
g72
(dp662
g99
g100
ssg81
g651
sg74
(lp663
S':'
asbag67
(g88
g69
NtRp664
(dp665
g72
(dp666
sg81
g651
sg74
(lp667
g67
(g68
g69
NtRp668
(dp669
g72
(dp670
g80
I4
ssg81
g664
sg74
(lp671
S"set(['/home/www-data/web2py/applications/scrum/', '/home/www-data/web2py/applications/admin/'])"
p672
asbasbasbag67
(g83
g69
NtRp673
(dp674
g72
(dp675
sg81
g647
sg74
(lp676
g67
(g88
g69
NtRp677
(dp678
g72
(dp679
g92
g93
ssg81
g673
sg74
(lp680
S'applications_parent'
p681
asbag67
(g88
g69
NtRp682
(dp683
g72
(dp684
g99
g100
ssg81
g673
sg74
(lp685
S':'
asbag67
(g88
g69
NtRp686
(dp687
g72
(dp688
sg81
g673
sg74
(lp689
g67
(g68
g69
NtRp690
(dp691
g72
(dp692
g80
I4
ssg81
g686
sg74
(lp693
S'/home/www-data/web2py'
p694
asbasbasbag67
(g83
g69
NtRp695
(dp696
g72
(dp697
sg81
g647
sg74
(lp698
g67
(g88
g69
NtRp699
(dp700
g72
(dp701
g92
g93
ssg81
g695
sg74
(lp702
S'db_sessions'
p703
asbag67
(g88
g69
NtRp704
(dp705
g72
(dp706
g99
g100
ssg81
g695
sg74
(lp707
S':'
asbag67
(g88
g69
NtRp708
(dp709
g72
(dp710
sg81
g695
sg74
(lp711
g67
(g68
g69
NtRp712
(dp713
g72
(dp714
g80
I4
ssg81
g708
sg74
(lp715
S'set([])'
p716
asbasbasbag67
(g83
g69
NtRp717
(dp718
g72
(dp719
sg81
g647
sg74
(lp720
g67
(g88
g69
NtRp721
(dp722
g72
(dp723
g92
g93
ssg81
g717
sg74
(lp724
S'debugging'
p725
asbag67
(g88
g69
NtRp726
(dp727
g72
(dp728
g99
g100
ssg81
g717
sg74
(lp729
S':'
asbag67
(g88
g69
NtRp730
(dp731
g72
(dp732
sg81
g717
sg74
(lp733
g67
(g68
g69
NtRp734
(dp735
g72
(dp736
g80
I4
ssg81
g730
sg74
(lp737
g110
asbasbasbag67
(g83
g69
NtRp738
(dp739
g72
(dp740
sg81
g647
sg74
(lp741
g67
(g88
g69
NtRp742
(dp743
g72
(dp744
g92
g93
ssg81
g738
sg74
(lp745
S'document_root'
p746
asbag67
(g88
g69
NtRp747
(dp748
g72
(dp749
g99
g100
ssg81
g738
sg74
(lp750
S':'
asbag67
(g88
g69
NtRp751
(dp752
g72
(dp753
sg81
g738
sg74
(lp754
g67
(g68
g69
NtRp755
(dp756
g72
(dp757
g80
I4
ssg81
g751
sg74
(lp758
S'/etc/apache2/htdocs'
p759
asbasbasbag67
(g83
g69
NtRp760
(dp761
g72
(dp762
sg81
g647
sg74
(lp763
g67
(g88
g69
NtRp764
(dp765
g72
(dp766
g92
g93
ssg81
g760
sg74
(lp767
S'gateway_interface'
p768
asbag67
(g88
g69
NtRp769
(dp770
g72
(dp771
g99
g100
ssg81
g760
sg74
(lp772
S':'
asbag67
(g88
g69
NtRp773
(dp774
g72
(dp775
sg81
g760
sg74
(lp776
g67
(g68
g69
NtRp777
(dp778
g72
(dp779
g80
I4
ssg81
g773
sg74
(lp780
S'CGI/1.1'
p781
asbasbasbag67
(g83
g69
NtRp782
(dp783
g72
(dp784
sg81
g647
sg74
(lp785
g67
(g88
g69
NtRp786
(dp787
g72
(dp788
g92
g93
ssg81
g782
sg74
(lp789
S'gluon_parent'
p790
asbag67
(g88
g69
NtRp791
(dp792
g72
(dp793
g99
g100
ssg81
g782
sg74
(lp794
S':'
asbag67
(g88
g69
NtRp795
(dp796
g72
(dp797
sg81
g782
sg74
(lp798
g67
(g68
g69
NtRp799
(dp800
g72
(dp801
g80
I4
ssg81
g795
sg74
(lp802
g694
asbasbasbag67
(g83
g69
NtRp803
(dp804
g72
(dp805
sg81
g647
sg74
(lp806
g67
(g88
g69
NtRp807
(dp808
g72
(dp809
g92
g93
ssg81
g803
sg74
(lp810
S'http_accept'
p811
asbag67
(g88
g69
NtRp812
(dp813
g72
(dp814
g99
g100
ssg81
g803
sg74
(lp815
S':'
asbag67
(g88
g69
NtRp816
(dp817
g72
(dp818
sg81
g803
sg74
(lp819
g67
(g68
g69
NtRp820
(dp821
g72
(dp822
g80
I4
ssg81
g816
sg74
(lp823
S'text/html, application/xml;q=0.9, application/xhtml+xml, image/png, image/webp, image/jpeg, image/gif, image/x-xbitmap, */*;q=0.1'
p824
asbasbasbag67
(g83
g69
NtRp825
(dp826
g72
(dp827
sg81
g647
sg74
(lp828
g67
(g88
g69
NtRp829
(dp830
g72
(dp831
g92
g93
ssg81
g825
sg74
(lp832
S'http_accept_encoding'
p833
asbag67
(g88
g69
NtRp834
(dp835
g72
(dp836
g99
g100
ssg81
g825
sg74
(lp837
S':'
asbag67
(g88
g69
NtRp838
(dp839
g72
(dp840
sg81
g825
sg74
(lp841
g67
(g68
g69
NtRp842
(dp843
g72
(dp844
g80
I4
ssg81
g838
sg74
(lp845
S'gzip, deflate'
p846
asbasbasbag67
(g83
g69
NtRp847
(dp848
g72
(dp849
sg81
g647
sg74
(lp850
g67
(g88
g69
NtRp851
(dp852
g72
(dp853
g92
g93
ssg81
g847
sg74
(lp854
S'http_accept_language'
p855
asbag67
(g88
g69
NtRp856
(dp857
g72
(dp858
g99
g100
ssg81
g847
sg74
(lp859
S':'
asbag67
(g88
g69
NtRp860
(dp861
g72
(dp862
sg81
g847
sg74
(lp863
g67
(g68
g69
NtRp864
(dp865
g72
(dp866
g80
I4
ssg81
g860
sg74
(lp867
S'pt-BR,pt;q=0.9,en;q=0.8'
p868
asbasbasbag67
(g83
g69
NtRp869
(dp870
g72
(dp871
sg81
g647
sg74
(lp872
g67
(g88
g69
NtRp873
(dp874
g72
(dp875
g92
g93
ssg81
g869
sg74
(lp876
S'http_cache_control'
p877
asbag67
(g88
g69
NtRp878
(dp879
g72
(dp880
g99
g100
ssg81
g869
sg74
(lp881
S':'
asbag67
(g88
g69
NtRp882
(dp883
g72
(dp884
sg81
g869
sg74
(lp885
g67
(g68
g69
NtRp886
(dp887
g72
(dp888
g80
I4
ssg81
g882
sg74
(lp889
S'no-cache'
p890
asbasbasbag67
(g83
g69
NtRp891
(dp892
g72
(dp893
sg81
g647
sg74
(lp894
g67
(g88
g69
NtRp895
(dp896
g72
(dp897
g92
g93
ssg81
g891
sg74
(lp898
S'http_connection'
p899
asbag67
(g88
g69
NtRp900
(dp901
g72
(dp902
g99
g100
ssg81
g891
sg74
(lp903
S':'
asbag67
(g88
g69
NtRp904
(dp905
g72
(dp906
sg81
g891
sg74
(lp907
g67
(g68
g69
NtRp908
(dp909
g72
(dp910
g80
I4
ssg81
g904
sg74
(lp911
S'Keep-Alive'
p912
asbasbasbag67
(g83
g69
NtRp913
(dp914
g72
(dp915
sg81
g647
sg74
(lp916
g67
(g88
g69
NtRp917
(dp918
g72
(dp919
g92
g93
ssg81
g913
sg74
(lp920
S'http_cookie'
p921
asbag67
(g88
g69
NtRp922
(dp923
g72
(dp924
g99
g100
ssg81
g913
sg74
(lp925
S':'
asbag67
(g88
g69
NtRp926
(dp927
g72
(dp928
sg81
g913
sg74
(lp929
g67
(g68
g69
NtRp930
(dp931
g72
(dp932
g80
I4
ssg81
g926
sg74
(lp933
S'session_id_scrum=127.0.0.1-f47d3ac4-8d8c-46d5-8321-f944561d518f; session_id_admin=127.0.0.1-ce034cfe-dc55-49ae-8249-b059df779a22'
p934
asbasbasbag67
(g83
g69
NtRp935
(dp936
g72
(dp937
sg81
g647
sg74
(lp938
g67
(g88
g69
NtRp939
(dp940
g72
(dp941
g92
g93
ssg81
g935
sg74
(lp942
S'http_host'
p943
asbag67
(g88
g69
NtRp944
(dp945
g72
(dp946
g99
g100
ssg81
g935
sg74
(lp947
S':'
asbag67
(g88
g69
NtRp948
(dp949
g72
(dp950
sg81
g935
sg74
(lp951
g67
(g68
g69
NtRp952
(dp953
g72
(dp954
g80
I4
ssg81
g948
sg74
(lp955
S'localhost'
p956
asbasbasbag67
(g83
g69
NtRp957
(dp958
g72
(dp959
sg81
g647
sg74
(lp960
g67
(g88
g69
NtRp961
(dp962
g72
(dp963
g92
g93
ssg81
g957
sg74
(lp964
S'http_referer'
p965
asbag67
(g88
g69
NtRp966
(dp967
g72
(dp968
g99
g100
ssg81
g957
sg74
(lp969
S':'
asbag67
(g88
g69
NtRp970
(dp971
g72
(dp972
sg81
g957
sg74
(lp973
g67
(g68
g69
NtRp974
(dp975
g72
(dp976
g80
I4
ssg81
g970
sg74
(lp977
S'https://localhost/scrum/ticket/index'
p978
asbasbasbag67
(g83
g69
NtRp979
(dp980
g72
(dp981
sg81
g647
sg74
(lp982
g67
(g88
g69
NtRp983
(dp984
g72
(dp985
g92
g93
ssg81
g979
sg74
(lp986
S'http_user_agent'
p987
asbag67
(g88
g69
NtRp988
(dp989
g72
(dp990
g99
g100
ssg81
g979
sg74
(lp991
S':'
asbag67
(g88
g69
NtRp992
(dp993
g72
(dp994
sg81
g979
sg74
(lp995
g67
(g68
g69
NtRp996
(dp997
g72
(dp998
g80
I4
ssg81
g992
sg74
(lp999
S'Opera/9.80 (X11; Linux i686; U; pt-BR) Presto/2.9.168 Version/11.51'
p1000
asbasbasbag67
(g83
g69
NtRp1001
(dp1002
g72
(dp1003
sg81
g647
sg74
(lp1004
g67
(g88
g69
NtRp1005
(dp1006
g72
(dp1007
g92
g93
ssg81
g1001
sg74
(lp1008
S'https'
p1009
asbag67
(g88
g69
NtRp1010
(dp1011
g72
(dp1012
g99
g100
ssg81
g1001
sg74
(lp1013
S':'
asbag67
(g88
g69
NtRp1014
(dp1015
g72
(dp1016
sg81
g1001
sg74
(lp1017
g67
(g68
g69
NtRp1018
(dp1019
g72
(dp1020
g80
I4
ssg81
g1014
sg74
(lp1021
S'1'
asbasbasbag67
(g83
g69
NtRp1022
(dp1023
g72
(dp1024
sg81
g647
sg74
(lp1025
g67
(g88
g69
NtRp1026
(dp1027
g72
(dp1028
g92
g93
ssg81
g1022
sg74
(lp1029
S'is_jython'
p1030
asbag67
(g88
g69
NtRp1031
(dp1032
g72
(dp1033
g99
g100
ssg81
g1022
sg74
(lp1034
S':'
asbag67
(g88
g69
NtRp1035
(dp1036
g72
(dp1037
sg81
g1022
sg74
(lp1038
g67
(g68
g69
NtRp1039
(dp1040
g72
(dp1041
g80
I4
ssg81
g1035
sg74
(lp1042
g110
asbasbasbag67
(g83
g69
NtRp1043
(dp1044
g72
(dp1045
sg81
g647
sg74
(lp1046
g67
(g88
g69
NtRp1047
(dp1048
g72
(dp1049
g92
g93
ssg81
g1043
sg74
(lp1050
S'mod_wsgi_application_group'
p1051
asbag67
(g88
g69
NtRp1052
(dp1053
g72
(dp1054
g99
g100
ssg81
g1043
sg74
(lp1055
S':'
asbag67
(g88
g69
NtRp1056
(dp1057
g72
(dp1058
sg81
g1043
sg74
(lp1059
g67
(g68
g69
NtRp1060
(dp1061
g72
(dp1062
g80
I4
ssg81
g1056
sg74
(lp1063
S'localhost.localdomain|'
p1064
asbasbasbag67
(g83
g69
NtRp1065
(dp1066
g72
(dp1067
sg81
g647
sg74
(lp1068
g67
(g88
g69
NtRp1069
(dp1070
g72
(dp1071
g92
g93
ssg81
g1065
sg74
(lp1072
S'mod_wsgi_callable_object'
p1073
asbag67
(g88
g69
NtRp1074
(dp1075
g72
(dp1076
g99
g100
ssg81
g1065
sg74
(lp1077
S':'
asbag67
(g88
g69
NtRp1078
(dp1079
g72
(dp1080
sg81
g1065
sg74
(lp1081
g67
(g68
g69
NtRp1082
(dp1083
g72
(dp1084
g80
I4
ssg81
g1078
sg74
(lp1085
S'application'
p1086
asbasbasbag67
(g83
g69
NtRp1087
(dp1088
g72
(dp1089
sg81
g647
sg74
(lp1090
g67
(g88
g69
NtRp1091
(dp1092
g72
(dp1093
g92
g93
ssg81
g1087
sg74
(lp1094
S'mod_wsgi_handler_script'
p1095
asbag67
(g88
g69
NtRp1096
(dp1097
g72
(dp1098
g99
g100
ssg81
g1087
sg74
(lp1099
S':'
asbag67
(g88
g69
NtRp1100
(dp1101
g72
(dp1102
sg81
g1087
sg74
(lp1103
g67
(g68
g69
NtRp1104
(dp1105
g72
(dp1106
g80
I4
ssg81
g1100
sg74
(lp1107
S''
asbasbasbag67
(g83
g69
NtRp1108
(dp1109
g72
(dp1110
sg81
g647
sg74
(lp1111
g67
(g88
g69
NtRp1112
(dp1113
g72
(dp1114
g92
g93
ssg81
g1108
sg74
(lp1115
S'mod_wsgi_input_chunked'
p1116
asbag67
(g88
g69
NtRp1117
(dp1118
g72
(dp1119
g99
g100
ssg81
g1108
sg74
(lp1120
S':'
asbag67
(g88
g69
NtRp1121
(dp1122
g72
(dp1123
sg81
g1108
sg74
(lp1124
g67
(g68
g69
NtRp1125
(dp1126
g72
(dp1127
g80
I4
ssg81
g1121
sg74
(lp1128
S'0'
asbasbasbag67
(g83
g69
NtRp1129
(dp1130
g72
(dp1131
sg81
g647
sg74
(lp1132
g67
(g88
g69
NtRp1133
(dp1134
g72
(dp1135
g92
g93
ssg81
g1129
sg74
(lp1136
S'mod_wsgi_listener_host'
p1137
asbag67
(g88
g69
NtRp1138
(dp1139
g72
(dp1140
g99
g100
ssg81
g1129
sg74
(lp1141
S':'
asbag67
(g88
g69
NtRp1142
(dp1143
g72
(dp1144
sg81
g1129
sg74
(lp1145
g67
(g68
g69
NtRp1146
(dp1147
g72
(dp1148
g80
I4
ssg81
g1142
sg74
(lp1149
S''
asbasbasbag67
(g83
g69
NtRp1150
(dp1151
g72
(dp1152
sg81
g647
sg74
(lp1153
g67
(g88
g69
NtRp1154
(dp1155
g72
(dp1156
g92
g93
ssg81
g1150
sg74
(lp1157
S'mod_wsgi_listener_port'
p1158
asbag67
(g88
g69
NtRp1159
(dp1160
g72
(dp1161
g99
g100
ssg81
g1150
sg74
(lp1162
S':'
asbag67
(g88
g69
NtRp1163
(dp1164
g72
(dp1165
sg81
g1150
sg74
(lp1166
g67
(g68
g69
NtRp1167
(dp1168
g72
(dp1169
g80
I4
ssg81
g1163
sg74
(lp1170
S'443'
p1171
asbasbasbag67
(g83
g69
NtRp1172
(dp1173
g72
(dp1174
sg81
g647
sg74
(lp1175
g67
(g88
g69
NtRp1176
(dp1177
g72
(dp1178
g92
g93
ssg81
g1172
sg74
(lp1179
S'mod_wsgi_process_group'
p1180
asbag67
(g88
g69
NtRp1181
(dp1182
g72
(dp1183
g99
g100
ssg81
g1172
sg74
(lp1184
S':'
asbag67
(g88
g69
NtRp1185
(dp1186
g72
(dp1187
sg81
g1172
sg74
(lp1188
g67
(g68
g69
NtRp1189
(dp1190
g72
(dp1191
g80
I4
ssg81
g1185
sg74
(lp1192
S'web2py'
p1193
asbasbasbag67
(g83
g69
NtRp1194
(dp1195
g72
(dp1196
sg81
g647
sg74
(lp1197
g67
(g88
g69
NtRp1198
(dp1199
g72
(dp1200
g92
g93
ssg81
g1194
sg74
(lp1201
S'mod_wsgi_request_handler'
p1202
asbag67
(g88
g69
NtRp1203
(dp1204
g72
(dp1205
g99
g100
ssg81
g1194
sg74
(lp1206
S':'
asbag67
(g88
g69
NtRp1207
(dp1208
g72
(dp1209
sg81
g1194
sg74
(lp1210
g67
(g68
g69
NtRp1211
(dp1212
g72
(dp1213
g80
I4
ssg81
g1207
sg74
(lp1214
S'wsgi-script'
p1215
asbasbasbag67
(g83
g69
NtRp1216
(dp1217
g72
(dp1218
sg81
g647
sg74
(lp1219
g67
(g88
g69
NtRp1220
(dp1221
g72
(dp1222
g92
g93
ssg81
g1216
sg74
(lp1223
S'mod_wsgi_script_reloading'
p1224
asbag67
(g88
g69
NtRp1225
(dp1226
g72
(dp1227
g99
g100
ssg81
g1216
sg74
(lp1228
S':'
asbag67
(g88
g69
NtRp1229
(dp1230
g72
(dp1231
sg81
g1216
sg74
(lp1232
g67
(g68
g69
NtRp1233
(dp1234
g72
(dp1235
g80
I4
ssg81
g1229
sg74
(lp1236
S'1'
asbasbasbag67
(g83
g69
NtRp1237
(dp1238
g72
(dp1239
sg81
g647
sg74
(lp1240
g67
(g88
g69
NtRp1241
(dp1242
g72
(dp1243
g92
g93
ssg81
g1237
sg74
(lp1244
S'mod_wsgi_version'
p1245
asbag67
(g88
g69
NtRp1246
(dp1247
g72
(dp1248
g99
g100
ssg81
g1237
sg74
(lp1249
S':'
asbag67
(g88
g69
NtRp1250
(dp1251
g72
(dp1252
sg81
g1237
sg74
(lp1253
g67
(g68
g69
NtRp1254
(dp1255
g72
(dp1256
g80
I4
ssg81
g1250
sg74
(lp1257
g67
(g76
g69
NtRp1258
(dp1259
g72
(dp1260
g80
I3
ssg81
Nsg74
(lp1261
g67
(g83
g69
NtRp1262
(dp1263
g72
(dp1264
sg81
g1258
sg74
(lp1265
g67
(g88
g69
NtRp1266
(dp1267
g72
(dp1268
sg81
g1262
sg74
(lp1269
g67
(g68
g69
NtRp1270
(dp1271
g72
(dp1272
g80
I3
ssg81
g1266
sg74
(lp1273
S'3'
asbasbasbag67
(g83
g69
NtRp1274
(dp1275
g72
(dp1276
sg81
g1258
sg74
(lp1277
g67
(g88
g69
NtRp1278
(dp1279
g72
(dp1280
sg81
g1274
sg74
(lp1281
g67
(g68
g69
NtRp1282
(dp1283
g72
(dp1284
g80
I3
ssg81
g1278
sg74
(lp1285
S'3'
asbasbasbasbasbasbasbag67
(g83
g69
NtRp1286
(dp1287
g72
(dp1288
sg81
g647
sg74
(lp1289
g67
(g88
g69
NtRp1290
(dp1291
g72
(dp1292
g92
g93
ssg81
g1286
sg74
(lp1293
S'path_info'
p1294
asbag67
(g88
g69
NtRp1295
(dp1296
g72
(dp1297
g99
g100
ssg81
g1286
sg74
(lp1298
S':'
asbag67
(g88
g69
NtRp1299
(dp1300
g72
(dp1301
sg81
g1286
sg74
(lp1302
g67
(g68
g69
NtRp1303
(dp1304
g72
(dp1305
g80
I4
ssg81
g1299
sg74
(lp1306
S'/scrum/ticket/novo'
p1307
asbasbasbag67
(g83
g69
NtRp1308
(dp1309
g72
(dp1310
sg81
g647
sg74
(lp1311
g67
(g88
g69
NtRp1312
(dp1313
g72
(dp1314
g92
g93
ssg81
g1308
sg74
(lp1315
S'path_translated'
p1316
asbag67
(g88
g69
NtRp1317
(dp1318
g72
(dp1319
g99
g100
ssg81
g1308
sg74
(lp1320
S':'
asbag67
(g88
g69
NtRp1321
(dp1322
g72
(dp1323
sg81
g1308
sg74
(lp1324
g67
(g68
g69
NtRp1325
(dp1326
g72
(dp1327
g80
I4
ssg81
g1321
sg74
(lp1328
S'/home/www-data/web2py/wsgihandler.py/scrum/ticket/novo'
p1329
asbasbasbag67
(g83
g69
NtRp1330
(dp1331
g72
(dp1332
sg81
g647
sg74
(lp1333
g67
(g88
g69
NtRp1334
(dp1335
g72
(dp1336
g92
g93
ssg81
g1330
sg74
(lp1337
S'query_string'
p1338
asbag67
(g88
g69
NtRp1339
(dp1340
g72
(dp1341
g99
g100
ssg81
g1330
sg74
(lp1342
S':'
asbag67
(g88
g69
NtRp1343
(dp1344
g72
(dp1345
sg81
g1330
sg74
(lp1346
g67
(g68
g69
NtRp1347
(dp1348
g72
(dp1349
g80
I4
ssg81
g1343
sg74
(lp1350
S''
asbasbasbag67
(g83
g69
NtRp1351
(dp1352
g72
(dp1353
sg81
g647
sg74
(lp1354
g67
(g88
g69
NtRp1355
(dp1356
g72
(dp1357
g92
g93
ssg81
g1351
sg74
(lp1358
S'remote_addr'
p1359
asbag67
(g88
g69
NtRp1360
(dp1361
g72
(dp1362
g99
g100
ssg81
g1351
sg74
(lp1363
S':'
asbag67
(g88
g69
NtRp1364
(dp1365
g72
(dp1366
sg81
g1351
sg74
(lp1367
g67
(g68
g69
NtRp1368
(dp1369
g72
(dp1370
g80
I4
ssg81
g1364
sg74
(lp1371
g200
asbasbasbag67
(g83
g69
NtRp1372
(dp1373
g72
(dp1374
sg81
g647
sg74
(lp1375
g67
(g88
g69
NtRp1376
(dp1377
g72
(dp1378
g92
g93
ssg81
g1372
sg74
(lp1379
S'remote_port'
p1380
asbag67
(g88
g69
NtRp1381
(dp1382
g72
(dp1383
g99
g100
ssg81
g1372
sg74
(lp1384
S':'
asbag67
(g88
g69
NtRp1385
(dp1386
g72
(dp1387
sg81
g1372
sg74
(lp1388
g67
(g68
g69
NtRp1389
(dp1390
g72
(dp1391
g80
I4
ssg81
g1385
sg74
(lp1392
S'50139'
p1393
asbasbasbag67
(g83
g69
NtRp1394
(dp1395
g72
(dp1396
sg81
g647
sg74
(lp1397
g67
(g88
g69
NtRp1398
(dp1399
g72
(dp1400
g92
g93
ssg81
g1394
sg74
(lp1401
S'request_method'
p1402
asbag67
(g88
g69
NtRp1403
(dp1404
g72
(dp1405
g99
g100
ssg81
g1394
sg74
(lp1406
S':'
asbag67
(g88
g69
NtRp1407
(dp1408
g72
(dp1409
sg81
g1394
sg74
(lp1410
g67
(g68
g69
NtRp1411
(dp1412
g72
(dp1413
g80
I4
ssg81
g1407
sg74
(lp1414
S'GET'
p1415
asbasbasbag67
(g83
g69
NtRp1416
(dp1417
g72
(dp1418
sg81
g647
sg74
(lp1419
g67
(g88
g69
NtRp1420
(dp1421
g72
(dp1422
g92
g93
ssg81
g1416
sg74
(lp1423
S'request_uri'
p1424
asbag67
(g88
g69
NtRp1425
(dp1426
g72
(dp1427
g99
g100
ssg81
g1416
sg74
(lp1428
S':'
asbag67
(g88
g69
NtRp1429
(dp1430
g72
(dp1431
sg81
g1416
sg74
(lp1432
g67
(g68
g69
NtRp1433
(dp1434
g72
(dp1435
g80
I4
ssg81
g1429
sg74
(lp1436
S'/scrum/ticket/novo'
p1437
asbasbasbag67
(g83
g69
NtRp1438
(dp1439
g72
(dp1440
sg81
g647
sg74
(lp1441
g67
(g88
g69
NtRp1442
(dp1443
g72
(dp1444
g92
g93
ssg81
g1438
sg74
(lp1445
S'script_filename'
p1446
asbag67
(g88
g69
NtRp1447
(dp1448
g72
(dp1449
g99
g100
ssg81
g1438
sg74
(lp1450
S':'
asbag67
(g88
g69
NtRp1451
(dp1452
g72
(dp1453
sg81
g1438
sg74
(lp1454
g67
(g68
g69
NtRp1455
(dp1456
g72
(dp1457
g80
I4
ssg81
g1451
sg74
(lp1458
S'/home/www-data/web2py/wsgihandler.py'
p1459
asbasbasbag67
(g83
g69
NtRp1460
(dp1461
g72
(dp1462
sg81
g647
sg74
(lp1463
g67
(g88
g69
NtRp1464
(dp1465
g72
(dp1466
g92
g93
ssg81
g1460
sg74
(lp1467
S'script_name'
p1468
asbag67
(g88
g69
NtRp1469
(dp1470
g72
(dp1471
g99
g100
ssg81
g1460
sg74
(lp1472
S':'
asbag67
(g88
g69
NtRp1473
(dp1474
g72
(dp1475
sg81
g1460
sg74
(lp1476
g67
(g68
g69
NtRp1477
(dp1478
g72
(dp1479
g80
I4
ssg81
g1473
sg74
(lp1480
S''
asbasbasbag67
(g83
g69
NtRp1481
(dp1482
g72
(dp1483
sg81
g647
sg74
(lp1484
g67
(g88
g69
NtRp1485
(dp1486
g72
(dp1487
g92
g93
ssg81
g1481
sg74
(lp1488
S'server_addr'
p1489
asbag67
(g88
g69
NtRp1490
(dp1491
g72
(dp1492
g99
g100
ssg81
g1481
sg74
(lp1493
S':'
asbag67
(g88
g69
NtRp1494
(dp1495
g72
(dp1496
sg81
g1481
sg74
(lp1497
g67
(g68
g69
NtRp1498
(dp1499
g72
(dp1500
g80
I4
ssg81
g1494
sg74
(lp1501
S'127.0.0.1'
p1502
asbasbasbag67
(g83
g69
NtRp1503
(dp1504
g72
(dp1505
sg81
g647
sg74
(lp1506
g67
(g88
g69
NtRp1507
(dp1508
g72
(dp1509
g92
g93
ssg81
g1503
sg74
(lp1510
S'server_admin'
p1511
asbag67
(g88
g69
NtRp1512
(dp1513
g72
(dp1514
g99
g100
ssg81
g1503
sg74
(lp1515
S':'
asbag67
(g88
g69
NtRp1516
(dp1517
g72
(dp1518
sg81
g1503
sg74
(lp1519
g67
(g68
g69
NtRp1520
(dp1521
g72
(dp1522
g80
I4
ssg81
g1516
sg74
(lp1523
S'[no address given]'
p1524
asbasbasbag67
(g83
g69
NtRp1525
(dp1526
g72
(dp1527
sg81
g647
sg74
(lp1528
g67
(g88
g69
NtRp1529
(dp1530
g72
(dp1531
g92
g93
ssg81
g1525
sg74
(lp1532
S'server_name'
p1533
asbag67
(g88
g69
NtRp1534
(dp1535
g72
(dp1536
g99
g100
ssg81
g1525
sg74
(lp1537
S':'
asbag67
(g88
g69
NtRp1538
(dp1539
g72
(dp1540
sg81
g1525
sg74
(lp1541
g67
(g68
g69
NtRp1542
(dp1543
g72
(dp1544
g80
I4
ssg81
g1538
sg74
(lp1545
S'localhost'
p1546
asbasbasbag67
(g83
g69
NtRp1547
(dp1548
g72
(dp1549
sg81
g647
sg74
(lp1550
g67
(g88
g69
NtRp1551
(dp1552
g72
(dp1553
g92
g93
ssg81
g1547
sg74
(lp1554
S'server_port'
p1555
asbag67
(g88
g69
NtRp1556
(dp1557
g72
(dp1558
g99
g100
ssg81
g1547
sg74
(lp1559
S':'
asbag67
(g88
g69
NtRp1560
(dp1561
g72
(dp1562
sg81
g1547
sg74
(lp1563
g67
(g68
g69
NtRp1564
(dp1565
g72
(dp1566
g80
I4
ssg81
g1560
sg74
(lp1567
S'443'
p1568
asbasbasbag67
(g83
g69
NtRp1569
(dp1570
g72
(dp1571
sg81
g647
sg74
(lp1572
g67
(g88
g69
NtRp1573
(dp1574
g72
(dp1575
g92
g93
ssg81
g1569
sg74
(lp1576
S'server_protocol'
p1577
asbag67
(g88
g69
NtRp1578
(dp1579
g72
(dp1580
g99
g100
ssg81
g1569
sg74
(lp1581
S':'
asbag67
(g88
g69
NtRp1582
(dp1583
g72
(dp1584
sg81
g1569
sg74
(lp1585
g67
(g68
g69
NtRp1586
(dp1587
g72
(dp1588
g80
I4
ssg81
g1582
sg74
(lp1589
S'HTTP/1.1'
p1590
asbasbasbag67
(g83
g69
NtRp1591
(dp1592
g72
(dp1593
sg81
g647
sg74
(lp1594
g67
(g88
g69
NtRp1595
(dp1596
g72
(dp1597
g92
g93
ssg81
g1591
sg74
(lp1598
S'server_signature'
p1599
asbag67
(g88
g69
NtRp1600
(dp1601
g72
(dp1602
g99
g100
ssg81
g1591
sg74
(lp1603
S':'
asbag67
(g88
g69
NtRp1604
(dp1605
g72
(dp1606
sg81
g1591
sg74
(lp1607
g67
(g68
g69
NtRp1608
(dp1609
g72
(dp1610
g80
I4
ssg81
g1604
sg74
(lp1611
S'<address>Apache/2.2.17 (Ubuntu) Server at localhost Port 443</address>\n'
p1612
asbasbasbag67
(g83
g69
NtRp1613
(dp1614
g72
(dp1615
sg81
g647
sg74
(lp1616
g67
(g88
g69
NtRp1617
(dp1618
g72
(dp1619
g92
g93
ssg81
g1613
sg74
(lp1620
S'server_software'
p1621
asbag67
(g88
g69
NtRp1622
(dp1623
g72
(dp1624
g99
g100
ssg81
g1613
sg74
(lp1625
S':'
asbag67
(g88
g69
NtRp1626
(dp1627
g72
(dp1628
sg81
g1613
sg74
(lp1629
g67
(g68
g69
NtRp1630
(dp1631
g72
(dp1632
g80
I4
ssg81
g1626
sg74
(lp1633
S'Apache/2.2.17 (Ubuntu)'
p1634
asbasbasbag67
(g83
g69
NtRp1635
(dp1636
g72
(dp1637
sg81
g647
sg74
(lp1638
g67
(g88
g69
NtRp1639
(dp1640
g72
(dp1641
g92
g93
ssg81
g1635
sg74
(lp1642
S'ssl_tls_sni'
p1643
asbag67
(g88
g69
NtRp1644
(dp1645
g72
(dp1646
g99
g100
ssg81
g1635
sg74
(lp1647
S':'
asbag67
(g88
g69
NtRp1648
(dp1649
g72
(dp1650
sg81
g1635
sg74
(lp1651
g67
(g68
g69
NtRp1652
(dp1653
g72
(dp1654
g80
I4
ssg81
g1648
sg74
(lp1655
S'localhost'
p1656
asbasbasbag67
(g83
g69
NtRp1657
(dp1658
g72
(dp1659
sg81
g647
sg74
(lp1660
g67
(g88
g69
NtRp1661
(dp1662
g72
(dp1663
g92
g93
ssg81
g1657
sg74
(lp1664
S'web2py_path'
p1665
asbag67
(g88
g69
NtRp1666
(dp1667
g72
(dp1668
g99
g100
ssg81
g1657
sg74
(lp1669
S':'
asbag67
(g88
g69
NtRp1670
(dp1671
g72
(dp1672
sg81
g1657
sg74
(lp1673
g67
(g68
g69
NtRp1674
(dp1675
g72
(dp1676
g80
I4
ssg81
g1670
sg74
(lp1677
g694
asbasbasbag67
(g83
g69
NtRp1678
(dp1679
g72
(dp1680
sg81
g647
sg74
(lp1681
g67
(g88
g69
NtRp1682
(dp1683
g72
(dp1684
g92
g93
ssg81
g1678
sg74
(lp1685
S'web2py_version'
p1686
asbag67
(g88
g69
NtRp1687
(dp1688
g72
(dp1689
g99
g100
ssg81
g1678
sg74
(lp1690
S':'
asbag67
(g88
g69
NtRp1691
(dp1692
g72
(dp1693
sg81
g1678
sg74
(lp1694
g67
(g68
g69
NtRp1695
(dp1696
g72
(dp1697
g80
I4
ssg81
g1691
sg74
(lp1698
S'Version 1.98.2 (2011-08-04 00:47:09)\n'
p1699
asbasbasbag67
(g83
g69
NtRp1700
(dp1701
g72
(dp1702
sg81
g647
sg74
(lp1703
g67
(g88
g69
NtRp1704
(dp1705
g72
(dp1706
g92
g93
ssg81
g1700
sg74
(lp1707
S'wsgi_errors'
p1708
asbag67
(g88
g69
NtRp1709
(dp1710
g72
(dp1711
g99
g100
ssg81
g1700
sg74
(lp1712
S':'
asbag67
(g88
g69
NtRp1713
(dp1714
g72
(dp1715
sg81
g1700
sg74
(lp1716
g67
(g68
g69
NtRp1717
(dp1718
g72
(dp1719
g80
I4
ssg81
g1713
sg74
(lp1720
S'<mod_wsgi.Log object at 0xb940aa48>'
p1721
asbasbasbag67
(g83
g69
NtRp1722
(dp1723
g72
(dp1724
sg81
g647
sg74
(lp1725
g67
(g88
g69
NtRp1726
(dp1727
g72
(dp1728
g92
g93
ssg81
g1722
sg74
(lp1729
S'wsgi_file_wrapper'
p1730
asbag67
(g88
g69
NtRp1731
(dp1732
g72
(dp1733
g99
g100
ssg81
g1722
sg74
(lp1734
S':'
asbag67
(g88
g69
NtRp1735
(dp1736
g72
(dp1737
sg81
g1722
sg74
(lp1738
g67
(g68
g69
NtRp1739
(dp1740
g72
(dp1741
g80
I4
ssg81
g1735
sg74
(lp1742
S'<built-in method file_wrapper of mod_wsgi.Adapter object at 0xb94e9848>'
p1743
asbasbasbag67
(g83
g69
NtRp1744
(dp1745
g72
(dp1746
sg81
g647
sg74
(lp1747
g67
(g88
g69
NtRp1748
(dp1749
g72
(dp1750
g92
g93
ssg81
g1744
sg74
(lp1751
S'wsgi_input'
p1752
asbag67
(g88
g69
NtRp1753
(dp1754
g72
(dp1755
g99
g100
ssg81
g1744
sg74
(lp1756
S':'
asbag67
(g88
g69
NtRp1757
(dp1758
g72
(dp1759
sg81
g1744
sg74
(lp1760
g67
(g68
g69
NtRp1761
(dp1762
g72
(dp1763
g80
I4
ssg81
g1757
sg74
(lp1764
S'<mod_wsgi.Input object at 0xb9e8b458>'
p1765
asbasbasbag67
(g83
g69
NtRp1766
(dp1767
g72
(dp1768
sg81
g647
sg74
(lp1769
g67
(g88
g69
NtRp1770
(dp1771
g72
(dp1772
g92
g93
ssg81
g1766
sg74
(lp1773
S'wsgi_multiprocess'
p1774
asbag67
(g88
g69
NtRp1775
(dp1776
g72
(dp1777
g99
g100
ssg81
g1766
sg74
(lp1778
S':'
asbag67
(g88
g69
NtRp1779
(dp1780
g72
(dp1781
sg81
g1766
sg74
(lp1782
g67
(g68
g69
NtRp1783
(dp1784
g72
(dp1785
g80
I4
ssg81
g1779
sg74
(lp1786
g110
asbasbasbag67
(g83
g69
NtRp1787
(dp1788
g72
(dp1789
sg81
g647
sg74
(lp1790
g67
(g88
g69
NtRp1791
(dp1792
g72
(dp1793
g92
g93
ssg81
g1787
sg74
(lp1794
S'wsgi_multithread'
p1795
asbag67
(g88
g69
NtRp1796
(dp1797
g72
(dp1798
g99
g100
ssg81
g1787
sg74
(lp1799
S':'
asbag67
(g88
g69
NtRp1800
(dp1801
g72
(dp1802
sg81
g1787
sg74
(lp1803
g67
(g68
g69
NtRp1804
(dp1805
g72
(dp1806
g80
I4
ssg81
g1800
sg74
(lp1807
S'True'
p1808
asbasbasbag67
(g83
g69
NtRp1809
(dp1810
g72
(dp1811
sg81
g647
sg74
(lp1812
g67
(g88
g69
NtRp1813
(dp1814
g72
(dp1815
g92
g93
ssg81
g1809
sg74
(lp1816
S'wsgi_run_once'
p1817
asbag67
(g88
g69
NtRp1818
(dp1819
g72
(dp1820
g99
g100
ssg81
g1809
sg74
(lp1821
S':'
asbag67
(g88
g69
NtRp1822
(dp1823
g72
(dp1824
sg81
g1809
sg74
(lp1825
g67
(g68
g69
NtRp1826
(dp1827
g72
(dp1828
g80
I4
ssg81
g1822
sg74
(lp1829
g110
asbasbasbag67
(g83
g69
NtRp1830
(dp1831
g72
(dp1832
sg81
g647
sg74
(lp1833
g67
(g88
g69
NtRp1834
(dp1835
g72
(dp1836
g92
g93
ssg81
g1830
sg74
(lp1837
S'wsgi_url_scheme'
p1838
asbag67
(g88
g69
NtRp1839
(dp1840
g72
(dp1841
g99
g100
ssg81
g1830
sg74
(lp1842
S':'
asbag67
(g88
g69
NtRp1843
(dp1844
g72
(dp1845
sg81
g1830
sg74
(lp1846
g67
(g68
g69
NtRp1847
(dp1848
g72
(dp1849
g80
I4
ssg81
g1843
sg74
(lp1850
S'https'
p1851
asbasbasbag67
(g83
g69
NtRp1852
(dp1853
g72
(dp1854
sg81
g647
sg74
(lp1855
g67
(g88
g69
NtRp1856
(dp1857
g72
(dp1858
g92
g93
ssg81
g1852
sg74
(lp1859
S'wsgi_version'
p1860
asbag67
(g88
g69
NtRp1861
(dp1862
g72
(dp1863
g99
g100
ssg81
g1852
sg74
(lp1864
S':'
asbag67
(g88
g69
NtRp1865
(dp1866
g72
(dp1867
sg81
g1852
sg74
(lp1868
g67
(g68
g69
NtRp1869
(dp1870
g72
(dp1871
g80
I4
ssg81
g1865
sg74
(lp1872
g67
(g76
g69
NtRp1873
(dp1874
g72
(dp1875
g80
I3
ssg81
Nsg74
(lp1876
g67
(g83
g69
NtRp1877
(dp1878
g72
(dp1879
sg81
g1873
sg74
(lp1880
g67
(g88
g69
NtRp1881
(dp1882
g72
(dp1883
sg81
g1877
sg74
(lp1884
g67
(g68
g69
NtRp1885
(dp1886
g72
(dp1887
g80
I3
ssg81
g1881
sg74
(lp1888
S'1'
asbasbasbag67
(g83
g69
NtRp1889
(dp1890
g72
(dp1891
sg81
g1873
sg74
(lp1892
g67
(g88
g69
NtRp1893
(dp1894
g72
(dp1895
sg81
g1889
sg74
(lp1896
g67
(g68
g69
NtRp1897
(dp1898
g72
(dp1899
g80
I3
ssg81
g1893
sg74
(lp1900
S'1'
asbasbasbasbasbasbasbasbasbasbasbag67
(g83
g69
NtRp1901
(dp1902
g72
(dp1903
sg81
g77
sg74
(lp1904
g67
(g88
g69
NtRp1905
(dp1906
g72
(dp1907
g92
g93
ssg81
g1901
sg74
(lp1908
S'extension'
p1909
asbag67
(g88
g69
NtRp1910
(dp1911
g72
(dp1912
g99
g100
ssg81
g1901
sg74
(lp1913
S':'
asbag67
(g88
g69
NtRp1914
(dp1915
g72
(dp1916
sg81
g1901
sg74
(lp1917
g67
(g68
g69
NtRp1918
(dp1919
g72
(dp1920
g80
I5
ssg81
g1914
sg74
(lp1921
S'html'
p1922
asbasbasbag67
(g83
g69
NtRp1923
(dp1924
g72
(dp1925
sg81
g77
sg74
(lp1926
g67
(g88
g69
NtRp1927
(dp1928
g72
(dp1929
g92
g93
ssg81
g1923
sg74
(lp1930
S'folder'
p1931
asbag67
(g88
g69
NtRp1932
(dp1933
g72
(dp1934
g99
g100
ssg81
g1923
sg74
(lp1935
S':'
asbag67
(g88
g69
NtRp1936
(dp1937
g72
(dp1938
sg81
g1923
sg74
(lp1939
g67
(g68
g69
NtRp1940
(dp1941
g72
(dp1942
g80
I5
ssg81
g1936
sg74
(lp1943
S'/home/www-data/web2py/applications/scrum/'
p1944
asbasbasbag67
(g83
g69
NtRp1945
(dp1946
g72
(dp1947
sg81
g77
sg74
(lp1948
g67
(g88
g69
NtRp1949
(dp1950
g72
(dp1951
g92
g93
ssg81
g1945
sg74
(lp1952
S'function'
p1953
asbag67
(g88
g69
NtRp1954
(dp1955
g72
(dp1956
g99
g100
ssg81
g1945
sg74
(lp1957
S':'
asbag67
(g88
g69
NtRp1958
(dp1959
g72
(dp1960
sg81
g1945
sg74
(lp1961
g67
(g68
g69
NtRp1962
(dp1963
g72
(dp1964
g80
I5
ssg81
g1958
sg74
(lp1965
S'novo'
p1966
asbasbasbag67
(g83
g69
NtRp1967
(dp1968
g72
(dp1969
sg81
g77
sg74
(lp1970
g67
(g88
g69
NtRp1971
(dp1972
g72
(dp1973
g92
g93
ssg81
g1967
sg74
(lp1974
S'get_vars'
p1975
asbag67
(g88
g69
NtRp1976
(dp1977
g72
(dp1978
g99
g100
ssg81
g1967
sg74
(lp1979
S':'
asbag67
(g88
g69
NtRp1980
(dp1981
g72
(dp1982
sg81
g1967
sg74
(lp1983
g67
(g68
g69
NtRp1984
(dp1985
g72
(dp1986
g80
I5
ssg81
g1980
sg74
(lp1987
g67
(g76
g69
NtRp1988
(dp1989
g72
(dp1990
g80
I4
ssg81
Nsg74
(lp1991
sbasbasbasbag67
(g83
g69
NtRp1992
(dp1993
g72
(dp1994
sg81
g77
sg74
(lp1995
g67
(g88
g69
NtRp1996
(dp1997
g72
(dp1998
g92
g93
ssg81
g1992
sg74
(lp1999
S'is_https'
p2000
asbag67
(g88
g69
NtRp2001
(dp2002
g72
(dp2003
g99
g100
ssg81
g1992
sg74
(lp2004
S':'
asbag67
(g88
g69
NtRp2005
(dp2006
g72
(dp2007
sg81
g1992
sg74
(lp2008
g67
(g68
g69
NtRp2009
(dp2010
g72
(dp2011
g80
I5
ssg81
g2005
sg74
(lp2012
g1808
asbasbasbag67
(g83
g69
NtRp2013
(dp2014
g72
(dp2015
sg81
g77
sg74
(lp2016
g67
(g88
g69
NtRp2017
(dp2018
g72
(dp2019
g92
g93
ssg81
g2013
sg74
(lp2020
S'is_local'
p2021
asbag67
(g88
g69
NtRp2022
(dp2023
g72
(dp2024
g99
g100
ssg81
g2013
sg74
(lp2025
S':'
asbag67
(g88
g69
NtRp2026
(dp2027
g72
(dp2028
sg81
g2013
sg74
(lp2029
g67
(g68
g69
NtRp2030
(dp2031
g72
(dp2032
g80
I5
ssg81
g2026
sg74
(lp2033
g1808
asbasbasbag67
(g83
g69
NtRp2034
(dp2035
g72
(dp2036
sg81
g77
sg74
(lp2037
g67
(g88
g69
NtRp2038
(dp2039
g72
(dp2040
g92
g93
ssg81
g2034
sg74
(lp2041
S'is_restful'
p2042
asbag67
(g88
g69
NtRp2043
(dp2044
g72
(dp2045
g99
g100
ssg81
g2034
sg74
(lp2046
S':'
asbag67
(g88
g69
NtRp2047
(dp2048
g72
(dp2049
sg81
g2034
sg74
(lp2050
g67
(g68
g69
NtRp2051
(dp2052
g72
(dp2053
g80
I5
ssg81
g2047
sg74
(lp2054
g110
asbasbasbag67
(g83
g69
NtRp2055
(dp2056
g72
(dp2057
sg81
g77
sg74
(lp2058
g67
(g88
g69
NtRp2059
(dp2060
g72
(dp2061
g92
g93
ssg81
g2055
sg74
(lp2062
S'now'
p2063
asbag67
(g88
g69
NtRp2064
(dp2065
g72
(dp2066
g99
g100
ssg81
g2055
sg74
(lp2067
S':'
asbag67
(g88
g69
NtRp2068
(dp2069
g72
(dp2070
sg81
g2055
sg74
(lp2071
g67
(g68
g69
NtRp2072
(dp2073
g72
(dp2074
g80
I5
ssg81
g2068
sg74
(lp2075
S'datetime.datetime(2011, 9, 8, 15, 40, 48, 469199)'
p2076
asbasbasbag67
(g83
g69
NtRp2077
(dp2078
g72
(dp2079
sg81
g77
sg74
(lp2080
g67
(g88
g69
NtRp2081
(dp2082
g72
(dp2083
g92
g93
ssg81
g2077
sg74
(lp2084
S'post_vars'
p2085
asbag67
(g88
g69
NtRp2086
(dp2087
g72
(dp2088
g99
g100
ssg81
g2077
sg74
(lp2089
S':'
asbag67
(g88
g69
NtRp2090
(dp2091
g72
(dp2092
sg81
g2077
sg74
(lp2093
g67
(g68
g69
NtRp2094
(dp2095
g72
(dp2096
g80
I5
ssg81
g2090
sg74
(lp2097
g67
(g76
g69
NtRp2098
(dp2099
g72
(dp2100
g80
I4
ssg81
Nsg74
(lp2101
sbasbasbasbag67
(g83
g69
NtRp2102
(dp2103
g72
(dp2104
sg81
g77
sg74
(lp2105
g67
(g88
g69
NtRp2106
(dp2107
g72
(dp2108
g92
g93
ssg81
g2102
sg74
(lp2109
S'url'
p2110
asbag67
(g88
g69
NtRp2111
(dp2112
g72
(dp2113
g99
g100
ssg81
g2102
sg74
(lp2114
S':'
asbag67
(g88
g69
NtRp2115
(dp2116
g72
(dp2117
sg81
g2102
sg74
(lp2118
g67
(g68
g69
NtRp2119
(dp2120
g72
(dp2121
g80
I5
ssg81
g2115
sg74
(lp2122
S'/scrum/ticket/novo'
p2123
asbasbasbag67
(g83
g69
NtRp2124
(dp2125
g72
(dp2126
sg81
g77
sg74
(lp2127
g67
(g88
g69
NtRp2128
(dp2129
g72
(dp2130
g92
g93
ssg81
g2124
sg74
(lp2131
S'uuid'
p2132
asbag67
(g88
g69
NtRp2133
(dp2134
g72
(dp2135
g99
g100
ssg81
g2124
sg74
(lp2136
S':'
asbag67
(g88
g69
NtRp2137
(dp2138
g72
(dp2139
sg81
g2124
sg74
(lp2140
g67
(g68
g69
NtRp2141
(dp2142
g72
(dp2143
g80
I5
ssg81
g2137
sg74
(lp2144
S'scrum/127.0.0.1.2011-09-08.15-40-48.807b132d-0f52-45ee-b5bd-1925a12418c8'
p2145
asbasbasbag67
(g83
g69
NtRp2146
(dp2147
g72
(dp2148
sg81
g77
sg74
(lp2149
g67
(g88
g69
NtRp2150
(dp2151
g72
(dp2152
g92
g93
ssg81
g2146
sg74
(lp2153
S'vars'
p2154
asbag67
(g88
g69
NtRp2155
(dp2156
g72
(dp2157
g99
g100
ssg81
g2146
sg74
(lp2158
S':'
asbag67
(g88
g69
NtRp2159
(dp2160
g72
(dp2161
sg81
g2146
sg74
(lp2162
g67
(g68
g69
NtRp2163
(dp2164
g72
(dp2165
g80
I5
ssg81
g2159
sg74
(lp2166
g67
(g76
g69
NtRp2167
(dp2168
g72
(dp2169
g80
I4
ssg81
Nsg74
(lp2170
sbasbasbasbag67
(g83
g69
NtRp2171
(dp2172
g72
(dp2173
sg81
g77
sg74
(lp2174
g67
(g88
g69
NtRp2175
(dp2176
g72
(dp2177
g92
g93
ssg81
g2171
sg74
(lp2178
S'wsgi'
p2179
asbag67
(g88
g69
NtRp2180
(dp2181
g72
(dp2182
g99
g100
ssg81
g2171
sg74
(lp2183
S':'
asbag67
(g88
g69
NtRp2184
(dp2185
g72
(dp2186
sg81
g2171
sg74
(lp2187
g67
(g68
g69
NtRp2188
(dp2189
g72
(dp2190
g80
I5
ssg81
g2184
sg74
(lp2191
g67
(g76
g69
NtRp2192
(dp2193
g72
(dp2194
g80
I4
ssg81
Nsg74
(lp2195
g67
(g83
g69
NtRp2196
(dp2197
g72
(dp2198
sg81
g2192
sg74
(lp2199
g67
(g88
g69
NtRp2200
(dp2201
g72
(dp2202
g92
g93
ssg81
g2196
sg74
(lp2203
S'environ'
p2204
asbag67
(g88
g69
NtRp2205
(dp2206
g72
(dp2207
g99
g100
ssg81
g2196
sg74
(lp2208
S':'
asbag67
(g88
g69
NtRp2209
(dp2210
g72
(dp2211
sg81
g2196
sg74
(lp2212
g67
(g68
g69
NtRp2213
(dp2214
g72
(dp2215
g80
I4
ssg81
g2209
sg74
(lp2216
g67
(g76
g69
NtRp2217
(dp2218
g72
(dp2219
g80
I3
ssg81
Nsg74
(lp2220
g67
(g83
g69
NtRp2221
(dp2222
g72
(dp2223
sg81
g2217
sg74
(lp2224
g67
(g88
g69
NtRp2225
(dp2226
g72
(dp2227
g92
g93
ssg81
g2221
sg74
(lp2228
S'DOCUMENT_ROOT'
p2229
asbag67
(g88
g69
NtRp2230
(dp2231
g72
(dp2232
g99
g100
ssg81
g2221
sg74
(lp2233
S':'
asbag67
(g88
g69
NtRp2234
(dp2235
g72
(dp2236
sg81
g2221
sg74
(lp2237
g67
(g68
g69
NtRp2238
(dp2239
g72
(dp2240
g80
I3
ssg81
g2234
sg74
(lp2241
g759
asbasbasbag67
(g83
g69
NtRp2242
(dp2243
g72
(dp2244
sg81
g2217
sg74
(lp2245
g67
(g88
g69
NtRp2246
(dp2247
g72
(dp2248
g92
g93
ssg81
g2242
sg74
(lp2249
S'GATEWAY_INTERFACE'
p2250
asbag67
(g88
g69
NtRp2251
(dp2252
g72
(dp2253
g99
g100
ssg81
g2242
sg74
(lp2254
S':'
asbag67
(g88
g69
NtRp2255
(dp2256
g72
(dp2257
sg81
g2242
sg74
(lp2258
g67
(g68
g69
NtRp2259
(dp2260
g72
(dp2261
g80
I3
ssg81
g2255
sg74
(lp2262
g781
asbasbasbag67
(g83
g69
NtRp2263
(dp2264
g72
(dp2265
sg81
g2217
sg74
(lp2266
g67
(g88
g69
NtRp2267
(dp2268
g72
(dp2269
g92
g93
ssg81
g2263
sg74
(lp2270
S'HTTPS'
p2271
asbag67
(g88
g69
NtRp2272
(dp2273
g72
(dp2274
g99
g100
ssg81
g2263
sg74
(lp2275
S':'
asbag67
(g88
g69
NtRp2276
(dp2277
g72
(dp2278
sg81
g2263
sg74
(lp2279
g67
(g68
g69
NtRp2280
(dp2281
g72
(dp2282
g80
I3
ssg81
g2276
sg74
(lp2283
S'1'
asbasbasbag67
(g83
g69
NtRp2284
(dp2285
g72
(dp2286
sg81
g2217
sg74
(lp2287
g67
(g88
g69
NtRp2288
(dp2289
g72
(dp2290
g92
g93
ssg81
g2284
sg74
(lp2291
S'HTTP_ACCEPT'
p2292
asbag67
(g88
g69
NtRp2293
(dp2294
g72
(dp2295
g99
g100
ssg81
g2284
sg74
(lp2296
S':'
asbag67
(g88
g69
NtRp2297
(dp2298
g72
(dp2299
sg81
g2284
sg74
(lp2300
g67
(g68
g69
NtRp2301
(dp2302
g72
(dp2303
g80
I3
ssg81
g2297
sg74
(lp2304
g824
asbasbasbag67
(g83
g69
NtRp2305
(dp2306
g72
(dp2307
sg81
g2217
sg74
(lp2308
g67
(g88
g69
NtRp2309
(dp2310
g72
(dp2311
g92
g93
ssg81
g2305
sg74
(lp2312
S'HTTP_ACCEPT_ENCODING'
p2313
asbag67
(g88
g69
NtRp2314
(dp2315
g72
(dp2316
g99
g100
ssg81
g2305
sg74
(lp2317
S':'
asbag67
(g88
g69
NtRp2318
(dp2319
g72
(dp2320
sg81
g2305
sg74
(lp2321
g67
(g68
g69
NtRp2322
(dp2323
g72
(dp2324
g80
I3
ssg81
g2318
sg74
(lp2325
g846
asbasbasbag67
(g83
g69
NtRp2326
(dp2327
g72
(dp2328
sg81
g2217
sg74
(lp2329
g67
(g88
g69
NtRp2330
(dp2331
g72
(dp2332
g92
g93
ssg81
g2326
sg74
(lp2333
S'HTTP_ACCEPT_LANGUAGE'
p2334
asbag67
(g88
g69
NtRp2335
(dp2336
g72
(dp2337
g99
g100
ssg81
g2326
sg74
(lp2338
S':'
asbag67
(g88
g69
NtRp2339
(dp2340
g72
(dp2341
sg81
g2326
sg74
(lp2342
g67
(g68
g69
NtRp2343
(dp2344
g72
(dp2345
g80
I3
ssg81
g2339
sg74
(lp2346
g868
asbasbasbag67
(g83
g69
NtRp2347
(dp2348
g72
(dp2349
sg81
g2217
sg74
(lp2350
g67
(g88
g69
NtRp2351
(dp2352
g72
(dp2353
g92
g93
ssg81
g2347
sg74
(lp2354
S'HTTP_CACHE_CONTROL'
p2355
asbag67
(g88
g69
NtRp2356
(dp2357
g72
(dp2358
g99
g100
ssg81
g2347
sg74
(lp2359
S':'
asbag67
(g88
g69
NtRp2360
(dp2361
g72
(dp2362
sg81
g2347
sg74
(lp2363
g67
(g68
g69
NtRp2364
(dp2365
g72
(dp2366
g80
I3
ssg81
g2360
sg74
(lp2367
g890
asbasbasbag67
(g83
g69
NtRp2368
(dp2369
g72
(dp2370
sg81
g2217
sg74
(lp2371
g67
(g88
g69
NtRp2372
(dp2373
g72
(dp2374
g92
g93
ssg81
g2368
sg74
(lp2375
S'HTTP_CONNECTION'
p2376
asbag67
(g88
g69
NtRp2377
(dp2378
g72
(dp2379
g99
g100
ssg81
g2368
sg74
(lp2380
S':'
asbag67
(g88
g69
NtRp2381
(dp2382
g72
(dp2383
sg81
g2368
sg74
(lp2384
g67
(g68
g69
NtRp2385
(dp2386
g72
(dp2387
g80
I3
ssg81
g2381
sg74
(lp2388
g912
asbasbasbag67
(g83
g69
NtRp2389
(dp2390
g72
(dp2391
sg81
g2217
sg74
(lp2392
g67
(g88
g69
NtRp2393
(dp2394
g72
(dp2395
g92
g93
ssg81
g2389
sg74
(lp2396
S'HTTP_COOKIE'
p2397
asbag67
(g88
g69
NtRp2398
(dp2399
g72
(dp2400
g99
g100
ssg81
g2389
sg74
(lp2401
S':'
asbag67
(g88
g69
NtRp2402
(dp2403
g72
(dp2404
sg81
g2389
sg74
(lp2405
g67
(g68
g69
NtRp2406
(dp2407
g72
(dp2408
g80
I3
ssg81
g2402
sg74
(lp2409
g934
asbasbasbag67
(g83
g69
NtRp2410
(dp2411
g72
(dp2412
sg81
g2217
sg74
(lp2413
g67
(g88
g69
NtRp2414
(dp2415
g72
(dp2416
g92
g93
ssg81
g2410
sg74
(lp2417
S'HTTP_HOST'
p2418
asbag67
(g88
g69
NtRp2419
(dp2420
g72
(dp2421
g99
g100
ssg81
g2410
sg74
(lp2422
S':'
asbag67
(g88
g69
NtRp2423
(dp2424
g72
(dp2425
sg81
g2410
sg74
(lp2426
g67
(g68
g69
NtRp2427
(dp2428
g72
(dp2429
g80
I3
ssg81
g2423
sg74
(lp2430
g956
asbasbasbag67
(g83
g69
NtRp2431
(dp2432
g72
(dp2433
sg81
g2217
sg74
(lp2434
g67
(g88
g69
NtRp2435
(dp2436
g72
(dp2437
g92
g93
ssg81
g2431
sg74
(lp2438
S'HTTP_REFERER'
p2439
asbag67
(g88
g69
NtRp2440
(dp2441
g72
(dp2442
g99
g100
ssg81
g2431
sg74
(lp2443
S':'
asbag67
(g88
g69
NtRp2444
(dp2445
g72
(dp2446
sg81
g2431
sg74
(lp2447
g67
(g68
g69
NtRp2448
(dp2449
g72
(dp2450
g80
I3
ssg81
g2444
sg74
(lp2451
g978
asbasbasbag67
(g83
g69
NtRp2452
(dp2453
g72
(dp2454
sg81
g2217
sg74
(lp2455
g67
(g88
g69
NtRp2456
(dp2457
g72
(dp2458
g92
g93
ssg81
g2452
sg74
(lp2459
S'HTTP_USER_AGENT'
p2460
asbag67
(g88
g69
NtRp2461
(dp2462
g72
(dp2463
g99
g100
ssg81
g2452
sg74
(lp2464
S':'
asbag67
(g88
g69
NtRp2465
(dp2466
g72
(dp2467
sg81
g2452
sg74
(lp2468
g67
(g68
g69
NtRp2469
(dp2470
g72
(dp2471
g80
I3
ssg81
g2465
sg74
(lp2472
g1000
asbasbasbag67
(g83
g69
NtRp2473
(dp2474
g72
(dp2475
sg81
g2217
sg74
(lp2476
g67
(g88
g69
NtRp2477
(dp2478
g72
(dp2479
g92
g93
ssg81
g2473
sg74
(lp2480
S'PATH_INFO'
p2481
asbag67
(g88
g69
NtRp2482
(dp2483
g72
(dp2484
g99
g100
ssg81
g2473
sg74
(lp2485
S':'
asbag67
(g88
g69
NtRp2486
(dp2487
g72
(dp2488
sg81
g2473
sg74
(lp2489
g67
(g68
g69
NtRp2490
(dp2491
g72
(dp2492
g80
I3
ssg81
g2486
sg74
(lp2493
g1307
asbasbasbag67
(g83
g69
NtRp2494
(dp2495
g72
(dp2496
sg81
g2217
sg74
(lp2497
g67
(g88
g69
NtRp2498
(dp2499
g72
(dp2500
g92
g93
ssg81
g2494
sg74
(lp2501
S'PATH_TRANSLATED'
p2502
asbag67
(g88
g69
NtRp2503
(dp2504
g72
(dp2505
g99
g100
ssg81
g2494
sg74
(lp2506
S':'
asbag67
(g88
g69
NtRp2507
(dp2508
g72
(dp2509
sg81
g2494
sg74
(lp2510
g67
(g68
g69
NtRp2511
(dp2512
g72
(dp2513
g80
I3
ssg81
g2507
sg74
(lp2514
g1329
asbasbasbag67
(g83
g69
NtRp2515
(dp2516
g72
(dp2517
sg81
g2217
sg74
(lp2518
g67
(g88
g69
NtRp2519
(dp2520
g72
(dp2521
g92
g93
ssg81
g2515
sg74
(lp2522
S'QUERY_STRING'
p2523
asbag67
(g88
g69
NtRp2524
(dp2525
g72
(dp2526
g99
g100
ssg81
g2515
sg74
(lp2527
S':'
asbag67
(g88
g69
NtRp2528
(dp2529
g72
(dp2530
sg81
g2515
sg74
(lp2531
g67
(g68
g69
NtRp2532
(dp2533
g72
(dp2534
g80
I3
ssg81
g2528
sg74
(lp2535
S''
asbasbasbag67
(g83
g69
NtRp2536
(dp2537
g72
(dp2538
sg81
g2217
sg74
(lp2539
g67
(g88
g69
NtRp2540
(dp2541
g72
(dp2542
g92
g93
ssg81
g2536
sg74
(lp2543
S'REMOTE_ADDR'
p2544
asbag67
(g88
g69
NtRp2545
(dp2546
g72
(dp2547
g99
g100
ssg81
g2536
sg74
(lp2548
S':'
asbag67
(g88
g69
NtRp2549
(dp2550
g72
(dp2551
sg81
g2536
sg74
(lp2552
g67
(g68
g69
NtRp2553
(dp2554
g72
(dp2555
g80
I3
ssg81
g2549
sg74
(lp2556
g200
asbasbasbag67
(g83
g69
NtRp2557
(dp2558
g72
(dp2559
sg81
g2217
sg74
(lp2560
g67
(g88
g69
NtRp2561
(dp2562
g72
(dp2563
g92
g93
ssg81
g2557
sg74
(lp2564
S'REMOTE_PORT'
p2565
asbag67
(g88
g69
NtRp2566
(dp2567
g72
(dp2568
g99
g100
ssg81
g2557
sg74
(lp2569
S':'
asbag67
(g88
g69
NtRp2570
(dp2571
g72
(dp2572
sg81
g2557
sg74
(lp2573
g67
(g68
g69
NtRp2574
(dp2575
g72
(dp2576
g80
I3
ssg81
g2570
sg74
(lp2577
g1393
asbasbasbag67
(g83
g69
NtRp2578
(dp2579
g72
(dp2580
sg81
g2217
sg74
(lp2581
g67
(g88
g69
NtRp2582
(dp2583
g72
(dp2584
g92
g93
ssg81
g2578
sg74
(lp2585
S'REQUEST_METHOD'
p2586
asbag67
(g88
g69
NtRp2587
(dp2588
g72
(dp2589
g99
g100
ssg81
g2578
sg74
(lp2590
S':'
asbag67
(g88
g69
NtRp2591
(dp2592
g72
(dp2593
sg81
g2578
sg74
(lp2594
g67
(g68
g69
NtRp2595
(dp2596
g72
(dp2597
g80
I3
ssg81
g2591
sg74
(lp2598
g1415
asbasbasbag67
(g83
g69
NtRp2599
(dp2600
g72
(dp2601
sg81
g2217
sg74
(lp2602
g67
(g88
g69
NtRp2603
(dp2604
g72
(dp2605
g92
g93
ssg81
g2599
sg74
(lp2606
S'REQUEST_URI'
p2607
asbag67
(g88
g69
NtRp2608
(dp2609
g72
(dp2610
g99
g100
ssg81
g2599
sg74
(lp2611
S':'
asbag67
(g88
g69
NtRp2612
(dp2613
g72
(dp2614
sg81
g2599
sg74
(lp2615
g67
(g68
g69
NtRp2616
(dp2617
g72
(dp2618
g80
I3
ssg81
g2612
sg74
(lp2619
g1437
asbasbasbag67
(g83
g69
NtRp2620
(dp2621
g72
(dp2622
sg81
g2217
sg74
(lp2623
g67
(g88
g69
NtRp2624
(dp2625
g72
(dp2626
g92
g93
ssg81
g2620
sg74
(lp2627
S'SCRIPT_FILENAME'
p2628
asbag67
(g88
g69
NtRp2629
(dp2630
g72
(dp2631
g99
g100
ssg81
g2620
sg74
(lp2632
S':'
asbag67
(g88
g69
NtRp2633
(dp2634
g72
(dp2635
sg81
g2620
sg74
(lp2636
g67
(g68
g69
NtRp2637
(dp2638
g72
(dp2639
g80
I3
ssg81
g2633
sg74
(lp2640
g1459
asbasbasbag67
(g83
g69
NtRp2641
(dp2642
g72
(dp2643
sg81
g2217
sg74
(lp2644
g67
(g88
g69
NtRp2645
(dp2646
g72
(dp2647
g92
g93
ssg81
g2641
sg74
(lp2648
S'SCRIPT_NAME'
p2649
asbag67
(g88
g69
NtRp2650
(dp2651
g72
(dp2652
g99
g100
ssg81
g2641
sg74
(lp2653
S':'
asbag67
(g88
g69
NtRp2654
(dp2655
g72
(dp2656
sg81
g2641
sg74
(lp2657
g67
(g68
g69
NtRp2658
(dp2659
g72
(dp2660
g80
I3
ssg81
g2654
sg74
(lp2661
S''
asbasbasbag67
(g83
g69
NtRp2662
(dp2663
g72
(dp2664
sg81
g2217
sg74
(lp2665
g67
(g88
g69
NtRp2666
(dp2667
g72
(dp2668
g92
g93
ssg81
g2662
sg74
(lp2669
S'SERVER_ADDR'
p2670
asbag67
(g88
g69
NtRp2671
(dp2672
g72
(dp2673
g99
g100
ssg81
g2662
sg74
(lp2674
S':'
asbag67
(g88
g69
NtRp2675
(dp2676
g72
(dp2677
sg81
g2662
sg74
(lp2678
g67
(g68
g69
NtRp2679
(dp2680
g72
(dp2681
g80
I3
ssg81
g2675
sg74
(lp2682
g1502
asbasbasbag67
(g83
g69
NtRp2683
(dp2684
g72
(dp2685
sg81
g2217
sg74
(lp2686
g67
(g88
g69
NtRp2687
(dp2688
g72
(dp2689
g92
g93
ssg81
g2683
sg74
(lp2690
S'SERVER_ADMIN'
p2691
asbag67
(g88
g69
NtRp2692
(dp2693
g72
(dp2694
g99
g100
ssg81
g2683
sg74
(lp2695
S':'
asbag67
(g88
g69
NtRp2696
(dp2697
g72
(dp2698
sg81
g2683
sg74
(lp2699
g67
(g68
g69
NtRp2700
(dp2701
g72
(dp2702
g80
I3
ssg81
g2696
sg74
(lp2703
g1524
asbasbasbag67
(g83
g69
NtRp2704
(dp2705
g72
(dp2706
sg81
g2217
sg74
(lp2707
g67
(g88
g69
NtRp2708
(dp2709
g72
(dp2710
g92
g93
ssg81
g2704
sg74
(lp2711
S'SERVER_NAME'
p2712
asbag67
(g88
g69
NtRp2713
(dp2714
g72
(dp2715
g99
g100
ssg81
g2704
sg74
(lp2716
S':'
asbag67
(g88
g69
NtRp2717
(dp2718
g72
(dp2719
sg81
g2704
sg74
(lp2720
g67
(g68
g69
NtRp2721
(dp2722
g72
(dp2723
g80
I3
ssg81
g2717
sg74
(lp2724
g1546
asbasbasbag67
(g83
g69
NtRp2725
(dp2726
g72
(dp2727
sg81
g2217
sg74
(lp2728
g67
(g88
g69
NtRp2729
(dp2730
g72
(dp2731
g92
g93
ssg81
g2725
sg74
(lp2732
S'SERVER_PORT'
p2733
asbag67
(g88
g69
NtRp2734
(dp2735
g72
(dp2736
g99
g100
ssg81
g2725
sg74
(lp2737
S':'
asbag67
(g88
g69
NtRp2738
(dp2739
g72
(dp2740
sg81
g2725
sg74
(lp2741
g67
(g68
g69
NtRp2742
(dp2743
g72
(dp2744
g80
I3
ssg81
g2738
sg74
(lp2745
g1568
asbasbasbag67
(g83
g69
NtRp2746
(dp2747
g72
(dp2748
sg81
g2217
sg74
(lp2749
g67
(g88
g69
NtRp2750
(dp2751
g72
(dp2752
g92
g93
ssg81
g2746
sg74
(lp2753
S'SERVER_PROTOCOL'
p2754
asbag67
(g88
g69
NtRp2755
(dp2756
g72
(dp2757
g99
g100
ssg81
g2746
sg74
(lp2758
S':'
asbag67
(g88
g69
NtRp2759
(dp2760
g72
(dp2761
sg81
g2746
sg74
(lp2762
g67
(g68
g69
NtRp2763
(dp2764
g72
(dp2765
g80
I3
ssg81
g2759
sg74
(lp2766
g1590
asbasbasbag67
(g83
g69
NtRp2767
(dp2768
g72
(dp2769
sg81
g2217
sg74
(lp2770
g67
(g88
g69
NtRp2771
(dp2772
g72
(dp2773
g92
g93
ssg81
g2767
sg74
(lp2774
S'SERVER_SIGNATURE'
p2775
asbag67
(g88
g69
NtRp2776
(dp2777
g72
(dp2778
g99
g100
ssg81
g2767
sg74
(lp2779
S':'
asbag67
(g88
g69
NtRp2780
(dp2781
g72
(dp2782
sg81
g2767
sg74
(lp2783
g67
(g68
g69
NtRp2784
(dp2785
g72
(dp2786
g80
I3
ssg81
g2780
sg74
(lp2787
g1612
asbasbasbag67
(g83
g69
NtRp2788
(dp2789
g72
(dp2790
sg81
g2217
sg74
(lp2791
g67
(g88
g69
NtRp2792
(dp2793
g72
(dp2794
g92
g93
ssg81
g2788
sg74
(lp2795
S'SERVER_SOFTWARE'
p2796
asbag67
(g88
g69
NtRp2797
(dp2798
g72
(dp2799
g99
g100
ssg81
g2788
sg74
(lp2800
S':'
asbag67
(g88
g69
NtRp2801
(dp2802
g72
(dp2803
sg81
g2788
sg74
(lp2804
g67
(g68
g69
NtRp2805
(dp2806
g72
(dp2807
g80
I3
ssg81
g2801
sg74
(lp2808
g1634
asbasbasbag67
(g83
g69
NtRp2809
(dp2810
g72
(dp2811
sg81
g2217
sg74
(lp2812
g67
(g88
g69
NtRp2813
(dp2814
g72
(dp2815
g92
g93
ssg81
g2809
sg74
(lp2816
S'SSL_TLS_SNI'
p2817
asbag67
(g88
g69
NtRp2818
(dp2819
g72
(dp2820
g99
g100
ssg81
g2809
sg74
(lp2821
S':'
asbag67
(g88
g69
NtRp2822
(dp2823
g72
(dp2824
sg81
g2809
sg74
(lp2825
g67
(g68
g69
NtRp2826
(dp2827
g72
(dp2828
g80
I3
ssg81
g2822
sg74
(lp2829
g1656
asbasbasbag67
(g83
g69
NtRp2830
(dp2831
g72
(dp2832
sg81
g2217
sg74
(lp2833
g67
(g88
g69
NtRp2834
(dp2835
g72
(dp2836
g92
g93
ssg81
g2830
sg74
(lp2837
S'mod_wsgi.application_group'
p2838
asbag67
(g88
g69
NtRp2839
(dp2840
g72
(dp2841
g99
g100
ssg81
g2830
sg74
(lp2842
S':'
asbag67
(g88
g69
NtRp2843
(dp2844
g72
(dp2845
sg81
g2830
sg74
(lp2846
g67
(g68
g69
NtRp2847
(dp2848
g72
(dp2849
g80
I3
ssg81
g2843
sg74
(lp2850
g1064
asbasbasbag67
(g83
g69
NtRp2851
(dp2852
g72
(dp2853
sg81
g2217
sg74
(lp2854
g67
(g88
g69
NtRp2855
(dp2856
g72
(dp2857
g92
g93
ssg81
g2851
sg74
(lp2858
S'mod_wsgi.callable_object'
p2859
asbag67
(g88
g69
NtRp2860
(dp2861
g72
(dp2862
g99
g100
ssg81
g2851
sg74
(lp2863
S':'
asbag67
(g88
g69
NtRp2864
(dp2865
g72
(dp2866
sg81
g2851
sg74
(lp2867
g67
(g68
g69
NtRp2868
(dp2869
g72
(dp2870
g80
I3
ssg81
g2864
sg74
(lp2871
g1086
asbasbasbag67
(g83
g69
NtRp2872
(dp2873
g72
(dp2874
sg81
g2217
sg74
(lp2875
g67
(g88
g69
NtRp2876
(dp2877
g72
(dp2878
g92
g93
ssg81
g2872
sg74
(lp2879
S'mod_wsgi.handler_script'
p2880
asbag67
(g88
g69
NtRp2881
(dp2882
g72
(dp2883
g99
g100
ssg81
g2872
sg74
(lp2884
S':'
asbag67
(g88
g69
NtRp2885
(dp2886
g72
(dp2887
sg81
g2872
sg74
(lp2888
g67
(g68
g69
NtRp2889
(dp2890
g72
(dp2891
g80
I3
ssg81
g2885
sg74
(lp2892
S''
asbasbasbag67
(g83
g69
NtRp2893
(dp2894
g72
(dp2895
sg81
g2217
sg74
(lp2896
g67
(g88
g69
NtRp2897
(dp2898
g72
(dp2899
g92
g93
ssg81
g2893
sg74
(lp2900
S'mod_wsgi.input_chunked'
p2901
asbag67
(g88
g69
NtRp2902
(dp2903
g72
(dp2904
g99
g100
ssg81
g2893
sg74
(lp2905
S':'
asbag67
(g88
g69
NtRp2906
(dp2907
g72
(dp2908
sg81
g2893
sg74
(lp2909
g67
(g68
g69
NtRp2910
(dp2911
g72
(dp2912
g80
I3
ssg81
g2906
sg74
(lp2913
S'0'
asbasbasbag67
(g83
g69
NtRp2914
(dp2915
g72
(dp2916
sg81
g2217
sg74
(lp2917
g67
(g88
g69
NtRp2918
(dp2919
g72
(dp2920
g92
g93
ssg81
g2914
sg74
(lp2921
S'mod_wsgi.listener_host'
p2922
asbag67
(g88
g69
NtRp2923
(dp2924
g72
(dp2925
g99
g100
ssg81
g2914
sg74
(lp2926
S':'
asbag67
(g88
g69
NtRp2927
(dp2928
g72
(dp2929
sg81
g2914
sg74
(lp2930
g67
(g68
g69
NtRp2931
(dp2932
g72
(dp2933
g80
I3
ssg81
g2927
sg74
(lp2934
S''
asbasbasbag67
(g83
g69
NtRp2935
(dp2936
g72
(dp2937
sg81
g2217
sg74
(lp2938
g67
(g88
g69
NtRp2939
(dp2940
g72
(dp2941
g92
g93
ssg81
g2935
sg74
(lp2942
S'mod_wsgi.listener_port'
p2943
asbag67
(g88
g69
NtRp2944
(dp2945
g72
(dp2946
g99
g100
ssg81
g2935
sg74
(lp2947
S':'
asbag67
(g88
g69
NtRp2948
(dp2949
g72
(dp2950
sg81
g2935
sg74
(lp2951
g67
(g68
g69
NtRp2952
(dp2953
g72
(dp2954
g80
I3
ssg81
g2948
sg74
(lp2955
g1171
asbasbasbag67
(g83
g69
NtRp2956
(dp2957
g72
(dp2958
sg81
g2217
sg74
(lp2959
g67
(g88
g69
NtRp2960
(dp2961
g72
(dp2962
g92
g93
ssg81
g2956
sg74
(lp2963
S'mod_wsgi.process_group'
p2964
asbag67
(g88
g69
NtRp2965
(dp2966
g72
(dp2967
g99
g100
ssg81
g2956
sg74
(lp2968
S':'
asbag67
(g88
g69
NtRp2969
(dp2970
g72
(dp2971
sg81
g2956
sg74
(lp2972
g67
(g68
g69
NtRp2973
(dp2974
g72
(dp2975
g80
I3
ssg81
g2969
sg74
(lp2976
g1193
asbasbasbag67
(g83
g69
NtRp2977
(dp2978
g72
(dp2979
sg81
g2217
sg74
(lp2980
g67
(g88
g69
NtRp2981
(dp2982
g72
(dp2983
g92
g93
ssg81
g2977
sg74
(lp2984
S'mod_wsgi.request_handler'
p2985
asbag67
(g88
g69
NtRp2986
(dp2987
g72
(dp2988
g99
g100
ssg81
g2977
sg74
(lp2989
S':'
asbag67
(g88
g69
NtRp2990
(dp2991
g72
(dp2992
sg81
g2977
sg74
(lp2993
g67
(g68
g69
NtRp2994
(dp2995
g72
(dp2996
g80
I3
ssg81
g2990
sg74
(lp2997
g1215
asbasbasbag67
(g83
g69
NtRp2998
(dp2999
g72
(dp3000
sg81
g2217
sg74
(lp3001
g67
(g88
g69
NtRp3002
(dp3003
g72
(dp3004
g92
g93
ssg81
g2998
sg74
(lp3005
S'mod_wsgi.script_reloading'
p3006
asbag67
(g88
g69
NtRp3007
(dp3008
g72
(dp3009
g99
g100
ssg81
g2998
sg74
(lp3010
S':'
asbag67
(g88
g69
NtRp3011
(dp3012
g72
(dp3013
sg81
g2998
sg74
(lp3014
g67
(g68
g69
NtRp3015
(dp3016
g72
(dp3017
g80
I3
ssg81
g3011
sg74
(lp3018
S'1'
asbasbasbag67
(g83
g69
NtRp3019
(dp3020
g72
(dp3021
sg81
g2217
sg74
(lp3022
g67
(g88
g69
NtRp3023
(dp3024
g72
(dp3025
g92
g93
ssg81
g3019
sg74
(lp3026
S'mod_wsgi.version'
p3027
asbag67
(g88
g69
NtRp3028
(dp3029
g72
(dp3030
g99
g100
ssg81
g3019
sg74
(lp3031
S':'
asbag67
(g88
g69
NtRp3032
(dp3033
g72
(dp3034
sg81
g3019
sg74
(lp3035
g67
(g68
g69
NtRp3036
(dp3037
g72
(dp3038
g80
I3
ssg81
g3032
sg74
(lp3039
g67
(g76
g69
NtRp3040
(dp3041
g72
(dp3042
g80
I2
ssg81
Nsg74
(lp3043
g67
(g83
g69
NtRp3044
(dp3045
g72
(dp3046
sg81
g3040
sg74
(lp3047
g67
(g88
g69
NtRp3048
(dp3049
g72
(dp3050
sg81
g3044
sg74
(lp3051
g67
(g68
g69
NtRp3052
(dp3053
g72
(dp3054
g80
I2
ssg81
g3048
sg74
(lp3055
S'3'
asbasbasbag67
(g83
g69
NtRp3056
(dp3057
g72
(dp3058
sg81
g3040
sg74
(lp3059
g67
(g88
g69
NtRp3060
(dp3061
g72
(dp3062
sg81
g3056
sg74
(lp3063
g67
(g68
g69
NtRp3064
(dp3065
g72
(dp3066
g80
I2
ssg81
g3060
sg74
(lp3067
S'3'
asbasbasbasbasbasbasbag67
(g83
g69
NtRp3068
(dp3069
g72
(dp3070
sg81
g2217
sg74
(lp3071
g67
(g88
g69
NtRp3072
(dp3073
g72
(dp3074
g92
g93
ssg81
g3068
sg74
(lp3075
S'wsgi.errors'
p3076
asbag67
(g88
g69
NtRp3077
(dp3078
g72
(dp3079
g99
g100
ssg81
g3068
sg74
(lp3080
S':'
asbag67
(g88
g69
NtRp3081
(dp3082
g72
(dp3083
sg81
g3068
sg74
(lp3084
g67
(g68
g69
NtRp3085
(dp3086
g72
(dp3087
g80
I3
ssg81
g3081
sg74
(lp3088
S'<mod_wsgi.Log object at 0xb940aa48>'
p3089
asbasbasbag67
(g83
g69
NtRp3090
(dp3091
g72
(dp3092
sg81
g2217
sg74
(lp3093
g67
(g88
g69
NtRp3094
(dp3095
g72
(dp3096
g92
g93
ssg81
g3090
sg74
(lp3097
S'wsgi.file_wrapper'
p3098
asbag67
(g88
g69
NtRp3099
(dp3100
g72
(dp3101
g99
g100
ssg81
g3090
sg74
(lp3102
S':'
asbag67
(g88
g69
NtRp3103
(dp3104
g72
(dp3105
sg81
g3090
sg74
(lp3106
g67
(g68
g69
NtRp3107
(dp3108
g72
(dp3109
g80
I3
ssg81
g3103
sg74
(lp3110
S'<built-in method file_wrapper of mod_wsgi.Adapter object at 0xb94e9848>'
p3111
asbasbasbag67
(g83
g69
NtRp3112
(dp3113
g72
(dp3114
sg81
g2217
sg74
(lp3115
g67
(g88
g69
NtRp3116
(dp3117
g72
(dp3118
g92
g93
ssg81
g3112
sg74
(lp3119
S'wsgi.input'
p3120
asbag67
(g88
g69
NtRp3121
(dp3122
g72
(dp3123
g99
g100
ssg81
g3112
sg74
(lp3124
S':'
asbag67
(g88
g69
NtRp3125
(dp3126
g72
(dp3127
sg81
g3112
sg74
(lp3128
g67
(g68
g69
NtRp3129
(dp3130
g72
(dp3131
g80
I3
ssg81
g3125
sg74
(lp3132
S'<cStringIO.StringO object at 0xb9a00500>'
p3133
asbasbasbag67
(g83
g69
NtRp3134
(dp3135
g72
(dp3136
sg81
g2217
sg74
(lp3137
g67
(g88
g69
NtRp3138
(dp3139
g72
(dp3140
g92
g93
ssg81
g3134
sg74
(lp3141
S'wsgi.multiprocess'
p3142
asbag67
(g88
g69
NtRp3143
(dp3144
g72
(dp3145
g99
g100
ssg81
g3134
sg74
(lp3146
S':'
asbag67
(g88
g69
NtRp3147
(dp3148
g72
(dp3149
sg81
g3134
sg74
(lp3150
g67
(g68
g69
NtRp3151
(dp3152
g72
(dp3153
g80
I3
ssg81
g3147
sg74
(lp3154
g110
asbasbasbag67
(g83
g69
NtRp3155
(dp3156
g72
(dp3157
sg81
g2217
sg74
(lp3158
g67
(g88
g69
NtRp3159
(dp3160
g72
(dp3161
g92
g93
ssg81
g3155
sg74
(lp3162
S'wsgi.multithread'
p3163
asbag67
(g88
g69
NtRp3164
(dp3165
g72
(dp3166
g99
g100
ssg81
g3155
sg74
(lp3167
S':'
asbag67
(g88
g69
NtRp3168
(dp3169
g72
(dp3170
sg81
g3155
sg74
(lp3171
g67
(g68
g69
NtRp3172
(dp3173
g72
(dp3174
g80
I3
ssg81
g3168
sg74
(lp3175
g1808
asbasbasbag67
(g83
g69
NtRp3176
(dp3177
g72
(dp3178
sg81
g2217
sg74
(lp3179
g67
(g88
g69
NtRp3180
(dp3181
g72
(dp3182
g92
g93
ssg81
g3176
sg74
(lp3183
S'wsgi.run_once'
p3184
asbag67
(g88
g69
NtRp3185
(dp3186
g72
(dp3187
g99
g100
ssg81
g3176
sg74
(lp3188
S':'
asbag67
(g88
g69
NtRp3189
(dp3190
g72
(dp3191
sg81
g3176
sg74
(lp3192
g67
(g68
g69
NtRp3193
(dp3194
g72
(dp3195
g80
I3
ssg81
g3189
sg74
(lp3196
g110
asbasbasbag67
(g83
g69
NtRp3197
(dp3198
g72
(dp3199
sg81
g2217
sg74
(lp3200
g67
(g88
g69
NtRp3201
(dp3202
g72
(dp3203
g92
g93
ssg81
g3197
sg74
(lp3204
S'wsgi.url_scheme'
p3205
asbag67
(g88
g69
NtRp3206
(dp3207
g72
(dp3208
g99
g100
ssg81
g3197
sg74
(lp3209
S':'
asbag67
(g88
g69
NtRp3210
(dp3211
g72
(dp3212
sg81
g3197
sg74
(lp3213
g67
(g68
g69
NtRp3214
(dp3215
g72
(dp3216
g80
I3
ssg81
g3210
sg74
(lp3217
g1851
asbasbasbag67
(g83
g69
NtRp3218
(dp3219
g72
(dp3220
sg81
g2217
sg74
(lp3221
g67
(g88
g69
NtRp3222
(dp3223
g72
(dp3224
g92
g93
ssg81
g3218
sg74
(lp3225
S'wsgi.version'
p3226
asbag67
(g88
g69
NtRp3227
(dp3228
g72
(dp3229
g99
g100
ssg81
g3218
sg74
(lp3230
S':'
asbag67
(g88
g69
NtRp3231
(dp3232
g72
(dp3233
sg81
g3218
sg74
(lp3234
g67
(g68
g69
NtRp3235
(dp3236
g72
(dp3237
g80
I3
ssg81
g3231
sg74
(lp3238
S'1'
asbasbasbasbasbasbasbasbasbasbasbasbasbsS'frames'
p3239
(lp3240
(dp3241
S'file'
p3242
S'/home/www-data/web2py/gluon/restricted.py'
p3243
sS'dump'
p3244
(dp3245
S'code'
p3246
S"'#coding: utf8\\nBRAZILIAN_DATE = IS_DATE(format=T(...tem_biv.append(lambda form: insere_modulo(form))\\n'"
p3247
sS'layer'
p3248
S"'/home/www-data/web2py/applications/scrum/models/db1.py'"
p3249
sS'global compile2'
p3250
S'<function compile2>'
p3251
sS'ccode'
p3252
S'undefined'
p3253
ssS'lnum'
p3254
I191
sS'lines'
p3255
(dp3256
I192
S'        exec ccode in environment'
p3257
sI193
S'    except HTTP:'
p3258
sI194
S'        raise'
p3259
sI195
S'    except Exception, error:'
p3260
sI186
S"    environment['__file__'] = layer"
p3261
sI187
S'    try:'
p3262
sI188
S'        if type(code) == types.CodeType:'
p3263
sI189
S'            ccode = code'
p3264
sI190
S'        else:'
p3265
sI191
S'            ccode = compile2(code,layer)'
p3266
ssS'call'
p3267
S"(code='#coding: utf8\\nBRAZILIAN_DATE = IS_DATE(format=T(...tem_biv.append(lambda form: insere_modulo(form))\\n', environment={'A': <class 'gluon.html.A'>, 'Auth': <class 'gluon.tools.Auth'>, 'B': <class 'gluon.html.B'>, 'BEAUTIFY': <class 'gluon.html.BEAUTIFY'>, 'BODY': <class 'gluon.html.BODY'>, 'BR': <class 'gluon.html.BR'>, 'BUTTON': <class 'gluon.html.BUTTON'>, 'CAT': <class 'gluon.html.CAT'>, 'CENTER': <class 'gluon.html.CENTER'>, 'CLEANUP': <class 'gluon.validators.CLEANUP'>, ...}, layer='/home/www-data/web2py/applications/scrum/models/db1.py')"
p3268
sS'func'
p3269
S'restricted'
p3270
sa(dp3271
g3242
S'/home/www-data/web2py/gluon/restricted.py'
p3272
sg3244
(dp3273
S'builtincompile'
p3274
S'<built-in function compile>'
p3275
sS'code'
p3276
S"'#coding: utf8\\nBRAZILIAN_DATE = IS_DATE(format=T(...tem_biv.append(lambda form: insere_modulo(form))\\n'"
p3277
sS'code.rstrip'
p3278
S'<built-in method rstrip of str object>'
p3279
sS').replace'
p3280
g3253
sS'layer'
p3281
S"'/home/www-data/web2py/applications/scrum/models/db1.py'"
p3282
ssg3254
I178
sg3255
(dp3283
I173
S''
sI174
S'def compile2(code,layer):'
p3284
sI175
S'    """'
p3285
sI176
S"    The +'\\n' is necessary else compile fails when code ends in a comment."
p3286
sI177
S'    """'
p3287
sI178
S"    return compile(code.rstrip().replace('\\r\\n','\\n')+'\\n', layer, 'exec')"
p3288
sI179
S''
sI180
S"def restricted(code, environment={}, layer='Unknown'):"
p3289
sI181
S'    """'
p3290
sI182
S'    runs code in environment and returns the output. if an exception occurs'
p3291
ssg3267
S"(code='#coding: utf8\\nBRAZILIAN_DATE = IS_DATE(format=T(...tem_biv.append(lambda form: insere_modulo(form))\\n', layer='/home/www-data/web2py/applications/scrum/models/db1.py')"
p3292
sg3269
S'compile2'
p3293
sasS'pyver'
p3294
S'Python 2.7.1+: /usr/bin/python'
p3295
sS'session'
p3296
g67
(g68
g69
NtRp3297
(dp3298
g72
(dp3299
sg74
(lp3300
g67
(g76
g69
NtRp3301
(dp3302
g72
(dp3303
g80
I5
ssg81
Nsg74
(lp3304
g67
(g83
g69
NtRp3305
(dp3306
g72
(dp3307
sg81
g3301
sg74
(lp3308
g67
(g88
g69
NtRp3309
(dp3310
g72
(dp3311
g92
g93
ssg81
g3305
sg74
(lp3312
S'auth'
p3313
asbag67
(g88
g69
NtRp3314
(dp3315
g72
(dp3316
g99
g100
ssg81
g3305
sg74
(lp3317
S':'
asbag67
(g88
g69
NtRp3318
(dp3319
g72
(dp3320
sg81
g3305
sg74
(lp3321
g67
(g68
g69
NtRp3322
(dp3323
g72
(dp3324
g80
I5
ssg81
g3318
sg74
(lp3325
g67
(g76
g69
NtRp3326
(dp3327
g72
(dp3328
g80
I4
ssg81
Nsg74
(lp3329
g67
(g83
g69
NtRp3330
(dp3331
g72
(dp3332
sg81
g3326
sg74
(lp3333
g67
(g88
g69
NtRp3334
(dp3335
g72
(dp3336
g92
g93
ssg81
g3330
sg74
(lp3337
S'expiration'
p3338
asbag67
(g88
g69
NtRp3339
(dp3340
g72
(dp3341
g99
g100
ssg81
g3330
sg74
(lp3342
S':'
asbag67
(g88
g69
NtRp3343
(dp3344
g72
(dp3345
sg81
g3330
sg74
(lp3346
g67
(g68
g69
NtRp3347
(dp3348
g72
(dp3349
g80
I4
ssg81
g3343
sg74
(lp3350
S'3600'
p3351
asbasbasbag67
(g83
g69
NtRp3352
(dp3353
g72
(dp3354
sg81
g3326
sg74
(lp3355
g67
(g88
g69
NtRp3356
(dp3357
g72
(dp3358
g92
g93
ssg81
g3352
sg74
(lp3359
S'hmac_key'
p3360
asbag67
(g88
g69
NtRp3361
(dp3362
g72
(dp3363
g99
g100
ssg81
g3352
sg74
(lp3364
S':'
asbag67
(g88
g69
NtRp3365
(dp3366
g72
(dp3367
sg81
g3352
sg74
(lp3368
g67
(g68
g69
NtRp3369
(dp3370
g72
(dp3371
g80
I4
ssg81
g3365
sg74
(lp3372
S'c18b391f-62d1-4a51-8b2b-1e809e4c900d'
p3373
asbasbasbag67
(g83
g69
NtRp3374
(dp3375
g72
(dp3376
sg81
g3326
sg74
(lp3377
g67
(g88
g69
NtRp3378
(dp3379
g72
(dp3380
g92
g93
ssg81
g3374
sg74
(lp3381
S'last_visit'
p3382
asbag67
(g88
g69
NtRp3383
(dp3384
g72
(dp3385
g99
g100
ssg81
g3374
sg74
(lp3386
S':'
asbag67
(g88
g69
NtRp3387
(dp3388
g72
(dp3389
sg81
g3374
sg74
(lp3390
g67
(g68
g69
NtRp3391
(dp3392
g72
(dp3393
g80
I4
ssg81
g3387
sg74
(lp3394
S'datetime.datetime(2011, 9, 8, 15, 40, 48, 469199)'
p3395
asbasbasbag67
(g83
g69
NtRp3396
(dp3397
g72
(dp3398
sg81
g3326
sg74
(lp3399
g67
(g88
g69
NtRp3400
(dp3401
g72
(dp3402
g92
g93
ssg81
g3396
sg74
(lp3403
S'user'
p3404
asbag67
(g88
g69
NtRp3405
(dp3406
g72
(dp3407
g99
g100
ssg81
g3396
sg74
(lp3408
S':'
asbag67
(g88
g69
NtRp3409
(dp3410
g72
(dp3411
sg81
g3396
sg74
(lp3412
g67
(g68
g69
NtRp3413
(dp3414
g72
(dp3415
g80
I4
ssg81
g3409
sg74
(lp3416
g67
(g76
g69
NtRp3417
(dp3418
g72
(dp3419
g80
I3
ssg81
Nsg74
(lp3420
g67
(g83
g69
NtRp3421
(dp3422
g72
(dp3423
sg81
g3417
sg74
(lp3424
g67
(g88
g69
NtRp3425
(dp3426
g72
(dp3427
g92
g93
ssg81
g3421
sg74
(lp3428
S'email'
p3429
asbag67
(g88
g69
NtRp3430
(dp3431
g72
(dp3432
g99
g100
ssg81
g3421
sg74
(lp3433
S':'
asbag67
(g88
g69
NtRp3434
(dp3435
g72
(dp3436
sg81
g3421
sg74
(lp3437
g67
(g68
g69
NtRp3438
(dp3439
g72
(dp3440
g80
I3
ssg81
g3434
sg74
(lp3441
S'carlos.mg@vilesoft.com.br'
p3442
asbasbasbag67
(g83
g69
NtRp3443
(dp3444
g72
(dp3445
sg81
g3417
sg74
(lp3446
g67
(g88
g69
NtRp3447
(dp3448
g72
(dp3449
g92
g93
ssg81
g3443
sg74
(lp3450
S'first_name'
p3451
asbag67
(g88
g69
NtRp3452
(dp3453
g72
(dp3454
g99
g100
ssg81
g3443
sg74
(lp3455
S':'
asbag67
(g88
g69
NtRp3456
(dp3457
g72
(dp3458
sg81
g3443
sg74
(lp3459
g67
(g68
g69
NtRp3460
(dp3461
g72
(dp3462
g80
I3
ssg81
g3456
sg74
(lp3463
S'Carlos Jos\xc3\xa9'
p3464
asbasbasbag67
(g83
g69
NtRp3465
(dp3466
g72
(dp3467
sg81
g3417
sg74
(lp3468
g67
(g88
g69
NtRp3469
(dp3470
g72
(dp3471
g92
g93
ssg81
g3465
sg74
(lp3472
S'id'
p3473
asbag67
(g88
g69
NtRp3474
(dp3475
g72
(dp3476
g99
g100
ssg81
g3465
sg74
(lp3477
S':'
asbag67
(g88
g69
NtRp3478
(dp3479
g72
(dp3480
sg81
g3465
sg74
(lp3481
g67
(g68
g69
NtRp3482
(dp3483
g72
(dp3484
g80
I3
ssg81
g3478
sg74
(lp3485
S'1'
asbasbasbag67
(g83
g69
NtRp3486
(dp3487
g72
(dp3488
sg81
g3417
sg74
(lp3489
g67
(g88
g69
NtRp3490
(dp3491
g72
(dp3492
g92
g93
ssg81
g3486
sg74
(lp3493
S'last_name'
p3494
asbag67
(g88
g69
NtRp3495
(dp3496
g72
(dp3497
g99
g100
ssg81
g3486
sg74
(lp3498
S':'
asbag67
(g88
g69
NtRp3499
(dp3500
g72
(dp3501
sg81
g3486
sg74
(lp3502
g67
(g68
g69
NtRp3503
(dp3504
g72
(dp3505
g80
I3
ssg81
g3499
sg74
(lp3506
S'da Costa'
p3507
asbasbasbag67
(g83
g69
NtRp3508
(dp3509
g72
(dp3510
sg81
g3417
sg74
(lp3511
g67
(g88
g69
NtRp3512
(dp3513
g72
(dp3514
g92
g93
ssg81
g3508
sg74
(lp3515
S'password'
p3516
asbag67
(g88
g69
NtRp3517
(dp3518
g72
(dp3519
g99
g100
ssg81
g3508
sg74
(lp3520
S':'
asbag67
(g88
g69
NtRp3521
(dp3522
g72
(dp3523
sg81
g3508
sg74
(lp3524
g67
(g68
g69
NtRp3525
(dp3526
g72
(dp3527
g80
I3
ssg81
g3521
sg74
(lp3528
S'00a7a128f71552b063e36943370dd0944d5adb4000c6382d33eb3e1a93dc679cb99beb47e3003d318803f96ef839a18a379eae2e2bb917ca3c52c4e45231b331'
p3529
asbasbasbag67
(g83
g69
NtRp3530
(dp3531
g72
(dp3532
sg81
g3417
sg74
(lp3533
g67
(g88
g69
NtRp3534
(dp3535
g72
(dp3536
g92
g93
ssg81
g3530
sg74
(lp3537
S'registration_key'
p3538
asbag67
(g88
g69
NtRp3539
(dp3540
g72
(dp3541
g99
g100
ssg81
g3530
sg74
(lp3542
S':'
asbag67
(g88
g69
NtRp3543
(dp3544
g72
(dp3545
sg81
g3530
sg74
(lp3546
g67
(g68
g69
NtRp3547
(dp3548
g72
(dp3549
g80
I3
ssg81
g3543
sg74
(lp3550
S''
asbasbasbag67
(g83
g69
NtRp3551
(dp3552
g72
(dp3553
sg81
g3417
sg74
(lp3554
g67
(g88
g69
NtRp3555
(dp3556
g72
(dp3557
g92
g93
ssg81
g3551
sg74
(lp3558
S'reset_password_key'
p3559
asbag67
(g88
g69
NtRp3560
(dp3561
g72
(dp3562
g99
g100
ssg81
g3551
sg74
(lp3563
S':'
asbag67
(g88
g69
NtRp3564
(dp3565
g72
(dp3566
sg81
g3551
sg74
(lp3567
g67
(g68
g69
NtRp3568
(dp3569
g72
(dp3570
g80
I3
ssg81
g3564
sg74
(lp3571
S''
asbasbasbasbasbasbasbasbasbasbasbag67
(g83
g69
NtRp3572
(dp3573
g72
(dp3574
sg81
g3301
sg74
(lp3575
g67
(g88
g69
NtRp3576
(dp3577
g72
(dp3578
g92
g93
ssg81
g3572
sg74
(lp3579
S'last_query'
p3580
asbag67
(g88
g69
NtRp3581
(dp3582
g72
(dp3583
g99
g100
ssg81
g3572
sg74
(lp3584
S':'
asbag67
(g88
g69
NtRp3585
(dp3586
g72
(dp3587
sg81
g3572
sg74
(lp3588
g67
(g68
g69
NtRp3589
(dp3590
g72
(dp3591
g80
I5
ssg81
g3585
sg74
(lp3592
S'db.auth_membership.id>0'
p3593
asbasbasbasbasbsS'etype'
p3594
S"<type 'exceptions.SyntaxError'>"
p3595
sS'date'
p3596
S'Thu Sep  8 15:40:48 2011'
p3597
sS'response'
p3598
g67
(g68
g69
NtRp3599
(dp3600
g72
(dp3601
sg74
(lp3602
g67
(g76
g69
NtRp3603
(dp3604
g72
(dp3605
g80
I5
ssg81
Nsg74
(lp3606
g67
(g83
g69
NtRp3607
(dp3608
g72
(dp3609
sg81
g3603
sg74
(lp3610
g67
(g88
g69
NtRp3611
(dp3612
g72
(dp3613
g92
g93
ssg81
g3607
sg74
(lp3614
g165
asbag67
(g88
g69
NtRp3615
(dp3616
g72
(dp3617
g99
g100
ssg81
g3607
sg74
(lp3618
S':'
asbag67
(g88
g69
NtRp3619
(dp3620
g72
(dp3621
sg81
g3607
sg74
(lp3622
g67
(g68
g69
NtRp3623
(dp3624
g72
(dp3625
g80
I5
ssg81
g3619
sg74
(lp3626
S'<cStringIO.StringO object at 0xb95f20e0>'
p3627
asbasbasbag67
(g83
g69
NtRp3628
(dp3629
g72
(dp3630
sg81
g3603
sg74
(lp3631
g67
(g88
g69
NtRp3632
(dp3633
g72
(dp3634
g92
g93
ssg81
g3628
sg74
(lp3635
g231
asbag67
(g88
g69
NtRp3636
(dp3637
g72
(dp3638
g99
g100
ssg81
g3628
sg74
(lp3639
S':'
asbag67
(g88
g69
NtRp3640
(dp3641
g72
(dp3642
sg81
g3628
sg74
(lp3643
g67
(g68
g69
NtRp3644
(dp3645
g72
(dp3646
g80
I5
ssg81
g3640
sg74
(lp3647
g67
(g76
g69
NtRp3648
(dp3649
g72
(dp3650
g80
I4
ssg81
Nsg74
(lp3651
g67
(g83
g69
NtRp3652
(dp3653
g72
(dp3654
sg81
g3648
sg74
(lp3655
g67
(g88
g69
NtRp3656
(dp3657
g72
(dp3658
g92
g93
ssg81
g3652
sg74
(lp3659
S'session_id_scrum'
p3660
asbag67
(g88
g69
NtRp3661
(dp3662
g72
(dp3663
g99
g100
ssg81
g3652
sg74
(lp3664
S':'
asbag67
(g88
g69
NtRp3665
(dp3666
g72
(dp3667
sg81
g3652
sg74
(lp3668
g67
(g68
g69
NtRp3669
(dp3670
g72
(dp3671
g80
I4
ssg81
g3665
sg74
(lp3672
g67
(g76
g69
NtRp3673
(dp3674
g72
(dp3675
g80
I3
ssg81
Nsg74
(lp3676
g67
(g83
g69
NtRp3677
(dp3678
g72
(dp3679
sg81
g3673
sg74
(lp3680
g67
(g88
g69
NtRp3681
(dp3682
g72
(dp3683
g92
g93
ssg81
g3677
sg74
(lp3684
g281
asbag67
(g88
g69
NtRp3685
(dp3686
g72
(dp3687
g99
g100
ssg81
g3677
sg74
(lp3688
S':'
asbag67
(g88
g69
NtRp3689
(dp3690
g72
(dp3691
sg81
g3677
sg74
(lp3692
g67
(g68
g69
NtRp3693
(dp3694
g72
(dp3695
g80
I3
ssg81
g3689
sg74
(lp3696
S''
asbasbasbag67
(g83
g69
NtRp3697
(dp3698
g72
(dp3699
sg81
g3673
sg74
(lp3700
g67
(g88
g69
NtRp3701
(dp3702
g72
(dp3703
g92
g93
ssg81
g3697
sg74
(lp3704
g302
asbag67
(g88
g69
NtRp3705
(dp3706
g72
(dp3707
g99
g100
ssg81
g3697
sg74
(lp3708
S':'
asbag67
(g88
g69
NtRp3709
(dp3710
g72
(dp3711
sg81
g3697
sg74
(lp3712
g67
(g68
g69
NtRp3713
(dp3714
g72
(dp3715
g80
I3
ssg81
g3709
sg74
(lp3716
S''
asbasbasbag67
(g83
g69
NtRp3717
(dp3718
g72
(dp3719
sg81
g3673
sg74
(lp3720
g67
(g88
g69
NtRp3721
(dp3722
g72
(dp3723
g92
g93
ssg81
g3717
sg74
(lp3724
g323
asbag67
(g88
g69
NtRp3725
(dp3726
g72
(dp3727
g99
g100
ssg81
g3717
sg74
(lp3728
S':'
asbag67
(g88
g69
NtRp3729
(dp3730
g72
(dp3731
sg81
g3717
sg74
(lp3732
g67
(g68
g69
NtRp3733
(dp3734
g72
(dp3735
g80
I3
ssg81
g3729
sg74
(lp3736
S''
asbasbasbag67
(g83
g69
NtRp3737
(dp3738
g72
(dp3739
sg81
g3673
sg74
(lp3740
g67
(g88
g69
NtRp3741
(dp3742
g72
(dp3743
g92
g93
ssg81
g3737
sg74
(lp3744
g344
asbag67
(g88
g69
NtRp3745
(dp3746
g72
(dp3747
g99
g100
ssg81
g3737
sg74
(lp3748
S':'
asbag67
(g88
g69
NtRp3749
(dp3750
g72
(dp3751
sg81
g3737
sg74
(lp3752
g67
(g68
g69
NtRp3753
(dp3754
g72
(dp3755
g80
I3
ssg81
g3749
sg74
(lp3756
S''
asbasbasbag67
(g83
g69
NtRp3757
(dp3758
g72
(dp3759
sg81
g3673
sg74
(lp3760
g67
(g88
g69
NtRp3761
(dp3762
g72
(dp3763
g92
g93
ssg81
g3757
sg74
(lp3764
g365
asbag67
(g88
g69
NtRp3765
(dp3766
g72
(dp3767
g99
g100
ssg81
g3757
sg74
(lp3768
S':'
asbag67
(g88
g69
NtRp3769
(dp3770
g72
(dp3771
sg81
g3757
sg74
(lp3772
g67
(g68
g69
NtRp3773
(dp3774
g72
(dp3775
g80
I3
ssg81
g3769
sg74
(lp3776
S''
asbasbasbag67
(g83
g69
NtRp3777
(dp3778
g72
(dp3779
sg81
g3673
sg74
(lp3780
g67
(g88
g69
NtRp3781
(dp3782
g72
(dp3783
g92
g93
ssg81
g3777
sg74
(lp3784
g386
asbag67
(g88
g69
NtRp3785
(dp3786
g72
(dp3787
g99
g100
ssg81
g3777
sg74
(lp3788
S':'
asbag67
(g88
g69
NtRp3789
(dp3790
g72
(dp3791
sg81
g3777
sg74
(lp3792
g67
(g68
g69
NtRp3793
(dp3794
g72
(dp3795
g80
I3
ssg81
g3789
sg74
(lp3796
S'/'
asbasbasbag67
(g83
g69
NtRp3797
(dp3798
g72
(dp3799
sg81
g3673
sg74
(lp3800
g67
(g88
g69
NtRp3801
(dp3802
g72
(dp3803
g92
g93
ssg81
g3797
sg74
(lp3804
g407
asbag67
(g88
g69
NtRp3805
(dp3806
g72
(dp3807
g99
g100
ssg81
g3797
sg74
(lp3808
S':'
asbag67
(g88
g69
NtRp3809
(dp3810
g72
(dp3811
sg81
g3797
sg74
(lp3812
g67
(g68
g69
NtRp3813
(dp3814
g72
(dp3815
g80
I3
ssg81
g3809
sg74
(lp3816
S''
asbasbasbag67
(g83
g69
NtRp3817
(dp3818
g72
(dp3819
sg81
g3673
sg74
(lp3820
g67
(g88
g69
NtRp3821
(dp3822
g72
(dp3823
g92
g93
ssg81
g3817
sg74
(lp3824
g428
asbag67
(g88
g69
NtRp3825
(dp3826
g72
(dp3827
g99
g100
ssg81
g3817
sg74
(lp3828
S':'
asbag67
(g88
g69
NtRp3829
(dp3830
g72
(dp3831
sg81
g3817
sg74
(lp3832
g67
(g68
g69
NtRp3833
(dp3834
g72
(dp3835
g80
I3
ssg81
g3829
sg74
(lp3836
S''
asbasbasbasbasbasbasbasbasbasbasbag67
(g83
g69
NtRp3837
(dp3838
g72
(dp3839
sg81
g3603
sg74
(lp3840
g67
(g88
g69
NtRp3841
(dp3842
g72
(dp3843
g92
g93
ssg81
g3837
sg74
(lp3844
S'files'
p3845
asbag67
(g88
g69
NtRp3846
(dp3847
g72
(dp3848
g99
g100
ssg81
g3837
sg74
(lp3849
S':'
asbag67
(g88
g69
NtRp3850
(dp3851
g72
(dp3852
sg81
g3837
sg74
(lp3853
g67
(g68
g69
NtRp3854
(dp3855
g72
(dp3856
g80
I5
ssg81
g3850
sg74
(lp3857
g67
(g76
g69
NtRp3858
(dp3859
g72
(dp3860
g80
I4
ssg81
Nsg74
(lp3861
sbasbasbasbag67
(g83
g69
NtRp3862
(dp3863
g72
(dp3864
sg81
g3603
sg74
(lp3865
g67
(g88
g69
NtRp3866
(dp3867
g72
(dp3868
g92
g93
ssg81
g3862
sg74
(lp3869
S'flash'
p3870
asbag67
(g88
g69
NtRp3871
(dp3872
g72
(dp3873
g99
g100
ssg81
g3862
sg74
(lp3874
S':'
asbag67
(g88
g69
NtRp3875
(dp3876
g72
(dp3877
sg81
g3862
sg74
(lp3878
g67
(g68
g69
NtRp3879
(dp3880
g72
(dp3881
g80
I5
ssg81
g3875
sg74
(lp3882
S''
asbasbasbag67
(g83
g69
NtRp3883
(dp3884
g72
(dp3885
sg81
g3603
sg74
(lp3886
g67
(g88
g69
NtRp3887
(dp3888
g72
(dp3889
g92
g93
ssg81
g3883
sg74
(lp3890
S'generic_patterns'
p3891
asbag67
(g88
g69
NtRp3892
(dp3893
g72
(dp3894
g99
g100
ssg81
g3883
sg74
(lp3895
S':'
asbag67
(g88
g69
NtRp3896
(dp3897
g72
(dp3898
sg81
g3883
sg74
(lp3899
g67
(g68
g69
NtRp3900
(dp3901
g72
(dp3902
g80
I5
ssg81
g3896
sg74
(lp3903
g67
(g76
g69
NtRp3904
(dp3905
g72
(dp3906
g80
I4
ssg81
Nsg74
(lp3907
sbasbasbasbag67
(g83
g69
NtRp3908
(dp3909
g72
(dp3910
sg81
g3603
sg74
(lp3911
g67
(g88
g69
NtRp3912
(dp3913
g72
(dp3914
g92
g93
ssg81
g3908
sg74
(lp3915
S'headers'
p3916
asbag67
(g88
g69
NtRp3917
(dp3918
g72
(dp3919
g99
g100
ssg81
g3908
sg74
(lp3920
S':'
asbag67
(g88
g69
NtRp3921
(dp3922
g72
(dp3923
sg81
g3908
sg74
(lp3924
g67
(g68
g69
NtRp3925
(dp3926
g72
(dp3927
g80
I5
ssg81
g3921
sg74
(lp3928
g67
(g76
g69
NtRp3929
(dp3930
g72
(dp3931
g80
I4
ssg81
Nsg74
(lp3932
g67
(g83
g69
NtRp3933
(dp3934
g72
(dp3935
sg81
g3929
sg74
(lp3936
g67
(g88
g69
NtRp3937
(dp3938
g72
(dp3939
g92
g93
ssg81
g3933
sg74
(lp3940
S'Cache-Control'
p3941
asbag67
(g88
g69
NtRp3942
(dp3943
g72
(dp3944
g99
g100
ssg81
g3933
sg74
(lp3945
S':'
asbag67
(g88
g69
NtRp3946
(dp3947
g72
(dp3948
sg81
g3933
sg74
(lp3949
g67
(g68
g69
NtRp3950
(dp3951
g72
(dp3952
g80
I4
ssg81
g3946
sg74
(lp3953
S'no-store, no-cache, must-revalidate, post-check=0, pre-check=0'
p3954
asbasbasbag67
(g83
g69
NtRp3955
(dp3956
g72
(dp3957
sg81
g3929
sg74
(lp3958
g67
(g88
g69
NtRp3959
(dp3960
g72
(dp3961
g92
g93
ssg81
g3955
sg74
(lp3962
S'Content-Type'
p3963
asbag67
(g88
g69
NtRp3964
(dp3965
g72
(dp3966
g99
g100
ssg81
g3955
sg74
(lp3967
S':'
asbag67
(g88
g69
NtRp3968
(dp3969
g72
(dp3970
sg81
g3955
sg74
(lp3971
g67
(g68
g69
NtRp3972
(dp3973
g72
(dp3974
g80
I4
ssg81
g3968
sg74
(lp3975
S'text/html; charset=utf-8'
p3976
asbasbasbag67
(g83
g69
NtRp3977
(dp3978
g72
(dp3979
sg81
g3929
sg74
(lp3980
g67
(g88
g69
NtRp3981
(dp3982
g72
(dp3983
g92
g93
ssg81
g3977
sg74
(lp3984
S'Expires'
p3985
asbag67
(g88
g69
NtRp3986
(dp3987
g72
(dp3988
g99
g100
ssg81
g3977
sg74
(lp3989
S':'
asbag67
(g88
g69
NtRp3990
(dp3991
g72
(dp3992
sg81
g3977
sg74
(lp3993
g67
(g68
g69
NtRp3994
(dp3995
g72
(dp3996
g80
I4
ssg81
g3990
sg74
(lp3997
S'Thu, 08 Sep 2011 18:40:48 GMT'
p3998
asbasbasbag67
(g83
g69
NtRp3999
(dp4000
g72
(dp4001
sg81
g3929
sg74
(lp4002
g67
(g88
g69
NtRp4003
(dp4004
g72
(dp4005
g92
g93
ssg81
g3999
sg74
(lp4006
S'Pragma'
p4007
asbag67
(g88
g69
NtRp4008
(dp4009
g72
(dp4010
g99
g100
ssg81
g3999
sg74
(lp4011
S':'
asbag67
(g88
g69
NtRp4012
(dp4013
g72
(dp4014
sg81
g3999
sg74
(lp4015
g67
(g68
g69
NtRp4016
(dp4017
g72
(dp4018
g80
I4
ssg81
g4012
sg74
(lp4019
S'no-cache'
p4020
asbasbasbag67
(g83
g69
NtRp4021
(dp4022
g72
(dp4023
sg81
g3929
sg74
(lp4024
g67
(g88
g69
NtRp4025
(dp4026
g72
(dp4027
g92
g93
ssg81
g4021
sg74
(lp4028
S'X-Powered-By'
p4029
asbag67
(g88
g69
NtRp4030
(dp4031
g72
(dp4032
g99
g100
ssg81
g4021
sg74
(lp4033
S':'
asbag67
(g88
g69
NtRp4034
(dp4035
g72
(dp4036
sg81
g4021
sg74
(lp4037
g67
(g68
g69
NtRp4038
(dp4039
g72
(dp4040
g80
I4
ssg81
g4034
sg74
(lp4041
S'web2py'
p4042
asbasbasbasbasbasbasbag67
(g83
g69
NtRp4043
(dp4044
g72
(dp4045
sg81
g3603
sg74
(lp4046
g67
(g88
g69
NtRp4047
(dp4048
g72
(dp4049
g92
g93
ssg81
g4043
sg74
(lp4050
S'menu'
p4051
asbag67
(g88
g69
NtRp4052
(dp4053
g72
(dp4054
g99
g100
ssg81
g4043
sg74
(lp4055
S':'
asbag67
(g88
g69
NtRp4056
(dp4057
g72
(dp4058
sg81
g4043
sg74
(lp4059
g67
(g68
g69
NtRp4060
(dp4061
g72
(dp4062
g80
I5
ssg81
g4056
sg74
(lp4063
g67
(g76
g69
NtRp4064
(dp4065
g72
(dp4066
g80
I4
ssg81
Nsg74
(lp4067
sbasbasbasbag67
(g83
g69
NtRp4068
(dp4069
g72
(dp4070
sg81
g3603
sg74
(lp4071
g67
(g88
g69
NtRp4072
(dp4073
g72
(dp4074
g92
g93
ssg81
g4068
sg74
(lp4075
S'meta'
p4076
asbag67
(g88
g69
NtRp4077
(dp4078
g72
(dp4079
g99
g100
ssg81
g4068
sg74
(lp4080
S':'
asbag67
(g88
g69
NtRp4081
(dp4082
g72
(dp4083
sg81
g4068
sg74
(lp4084
g67
(g68
g69
NtRp4085
(dp4086
g72
(dp4087
g80
I5
ssg81
g4081
sg74
(lp4088
g67
(g76
g69
NtRp4089
(dp4090
g72
(dp4091
g80
I4
ssg81
Nsg74
(lp4092
sbasbasbasbag67
(g83
g69
NtRp4093
(dp4094
g72
(dp4095
sg81
g3603
sg74
(lp4096
g67
(g88
g69
NtRp4097
(dp4098
g72
(dp4099
g92
g93
ssg81
g4093
sg74
(lp4100
S'postprocessing'
p4101
asbag67
(g88
g69
NtRp4102
(dp4103
g72
(dp4104
g99
g100
ssg81
g4093
sg74
(lp4105
S':'
asbag67
(g88
g69
NtRp4106
(dp4107
g72
(dp4108
sg81
g4093
sg74
(lp4109
g67
(g68
g69
NtRp4110
(dp4111
g72
(dp4112
g80
I5
ssg81
g4106
sg74
(lp4113
g67
(g76
g69
NtRp4114
(dp4115
g72
(dp4116
g80
I4
ssg81
Nsg74
(lp4117
sbasbasbasbag67
(g83
g69
NtRp4118
(dp4119
g72
(dp4120
sg81
g3603
sg74
(lp4121
g67
(g88
g69
NtRp4122
(dp4123
g72
(dp4124
g92
g93
ssg81
g4118
sg74
(lp4125
S'session_file'
p4126
asbag67
(g88
g69
NtRp4127
(dp4128
g72
(dp4129
g99
g100
ssg81
g4118
sg74
(lp4130
S':'
asbag67
(g88
g69
NtRp4131
(dp4132
g72
(dp4133
sg81
g4118
sg74
(lp4134
g67
(g68
g69
NtRp4135
(dp4136
g72
(dp4137
g80
I5
ssg81
g4131
sg74
(lp4138
S"<open file '/home/www-data/web2py/applications/scrum/sessions/127.0.0.1-f47d3ac4-8d8c-46d5-8321-f944561d518f', mode 'rb+' at 0xb940e968>"
p4139
asbasbasbag67
(g83
g69
NtRp4140
(dp4141
g72
(dp4142
sg81
g3603
sg74
(lp4143
g67
(g88
g69
NtRp4144
(dp4145
g72
(dp4146
g92
g93
ssg81
g4140
sg74
(lp4147
S'session_filename'
p4148
asbag67
(g88
g69
NtRp4149
(dp4150
g72
(dp4151
g99
g100
ssg81
g4140
sg74
(lp4152
S':'
asbag67
(g88
g69
NtRp4153
(dp4154
g72
(dp4155
sg81
g4140
sg74
(lp4156
g67
(g68
g69
NtRp4157
(dp4158
g72
(dp4159
g80
I5
ssg81
g4153
sg74
(lp4160
S'/home/www-data/web2py/applications/scrum/sessions/127.0.0.1-f47d3ac4-8d8c-46d5-8321-f944561d518f'
p4161
asbasbasbag67
(g83
g69
NtRp4162
(dp4163
g72
(dp4164
sg81
g3603
sg74
(lp4165
g67
(g88
g69
NtRp4166
(dp4167
g72
(dp4168
g92
g93
ssg81
g4162
sg74
(lp4169
S'session_id'
p4170
asbag67
(g88
g69
NtRp4171
(dp4172
g72
(dp4173
g99
g100
ssg81
g4162
sg74
(lp4174
S':'
asbag67
(g88
g69
NtRp4175
(dp4176
g72
(dp4177
sg81
g4162
sg74
(lp4178
g67
(g68
g69
NtRp4179
(dp4180
g72
(dp4181
g80
I5
ssg81
g4175
sg74
(lp4182
S'127.0.0.1-f47d3ac4-8d8c-46d5-8321-f944561d518f'
p4183
asbasbasbag67
(g83
g69
NtRp4184
(dp4185
g72
(dp4186
sg81
g3603
sg74
(lp4187
g67
(g88
g69
NtRp4188
(dp4189
g72
(dp4190
g92
g93
ssg81
g4184
sg74
(lp4191
S'session_id_name'
p4192
asbag67
(g88
g69
NtRp4193
(dp4194
g72
(dp4195
g99
g100
ssg81
g4184
sg74
(lp4196
S':'
asbag67
(g88
g69
NtRp4197
(dp4198
g72
(dp4199
sg81
g4184
sg74
(lp4200
g67
(g68
g69
NtRp4201
(dp4202
g72
(dp4203
g80
I5
ssg81
g4197
sg74
(lp4204
g3660
asbasbasbag67
(g83
g69
NtRp4205
(dp4206
g72
(dp4207
sg81
g3603
sg74
(lp4208
g67
(g88
g69
NtRp4209
(dp4210
g72
(dp4211
g92
g93
ssg81
g4205
sg74
(lp4212
S'session_locked'
p4213
asbag67
(g88
g69
NtRp4214
(dp4215
g72
(dp4216
g99
g100
ssg81
g4205
sg74
(lp4217
S':'
asbag67
(g88
g69
NtRp4218
(dp4219
g72
(dp4220
sg81
g4205
sg74
(lp4221
g67
(g68
g69
NtRp4222
(dp4223
g72
(dp4224
g80
I5
ssg81
g4218
sg74
(lp4225
g1808
asbasbasbag67
(g83
g69
NtRp4226
(dp4227
g72
(dp4228
sg81
g3603
sg74
(lp4229
g67
(g88
g69
NtRp4230
(dp4231
g72
(dp4232
g92
g93
ssg81
g4226
sg74
(lp4233
S'session_new'
p4234
asbag67
(g88
g69
NtRp4235
(dp4236
g72
(dp4237
g99
g100
ssg81
g4226
sg74
(lp4238
S':'
asbag67
(g88
g69
NtRp4239
(dp4240
g72
(dp4241
sg81
g4226
sg74
(lp4242
g67
(g68
g69
NtRp4243
(dp4244
g72
(dp4245
g80
I5
ssg81
g4239
sg74
(lp4246
g110
asbasbasbag67
(g83
g69
NtRp4247
(dp4248
g72
(dp4249
sg81
g3603
sg74
(lp4250
g67
(g88
g69
NtRp4251
(dp4252
g72
(dp4253
g92
g93
ssg81
g4247
sg74
(lp4254
S'status'
p4255
asbag67
(g88
g69
NtRp4256
(dp4257
g72
(dp4258
g99
g100
ssg81
g4247
sg74
(lp4259
S':'
asbag67
(g88
g69
NtRp4260
(dp4261
g72
(dp4262
sg81
g4247
sg74
(lp4263
g67
(g68
g69
NtRp4264
(dp4265
g72
(dp4266
g80
I5
ssg81
g4260
sg74
(lp4267
S'200'
p4268
asbasbasbag67
(g83
g69
NtRp4269
(dp4270
g72
(dp4271
sg81
g3603
sg74
(lp4272
g67
(g88
g69
NtRp4273
(dp4274
g72
(dp4275
g92
g93
ssg81
g4269
sg74
(lp4276
g2132
asbag67
(g88
g69
NtRp4277
(dp4278
g72
(dp4279
g99
g100
ssg81
g4269
sg74
(lp4280
S':'
asbag67
(g88
g69
NtRp4281
(dp4282
g72
(dp4283
sg81
g4269
sg74
(lp4284
g67
(g68
g69
NtRp4285
(dp4286
g72
(dp4287
g80
I5
ssg81
g4281
sg74
(lp4288
g2145
asbasbasbag67
(g83
g69
NtRp4289
(dp4290
g72
(dp4291
sg81
g3603
sg74
(lp4292
g67
(g88
g69
NtRp4293
(dp4294
g72
(dp4295
g92
g93
ssg81
g4289
sg74
(lp4296
S'view'
p4297
asbag67
(g88
g69
NtRp4298
(dp4299
g72
(dp4300
g99
g100
ssg81
g4289
sg74
(lp4301
S':'
asbag67
(g88
g69
NtRp4302
(dp4303
g72
(dp4304
sg81
g4289
sg74
(lp4305
g67
(g68
g69
NtRp4306
(dp4307
g72
(dp4308
g80
I5
ssg81
g4302
sg74
(lp4309
S'ticket/novo.html'
p4310
asbasbasbasbasbsS'locals'
p4311
(dp4312
g3
S"'/home/www-data/web2py/applications/scrum/models/db1.py'"
p4313
sg5
S"'#coding: utf8\\nBRAZILIAN_DATE = IS_DATE(format=T(...tem_biv.append(lambda form: insere_modulo(form))\\n'"
p4314
sssS'traceback'
p4315
S'Traceback (most recent call last):\n  File "/home/www-data/web2py/gluon/restricted.py", line 191, in restricted\n    ccode = compile2(code,layer)\n  File "/home/www-data/web2py/gluon/restricted.py", line 178, in compile2\n    return compile(code.rstrip().replace(\'\\r\\n\',\'\\n\')+\'\\n\', layer, \'exec\')\n  File "/home/www-data/web2py/applications/scrum/models/db1.py", line 5\n    return redirect(URL(r=request,c=\'config\',f=\'index\'))\nSyntaxError: \'return\' outside function\n'
p4316
s.