(dp1
S'output'
p2
S''
sS'layer'
p3
S'/home/www-data/web2py/applications/scrum/controllers/ticket.py'
p4
sS'code'
p5
S"# coding: utf8# tente algo como\n@auth.requires(auth.has_membership(config.grupo_consultor))\ndef index():    \n    tickets = db((db.ticket.consultor == auth.user_id) | \n                 (db.ticket.analista == auth.user_id)).select()\n    return dict(tickets=tickets)\n   \n@auth.requires(auth.has_membership(config.grupo_consultor))\ndef novo():\n    response.view = 'simple_form.html'\n    db.ticket.consultor.default = auth.user_id\n    db.ticket.consultor.writable = False  \n    form = crud.create(db.ticket)\n    return dict(form=form)\n\nresponse._vars=response._caller(novo)\n"
p6
sS'snapshot'
p7
(dp8
S'exception'
p9
(dp10
S'__hash__'
p11
S"<method-wrapper '__hash__' of exceptions.TypeError object>"
p12
sS'__setattr__'
p13
S"<method-wrapper '__setattr__' of exceptions.TypeError object>"
p14
sS'__reduce_ex__'
p15
S'<built-in method __reduce_ex__ of exceptions.TypeError object>'
p16
sS'__getslice__'
p17
S"<method-wrapper '__getslice__' of exceptions.TypeError object>"
p18
sS'__getitem__'
p19
S"<method-wrapper '__getitem__' of exceptions.TypeError object>"
p20
sS'__setstate__'
p21
S'<built-in method __setstate__ of exceptions.TypeError object>'
p22
sS'__reduce__'
p23
S'<built-in method __reduce__ of exceptions.TypeError object>'
p24
sS'__str__'
p25
S"<method-wrapper '__str__' of exceptions.TypeError object>"
p26
sS'__format__'
p27
S'<built-in method __format__ of exceptions.TypeError object>'
p28
sS'__getattribute__'
p29
S"<method-wrapper '__getattribute__' of exceptions.TypeError object>"
p30
sS'__class__'
p31
S"<type 'exceptions.TypeError'>"
p32
sS'__unicode__'
p33
S'<built-in method __unicode__ of exceptions.TypeError object>'
p34
sS'__delattr__'
p35
S"<method-wrapper '__delattr__' of exceptions.TypeError object>"
p36
sS'__subclasshook__'
p37
S'<built-in method __subclasshook__ of type object>'
p38
sS'__repr__'
p39
S"<method-wrapper '__repr__' of exceptions.TypeError object>"
p40
sS'args'
p41
S'("int() argument must be a string or a number, not \'Table\'",)'
p42
sS'__dict__'
p43
S'{}'
p44
sS'__sizeof__'
p45
S'<built-in method __sizeof__ of exceptions.TypeError object>'
p46
sS'__doc__'
p47
S"'Inappropriate argument type.'"
p48
sS'__init__'
p49
S"<method-wrapper '__init__' of exceptions.TypeError object>"
p50
sS'__new__'
p51
S'<built-in method __new__ of type object>'
p52
ssS'evalue'
p53
S"int() argument must be a string or a number, not 'Table'"
p54
sS'request'
p55
ccopy_reg
_reconstructor
p56
(cgluon.html
BEAUTIFY
p57
c__builtin__
object
p58
NtRp59
(dp60
S'attributes'
p61
(dp62
sS'components'
p63
(lp64
g56
(cgluon.html
TABLE
p65
g58
NtRp66
(dp67
g61
(dp68
S'level'
p69
I5
ssS'parent'
p70
Nsg63
(lp71
g56
(cgluon.html
TR
p72
g58
NtRp73
(dp74
g61
(dp75
sg70
g66
sg63
(lp76
g56
(cgluon.html
TD
p77
g58
NtRp78
(dp79
g61
(dp80
S'_style'
p81
S'font-weight:bold;'
p82
ssg70
g73
sg63
(lp83
S'ajax'
p84
asbag56
(g77
g58
NtRp85
(dp86
g61
(dp87
S'_valign'
p88
S'top'
p89
ssg70
g73
sg63
(lp90
S':'
asbag56
(g77
g58
NtRp91
(dp92
g61
(dp93
sg70
g73
sg63
(lp94
g56
(g57
g58
NtRp95
(dp96
g61
(dp97
g69
I5
ssg70
g91
sg63
(lp98
S'False'
p99
asbasbasbag56
(g72
g58
NtRp100
(dp101
g61
(dp102
sg70
g66
sg63
(lp103
g56
(g77
g58
NtRp104
(dp105
g61
(dp106
g81
g82
ssg70
g100
sg63
(lp107
S'application'
p108
asbag56
(g77
g58
NtRp109
(dp110
g61
(dp111
g88
g89
ssg70
g100
sg63
(lp112
S':'
asbag56
(g77
g58
NtRp113
(dp114
g61
(dp115
sg70
g100
sg63
(lp116
g56
(g57
g58
NtRp117
(dp118
g61
(dp119
g69
I5
ssg70
g113
sg63
(lp120
S'scrum'
p121
asbasbasbag56
(g72
g58
NtRp122
(dp123
g61
(dp124
sg70
g66
sg63
(lp125
g56
(g77
g58
NtRp126
(dp127
g61
(dp128
g81
g82
ssg70
g122
sg63
(lp129
g41
asbag56
(g77
g58
NtRp130
(dp131
g61
(dp132
g88
g89
ssg70
g122
sg63
(lp133
S':'
asbag56
(g77
g58
NtRp134
(dp135
g61
(dp136
sg70
g122
sg63
(lp137
g56
(g57
g58
NtRp138
(dp139
g61
(dp140
g69
I5
ssg70
g134
sg63
(lp141
g56
(g65
g58
NtRp142
(dp143
g61
(dp144
g69
I4
ssg70
Nsg63
(lp145
sbasbasbasbag56
(g72
g58
NtRp146
(dp147
g61
(dp148
sg70
g66
sg63
(lp149
g56
(g77
g58
NtRp150
(dp151
g61
(dp152
g81
g82
ssg70
g146
sg63
(lp153
S'body'
p154
asbag56
(g77
g58
NtRp155
(dp156
g61
(dp157
g88
g89
ssg70
g146
sg63
(lp158
S':'
asbag56
(g77
g58
NtRp159
(dp160
g61
(dp161
sg70
g146
sg63
(lp162
g56
(g57
g58
NtRp163
(dp164
g61
(dp165
g69
I5
ssg70
g159
sg63
(lp166
S'<cStringIO.StringO object at 0xb93ebb80>'
p167
asbasbasbag56
(g72
g58
NtRp168
(dp169
g61
(dp170
sg70
g66
sg63
(lp171
g56
(g77
g58
NtRp172
(dp173
g61
(dp174
g81
g82
ssg70
g168
sg63
(lp175
S'client'
p176
asbag56
(g77
g58
NtRp177
(dp178
g61
(dp179
g88
g89
ssg70
g168
sg63
(lp180
S':'
asbag56
(g77
g58
NtRp181
(dp182
g61
(dp183
sg70
g168
sg63
(lp184
g56
(g57
g58
NtRp185
(dp186
g61
(dp187
g69
I5
ssg70
g181
sg63
(lp188
S'127.0.0.1'
p189
asbasbasbag56
(g72
g58
NtRp190
(dp191
g61
(dp192
sg70
g66
sg63
(lp193
g56
(g77
g58
NtRp194
(dp195
g61
(dp196
g81
g82
ssg70
g190
sg63
(lp197
S'controller'
p198
asbag56
(g77
g58
NtRp199
(dp200
g61
(dp201
g88
g89
ssg70
g190
sg63
(lp202
S':'
asbag56
(g77
g58
NtRp203
(dp204
g61
(dp205
sg70
g190
sg63
(lp206
g56
(g57
g58
NtRp207
(dp208
g61
(dp209
g69
I5
ssg70
g203
sg63
(lp210
S'ticket'
p211
asbasbasbag56
(g72
g58
NtRp212
(dp213
g61
(dp214
sg70
g66
sg63
(lp215
g56
(g77
g58
NtRp216
(dp217
g61
(dp218
g81
g82
ssg70
g212
sg63
(lp219
S'cookies'
p220
asbag56
(g77
g58
NtRp221
(dp222
g61
(dp223
g88
g89
ssg70
g212
sg63
(lp224
S':'
asbag56
(g77
g58
NtRp225
(dp226
g61
(dp227
sg70
g212
sg63
(lp228
g56
(g57
g58
NtRp229
(dp230
g61
(dp231
g69
I5
ssg70
g225
sg63
(lp232
g56
(g65
g58
NtRp233
(dp234
g61
(dp235
g69
I4
ssg70
Nsg63
(lp236
g56
(g72
g58
NtRp237
(dp238
g61
(dp239
sg70
g233
sg63
(lp240
g56
(g77
g58
NtRp241
(dp242
g61
(dp243
g81
g82
ssg70
g237
sg63
(lp244
S'session_id_admin'
p245
asbag56
(g77
g58
NtRp246
(dp247
g61
(dp248
g88
g89
ssg70
g237
sg63
(lp249
S':'
asbag56
(g77
g58
NtRp250
(dp251
g61
(dp252
sg70
g237
sg63
(lp253
g56
(g57
g58
NtRp254
(dp255
g61
(dp256
g69
I4
ssg70
g250
sg63
(lp257
g56
(g65
g58
NtRp258
(dp259
g61
(dp260
g69
I3
ssg70
Nsg63
(lp261
g56
(g72
g58
NtRp262
(dp263
g61
(dp264
sg70
g258
sg63
(lp265
g56
(g77
g58
NtRp266
(dp267
g61
(dp268
g81
g82
ssg70
g262
sg63
(lp269
S'comment'
p270
asbag56
(g77
g58
NtRp271
(dp272
g61
(dp273
g88
g89
ssg70
g262
sg63
(lp274
S':'
asbag56
(g77
g58
NtRp275
(dp276
g61
(dp277
sg70
g262
sg63
(lp278
g56
(g57
g58
NtRp279
(dp280
g61
(dp281
g69
I3
ssg70
g275
sg63
(lp282
S''
asbasbasbag56
(g72
g58
NtRp283
(dp284
g61
(dp285
sg70
g258
sg63
(lp286
g56
(g77
g58
NtRp287
(dp288
g61
(dp289
g81
g82
ssg70
g283
sg63
(lp290
S'domain'
p291
asbag56
(g77
g58
NtRp292
(dp293
g61
(dp294
g88
g89
ssg70
g283
sg63
(lp295
S':'
asbag56
(g77
g58
NtRp296
(dp297
g61
(dp298
sg70
g283
sg63
(lp299
g56
(g57
g58
NtRp300
(dp301
g61
(dp302
g69
I3
ssg70
g296
sg63
(lp303
S''
asbasbasbag56
(g72
g58
NtRp304
(dp305
g61
(dp306
sg70
g258
sg63
(lp307
g56
(g77
g58
NtRp308
(dp309
g61
(dp310
g81
g82
ssg70
g304
sg63
(lp311
S'expires'
p312
asbag56
(g77
g58
NtRp313
(dp314
g61
(dp315
g88
g89
ssg70
g304
sg63
(lp316
S':'
asbag56
(g77
g58
NtRp317
(dp318
g61
(dp319
sg70
g304
sg63
(lp320
g56
(g57
g58
NtRp321
(dp322
g61
(dp323
g69
I3
ssg70
g317
sg63
(lp324
S''
asbasbasbag56
(g72
g58
NtRp325
(dp326
g61
(dp327
sg70
g258
sg63
(lp328
g56
(g77
g58
NtRp329
(dp330
g61
(dp331
g81
g82
ssg70
g325
sg63
(lp332
S'httponly'
p333
asbag56
(g77
g58
NtRp334
(dp335
g61
(dp336
g88
g89
ssg70
g325
sg63
(lp337
S':'
asbag56
(g77
g58
NtRp338
(dp339
g61
(dp340
sg70
g325
sg63
(lp341
g56
(g57
g58
NtRp342
(dp343
g61
(dp344
g69
I3
ssg70
g338
sg63
(lp345
S''
asbasbasbag56
(g72
g58
NtRp346
(dp347
g61
(dp348
sg70
g258
sg63
(lp349
g56
(g77
g58
NtRp350
(dp351
g61
(dp352
g81
g82
ssg70
g346
sg63
(lp353
S'max-age'
p354
asbag56
(g77
g58
NtRp355
(dp356
g61
(dp357
g88
g89
ssg70
g346
sg63
(lp358
S':'
asbag56
(g77
g58
NtRp359
(dp360
g61
(dp361
sg70
g346
sg63
(lp362
g56
(g57
g58
NtRp363
(dp364
g61
(dp365
g69
I3
ssg70
g359
sg63
(lp366
S''
asbasbasbag56
(g72
g58
NtRp367
(dp368
g61
(dp369
sg70
g258
sg63
(lp370
g56
(g77
g58
NtRp371
(dp372
g61
(dp373
g81
g82
ssg70
g367
sg63
(lp374
S'path'
p375
asbag56
(g77
g58
NtRp376
(dp377
g61
(dp378
g88
g89
ssg70
g367
sg63
(lp379
S':'
asbag56
(g77
g58
NtRp380
(dp381
g61
(dp382
sg70
g367
sg63
(lp383
g56
(g57
g58
NtRp384
(dp385
g61
(dp386
g69
I3
ssg70
g380
sg63
(lp387
S''
asbasbasbag56
(g72
g58
NtRp388
(dp389
g61
(dp390
sg70
g258
sg63
(lp391
g56
(g77
g58
NtRp392
(dp393
g61
(dp394
g81
g82
ssg70
g388
sg63
(lp395
S'secure'
p396
asbag56
(g77
g58
NtRp397
(dp398
g61
(dp399
g88
g89
ssg70
g388
sg63
(lp400
S':'
asbag56
(g77
g58
NtRp401
(dp402
g61
(dp403
sg70
g388
sg63
(lp404
g56
(g57
g58
NtRp405
(dp406
g61
(dp407
g69
I3
ssg70
g401
sg63
(lp408
S''
asbasbasbag56
(g72
g58
NtRp409
(dp410
g61
(dp411
sg70
g258
sg63
(lp412
g56
(g77
g58
NtRp413
(dp414
g61
(dp415
g81
g82
ssg70
g409
sg63
(lp416
S'version'
p417
asbag56
(g77
g58
NtRp418
(dp419
g61
(dp420
g88
g89
ssg70
g409
sg63
(lp421
S':'
asbag56
(g77
g58
NtRp422
(dp423
g61
(dp424
sg70
g409
sg63
(lp425
g56
(g57
g58
NtRp426
(dp427
g61
(dp428
g69
I3
ssg70
g422
sg63
(lp429
S''
asbasbasbasbasbasbasbag56
(g72
g58
NtRp430
(dp431
g61
(dp432
sg70
g233
sg63
(lp433
g56
(g77
g58
NtRp434
(dp435
g61
(dp436
g81
g82
ssg70
g430
sg63
(lp437
S'session_id_scrum'
p438
asbag56
(g77
g58
NtRp439
(dp440
g61
(dp441
g88
g89
ssg70
g430
sg63
(lp442
S':'
asbag56
(g77
g58
NtRp443
(dp444
g61
(dp445
sg70
g430
sg63
(lp446
g56
(g57
g58
NtRp447
(dp448
g61
(dp449
g69
I4
ssg70
g443
sg63
(lp450
g56
(g65
g58
NtRp451
(dp452
g61
(dp453
g69
I3
ssg70
Nsg63
(lp454
g56
(g72
g58
NtRp455
(dp456
g61
(dp457
sg70
g451
sg63
(lp458
g56
(g77
g58
NtRp459
(dp460
g61
(dp461
g81
g82
ssg70
g455
sg63
(lp462
g270
asbag56
(g77
g58
NtRp463
(dp464
g61
(dp465
g88
g89
ssg70
g455
sg63
(lp466
S':'
asbag56
(g77
g58
NtRp467
(dp468
g61
(dp469
sg70
g455
sg63
(lp470
g56
(g57
g58
NtRp471
(dp472
g61
(dp473
g69
I3
ssg70
g467
sg63
(lp474
S''
asbasbasbag56
(g72
g58
NtRp475
(dp476
g61
(dp477
sg70
g451
sg63
(lp478
g56
(g77
g58
NtRp479
(dp480
g61
(dp481
g81
g82
ssg70
g475
sg63
(lp482
g291
asbag56
(g77
g58
NtRp483
(dp484
g61
(dp485
g88
g89
ssg70
g475
sg63
(lp486
S':'
asbag56
(g77
g58
NtRp487
(dp488
g61
(dp489
sg70
g475
sg63
(lp490
g56
(g57
g58
NtRp491
(dp492
g61
(dp493
g69
I3
ssg70
g487
sg63
(lp494
S''
asbasbasbag56
(g72
g58
NtRp495
(dp496
g61
(dp497
sg70
g451
sg63
(lp498
g56
(g77
g58
NtRp499
(dp500
g61
(dp501
g81
g82
ssg70
g495
sg63
(lp502
g312
asbag56
(g77
g58
NtRp503
(dp504
g61
(dp505
g88
g89
ssg70
g495
sg63
(lp506
S':'
asbag56
(g77
g58
NtRp507
(dp508
g61
(dp509
sg70
g495
sg63
(lp510
g56
(g57
g58
NtRp511
(dp512
g61
(dp513
g69
I3
ssg70
g507
sg63
(lp514
S''
asbasbasbag56
(g72
g58
NtRp515
(dp516
g61
(dp517
sg70
g451
sg63
(lp518
g56
(g77
g58
NtRp519
(dp520
g61
(dp521
g81
g82
ssg70
g515
sg63
(lp522
g333
asbag56
(g77
g58
NtRp523
(dp524
g61
(dp525
g88
g89
ssg70
g515
sg63
(lp526
S':'
asbag56
(g77
g58
NtRp527
(dp528
g61
(dp529
sg70
g515
sg63
(lp530
g56
(g57
g58
NtRp531
(dp532
g61
(dp533
g69
I3
ssg70
g527
sg63
(lp534
S''
asbasbasbag56
(g72
g58
NtRp535
(dp536
g61
(dp537
sg70
g451
sg63
(lp538
g56
(g77
g58
NtRp539
(dp540
g61
(dp541
g81
g82
ssg70
g535
sg63
(lp542
g354
asbag56
(g77
g58
NtRp543
(dp544
g61
(dp545
g88
g89
ssg70
g535
sg63
(lp546
S':'
asbag56
(g77
g58
NtRp547
(dp548
g61
(dp549
sg70
g535
sg63
(lp550
g56
(g57
g58
NtRp551
(dp552
g61
(dp553
g69
I3
ssg70
g547
sg63
(lp554
S''
asbasbasbag56
(g72
g58
NtRp555
(dp556
g61
(dp557
sg70
g451
sg63
(lp558
g56
(g77
g58
NtRp559
(dp560
g61
(dp561
g81
g82
ssg70
g555
sg63
(lp562
g375
asbag56
(g77
g58
NtRp563
(dp564
g61
(dp565
g88
g89
ssg70
g555
sg63
(lp566
S':'
asbag56
(g77
g58
NtRp567
(dp568
g61
(dp569
sg70
g555
sg63
(lp570
g56
(g57
g58
NtRp571
(dp572
g61
(dp573
g69
I3
ssg70
g567
sg63
(lp574
S''
asbasbasbag56
(g72
g58
NtRp575
(dp576
g61
(dp577
sg70
g451
sg63
(lp578
g56
(g77
g58
NtRp579
(dp580
g61
(dp581
g81
g82
ssg70
g575
sg63
(lp582
g396
asbag56
(g77
g58
NtRp583
(dp584
g61
(dp585
g88
g89
ssg70
g575
sg63
(lp586
S':'
asbag56
(g77
g58
NtRp587
(dp588
g61
(dp589
sg70
g575
sg63
(lp590
g56
(g57
g58
NtRp591
(dp592
g61
(dp593
g69
I3
ssg70
g587
sg63
(lp594
S''
asbasbasbag56
(g72
g58
NtRp595
(dp596
g61
(dp597
sg70
g451
sg63
(lp598
g56
(g77
g58
NtRp599
(dp600
g61
(dp601
g81
g82
ssg70
g595
sg63
(lp602
g417
asbag56
(g77
g58
NtRp603
(dp604
g61
(dp605
g88
g89
ssg70
g595
sg63
(lp606
S':'
asbag56
(g77
g58
NtRp607
(dp608
g61
(dp609
sg70
g595
sg63
(lp610
g56
(g57
g58
NtRp611
(dp612
g61
(dp613
g69
I3
ssg70
g607
sg63
(lp614
S''
asbasbasbasbasbasbasbag56
(g72
g58
NtRp615
(dp616
g61
(dp617
sg70
g233
sg63
(lp618
g56
(g77
g58
NtRp619
(dp620
g61
(dp621
g81
g82
ssg70
g615
sg63
(lp622
S'session_id_welcome'
p623
asbag56
(g77
g58
NtRp624
(dp625
g61
(dp626
g88
g89
ssg70
g615
sg63
(lp627
S':'
asbag56
(g77
g58
NtRp628
(dp629
g61
(dp630
sg70
g615
sg63
(lp631
g56
(g57
g58
NtRp632
(dp633
g61
(dp634
g69
I4
ssg70
g628
sg63
(lp635
g56
(g65
g58
NtRp636
(dp637
g61
(dp638
g69
I3
ssg70
Nsg63
(lp639
g56
(g72
g58
NtRp640
(dp641
g61
(dp642
sg70
g636
sg63
(lp643
g56
(g77
g58
NtRp644
(dp645
g61
(dp646
g81
g82
ssg70
g640
sg63
(lp647
g270
asbag56
(g77
g58
NtRp648
(dp649
g61
(dp650
g88
g89
ssg70
g640
sg63
(lp651
S':'
asbag56
(g77
g58
NtRp652
(dp653
g61
(dp654
sg70
g640
sg63
(lp655
g56
(g57
g58
NtRp656
(dp657
g61
(dp658
g69
I3
ssg70
g652
sg63
(lp659
S''
asbasbasbag56
(g72
g58
NtRp660
(dp661
g61
(dp662
sg70
g636
sg63
(lp663
g56
(g77
g58
NtRp664
(dp665
g61
(dp666
g81
g82
ssg70
g660
sg63
(lp667
g291
asbag56
(g77
g58
NtRp668
(dp669
g61
(dp670
g88
g89
ssg70
g660
sg63
(lp671
S':'
asbag56
(g77
g58
NtRp672
(dp673
g61
(dp674
sg70
g660
sg63
(lp675
g56
(g57
g58
NtRp676
(dp677
g61
(dp678
g69
I3
ssg70
g672
sg63
(lp679
S''
asbasbasbag56
(g72
g58
NtRp680
(dp681
g61
(dp682
sg70
g636
sg63
(lp683
g56
(g77
g58
NtRp684
(dp685
g61
(dp686
g81
g82
ssg70
g680
sg63
(lp687
g312
asbag56
(g77
g58
NtRp688
(dp689
g61
(dp690
g88
g89
ssg70
g680
sg63
(lp691
S':'
asbag56
(g77
g58
NtRp692
(dp693
g61
(dp694
sg70
g680
sg63
(lp695
g56
(g57
g58
NtRp696
(dp697
g61
(dp698
g69
I3
ssg70
g692
sg63
(lp699
S''
asbasbasbag56
(g72
g58
NtRp700
(dp701
g61
(dp702
sg70
g636
sg63
(lp703
g56
(g77
g58
NtRp704
(dp705
g61
(dp706
g81
g82
ssg70
g700
sg63
(lp707
g333
asbag56
(g77
g58
NtRp708
(dp709
g61
(dp710
g88
g89
ssg70
g700
sg63
(lp711
S':'
asbag56
(g77
g58
NtRp712
(dp713
g61
(dp714
sg70
g700
sg63
(lp715
g56
(g57
g58
NtRp716
(dp717
g61
(dp718
g69
I3
ssg70
g712
sg63
(lp719
S''
asbasbasbag56
(g72
g58
NtRp720
(dp721
g61
(dp722
sg70
g636
sg63
(lp723
g56
(g77
g58
NtRp724
(dp725
g61
(dp726
g81
g82
ssg70
g720
sg63
(lp727
g354
asbag56
(g77
g58
NtRp728
(dp729
g61
(dp730
g88
g89
ssg70
g720
sg63
(lp731
S':'
asbag56
(g77
g58
NtRp732
(dp733
g61
(dp734
sg70
g720
sg63
(lp735
g56
(g57
g58
NtRp736
(dp737
g61
(dp738
g69
I3
ssg70
g732
sg63
(lp739
S''
asbasbasbag56
(g72
g58
NtRp740
(dp741
g61
(dp742
sg70
g636
sg63
(lp743
g56
(g77
g58
NtRp744
(dp745
g61
(dp746
g81
g82
ssg70
g740
sg63
(lp747
g375
asbag56
(g77
g58
NtRp748
(dp749
g61
(dp750
g88
g89
ssg70
g740
sg63
(lp751
S':'
asbag56
(g77
g58
NtRp752
(dp753
g61
(dp754
sg70
g740
sg63
(lp755
g56
(g57
g58
NtRp756
(dp757
g61
(dp758
g69
I3
ssg70
g752
sg63
(lp759
S''
asbasbasbag56
(g72
g58
NtRp760
(dp761
g61
(dp762
sg70
g636
sg63
(lp763
g56
(g77
g58
NtRp764
(dp765
g61
(dp766
g81
g82
ssg70
g760
sg63
(lp767
g396
asbag56
(g77
g58
NtRp768
(dp769
g61
(dp770
g88
g89
ssg70
g760
sg63
(lp771
S':'
asbag56
(g77
g58
NtRp772
(dp773
g61
(dp774
sg70
g760
sg63
(lp775
g56
(g57
g58
NtRp776
(dp777
g61
(dp778
g69
I3
ssg70
g772
sg63
(lp779
S''
asbasbasbag56
(g72
g58
NtRp780
(dp781
g61
(dp782
sg70
g636
sg63
(lp783
g56
(g77
g58
NtRp784
(dp785
g61
(dp786
g81
g82
ssg70
g780
sg63
(lp787
g417
asbag56
(g77
g58
NtRp788
(dp789
g61
(dp790
g88
g89
ssg70
g780
sg63
(lp791
S':'
asbag56
(g77
g58
NtRp792
(dp793
g61
(dp794
sg70
g780
sg63
(lp795
g56
(g57
g58
NtRp796
(dp797
g61
(dp798
g69
I3
ssg70
g792
sg63
(lp799
S''
asbasbasbasbasbasbasbasbasbasbasbag56
(g72
g58
NtRp800
(dp801
g61
(dp802
sg70
g66
sg63
(lp803
g56
(g77
g58
NtRp804
(dp805
g61
(dp806
g81
g82
ssg70
g800
sg63
(lp807
S'env'
p808
asbag56
(g77
g58
NtRp809
(dp810
g61
(dp811
g88
g89
ssg70
g800
sg63
(lp812
S':'
asbag56
(g77
g58
NtRp813
(dp814
g61
(dp815
sg70
g800
sg63
(lp816
g56
(g57
g58
NtRp817
(dp818
g61
(dp819
g69
I5
ssg70
g813
sg63
(lp820
g56
(g65
g58
NtRp821
(dp822
g61
(dp823
g69
I4
ssg70
Nsg63
(lp824
g56
(g72
g58
NtRp825
(dp826
g61
(dp827
sg70
g821
sg63
(lp828
g56
(g77
g58
NtRp829
(dp830
g61
(dp831
g81
g82
ssg70
g825
sg63
(lp832
S'app_folders'
p833
asbag56
(g77
g58
NtRp834
(dp835
g61
(dp836
g88
g89
ssg70
g825
sg63
(lp837
S':'
asbag56
(g77
g58
NtRp838
(dp839
g61
(dp840
sg70
g825
sg63
(lp841
g56
(g57
g58
NtRp842
(dp843
g61
(dp844
g69
I4
ssg70
g838
sg63
(lp845
S"set(['/home/www-data/web2py/applications/scrum/', '/home/www-data/web2py/applications/welcome/', '/home/www-data/web2py/applications/admin/'])"
p846
asbasbasbag56
(g72
g58
NtRp847
(dp848
g61
(dp849
sg70
g821
sg63
(lp850
g56
(g77
g58
NtRp851
(dp852
g61
(dp853
g81
g82
ssg70
g847
sg63
(lp854
S'applications_parent'
p855
asbag56
(g77
g58
NtRp856
(dp857
g61
(dp858
g88
g89
ssg70
g847
sg63
(lp859
S':'
asbag56
(g77
g58
NtRp860
(dp861
g61
(dp862
sg70
g847
sg63
(lp863
g56
(g57
g58
NtRp864
(dp865
g61
(dp866
g69
I4
ssg70
g860
sg63
(lp867
S'/home/www-data/web2py'
p868
asbasbasbag56
(g72
g58
NtRp869
(dp870
g61
(dp871
sg70
g821
sg63
(lp872
g56
(g77
g58
NtRp873
(dp874
g61
(dp875
g81
g82
ssg70
g869
sg63
(lp876
S'db_sessions'
p877
asbag56
(g77
g58
NtRp878
(dp879
g61
(dp880
g88
g89
ssg70
g869
sg63
(lp881
S':'
asbag56
(g77
g58
NtRp882
(dp883
g61
(dp884
sg70
g869
sg63
(lp885
g56
(g57
g58
NtRp886
(dp887
g61
(dp888
g69
I4
ssg70
g882
sg63
(lp889
S'set([])'
p890
asbasbasbag56
(g72
g58
NtRp891
(dp892
g61
(dp893
sg70
g821
sg63
(lp894
g56
(g77
g58
NtRp895
(dp896
g61
(dp897
g81
g82
ssg70
g891
sg63
(lp898
S'debugging'
p899
asbag56
(g77
g58
NtRp900
(dp901
g61
(dp902
g88
g89
ssg70
g891
sg63
(lp903
S':'
asbag56
(g77
g58
NtRp904
(dp905
g61
(dp906
sg70
g891
sg63
(lp907
g56
(g57
g58
NtRp908
(dp909
g61
(dp910
g69
I4
ssg70
g904
sg63
(lp911
g99
asbasbasbag56
(g72
g58
NtRp912
(dp913
g61
(dp914
sg70
g821
sg63
(lp915
g56
(g77
g58
NtRp916
(dp917
g61
(dp918
g81
g82
ssg70
g912
sg63
(lp919
S'document_root'
p920
asbag56
(g77
g58
NtRp921
(dp922
g61
(dp923
g88
g89
ssg70
g912
sg63
(lp924
S':'
asbag56
(g77
g58
NtRp925
(dp926
g61
(dp927
sg70
g912
sg63
(lp928
g56
(g57
g58
NtRp929
(dp930
g61
(dp931
g69
I4
ssg70
g925
sg63
(lp932
S'/etc/apache2/htdocs'
p933
asbasbasbag56
(g72
g58
NtRp934
(dp935
g61
(dp936
sg70
g821
sg63
(lp937
g56
(g77
g58
NtRp938
(dp939
g61
(dp940
g81
g82
ssg70
g934
sg63
(lp941
S'gateway_interface'
p942
asbag56
(g77
g58
NtRp943
(dp944
g61
(dp945
g88
g89
ssg70
g934
sg63
(lp946
S':'
asbag56
(g77
g58
NtRp947
(dp948
g61
(dp949
sg70
g934
sg63
(lp950
g56
(g57
g58
NtRp951
(dp952
g61
(dp953
g69
I4
ssg70
g947
sg63
(lp954
S'CGI/1.1'
p955
asbasbasbag56
(g72
g58
NtRp956
(dp957
g61
(dp958
sg70
g821
sg63
(lp959
g56
(g77
g58
NtRp960
(dp961
g61
(dp962
g81
g82
ssg70
g956
sg63
(lp963
S'gluon_parent'
p964
asbag56
(g77
g58
NtRp965
(dp966
g61
(dp967
g88
g89
ssg70
g956
sg63
(lp968
S':'
asbag56
(g77
g58
NtRp969
(dp970
g61
(dp971
sg70
g956
sg63
(lp972
g56
(g57
g58
NtRp973
(dp974
g61
(dp975
g69
I4
ssg70
g969
sg63
(lp976
g868
asbasbasbag56
(g72
g58
NtRp977
(dp978
g61
(dp979
sg70
g821
sg63
(lp980
g56
(g77
g58
NtRp981
(dp982
g61
(dp983
g81
g82
ssg70
g977
sg63
(lp984
S'http_accept'
p985
asbag56
(g77
g58
NtRp986
(dp987
g61
(dp988
g88
g89
ssg70
g977
sg63
(lp989
S':'
asbag56
(g77
g58
NtRp990
(dp991
g61
(dp992
sg70
g977
sg63
(lp993
g56
(g57
g58
NtRp994
(dp995
g61
(dp996
g69
I4
ssg70
g990
sg63
(lp997
S'text/html, application/xml;q=0.9, application/xhtml+xml, image/png, image/webp, image/jpeg, image/gif, image/x-xbitmap, */*;q=0.1'
p998
asbasbasbag56
(g72
g58
NtRp999
(dp1000
g61
(dp1001
sg70
g821
sg63
(lp1002
g56
(g77
g58
NtRp1003
(dp1004
g61
(dp1005
g81
g82
ssg70
g999
sg63
(lp1006
S'http_accept_encoding'
p1007
asbag56
(g77
g58
NtRp1008
(dp1009
g61
(dp1010
g88
g89
ssg70
g999
sg63
(lp1011
S':'
asbag56
(g77
g58
NtRp1012
(dp1013
g61
(dp1014
sg70
g999
sg63
(lp1015
g56
(g57
g58
NtRp1016
(dp1017
g61
(dp1018
g69
I4
ssg70
g1012
sg63
(lp1019
S'gzip, deflate'
p1020
asbasbasbag56
(g72
g58
NtRp1021
(dp1022
g61
(dp1023
sg70
g821
sg63
(lp1024
g56
(g77
g58
NtRp1025
(dp1026
g61
(dp1027
g81
g82
ssg70
g1021
sg63
(lp1028
S'http_accept_language'
p1029
asbag56
(g77
g58
NtRp1030
(dp1031
g61
(dp1032
g88
g89
ssg70
g1021
sg63
(lp1033
S':'
asbag56
(g77
g58
NtRp1034
(dp1035
g61
(dp1036
sg70
g1021
sg63
(lp1037
g56
(g57
g58
NtRp1038
(dp1039
g61
(dp1040
g69
I4
ssg70
g1034
sg63
(lp1041
S'pt-BR,pt;q=0.9,en;q=0.8'
p1042
asbasbasbag56
(g72
g58
NtRp1043
(dp1044
g61
(dp1045
sg70
g821
sg63
(lp1046
g56
(g77
g58
NtRp1047
(dp1048
g61
(dp1049
g81
g82
ssg70
g1043
sg63
(lp1050
S'http_cache_control'
p1051
asbag56
(g77
g58
NtRp1052
(dp1053
g61
(dp1054
g88
g89
ssg70
g1043
sg63
(lp1055
S':'
asbag56
(g77
g58
NtRp1056
(dp1057
g61
(dp1058
sg70
g1043
sg63
(lp1059
g56
(g57
g58
NtRp1060
(dp1061
g61
(dp1062
g69
I4
ssg70
g1056
sg63
(lp1063
S'no-cache'
p1064
asbasbasbag56
(g72
g58
NtRp1065
(dp1066
g61
(dp1067
sg70
g821
sg63
(lp1068
g56
(g77
g58
NtRp1069
(dp1070
g61
(dp1071
g81
g82
ssg70
g1065
sg63
(lp1072
S'http_connection'
p1073
asbag56
(g77
g58
NtRp1074
(dp1075
g61
(dp1076
g88
g89
ssg70
g1065
sg63
(lp1077
S':'
asbag56
(g77
g58
NtRp1078
(dp1079
g61
(dp1080
sg70
g1065
sg63
(lp1081
g56
(g57
g58
NtRp1082
(dp1083
g61
(dp1084
g69
I4
ssg70
g1078
sg63
(lp1085
S'Keep-Alive'
p1086
asbasbasbag56
(g72
g58
NtRp1087
(dp1088
g61
(dp1089
sg70
g821
sg63
(lp1090
g56
(g77
g58
NtRp1091
(dp1092
g61
(dp1093
g81
g82
ssg70
g1087
sg63
(lp1094
S'http_cookie'
p1095
asbag56
(g77
g58
NtRp1096
(dp1097
g61
(dp1098
g88
g89
ssg70
g1087
sg63
(lp1099
S':'
asbag56
(g77
g58
NtRp1100
(dp1101
g61
(dp1102
sg70
g1087
sg63
(lp1103
g56
(g57
g58
NtRp1104
(dp1105
g61
(dp1106
g69
I4
ssg70
g1100
sg63
(lp1107
S'session_id_welcome=127.0.0.1-59bb9f3c-ccbe-49d8-bb33-39cb1149a47f; session_id_scrum=127.0.0.1-f47d3ac4-8d8c-46d5-8321-f944561d518f; session_id_admin=127.0.0.1-ce034cfe-dc55-49ae-8249-b059df779a22'
p1108
asbasbasbag56
(g72
g58
NtRp1109
(dp1110
g61
(dp1111
sg70
g821
sg63
(lp1112
g56
(g77
g58
NtRp1113
(dp1114
g61
(dp1115
g81
g82
ssg70
g1109
sg63
(lp1116
S'http_host'
p1117
asbag56
(g77
g58
NtRp1118
(dp1119
g61
(dp1120
g88
g89
ssg70
g1109
sg63
(lp1121
S':'
asbag56
(g77
g58
NtRp1122
(dp1123
g61
(dp1124
sg70
g1109
sg63
(lp1125
g56
(g57
g58
NtRp1126
(dp1127
g61
(dp1128
g69
I4
ssg70
g1122
sg63
(lp1129
S'localhost'
p1130
asbasbasbag56
(g72
g58
NtRp1131
(dp1132
g61
(dp1133
sg70
g821
sg63
(lp1134
g56
(g77
g58
NtRp1135
(dp1136
g61
(dp1137
g81
g82
ssg70
g1131
sg63
(lp1138
S'http_user_agent'
p1139
asbag56
(g77
g58
NtRp1140
(dp1141
g61
(dp1142
g88
g89
ssg70
g1131
sg63
(lp1143
S':'
asbag56
(g77
g58
NtRp1144
(dp1145
g61
(dp1146
sg70
g1131
sg63
(lp1147
g56
(g57
g58
NtRp1148
(dp1149
g61
(dp1150
g69
I4
ssg70
g1144
sg63
(lp1151
S'Opera/9.80 (X11; Linux i686; U; pt-BR) Presto/2.9.168 Version/11.51'
p1152
asbasbasbag56
(g72
g58
NtRp1153
(dp1154
g61
(dp1155
sg70
g821
sg63
(lp1156
g56
(g77
g58
NtRp1157
(dp1158
g61
(dp1159
g81
g82
ssg70
g1153
sg63
(lp1160
S'https'
p1161
asbag56
(g77
g58
NtRp1162
(dp1163
g61
(dp1164
g88
g89
ssg70
g1153
sg63
(lp1165
S':'
asbag56
(g77
g58
NtRp1166
(dp1167
g61
(dp1168
sg70
g1153
sg63
(lp1169
g56
(g57
g58
NtRp1170
(dp1171
g61
(dp1172
g69
I4
ssg70
g1166
sg63
(lp1173
S'1'
asbasbasbag56
(g72
g58
NtRp1174
(dp1175
g61
(dp1176
sg70
g821
sg63
(lp1177
g56
(g77
g58
NtRp1178
(dp1179
g61
(dp1180
g81
g82
ssg70
g1174
sg63
(lp1181
S'is_jython'
p1182
asbag56
(g77
g58
NtRp1183
(dp1184
g61
(dp1185
g88
g89
ssg70
g1174
sg63
(lp1186
S':'
asbag56
(g77
g58
NtRp1187
(dp1188
g61
(dp1189
sg70
g1174
sg63
(lp1190
g56
(g57
g58
NtRp1191
(dp1192
g61
(dp1193
g69
I4
ssg70
g1187
sg63
(lp1194
g99
asbasbasbag56
(g72
g58
NtRp1195
(dp1196
g61
(dp1197
sg70
g821
sg63
(lp1198
g56
(g77
g58
NtRp1199
(dp1200
g61
(dp1201
g81
g82
ssg70
g1195
sg63
(lp1202
S'mod_wsgi_application_group'
p1203
asbag56
(g77
g58
NtRp1204
(dp1205
g61
(dp1206
g88
g89
ssg70
g1195
sg63
(lp1207
S':'
asbag56
(g77
g58
NtRp1208
(dp1209
g61
(dp1210
sg70
g1195
sg63
(lp1211
g56
(g57
g58
NtRp1212
(dp1213
g61
(dp1214
g69
I4
ssg70
g1208
sg63
(lp1215
S'localhost.localdomain|'
p1216
asbasbasbag56
(g72
g58
NtRp1217
(dp1218
g61
(dp1219
sg70
g821
sg63
(lp1220
g56
(g77
g58
NtRp1221
(dp1222
g61
(dp1223
g81
g82
ssg70
g1217
sg63
(lp1224
S'mod_wsgi_callable_object'
p1225
asbag56
(g77
g58
NtRp1226
(dp1227
g61
(dp1228
g88
g89
ssg70
g1217
sg63
(lp1229
S':'
asbag56
(g77
g58
NtRp1230
(dp1231
g61
(dp1232
sg70
g1217
sg63
(lp1233
g56
(g57
g58
NtRp1234
(dp1235
g61
(dp1236
g69
I4
ssg70
g1230
sg63
(lp1237
S'application'
p1238
asbasbasbag56
(g72
g58
NtRp1239
(dp1240
g61
(dp1241
sg70
g821
sg63
(lp1242
g56
(g77
g58
NtRp1243
(dp1244
g61
(dp1245
g81
g82
ssg70
g1239
sg63
(lp1246
S'mod_wsgi_handler_script'
p1247
asbag56
(g77
g58
NtRp1248
(dp1249
g61
(dp1250
g88
g89
ssg70
g1239
sg63
(lp1251
S':'
asbag56
(g77
g58
NtRp1252
(dp1253
g61
(dp1254
sg70
g1239
sg63
(lp1255
g56
(g57
g58
NtRp1256
(dp1257
g61
(dp1258
g69
I4
ssg70
g1252
sg63
(lp1259
S''
asbasbasbag56
(g72
g58
NtRp1260
(dp1261
g61
(dp1262
sg70
g821
sg63
(lp1263
g56
(g77
g58
NtRp1264
(dp1265
g61
(dp1266
g81
g82
ssg70
g1260
sg63
(lp1267
S'mod_wsgi_input_chunked'
p1268
asbag56
(g77
g58
NtRp1269
(dp1270
g61
(dp1271
g88
g89
ssg70
g1260
sg63
(lp1272
S':'
asbag56
(g77
g58
NtRp1273
(dp1274
g61
(dp1275
sg70
g1260
sg63
(lp1276
g56
(g57
g58
NtRp1277
(dp1278
g61
(dp1279
g69
I4
ssg70
g1273
sg63
(lp1280
S'0'
asbasbasbag56
(g72
g58
NtRp1281
(dp1282
g61
(dp1283
sg70
g821
sg63
(lp1284
g56
(g77
g58
NtRp1285
(dp1286
g61
(dp1287
g81
g82
ssg70
g1281
sg63
(lp1288
S'mod_wsgi_listener_host'
p1289
asbag56
(g77
g58
NtRp1290
(dp1291
g61
(dp1292
g88
g89
ssg70
g1281
sg63
(lp1293
S':'
asbag56
(g77
g58
NtRp1294
(dp1295
g61
(dp1296
sg70
g1281
sg63
(lp1297
g56
(g57
g58
NtRp1298
(dp1299
g61
(dp1300
g69
I4
ssg70
g1294
sg63
(lp1301
S''
asbasbasbag56
(g72
g58
NtRp1302
(dp1303
g61
(dp1304
sg70
g821
sg63
(lp1305
g56
(g77
g58
NtRp1306
(dp1307
g61
(dp1308
g81
g82
ssg70
g1302
sg63
(lp1309
S'mod_wsgi_listener_port'
p1310
asbag56
(g77
g58
NtRp1311
(dp1312
g61
(dp1313
g88
g89
ssg70
g1302
sg63
(lp1314
S':'
asbag56
(g77
g58
NtRp1315
(dp1316
g61
(dp1317
sg70
g1302
sg63
(lp1318
g56
(g57
g58
NtRp1319
(dp1320
g61
(dp1321
g69
I4
ssg70
g1315
sg63
(lp1322
S'443'
p1323
asbasbasbag56
(g72
g58
NtRp1324
(dp1325
g61
(dp1326
sg70
g821
sg63
(lp1327
g56
(g77
g58
NtRp1328
(dp1329
g61
(dp1330
g81
g82
ssg70
g1324
sg63
(lp1331
S'mod_wsgi_process_group'
p1332
asbag56
(g77
g58
NtRp1333
(dp1334
g61
(dp1335
g88
g89
ssg70
g1324
sg63
(lp1336
S':'
asbag56
(g77
g58
NtRp1337
(dp1338
g61
(dp1339
sg70
g1324
sg63
(lp1340
g56
(g57
g58
NtRp1341
(dp1342
g61
(dp1343
g69
I4
ssg70
g1337
sg63
(lp1344
S'web2py'
p1345
asbasbasbag56
(g72
g58
NtRp1346
(dp1347
g61
(dp1348
sg70
g821
sg63
(lp1349
g56
(g77
g58
NtRp1350
(dp1351
g61
(dp1352
g81
g82
ssg70
g1346
sg63
(lp1353
S'mod_wsgi_request_handler'
p1354
asbag56
(g77
g58
NtRp1355
(dp1356
g61
(dp1357
g88
g89
ssg70
g1346
sg63
(lp1358
S':'
asbag56
(g77
g58
NtRp1359
(dp1360
g61
(dp1361
sg70
g1346
sg63
(lp1362
g56
(g57
g58
NtRp1363
(dp1364
g61
(dp1365
g69
I4
ssg70
g1359
sg63
(lp1366
S'wsgi-script'
p1367
asbasbasbag56
(g72
g58
NtRp1368
(dp1369
g61
(dp1370
sg70
g821
sg63
(lp1371
g56
(g77
g58
NtRp1372
(dp1373
g61
(dp1374
g81
g82
ssg70
g1368
sg63
(lp1375
S'mod_wsgi_script_reloading'
p1376
asbag56
(g77
g58
NtRp1377
(dp1378
g61
(dp1379
g88
g89
ssg70
g1368
sg63
(lp1380
S':'
asbag56
(g77
g58
NtRp1381
(dp1382
g61
(dp1383
sg70
g1368
sg63
(lp1384
g56
(g57
g58
NtRp1385
(dp1386
g61
(dp1387
g69
I4
ssg70
g1381
sg63
(lp1388
S'1'
asbasbasbag56
(g72
g58
NtRp1389
(dp1390
g61
(dp1391
sg70
g821
sg63
(lp1392
g56
(g77
g58
NtRp1393
(dp1394
g61
(dp1395
g81
g82
ssg70
g1389
sg63
(lp1396
S'mod_wsgi_version'
p1397
asbag56
(g77
g58
NtRp1398
(dp1399
g61
(dp1400
g88
g89
ssg70
g1389
sg63
(lp1401
S':'
asbag56
(g77
g58
NtRp1402
(dp1403
g61
(dp1404
sg70
g1389
sg63
(lp1405
g56
(g57
g58
NtRp1406
(dp1407
g61
(dp1408
g69
I4
ssg70
g1402
sg63
(lp1409
g56
(g65
g58
NtRp1410
(dp1411
g61
(dp1412
g69
I3
ssg70
Nsg63
(lp1413
g56
(g72
g58
NtRp1414
(dp1415
g61
(dp1416
sg70
g1410
sg63
(lp1417
g56
(g77
g58
NtRp1418
(dp1419
g61
(dp1420
sg70
g1414
sg63
(lp1421
g56
(g57
g58
NtRp1422
(dp1423
g61
(dp1424
g69
I3
ssg70
g1418
sg63
(lp1425
S'3'
asbasbasbag56
(g72
g58
NtRp1426
(dp1427
g61
(dp1428
sg70
g1410
sg63
(lp1429
g56
(g77
g58
NtRp1430
(dp1431
g61
(dp1432
sg70
g1426
sg63
(lp1433
g56
(g57
g58
NtRp1434
(dp1435
g61
(dp1436
g69
I3
ssg70
g1430
sg63
(lp1437
S'3'
asbasbasbasbasbasbasbag56
(g72
g58
NtRp1438
(dp1439
g61
(dp1440
sg70
g821
sg63
(lp1441
g56
(g77
g58
NtRp1442
(dp1443
g61
(dp1444
g81
g82
ssg70
g1438
sg63
(lp1445
S'path_info'
p1446
asbag56
(g77
g58
NtRp1447
(dp1448
g61
(dp1449
g88
g89
ssg70
g1438
sg63
(lp1450
S':'
asbag56
(g77
g58
NtRp1451
(dp1452
g61
(dp1453
sg70
g1438
sg63
(lp1454
g56
(g57
g58
NtRp1455
(dp1456
g61
(dp1457
g69
I4
ssg70
g1451
sg63
(lp1458
S'/scrum/ticket/novo'
p1459
asbasbasbag56
(g72
g58
NtRp1460
(dp1461
g61
(dp1462
sg70
g821
sg63
(lp1463
g56
(g77
g58
NtRp1464
(dp1465
g61
(dp1466
g81
g82
ssg70
g1460
sg63
(lp1467
S'path_translated'
p1468
asbag56
(g77
g58
NtRp1469
(dp1470
g61
(dp1471
g88
g89
ssg70
g1460
sg63
(lp1472
S':'
asbag56
(g77
g58
NtRp1473
(dp1474
g61
(dp1475
sg70
g1460
sg63
(lp1476
g56
(g57
g58
NtRp1477
(dp1478
g61
(dp1479
g69
I4
ssg70
g1473
sg63
(lp1480
S'/home/www-data/web2py/wsgihandler.py/scrum/ticket/novo'
p1481
asbasbasbag56
(g72
g58
NtRp1482
(dp1483
g61
(dp1484
sg70
g821
sg63
(lp1485
g56
(g77
g58
NtRp1486
(dp1487
g61
(dp1488
g81
g82
ssg70
g1482
sg63
(lp1489
S'query_string'
p1490
asbag56
(g77
g58
NtRp1491
(dp1492
g61
(dp1493
g88
g89
ssg70
g1482
sg63
(lp1494
S':'
asbag56
(g77
g58
NtRp1495
(dp1496
g61
(dp1497
sg70
g1482
sg63
(lp1498
g56
(g57
g58
NtRp1499
(dp1500
g61
(dp1501
g69
I4
ssg70
g1495
sg63
(lp1502
S''
asbasbasbag56
(g72
g58
NtRp1503
(dp1504
g61
(dp1505
sg70
g821
sg63
(lp1506
g56
(g77
g58
NtRp1507
(dp1508
g61
(dp1509
g81
g82
ssg70
g1503
sg63
(lp1510
S'remote_addr'
p1511
asbag56
(g77
g58
NtRp1512
(dp1513
g61
(dp1514
g88
g89
ssg70
g1503
sg63
(lp1515
S':'
asbag56
(g77
g58
NtRp1516
(dp1517
g61
(dp1518
sg70
g1503
sg63
(lp1519
g56
(g57
g58
NtRp1520
(dp1521
g61
(dp1522
g69
I4
ssg70
g1516
sg63
(lp1523
g189
asbasbasbag56
(g72
g58
NtRp1524
(dp1525
g61
(dp1526
sg70
g821
sg63
(lp1527
g56
(g77
g58
NtRp1528
(dp1529
g61
(dp1530
g81
g82
ssg70
g1524
sg63
(lp1531
S'remote_port'
p1532
asbag56
(g77
g58
NtRp1533
(dp1534
g61
(dp1535
g88
g89
ssg70
g1524
sg63
(lp1536
S':'
asbag56
(g77
g58
NtRp1537
(dp1538
g61
(dp1539
sg70
g1524
sg63
(lp1540
g56
(g57
g58
NtRp1541
(dp1542
g61
(dp1543
g69
I4
ssg70
g1537
sg63
(lp1544
S'39616'
p1545
asbasbasbag56
(g72
g58
NtRp1546
(dp1547
g61
(dp1548
sg70
g821
sg63
(lp1549
g56
(g77
g58
NtRp1550
(dp1551
g61
(dp1552
g81
g82
ssg70
g1546
sg63
(lp1553
S'request_method'
p1554
asbag56
(g77
g58
NtRp1555
(dp1556
g61
(dp1557
g88
g89
ssg70
g1546
sg63
(lp1558
S':'
asbag56
(g77
g58
NtRp1559
(dp1560
g61
(dp1561
sg70
g1546
sg63
(lp1562
g56
(g57
g58
NtRp1563
(dp1564
g61
(dp1565
g69
I4
ssg70
g1559
sg63
(lp1566
S'GET'
p1567
asbasbasbag56
(g72
g58
NtRp1568
(dp1569
g61
(dp1570
sg70
g821
sg63
(lp1571
g56
(g77
g58
NtRp1572
(dp1573
g61
(dp1574
g81
g82
ssg70
g1568
sg63
(lp1575
S'request_uri'
p1576
asbag56
(g77
g58
NtRp1577
(dp1578
g61
(dp1579
g88
g89
ssg70
g1568
sg63
(lp1580
S':'
asbag56
(g77
g58
NtRp1581
(dp1582
g61
(dp1583
sg70
g1568
sg63
(lp1584
g56
(g57
g58
NtRp1585
(dp1586
g61
(dp1587
g69
I4
ssg70
g1581
sg63
(lp1588
S'/scrum/ticket/novo'
p1589
asbasbasbag56
(g72
g58
NtRp1590
(dp1591
g61
(dp1592
sg70
g821
sg63
(lp1593
g56
(g77
g58
NtRp1594
(dp1595
g61
(dp1596
g81
g82
ssg70
g1590
sg63
(lp1597
S'script_filename'
p1598
asbag56
(g77
g58
NtRp1599
(dp1600
g61
(dp1601
g88
g89
ssg70
g1590
sg63
(lp1602
S':'
asbag56
(g77
g58
NtRp1603
(dp1604
g61
(dp1605
sg70
g1590
sg63
(lp1606
g56
(g57
g58
NtRp1607
(dp1608
g61
(dp1609
g69
I4
ssg70
g1603
sg63
(lp1610
S'/home/www-data/web2py/wsgihandler.py'
p1611
asbasbasbag56
(g72
g58
NtRp1612
(dp1613
g61
(dp1614
sg70
g821
sg63
(lp1615
g56
(g77
g58
NtRp1616
(dp1617
g61
(dp1618
g81
g82
ssg70
g1612
sg63
(lp1619
S'script_name'
p1620
asbag56
(g77
g58
NtRp1621
(dp1622
g61
(dp1623
g88
g89
ssg70
g1612
sg63
(lp1624
S':'
asbag56
(g77
g58
NtRp1625
(dp1626
g61
(dp1627
sg70
g1612
sg63
(lp1628
g56
(g57
g58
NtRp1629
(dp1630
g61
(dp1631
g69
I4
ssg70
g1625
sg63
(lp1632
S''
asbasbasbag56
(g72
g58
NtRp1633
(dp1634
g61
(dp1635
sg70
g821
sg63
(lp1636
g56
(g77
g58
NtRp1637
(dp1638
g61
(dp1639
g81
g82
ssg70
g1633
sg63
(lp1640
S'server_addr'
p1641
asbag56
(g77
g58
NtRp1642
(dp1643
g61
(dp1644
g88
g89
ssg70
g1633
sg63
(lp1645
S':'
asbag56
(g77
g58
NtRp1646
(dp1647
g61
(dp1648
sg70
g1633
sg63
(lp1649
g56
(g57
g58
NtRp1650
(dp1651
g61
(dp1652
g69
I4
ssg70
g1646
sg63
(lp1653
S'127.0.0.1'
p1654
asbasbasbag56
(g72
g58
NtRp1655
(dp1656
g61
(dp1657
sg70
g821
sg63
(lp1658
g56
(g77
g58
NtRp1659
(dp1660
g61
(dp1661
g81
g82
ssg70
g1655
sg63
(lp1662
S'server_admin'
p1663
asbag56
(g77
g58
NtRp1664
(dp1665
g61
(dp1666
g88
g89
ssg70
g1655
sg63
(lp1667
S':'
asbag56
(g77
g58
NtRp1668
(dp1669
g61
(dp1670
sg70
g1655
sg63
(lp1671
g56
(g57
g58
NtRp1672
(dp1673
g61
(dp1674
g69
I4
ssg70
g1668
sg63
(lp1675
S'[no address given]'
p1676
asbasbasbag56
(g72
g58
NtRp1677
(dp1678
g61
(dp1679
sg70
g821
sg63
(lp1680
g56
(g77
g58
NtRp1681
(dp1682
g61
(dp1683
g81
g82
ssg70
g1677
sg63
(lp1684
S'server_name'
p1685
asbag56
(g77
g58
NtRp1686
(dp1687
g61
(dp1688
g88
g89
ssg70
g1677
sg63
(lp1689
S':'
asbag56
(g77
g58
NtRp1690
(dp1691
g61
(dp1692
sg70
g1677
sg63
(lp1693
g56
(g57
g58
NtRp1694
(dp1695
g61
(dp1696
g69
I4
ssg70
g1690
sg63
(lp1697
S'localhost'
p1698
asbasbasbag56
(g72
g58
NtRp1699
(dp1700
g61
(dp1701
sg70
g821
sg63
(lp1702
g56
(g77
g58
NtRp1703
(dp1704
g61
(dp1705
g81
g82
ssg70
g1699
sg63
(lp1706
S'server_port'
p1707
asbag56
(g77
g58
NtRp1708
(dp1709
g61
(dp1710
g88
g89
ssg70
g1699
sg63
(lp1711
S':'
asbag56
(g77
g58
NtRp1712
(dp1713
g61
(dp1714
sg70
g1699
sg63
(lp1715
g56
(g57
g58
NtRp1716
(dp1717
g61
(dp1718
g69
I4
ssg70
g1712
sg63
(lp1719
S'443'
p1720
asbasbasbag56
(g72
g58
NtRp1721
(dp1722
g61
(dp1723
sg70
g821
sg63
(lp1724
g56
(g77
g58
NtRp1725
(dp1726
g61
(dp1727
g81
g82
ssg70
g1721
sg63
(lp1728
S'server_protocol'
p1729
asbag56
(g77
g58
NtRp1730
(dp1731
g61
(dp1732
g88
g89
ssg70
g1721
sg63
(lp1733
S':'
asbag56
(g77
g58
NtRp1734
(dp1735
g61
(dp1736
sg70
g1721
sg63
(lp1737
g56
(g57
g58
NtRp1738
(dp1739
g61
(dp1740
g69
I4
ssg70
g1734
sg63
(lp1741
S'HTTP/1.1'
p1742
asbasbasbag56
(g72
g58
NtRp1743
(dp1744
g61
(dp1745
sg70
g821
sg63
(lp1746
g56
(g77
g58
NtRp1747
(dp1748
g61
(dp1749
g81
g82
ssg70
g1743
sg63
(lp1750
S'server_signature'
p1751
asbag56
(g77
g58
NtRp1752
(dp1753
g61
(dp1754
g88
g89
ssg70
g1743
sg63
(lp1755
S':'
asbag56
(g77
g58
NtRp1756
(dp1757
g61
(dp1758
sg70
g1743
sg63
(lp1759
g56
(g57
g58
NtRp1760
(dp1761
g61
(dp1762
g69
I4
ssg70
g1756
sg63
(lp1763
S'<address>Apache/2.2.17 (Ubuntu) Server at localhost Port 443</address>\n'
p1764
asbasbasbag56
(g72
g58
NtRp1765
(dp1766
g61
(dp1767
sg70
g821
sg63
(lp1768
g56
(g77
g58
NtRp1769
(dp1770
g61
(dp1771
g81
g82
ssg70
g1765
sg63
(lp1772
S'server_software'
p1773
asbag56
(g77
g58
NtRp1774
(dp1775
g61
(dp1776
g88
g89
ssg70
g1765
sg63
(lp1777
S':'
asbag56
(g77
g58
NtRp1778
(dp1779
g61
(dp1780
sg70
g1765
sg63
(lp1781
g56
(g57
g58
NtRp1782
(dp1783
g61
(dp1784
g69
I4
ssg70
g1778
sg63
(lp1785
S'Apache/2.2.17 (Ubuntu)'
p1786
asbasbasbag56
(g72
g58
NtRp1787
(dp1788
g61
(dp1789
sg70
g821
sg63
(lp1790
g56
(g77
g58
NtRp1791
(dp1792
g61
(dp1793
g81
g82
ssg70
g1787
sg63
(lp1794
S'ssl_tls_sni'
p1795
asbag56
(g77
g58
NtRp1796
(dp1797
g61
(dp1798
g88
g89
ssg70
g1787
sg63
(lp1799
S':'
asbag56
(g77
g58
NtRp1800
(dp1801
g61
(dp1802
sg70
g1787
sg63
(lp1803
g56
(g57
g58
NtRp1804
(dp1805
g61
(dp1806
g69
I4
ssg70
g1800
sg63
(lp1807
S'localhost'
p1808
asbasbasbag56
(g72
g58
NtRp1809
(dp1810
g61
(dp1811
sg70
g821
sg63
(lp1812
g56
(g77
g58
NtRp1813
(dp1814
g61
(dp1815
g81
g82
ssg70
g1809
sg63
(lp1816
S'web2py_path'
p1817
asbag56
(g77
g58
NtRp1818
(dp1819
g61
(dp1820
g88
g89
ssg70
g1809
sg63
(lp1821
S':'
asbag56
(g77
g58
NtRp1822
(dp1823
g61
(dp1824
sg70
g1809
sg63
(lp1825
g56
(g57
g58
NtRp1826
(dp1827
g61
(dp1828
g69
I4
ssg70
g1822
sg63
(lp1829
g868
asbasbasbag56
(g72
g58
NtRp1830
(dp1831
g61
(dp1832
sg70
g821
sg63
(lp1833
g56
(g77
g58
NtRp1834
(dp1835
g61
(dp1836
g81
g82
ssg70
g1830
sg63
(lp1837
S'web2py_version'
p1838
asbag56
(g77
g58
NtRp1839
(dp1840
g61
(dp1841
g88
g89
ssg70
g1830
sg63
(lp1842
S':'
asbag56
(g77
g58
NtRp1843
(dp1844
g61
(dp1845
sg70
g1830
sg63
(lp1846
g56
(g57
g58
NtRp1847
(dp1848
g61
(dp1849
g69
I4
ssg70
g1843
sg63
(lp1850
S'Version 1.98.2 (2011-08-04 00:47:09)\n'
p1851
asbasbasbag56
(g72
g58
NtRp1852
(dp1853
g61
(dp1854
sg70
g821
sg63
(lp1855
g56
(g77
g58
NtRp1856
(dp1857
g61
(dp1858
g81
g82
ssg70
g1852
sg63
(lp1859
S'wsgi_errors'
p1860
asbag56
(g77
g58
NtRp1861
(dp1862
g61
(dp1863
g88
g89
ssg70
g1852
sg63
(lp1864
S':'
asbag56
(g77
g58
NtRp1865
(dp1866
g61
(dp1867
sg70
g1852
sg63
(lp1868
g56
(g57
g58
NtRp1869
(dp1870
g61
(dp1871
g69
I4
ssg70
g1865
sg63
(lp1872
S'<mod_wsgi.Log object at 0xb9e8b318>'
p1873
asbasbasbag56
(g72
g58
NtRp1874
(dp1875
g61
(dp1876
sg70
g821
sg63
(lp1877
g56
(g77
g58
NtRp1878
(dp1879
g61
(dp1880
g81
g82
ssg70
g1874
sg63
(lp1881
S'wsgi_file_wrapper'
p1882
asbag56
(g77
g58
NtRp1883
(dp1884
g61
(dp1885
g88
g89
ssg70
g1874
sg63
(lp1886
S':'
asbag56
(g77
g58
NtRp1887
(dp1888
g61
(dp1889
sg70
g1874
sg63
(lp1890
g56
(g57
g58
NtRp1891
(dp1892
g61
(dp1893
g69
I4
ssg70
g1887
sg63
(lp1894
S'<built-in method file_wrapper of mod_wsgi.Adapter object at 0xb960dec0>'
p1895
asbasbasbag56
(g72
g58
NtRp1896
(dp1897
g61
(dp1898
sg70
g821
sg63
(lp1899
g56
(g77
g58
NtRp1900
(dp1901
g61
(dp1902
g81
g82
ssg70
g1896
sg63
(lp1903
S'wsgi_input'
p1904
asbag56
(g77
g58
NtRp1905
(dp1906
g61
(dp1907
g88
g89
ssg70
g1896
sg63
(lp1908
S':'
asbag56
(g77
g58
NtRp1909
(dp1910
g61
(dp1911
sg70
g1896
sg63
(lp1912
g56
(g57
g58
NtRp1913
(dp1914
g61
(dp1915
g69
I4
ssg70
g1909
sg63
(lp1916
S'<mod_wsgi.Input object at 0xb9e8b2f0>'
p1917
asbasbasbag56
(g72
g58
NtRp1918
(dp1919
g61
(dp1920
sg70
g821
sg63
(lp1921
g56
(g77
g58
NtRp1922
(dp1923
g61
(dp1924
g81
g82
ssg70
g1918
sg63
(lp1925
S'wsgi_multiprocess'
p1926
asbag56
(g77
g58
NtRp1927
(dp1928
g61
(dp1929
g88
g89
ssg70
g1918
sg63
(lp1930
S':'
asbag56
(g77
g58
NtRp1931
(dp1932
g61
(dp1933
sg70
g1918
sg63
(lp1934
g56
(g57
g58
NtRp1935
(dp1936
g61
(dp1937
g69
I4
ssg70
g1931
sg63
(lp1938
g99
asbasbasbag56
(g72
g58
NtRp1939
(dp1940
g61
(dp1941
sg70
g821
sg63
(lp1942
g56
(g77
g58
NtRp1943
(dp1944
g61
(dp1945
g81
g82
ssg70
g1939
sg63
(lp1946
S'wsgi_multithread'
p1947
asbag56
(g77
g58
NtRp1948
(dp1949
g61
(dp1950
g88
g89
ssg70
g1939
sg63
(lp1951
S':'
asbag56
(g77
g58
NtRp1952
(dp1953
g61
(dp1954
sg70
g1939
sg63
(lp1955
g56
(g57
g58
NtRp1956
(dp1957
g61
(dp1958
g69
I4
ssg70
g1952
sg63
(lp1959
S'True'
p1960
asbasbasbag56
(g72
g58
NtRp1961
(dp1962
g61
(dp1963
sg70
g821
sg63
(lp1964
g56
(g77
g58
NtRp1965
(dp1966
g61
(dp1967
g81
g82
ssg70
g1961
sg63
(lp1968
S'wsgi_run_once'
p1969
asbag56
(g77
g58
NtRp1970
(dp1971
g61
(dp1972
g88
g89
ssg70
g1961
sg63
(lp1973
S':'
asbag56
(g77
g58
NtRp1974
(dp1975
g61
(dp1976
sg70
g1961
sg63
(lp1977
g56
(g57
g58
NtRp1978
(dp1979
g61
(dp1980
g69
I4
ssg70
g1974
sg63
(lp1981
g99
asbasbasbag56
(g72
g58
NtRp1982
(dp1983
g61
(dp1984
sg70
g821
sg63
(lp1985
g56
(g77
g58
NtRp1986
(dp1987
g61
(dp1988
g81
g82
ssg70
g1982
sg63
(lp1989
S'wsgi_url_scheme'
p1990
asbag56
(g77
g58
NtRp1991
(dp1992
g61
(dp1993
g88
g89
ssg70
g1982
sg63
(lp1994
S':'
asbag56
(g77
g58
NtRp1995
(dp1996
g61
(dp1997
sg70
g1982
sg63
(lp1998
g56
(g57
g58
NtRp1999
(dp2000
g61
(dp2001
g69
I4
ssg70
g1995
sg63
(lp2002
S'https'
p2003
asbasbasbag56
(g72
g58
NtRp2004
(dp2005
g61
(dp2006
sg70
g821
sg63
(lp2007
g56
(g77
g58
NtRp2008
(dp2009
g61
(dp2010
g81
g82
ssg70
g2004
sg63
(lp2011
S'wsgi_version'
p2012
asbag56
(g77
g58
NtRp2013
(dp2014
g61
(dp2015
g88
g89
ssg70
g2004
sg63
(lp2016
S':'
asbag56
(g77
g58
NtRp2017
(dp2018
g61
(dp2019
sg70
g2004
sg63
(lp2020
g56
(g57
g58
NtRp2021
(dp2022
g61
(dp2023
g69
I4
ssg70
g2017
sg63
(lp2024
g56
(g65
g58
NtRp2025
(dp2026
g61
(dp2027
g69
I3
ssg70
Nsg63
(lp2028
g56
(g72
g58
NtRp2029
(dp2030
g61
(dp2031
sg70
g2025
sg63
(lp2032
g56
(g77
g58
NtRp2033
(dp2034
g61
(dp2035
sg70
g2029
sg63
(lp2036
g56
(g57
g58
NtRp2037
(dp2038
g61
(dp2039
g69
I3
ssg70
g2033
sg63
(lp2040
S'1'
asbasbasbag56
(g72
g58
NtRp2041
(dp2042
g61
(dp2043
sg70
g2025
sg63
(lp2044
g56
(g77
g58
NtRp2045
(dp2046
g61
(dp2047
sg70
g2041
sg63
(lp2048
g56
(g57
g58
NtRp2049
(dp2050
g61
(dp2051
g69
I3
ssg70
g2045
sg63
(lp2052
S'1'
asbasbasbasbasbasbasbasbasbasbasbag56
(g72
g58
NtRp2053
(dp2054
g61
(dp2055
sg70
g66
sg63
(lp2056
g56
(g77
g58
NtRp2057
(dp2058
g61
(dp2059
g81
g82
ssg70
g2053
sg63
(lp2060
S'extension'
p2061
asbag56
(g77
g58
NtRp2062
(dp2063
g61
(dp2064
g88
g89
ssg70
g2053
sg63
(lp2065
S':'
asbag56
(g77
g58
NtRp2066
(dp2067
g61
(dp2068
sg70
g2053
sg63
(lp2069
g56
(g57
g58
NtRp2070
(dp2071
g61
(dp2072
g69
I5
ssg70
g2066
sg63
(lp2073
S'html'
p2074
asbasbasbag56
(g72
g58
NtRp2075
(dp2076
g61
(dp2077
sg70
g66
sg63
(lp2078
g56
(g77
g58
NtRp2079
(dp2080
g61
(dp2081
g81
g82
ssg70
g2075
sg63
(lp2082
S'folder'
p2083
asbag56
(g77
g58
NtRp2084
(dp2085
g61
(dp2086
g88
g89
ssg70
g2075
sg63
(lp2087
S':'
asbag56
(g77
g58
NtRp2088
(dp2089
g61
(dp2090
sg70
g2075
sg63
(lp2091
g56
(g57
g58
NtRp2092
(dp2093
g61
(dp2094
g69
I5
ssg70
g2088
sg63
(lp2095
S'/home/www-data/web2py/applications/scrum/'
p2096
asbasbasbag56
(g72
g58
NtRp2097
(dp2098
g61
(dp2099
sg70
g66
sg63
(lp2100
g56
(g77
g58
NtRp2101
(dp2102
g61
(dp2103
g81
g82
ssg70
g2097
sg63
(lp2104
S'function'
p2105
asbag56
(g77
g58
NtRp2106
(dp2107
g61
(dp2108
g88
g89
ssg70
g2097
sg63
(lp2109
S':'
asbag56
(g77
g58
NtRp2110
(dp2111
g61
(dp2112
sg70
g2097
sg63
(lp2113
g56
(g57
g58
NtRp2114
(dp2115
g61
(dp2116
g69
I5
ssg70
g2110
sg63
(lp2117
S'novo'
p2118
asbasbasbag56
(g72
g58
NtRp2119
(dp2120
g61
(dp2121
sg70
g66
sg63
(lp2122
g56
(g77
g58
NtRp2123
(dp2124
g61
(dp2125
g81
g82
ssg70
g2119
sg63
(lp2126
S'get_vars'
p2127
asbag56
(g77
g58
NtRp2128
(dp2129
g61
(dp2130
g88
g89
ssg70
g2119
sg63
(lp2131
S':'
asbag56
(g77
g58
NtRp2132
(dp2133
g61
(dp2134
sg70
g2119
sg63
(lp2135
g56
(g57
g58
NtRp2136
(dp2137
g61
(dp2138
g69
I5
ssg70
g2132
sg63
(lp2139
g56
(g65
g58
NtRp2140
(dp2141
g61
(dp2142
g69
I4
ssg70
Nsg63
(lp2143
sbasbasbasbag56
(g72
g58
NtRp2144
(dp2145
g61
(dp2146
sg70
g66
sg63
(lp2147
g56
(g77
g58
NtRp2148
(dp2149
g61
(dp2150
g81
g82
ssg70
g2144
sg63
(lp2151
S'is_https'
p2152
asbag56
(g77
g58
NtRp2153
(dp2154
g61
(dp2155
g88
g89
ssg70
g2144
sg63
(lp2156
S':'
asbag56
(g77
g58
NtRp2157
(dp2158
g61
(dp2159
sg70
g2144
sg63
(lp2160
g56
(g57
g58
NtRp2161
(dp2162
g61
(dp2163
g69
I5
ssg70
g2157
sg63
(lp2164
g1960
asbasbasbag56
(g72
g58
NtRp2165
(dp2166
g61
(dp2167
sg70
g66
sg63
(lp2168
g56
(g77
g58
NtRp2169
(dp2170
g61
(dp2171
g81
g82
ssg70
g2165
sg63
(lp2172
S'is_local'
p2173
asbag56
(g77
g58
NtRp2174
(dp2175
g61
(dp2176
g88
g89
ssg70
g2165
sg63
(lp2177
S':'
asbag56
(g77
g58
NtRp2178
(dp2179
g61
(dp2180
sg70
g2165
sg63
(lp2181
g56
(g57
g58
NtRp2182
(dp2183
g61
(dp2184
g69
I5
ssg70
g2178
sg63
(lp2185
g1960
asbasbasbag56
(g72
g58
NtRp2186
(dp2187
g61
(dp2188
sg70
g66
sg63
(lp2189
g56
(g77
g58
NtRp2190
(dp2191
g61
(dp2192
g81
g82
ssg70
g2186
sg63
(lp2193
S'is_restful'
p2194
asbag56
(g77
g58
NtRp2195
(dp2196
g61
(dp2197
g88
g89
ssg70
g2186
sg63
(lp2198
S':'
asbag56
(g77
g58
NtRp2199
(dp2200
g61
(dp2201
sg70
g2186
sg63
(lp2202
g56
(g57
g58
NtRp2203
(dp2204
g61
(dp2205
g69
I5
ssg70
g2199
sg63
(lp2206
g99
asbasbasbag56
(g72
g58
NtRp2207
(dp2208
g61
(dp2209
sg70
g66
sg63
(lp2210
g56
(g77
g58
NtRp2211
(dp2212
g61
(dp2213
g81
g82
ssg70
g2207
sg63
(lp2214
S'now'
p2215
asbag56
(g77
g58
NtRp2216
(dp2217
g61
(dp2218
g88
g89
ssg70
g2207
sg63
(lp2219
S':'
asbag56
(g77
g58
NtRp2220
(dp2221
g61
(dp2222
sg70
g2207
sg63
(lp2223
g56
(g57
g58
NtRp2224
(dp2225
g61
(dp2226
g69
I5
ssg70
g2220
sg63
(lp2227
S'datetime.datetime(2011, 9, 8, 16, 10, 44, 773126)'
p2228
asbasbasbag56
(g72
g58
NtRp2229
(dp2230
g61
(dp2231
sg70
g66
sg63
(lp2232
g56
(g77
g58
NtRp2233
(dp2234
g61
(dp2235
g81
g82
ssg70
g2229
sg63
(lp2236
S'post_vars'
p2237
asbag56
(g77
g58
NtRp2238
(dp2239
g61
(dp2240
g88
g89
ssg70
g2229
sg63
(lp2241
S':'
asbag56
(g77
g58
NtRp2242
(dp2243
g61
(dp2244
sg70
g2229
sg63
(lp2245
g56
(g57
g58
NtRp2246
(dp2247
g61
(dp2248
g69
I5
ssg70
g2242
sg63
(lp2249
g56
(g65
g58
NtRp2250
(dp2251
g61
(dp2252
g69
I4
ssg70
Nsg63
(lp2253
sbasbasbasbag56
(g72
g58
NtRp2254
(dp2255
g61
(dp2256
sg70
g66
sg63
(lp2257
g56
(g77
g58
NtRp2258
(dp2259
g61
(dp2260
g81
g82
ssg70
g2254
sg63
(lp2261
S'url'
p2262
asbag56
(g77
g58
NtRp2263
(dp2264
g61
(dp2265
g88
g89
ssg70
g2254
sg63
(lp2266
S':'
asbag56
(g77
g58
NtRp2267
(dp2268
g61
(dp2269
sg70
g2254
sg63
(lp2270
g56
(g57
g58
NtRp2271
(dp2272
g61
(dp2273
g69
I5
ssg70
g2267
sg63
(lp2274
S'/scrum/ticket/novo'
p2275
asbasbasbag56
(g72
g58
NtRp2276
(dp2277
g61
(dp2278
sg70
g66
sg63
(lp2279
g56
(g77
g58
NtRp2280
(dp2281
g61
(dp2282
g81
g82
ssg70
g2276
sg63
(lp2283
S'uuid'
p2284
asbag56
(g77
g58
NtRp2285
(dp2286
g61
(dp2287
g88
g89
ssg70
g2276
sg63
(lp2288
S':'
asbag56
(g77
g58
NtRp2289
(dp2290
g61
(dp2291
sg70
g2276
sg63
(lp2292
g56
(g57
g58
NtRp2293
(dp2294
g61
(dp2295
g69
I5
ssg70
g2289
sg63
(lp2296
S'scrum/127.0.0.1.2011-09-08.16-10-44.0de2ee20-5128-4a0c-b424-b81419108db4'
p2297
asbasbasbag56
(g72
g58
NtRp2298
(dp2299
g61
(dp2300
sg70
g66
sg63
(lp2301
g56
(g77
g58
NtRp2302
(dp2303
g61
(dp2304
g81
g82
ssg70
g2298
sg63
(lp2305
S'vars'
p2306
asbag56
(g77
g58
NtRp2307
(dp2308
g61
(dp2309
g88
g89
ssg70
g2298
sg63
(lp2310
S':'
asbag56
(g77
g58
NtRp2311
(dp2312
g61
(dp2313
sg70
g2298
sg63
(lp2314
g56
(g57
g58
NtRp2315
(dp2316
g61
(dp2317
g69
I5
ssg70
g2311
sg63
(lp2318
g56
(g65
g58
NtRp2319
(dp2320
g61
(dp2321
g69
I4
ssg70
Nsg63
(lp2322
sbasbasbasbag56
(g72
g58
NtRp2323
(dp2324
g61
(dp2325
sg70
g66
sg63
(lp2326
g56
(g77
g58
NtRp2327
(dp2328
g61
(dp2329
g81
g82
ssg70
g2323
sg63
(lp2330
S'wsgi'
p2331
asbag56
(g77
g58
NtRp2332
(dp2333
g61
(dp2334
g88
g89
ssg70
g2323
sg63
(lp2335
S':'
asbag56
(g77
g58
NtRp2336
(dp2337
g61
(dp2338
sg70
g2323
sg63
(lp2339
g56
(g57
g58
NtRp2340
(dp2341
g61
(dp2342
g69
I5
ssg70
g2336
sg63
(lp2343
g56
(g65
g58
NtRp2344
(dp2345
g61
(dp2346
g69
I4
ssg70
Nsg63
(lp2347
g56
(g72
g58
NtRp2348
(dp2349
g61
(dp2350
sg70
g2344
sg63
(lp2351
g56
(g77
g58
NtRp2352
(dp2353
g61
(dp2354
g81
g82
ssg70
g2348
sg63
(lp2355
S'environ'
p2356
asbag56
(g77
g58
NtRp2357
(dp2358
g61
(dp2359
g88
g89
ssg70
g2348
sg63
(lp2360
S':'
asbag56
(g77
g58
NtRp2361
(dp2362
g61
(dp2363
sg70
g2348
sg63
(lp2364
g56
(g57
g58
NtRp2365
(dp2366
g61
(dp2367
g69
I4
ssg70
g2361
sg63
(lp2368
g56
(g65
g58
NtRp2369
(dp2370
g61
(dp2371
g69
I3
ssg70
Nsg63
(lp2372
g56
(g72
g58
NtRp2373
(dp2374
g61
(dp2375
sg70
g2369
sg63
(lp2376
g56
(g77
g58
NtRp2377
(dp2378
g61
(dp2379
g81
g82
ssg70
g2373
sg63
(lp2380
S'DOCUMENT_ROOT'
p2381
asbag56
(g77
g58
NtRp2382
(dp2383
g61
(dp2384
g88
g89
ssg70
g2373
sg63
(lp2385
S':'
asbag56
(g77
g58
NtRp2386
(dp2387
g61
(dp2388
sg70
g2373
sg63
(lp2389
g56
(g57
g58
NtRp2390
(dp2391
g61
(dp2392
g69
I3
ssg70
g2386
sg63
(lp2393
g933
asbasbasbag56
(g72
g58
NtRp2394
(dp2395
g61
(dp2396
sg70
g2369
sg63
(lp2397
g56
(g77
g58
NtRp2398
(dp2399
g61
(dp2400
g81
g82
ssg70
g2394
sg63
(lp2401
S'GATEWAY_INTERFACE'
p2402
asbag56
(g77
g58
NtRp2403
(dp2404
g61
(dp2405
g88
g89
ssg70
g2394
sg63
(lp2406
S':'
asbag56
(g77
g58
NtRp2407
(dp2408
g61
(dp2409
sg70
g2394
sg63
(lp2410
g56
(g57
g58
NtRp2411
(dp2412
g61
(dp2413
g69
I3
ssg70
g2407
sg63
(lp2414
g955
asbasbasbag56
(g72
g58
NtRp2415
(dp2416
g61
(dp2417
sg70
g2369
sg63
(lp2418
g56
(g77
g58
NtRp2419
(dp2420
g61
(dp2421
g81
g82
ssg70
g2415
sg63
(lp2422
S'HTTPS'
p2423
asbag56
(g77
g58
NtRp2424
(dp2425
g61
(dp2426
g88
g89
ssg70
g2415
sg63
(lp2427
S':'
asbag56
(g77
g58
NtRp2428
(dp2429
g61
(dp2430
sg70
g2415
sg63
(lp2431
g56
(g57
g58
NtRp2432
(dp2433
g61
(dp2434
g69
I3
ssg70
g2428
sg63
(lp2435
S'1'
asbasbasbag56
(g72
g58
NtRp2436
(dp2437
g61
(dp2438
sg70
g2369
sg63
(lp2439
g56
(g77
g58
NtRp2440
(dp2441
g61
(dp2442
g81
g82
ssg70
g2436
sg63
(lp2443
S'HTTP_ACCEPT'
p2444
asbag56
(g77
g58
NtRp2445
(dp2446
g61
(dp2447
g88
g89
ssg70
g2436
sg63
(lp2448
S':'
asbag56
(g77
g58
NtRp2449
(dp2450
g61
(dp2451
sg70
g2436
sg63
(lp2452
g56
(g57
g58
NtRp2453
(dp2454
g61
(dp2455
g69
I3
ssg70
g2449
sg63
(lp2456
g998
asbasbasbag56
(g72
g58
NtRp2457
(dp2458
g61
(dp2459
sg70
g2369
sg63
(lp2460
g56
(g77
g58
NtRp2461
(dp2462
g61
(dp2463
g81
g82
ssg70
g2457
sg63
(lp2464
S'HTTP_ACCEPT_ENCODING'
p2465
asbag56
(g77
g58
NtRp2466
(dp2467
g61
(dp2468
g88
g89
ssg70
g2457
sg63
(lp2469
S':'
asbag56
(g77
g58
NtRp2470
(dp2471
g61
(dp2472
sg70
g2457
sg63
(lp2473
g56
(g57
g58
NtRp2474
(dp2475
g61
(dp2476
g69
I3
ssg70
g2470
sg63
(lp2477
g1020
asbasbasbag56
(g72
g58
NtRp2478
(dp2479
g61
(dp2480
sg70
g2369
sg63
(lp2481
g56
(g77
g58
NtRp2482
(dp2483
g61
(dp2484
g81
g82
ssg70
g2478
sg63
(lp2485
S'HTTP_ACCEPT_LANGUAGE'
p2486
asbag56
(g77
g58
NtRp2487
(dp2488
g61
(dp2489
g88
g89
ssg70
g2478
sg63
(lp2490
S':'
asbag56
(g77
g58
NtRp2491
(dp2492
g61
(dp2493
sg70
g2478
sg63
(lp2494
g56
(g57
g58
NtRp2495
(dp2496
g61
(dp2497
g69
I3
ssg70
g2491
sg63
(lp2498
g1042
asbasbasbag56
(g72
g58
NtRp2499
(dp2500
g61
(dp2501
sg70
g2369
sg63
(lp2502
g56
(g77
g58
NtRp2503
(dp2504
g61
(dp2505
g81
g82
ssg70
g2499
sg63
(lp2506
S'HTTP_CACHE_CONTROL'
p2507
asbag56
(g77
g58
NtRp2508
(dp2509
g61
(dp2510
g88
g89
ssg70
g2499
sg63
(lp2511
S':'
asbag56
(g77
g58
NtRp2512
(dp2513
g61
(dp2514
sg70
g2499
sg63
(lp2515
g56
(g57
g58
NtRp2516
(dp2517
g61
(dp2518
g69
I3
ssg70
g2512
sg63
(lp2519
g1064
asbasbasbag56
(g72
g58
NtRp2520
(dp2521
g61
(dp2522
sg70
g2369
sg63
(lp2523
g56
(g77
g58
NtRp2524
(dp2525
g61
(dp2526
g81
g82
ssg70
g2520
sg63
(lp2527
S'HTTP_CONNECTION'
p2528
asbag56
(g77
g58
NtRp2529
(dp2530
g61
(dp2531
g88
g89
ssg70
g2520
sg63
(lp2532
S':'
asbag56
(g77
g58
NtRp2533
(dp2534
g61
(dp2535
sg70
g2520
sg63
(lp2536
g56
(g57
g58
NtRp2537
(dp2538
g61
(dp2539
g69
I3
ssg70
g2533
sg63
(lp2540
g1086
asbasbasbag56
(g72
g58
NtRp2541
(dp2542
g61
(dp2543
sg70
g2369
sg63
(lp2544
g56
(g77
g58
NtRp2545
(dp2546
g61
(dp2547
g81
g82
ssg70
g2541
sg63
(lp2548
S'HTTP_COOKIE'
p2549
asbag56
(g77
g58
NtRp2550
(dp2551
g61
(dp2552
g88
g89
ssg70
g2541
sg63
(lp2553
S':'
asbag56
(g77
g58
NtRp2554
(dp2555
g61
(dp2556
sg70
g2541
sg63
(lp2557
g56
(g57
g58
NtRp2558
(dp2559
g61
(dp2560
g69
I3
ssg70
g2554
sg63
(lp2561
g1108
asbasbasbag56
(g72
g58
NtRp2562
(dp2563
g61
(dp2564
sg70
g2369
sg63
(lp2565
g56
(g77
g58
NtRp2566
(dp2567
g61
(dp2568
g81
g82
ssg70
g2562
sg63
(lp2569
S'HTTP_HOST'
p2570
asbag56
(g77
g58
NtRp2571
(dp2572
g61
(dp2573
g88
g89
ssg70
g2562
sg63
(lp2574
S':'
asbag56
(g77
g58
NtRp2575
(dp2576
g61
(dp2577
sg70
g2562
sg63
(lp2578
g56
(g57
g58
NtRp2579
(dp2580
g61
(dp2581
g69
I3
ssg70
g2575
sg63
(lp2582
g1130
asbasbasbag56
(g72
g58
NtRp2583
(dp2584
g61
(dp2585
sg70
g2369
sg63
(lp2586
g56
(g77
g58
NtRp2587
(dp2588
g61
(dp2589
g81
g82
ssg70
g2583
sg63
(lp2590
S'HTTP_USER_AGENT'
p2591
asbag56
(g77
g58
NtRp2592
(dp2593
g61
(dp2594
g88
g89
ssg70
g2583
sg63
(lp2595
S':'
asbag56
(g77
g58
NtRp2596
(dp2597
g61
(dp2598
sg70
g2583
sg63
(lp2599
g56
(g57
g58
NtRp2600
(dp2601
g61
(dp2602
g69
I3
ssg70
g2596
sg63
(lp2603
g1152
asbasbasbag56
(g72
g58
NtRp2604
(dp2605
g61
(dp2606
sg70
g2369
sg63
(lp2607
g56
(g77
g58
NtRp2608
(dp2609
g61
(dp2610
g81
g82
ssg70
g2604
sg63
(lp2611
S'PATH_INFO'
p2612
asbag56
(g77
g58
NtRp2613
(dp2614
g61
(dp2615
g88
g89
ssg70
g2604
sg63
(lp2616
S':'
asbag56
(g77
g58
NtRp2617
(dp2618
g61
(dp2619
sg70
g2604
sg63
(lp2620
g56
(g57
g58
NtRp2621
(dp2622
g61
(dp2623
g69
I3
ssg70
g2617
sg63
(lp2624
g1459
asbasbasbag56
(g72
g58
NtRp2625
(dp2626
g61
(dp2627
sg70
g2369
sg63
(lp2628
g56
(g77
g58
NtRp2629
(dp2630
g61
(dp2631
g81
g82
ssg70
g2625
sg63
(lp2632
S'PATH_TRANSLATED'
p2633
asbag56
(g77
g58
NtRp2634
(dp2635
g61
(dp2636
g88
g89
ssg70
g2625
sg63
(lp2637
S':'
asbag56
(g77
g58
NtRp2638
(dp2639
g61
(dp2640
sg70
g2625
sg63
(lp2641
g56
(g57
g58
NtRp2642
(dp2643
g61
(dp2644
g69
I3
ssg70
g2638
sg63
(lp2645
g1481
asbasbasbag56
(g72
g58
NtRp2646
(dp2647
g61
(dp2648
sg70
g2369
sg63
(lp2649
g56
(g77
g58
NtRp2650
(dp2651
g61
(dp2652
g81
g82
ssg70
g2646
sg63
(lp2653
S'QUERY_STRING'
p2654
asbag56
(g77
g58
NtRp2655
(dp2656
g61
(dp2657
g88
g89
ssg70
g2646
sg63
(lp2658
S':'
asbag56
(g77
g58
NtRp2659
(dp2660
g61
(dp2661
sg70
g2646
sg63
(lp2662
g56
(g57
g58
NtRp2663
(dp2664
g61
(dp2665
g69
I3
ssg70
g2659
sg63
(lp2666
S''
asbasbasbag56
(g72
g58
NtRp2667
(dp2668
g61
(dp2669
sg70
g2369
sg63
(lp2670
g56
(g77
g58
NtRp2671
(dp2672
g61
(dp2673
g81
g82
ssg70
g2667
sg63
(lp2674
S'REMOTE_ADDR'
p2675
asbag56
(g77
g58
NtRp2676
(dp2677
g61
(dp2678
g88
g89
ssg70
g2667
sg63
(lp2679
S':'
asbag56
(g77
g58
NtRp2680
(dp2681
g61
(dp2682
sg70
g2667
sg63
(lp2683
g56
(g57
g58
NtRp2684
(dp2685
g61
(dp2686
g69
I3
ssg70
g2680
sg63
(lp2687
g189
asbasbasbag56
(g72
g58
NtRp2688
(dp2689
g61
(dp2690
sg70
g2369
sg63
(lp2691
g56
(g77
g58
NtRp2692
(dp2693
g61
(dp2694
g81
g82
ssg70
g2688
sg63
(lp2695
S'REMOTE_PORT'
p2696
asbag56
(g77
g58
NtRp2697
(dp2698
g61
(dp2699
g88
g89
ssg70
g2688
sg63
(lp2700
S':'
asbag56
(g77
g58
NtRp2701
(dp2702
g61
(dp2703
sg70
g2688
sg63
(lp2704
g56
(g57
g58
NtRp2705
(dp2706
g61
(dp2707
g69
I3
ssg70
g2701
sg63
(lp2708
g1545
asbasbasbag56
(g72
g58
NtRp2709
(dp2710
g61
(dp2711
sg70
g2369
sg63
(lp2712
g56
(g77
g58
NtRp2713
(dp2714
g61
(dp2715
g81
g82
ssg70
g2709
sg63
(lp2716
S'REQUEST_METHOD'
p2717
asbag56
(g77
g58
NtRp2718
(dp2719
g61
(dp2720
g88
g89
ssg70
g2709
sg63
(lp2721
S':'
asbag56
(g77
g58
NtRp2722
(dp2723
g61
(dp2724
sg70
g2709
sg63
(lp2725
g56
(g57
g58
NtRp2726
(dp2727
g61
(dp2728
g69
I3
ssg70
g2722
sg63
(lp2729
g1567
asbasbasbag56
(g72
g58
NtRp2730
(dp2731
g61
(dp2732
sg70
g2369
sg63
(lp2733
g56
(g77
g58
NtRp2734
(dp2735
g61
(dp2736
g81
g82
ssg70
g2730
sg63
(lp2737
S'REQUEST_URI'
p2738
asbag56
(g77
g58
NtRp2739
(dp2740
g61
(dp2741
g88
g89
ssg70
g2730
sg63
(lp2742
S':'
asbag56
(g77
g58
NtRp2743
(dp2744
g61
(dp2745
sg70
g2730
sg63
(lp2746
g56
(g57
g58
NtRp2747
(dp2748
g61
(dp2749
g69
I3
ssg70
g2743
sg63
(lp2750
g1589
asbasbasbag56
(g72
g58
NtRp2751
(dp2752
g61
(dp2753
sg70
g2369
sg63
(lp2754
g56
(g77
g58
NtRp2755
(dp2756
g61
(dp2757
g81
g82
ssg70
g2751
sg63
(lp2758
S'SCRIPT_FILENAME'
p2759
asbag56
(g77
g58
NtRp2760
(dp2761
g61
(dp2762
g88
g89
ssg70
g2751
sg63
(lp2763
S':'
asbag56
(g77
g58
NtRp2764
(dp2765
g61
(dp2766
sg70
g2751
sg63
(lp2767
g56
(g57
g58
NtRp2768
(dp2769
g61
(dp2770
g69
I3
ssg70
g2764
sg63
(lp2771
g1611
asbasbasbag56
(g72
g58
NtRp2772
(dp2773
g61
(dp2774
sg70
g2369
sg63
(lp2775
g56
(g77
g58
NtRp2776
(dp2777
g61
(dp2778
g81
g82
ssg70
g2772
sg63
(lp2779
S'SCRIPT_NAME'
p2780
asbag56
(g77
g58
NtRp2781
(dp2782
g61
(dp2783
g88
g89
ssg70
g2772
sg63
(lp2784
S':'
asbag56
(g77
g58
NtRp2785
(dp2786
g61
(dp2787
sg70
g2772
sg63
(lp2788
g56
(g57
g58
NtRp2789
(dp2790
g61
(dp2791
g69
I3
ssg70
g2785
sg63
(lp2792
S''
asbasbasbag56
(g72
g58
NtRp2793
(dp2794
g61
(dp2795
sg70
g2369
sg63
(lp2796
g56
(g77
g58
NtRp2797
(dp2798
g61
(dp2799
g81
g82
ssg70
g2793
sg63
(lp2800
S'SERVER_ADDR'
p2801
asbag56
(g77
g58
NtRp2802
(dp2803
g61
(dp2804
g88
g89
ssg70
g2793
sg63
(lp2805
S':'
asbag56
(g77
g58
NtRp2806
(dp2807
g61
(dp2808
sg70
g2793
sg63
(lp2809
g56
(g57
g58
NtRp2810
(dp2811
g61
(dp2812
g69
I3
ssg70
g2806
sg63
(lp2813
g1654
asbasbasbag56
(g72
g58
NtRp2814
(dp2815
g61
(dp2816
sg70
g2369
sg63
(lp2817
g56
(g77
g58
NtRp2818
(dp2819
g61
(dp2820
g81
g82
ssg70
g2814
sg63
(lp2821
S'SERVER_ADMIN'
p2822
asbag56
(g77
g58
NtRp2823
(dp2824
g61
(dp2825
g88
g89
ssg70
g2814
sg63
(lp2826
S':'
asbag56
(g77
g58
NtRp2827
(dp2828
g61
(dp2829
sg70
g2814
sg63
(lp2830
g56
(g57
g58
NtRp2831
(dp2832
g61
(dp2833
g69
I3
ssg70
g2827
sg63
(lp2834
g1676
asbasbasbag56
(g72
g58
NtRp2835
(dp2836
g61
(dp2837
sg70
g2369
sg63
(lp2838
g56
(g77
g58
NtRp2839
(dp2840
g61
(dp2841
g81
g82
ssg70
g2835
sg63
(lp2842
S'SERVER_NAME'
p2843
asbag56
(g77
g58
NtRp2844
(dp2845
g61
(dp2846
g88
g89
ssg70
g2835
sg63
(lp2847
S':'
asbag56
(g77
g58
NtRp2848
(dp2849
g61
(dp2850
sg70
g2835
sg63
(lp2851
g56
(g57
g58
NtRp2852
(dp2853
g61
(dp2854
g69
I3
ssg70
g2848
sg63
(lp2855
g1698
asbasbasbag56
(g72
g58
NtRp2856
(dp2857
g61
(dp2858
sg70
g2369
sg63
(lp2859
g56
(g77
g58
NtRp2860
(dp2861
g61
(dp2862
g81
g82
ssg70
g2856
sg63
(lp2863
S'SERVER_PORT'
p2864
asbag56
(g77
g58
NtRp2865
(dp2866
g61
(dp2867
g88
g89
ssg70
g2856
sg63
(lp2868
S':'
asbag56
(g77
g58
NtRp2869
(dp2870
g61
(dp2871
sg70
g2856
sg63
(lp2872
g56
(g57
g58
NtRp2873
(dp2874
g61
(dp2875
g69
I3
ssg70
g2869
sg63
(lp2876
g1720
asbasbasbag56
(g72
g58
NtRp2877
(dp2878
g61
(dp2879
sg70
g2369
sg63
(lp2880
g56
(g77
g58
NtRp2881
(dp2882
g61
(dp2883
g81
g82
ssg70
g2877
sg63
(lp2884
S'SERVER_PROTOCOL'
p2885
asbag56
(g77
g58
NtRp2886
(dp2887
g61
(dp2888
g88
g89
ssg70
g2877
sg63
(lp2889
S':'
asbag56
(g77
g58
NtRp2890
(dp2891
g61
(dp2892
sg70
g2877
sg63
(lp2893
g56
(g57
g58
NtRp2894
(dp2895
g61
(dp2896
g69
I3
ssg70
g2890
sg63
(lp2897
g1742
asbasbasbag56
(g72
g58
NtRp2898
(dp2899
g61
(dp2900
sg70
g2369
sg63
(lp2901
g56
(g77
g58
NtRp2902
(dp2903
g61
(dp2904
g81
g82
ssg70
g2898
sg63
(lp2905
S'SERVER_SIGNATURE'
p2906
asbag56
(g77
g58
NtRp2907
(dp2908
g61
(dp2909
g88
g89
ssg70
g2898
sg63
(lp2910
S':'
asbag56
(g77
g58
NtRp2911
(dp2912
g61
(dp2913
sg70
g2898
sg63
(lp2914
g56
(g57
g58
NtRp2915
(dp2916
g61
(dp2917
g69
I3
ssg70
g2911
sg63
(lp2918
g1764
asbasbasbag56
(g72
g58
NtRp2919
(dp2920
g61
(dp2921
sg70
g2369
sg63
(lp2922
g56
(g77
g58
NtRp2923
(dp2924
g61
(dp2925
g81
g82
ssg70
g2919
sg63
(lp2926
S'SERVER_SOFTWARE'
p2927
asbag56
(g77
g58
NtRp2928
(dp2929
g61
(dp2930
g88
g89
ssg70
g2919
sg63
(lp2931
S':'
asbag56
(g77
g58
NtRp2932
(dp2933
g61
(dp2934
sg70
g2919
sg63
(lp2935
g56
(g57
g58
NtRp2936
(dp2937
g61
(dp2938
g69
I3
ssg70
g2932
sg63
(lp2939
g1786
asbasbasbag56
(g72
g58
NtRp2940
(dp2941
g61
(dp2942
sg70
g2369
sg63
(lp2943
g56
(g77
g58
NtRp2944
(dp2945
g61
(dp2946
g81
g82
ssg70
g2940
sg63
(lp2947
S'SSL_TLS_SNI'
p2948
asbag56
(g77
g58
NtRp2949
(dp2950
g61
(dp2951
g88
g89
ssg70
g2940
sg63
(lp2952
S':'
asbag56
(g77
g58
NtRp2953
(dp2954
g61
(dp2955
sg70
g2940
sg63
(lp2956
g56
(g57
g58
NtRp2957
(dp2958
g61
(dp2959
g69
I3
ssg70
g2953
sg63
(lp2960
g1808
asbasbasbag56
(g72
g58
NtRp2961
(dp2962
g61
(dp2963
sg70
g2369
sg63
(lp2964
g56
(g77
g58
NtRp2965
(dp2966
g61
(dp2967
g81
g82
ssg70
g2961
sg63
(lp2968
S'mod_wsgi.application_group'
p2969
asbag56
(g77
g58
NtRp2970
(dp2971
g61
(dp2972
g88
g89
ssg70
g2961
sg63
(lp2973
S':'
asbag56
(g77
g58
NtRp2974
(dp2975
g61
(dp2976
sg70
g2961
sg63
(lp2977
g56
(g57
g58
NtRp2978
(dp2979
g61
(dp2980
g69
I3
ssg70
g2974
sg63
(lp2981
g1216
asbasbasbag56
(g72
g58
NtRp2982
(dp2983
g61
(dp2984
sg70
g2369
sg63
(lp2985
g56
(g77
g58
NtRp2986
(dp2987
g61
(dp2988
g81
g82
ssg70
g2982
sg63
(lp2989
S'mod_wsgi.callable_object'
p2990
asbag56
(g77
g58
NtRp2991
(dp2992
g61
(dp2993
g88
g89
ssg70
g2982
sg63
(lp2994
S':'
asbag56
(g77
g58
NtRp2995
(dp2996
g61
(dp2997
sg70
g2982
sg63
(lp2998
g56
(g57
g58
NtRp2999
(dp3000
g61
(dp3001
g69
I3
ssg70
g2995
sg63
(lp3002
g1238
asbasbasbag56
(g72
g58
NtRp3003
(dp3004
g61
(dp3005
sg70
g2369
sg63
(lp3006
g56
(g77
g58
NtRp3007
(dp3008
g61
(dp3009
g81
g82
ssg70
g3003
sg63
(lp3010
S'mod_wsgi.handler_script'
p3011
asbag56
(g77
g58
NtRp3012
(dp3013
g61
(dp3014
g88
g89
ssg70
g3003
sg63
(lp3015
S':'
asbag56
(g77
g58
NtRp3016
(dp3017
g61
(dp3018
sg70
g3003
sg63
(lp3019
g56
(g57
g58
NtRp3020
(dp3021
g61
(dp3022
g69
I3
ssg70
g3016
sg63
(lp3023
S''
asbasbasbag56
(g72
g58
NtRp3024
(dp3025
g61
(dp3026
sg70
g2369
sg63
(lp3027
g56
(g77
g58
NtRp3028
(dp3029
g61
(dp3030
g81
g82
ssg70
g3024
sg63
(lp3031
S'mod_wsgi.input_chunked'
p3032
asbag56
(g77
g58
NtRp3033
(dp3034
g61
(dp3035
g88
g89
ssg70
g3024
sg63
(lp3036
S':'
asbag56
(g77
g58
NtRp3037
(dp3038
g61
(dp3039
sg70
g3024
sg63
(lp3040
g56
(g57
g58
NtRp3041
(dp3042
g61
(dp3043
g69
I3
ssg70
g3037
sg63
(lp3044
S'0'
asbasbasbag56
(g72
g58
NtRp3045
(dp3046
g61
(dp3047
sg70
g2369
sg63
(lp3048
g56
(g77
g58
NtRp3049
(dp3050
g61
(dp3051
g81
g82
ssg70
g3045
sg63
(lp3052
S'mod_wsgi.listener_host'
p3053
asbag56
(g77
g58
NtRp3054
(dp3055
g61
(dp3056
g88
g89
ssg70
g3045
sg63
(lp3057
S':'
asbag56
(g77
g58
NtRp3058
(dp3059
g61
(dp3060
sg70
g3045
sg63
(lp3061
g56
(g57
g58
NtRp3062
(dp3063
g61
(dp3064
g69
I3
ssg70
g3058
sg63
(lp3065
S''
asbasbasbag56
(g72
g58
NtRp3066
(dp3067
g61
(dp3068
sg70
g2369
sg63
(lp3069
g56
(g77
g58
NtRp3070
(dp3071
g61
(dp3072
g81
g82
ssg70
g3066
sg63
(lp3073
S'mod_wsgi.listener_port'
p3074
asbag56
(g77
g58
NtRp3075
(dp3076
g61
(dp3077
g88
g89
ssg70
g3066
sg63
(lp3078
S':'
asbag56
(g77
g58
NtRp3079
(dp3080
g61
(dp3081
sg70
g3066
sg63
(lp3082
g56
(g57
g58
NtRp3083
(dp3084
g61
(dp3085
g69
I3
ssg70
g3079
sg63
(lp3086
g1323
asbasbasbag56
(g72
g58
NtRp3087
(dp3088
g61
(dp3089
sg70
g2369
sg63
(lp3090
g56
(g77
g58
NtRp3091
(dp3092
g61
(dp3093
g81
g82
ssg70
g3087
sg63
(lp3094
S'mod_wsgi.process_group'
p3095
asbag56
(g77
g58
NtRp3096
(dp3097
g61
(dp3098
g88
g89
ssg70
g3087
sg63
(lp3099
S':'
asbag56
(g77
g58
NtRp3100
(dp3101
g61
(dp3102
sg70
g3087
sg63
(lp3103
g56
(g57
g58
NtRp3104
(dp3105
g61
(dp3106
g69
I3
ssg70
g3100
sg63
(lp3107
g1345
asbasbasbag56
(g72
g58
NtRp3108
(dp3109
g61
(dp3110
sg70
g2369
sg63
(lp3111
g56
(g77
g58
NtRp3112
(dp3113
g61
(dp3114
g81
g82
ssg70
g3108
sg63
(lp3115
S'mod_wsgi.request_handler'
p3116
asbag56
(g77
g58
NtRp3117
(dp3118
g61
(dp3119
g88
g89
ssg70
g3108
sg63
(lp3120
S':'
asbag56
(g77
g58
NtRp3121
(dp3122
g61
(dp3123
sg70
g3108
sg63
(lp3124
g56
(g57
g58
NtRp3125
(dp3126
g61
(dp3127
g69
I3
ssg70
g3121
sg63
(lp3128
g1367
asbasbasbag56
(g72
g58
NtRp3129
(dp3130
g61
(dp3131
sg70
g2369
sg63
(lp3132
g56
(g77
g58
NtRp3133
(dp3134
g61
(dp3135
g81
g82
ssg70
g3129
sg63
(lp3136
S'mod_wsgi.script_reloading'
p3137
asbag56
(g77
g58
NtRp3138
(dp3139
g61
(dp3140
g88
g89
ssg70
g3129
sg63
(lp3141
S':'
asbag56
(g77
g58
NtRp3142
(dp3143
g61
(dp3144
sg70
g3129
sg63
(lp3145
g56
(g57
g58
NtRp3146
(dp3147
g61
(dp3148
g69
I3
ssg70
g3142
sg63
(lp3149
S'1'
asbasbasbag56
(g72
g58
NtRp3150
(dp3151
g61
(dp3152
sg70
g2369
sg63
(lp3153
g56
(g77
g58
NtRp3154
(dp3155
g61
(dp3156
g81
g82
ssg70
g3150
sg63
(lp3157
S'mod_wsgi.version'
p3158
asbag56
(g77
g58
NtRp3159
(dp3160
g61
(dp3161
g88
g89
ssg70
g3150
sg63
(lp3162
S':'
asbag56
(g77
g58
NtRp3163
(dp3164
g61
(dp3165
sg70
g3150
sg63
(lp3166
g56
(g57
g58
NtRp3167
(dp3168
g61
(dp3169
g69
I3
ssg70
g3163
sg63
(lp3170
g56
(g65
g58
NtRp3171
(dp3172
g61
(dp3173
g69
I2
ssg70
Nsg63
(lp3174
g56
(g72
g58
NtRp3175
(dp3176
g61
(dp3177
sg70
g3171
sg63
(lp3178
g56
(g77
g58
NtRp3179
(dp3180
g61
(dp3181
sg70
g3175
sg63
(lp3182
g56
(g57
g58
NtRp3183
(dp3184
g61
(dp3185
g69
I2
ssg70
g3179
sg63
(lp3186
S'3'
asbasbasbag56
(g72
g58
NtRp3187
(dp3188
g61
(dp3189
sg70
g3171
sg63
(lp3190
g56
(g77
g58
NtRp3191
(dp3192
g61
(dp3193
sg70
g3187
sg63
(lp3194
g56
(g57
g58
NtRp3195
(dp3196
g61
(dp3197
g69
I2
ssg70
g3191
sg63
(lp3198
S'3'
asbasbasbasbasbasbasbag56
(g72
g58
NtRp3199
(dp3200
g61
(dp3201
sg70
g2369
sg63
(lp3202
g56
(g77
g58
NtRp3203
(dp3204
g61
(dp3205
g81
g82
ssg70
g3199
sg63
(lp3206
S'wsgi.errors'
p3207
asbag56
(g77
g58
NtRp3208
(dp3209
g61
(dp3210
g88
g89
ssg70
g3199
sg63
(lp3211
S':'
asbag56
(g77
g58
NtRp3212
(dp3213
g61
(dp3214
sg70
g3199
sg63
(lp3215
g56
(g57
g58
NtRp3216
(dp3217
g61
(dp3218
g69
I3
ssg70
g3212
sg63
(lp3219
S'<mod_wsgi.Log object at 0xb9e8b318>'
p3220
asbasbasbag56
(g72
g58
NtRp3221
(dp3222
g61
(dp3223
sg70
g2369
sg63
(lp3224
g56
(g77
g58
NtRp3225
(dp3226
g61
(dp3227
g81
g82
ssg70
g3221
sg63
(lp3228
S'wsgi.file_wrapper'
p3229
asbag56
(g77
g58
NtRp3230
(dp3231
g61
(dp3232
g88
g89
ssg70
g3221
sg63
(lp3233
S':'
asbag56
(g77
g58
NtRp3234
(dp3235
g61
(dp3236
sg70
g3221
sg63
(lp3237
g56
(g57
g58
NtRp3238
(dp3239
g61
(dp3240
g69
I3
ssg70
g3234
sg63
(lp3241
S'<built-in method file_wrapper of mod_wsgi.Adapter object at 0xb960dec0>'
p3242
asbasbasbag56
(g72
g58
NtRp3243
(dp3244
g61
(dp3245
sg70
g2369
sg63
(lp3246
g56
(g77
g58
NtRp3247
(dp3248
g61
(dp3249
g81
g82
ssg70
g3243
sg63
(lp3250
S'wsgi.input'
p3251
asbag56
(g77
g58
NtRp3252
(dp3253
g61
(dp3254
g88
g89
ssg70
g3243
sg63
(lp3255
S':'
asbag56
(g77
g58
NtRp3256
(dp3257
g61
(dp3258
sg70
g3243
sg63
(lp3259
g56
(g57
g58
NtRp3260
(dp3261
g61
(dp3262
g69
I3
ssg70
g3256
sg63
(lp3263
S'<cStringIO.StringO object at 0xb93ebb80>'
p3264
asbasbasbag56
(g72
g58
NtRp3265
(dp3266
g61
(dp3267
sg70
g2369
sg63
(lp3268
g56
(g77
g58
NtRp3269
(dp3270
g61
(dp3271
g81
g82
ssg70
g3265
sg63
(lp3272
S'wsgi.multiprocess'
p3273
asbag56
(g77
g58
NtRp3274
(dp3275
g61
(dp3276
g88
g89
ssg70
g3265
sg63
(lp3277
S':'
asbag56
(g77
g58
NtRp3278
(dp3279
g61
(dp3280
sg70
g3265
sg63
(lp3281
g56
(g57
g58
NtRp3282
(dp3283
g61
(dp3284
g69
I3
ssg70
g3278
sg63
(lp3285
g99
asbasbasbag56
(g72
g58
NtRp3286
(dp3287
g61
(dp3288
sg70
g2369
sg63
(lp3289
g56
(g77
g58
NtRp3290
(dp3291
g61
(dp3292
g81
g82
ssg70
g3286
sg63
(lp3293
S'wsgi.multithread'
p3294
asbag56
(g77
g58
NtRp3295
(dp3296
g61
(dp3297
g88
g89
ssg70
g3286
sg63
(lp3298
S':'
asbag56
(g77
g58
NtRp3299
(dp3300
g61
(dp3301
sg70
g3286
sg63
(lp3302
g56
(g57
g58
NtRp3303
(dp3304
g61
(dp3305
g69
I3
ssg70
g3299
sg63
(lp3306
g1960
asbasbasbag56
(g72
g58
NtRp3307
(dp3308
g61
(dp3309
sg70
g2369
sg63
(lp3310
g56
(g77
g58
NtRp3311
(dp3312
g61
(dp3313
g81
g82
ssg70
g3307
sg63
(lp3314
S'wsgi.run_once'
p3315
asbag56
(g77
g58
NtRp3316
(dp3317
g61
(dp3318
g88
g89
ssg70
g3307
sg63
(lp3319
S':'
asbag56
(g77
g58
NtRp3320
(dp3321
g61
(dp3322
sg70
g3307
sg63
(lp3323
g56
(g57
g58
NtRp3324
(dp3325
g61
(dp3326
g69
I3
ssg70
g3320
sg63
(lp3327
g99
asbasbasbag56
(g72
g58
NtRp3328
(dp3329
g61
(dp3330
sg70
g2369
sg63
(lp3331
g56
(g77
g58
NtRp3332
(dp3333
g61
(dp3334
g81
g82
ssg70
g3328
sg63
(lp3335
S'wsgi.url_scheme'
p3336
asbag56
(g77
g58
NtRp3337
(dp3338
g61
(dp3339
g88
g89
ssg70
g3328
sg63
(lp3340
S':'
asbag56
(g77
g58
NtRp3341
(dp3342
g61
(dp3343
sg70
g3328
sg63
(lp3344
g56
(g57
g58
NtRp3345
(dp3346
g61
(dp3347
g69
I3
ssg70
g3341
sg63
(lp3348
g2003
asbasbasbag56
(g72
g58
NtRp3349
(dp3350
g61
(dp3351
sg70
g2369
sg63
(lp3352
g56
(g77
g58
NtRp3353
(dp3354
g61
(dp3355
g81
g82
ssg70
g3349
sg63
(lp3356
S'wsgi.version'
p3357
asbag56
(g77
g58
NtRp3358
(dp3359
g61
(dp3360
g88
g89
ssg70
g3349
sg63
(lp3361
S':'
asbag56
(g77
g58
NtRp3362
(dp3363
g61
(dp3364
sg70
g3349
sg63
(lp3365
g56
(g57
g58
NtRp3366
(dp3367
g61
(dp3368
g69
I3
ssg70
g3362
sg63
(lp3369
S'1'
asbasbasbasbasbasbasbasbasbasbasbasbasbsS'frames'
p3370
(lp3371
(dp3372
S'file'
p3373
S'/home/www-data/web2py/gluon/restricted.py'
p3374
sS'dump'
p3375
(dp3376
S'environment'
p3377
S"{'A': <class 'gluon.html.A'>, 'Auth': <class 'gluon.tools.Auth'>, 'B': <class 'gluon.html.B'>, 'BEAUTIFY': <class 'gluon.html.BEAUTIFY'>, 'BODY': <class 'gluon.html.BODY'>, 'BR': <class 'gluon.html.BR'>, 'BRAZILIAN_DATE': <gluon.validators.IS_DATE object>, 'BUTTON': <class 'gluon.html.BUTTON'>, 'CAT': <class 'gluon.html.CAT'>, 'CENTER': <class 'gluon.html.CENTER'>, ...}"
p3378
sS'ccode'
p3379
S'<code object <module> at 0xb98f5380, file "/home...pplications/scrum/controllers/ticket.py", line 2>'
p3380
ssS'lnum'
p3381
I192
sS'lines'
p3382
(dp3383
I192
S'        exec ccode in environment'
p3384
sI193
S'    except HTTP:'
p3385
sI194
S'        raise'
p3386
sI195
S'    except Exception, error:'
p3387
sI196
S'        # XXX Show exception in Wing IDE if running in debugger'
p3388
sI187
S'    try:'
p3389
sI188
S'        if type(code) == types.CodeType:'
p3390
sI189
S'            ccode = code'
p3391
sI190
S'        else:'
p3392
sI191
S'            ccode = compile2(code,layer)'
p3393
ssS'call'
p3394
S"(code='# coding: utf8# tente algo como\\n@auth.requires(a...orm=form)\\n\\nresponse._vars=response._caller(novo)\\n', environment={'A': <class 'gluon.html.A'>, 'Auth': <class 'gluon.tools.Auth'>, 'B': <class 'gluon.html.B'>, 'BEAUTIFY': <class 'gluon.html.BEAUTIFY'>, 'BODY': <class 'gluon.html.BODY'>, 'BR': <class 'gluon.html.BR'>, 'BRAZILIAN_DATE': <gluon.validators.IS_DATE object>, 'BUTTON': <class 'gluon.html.BUTTON'>, 'CAT': <class 'gluon.html.CAT'>, 'CENTER': <class 'gluon.html.CENTER'>, ...}, layer='/home/www-data/web2py/applications/scrum/controllers/ticket.py')"
p3395
sS'func'
p3396
S'restricted'
p3397
sa(dp3398
g3373
S'/home/www-data/web2py/applications/scrum/controllers/ticket.py'
p3399
sg3375
(dp3400
sg3381
I16
sg3382
(dp3401
I5
S'                 (db.ticket.analista == auth.user_id)).select()'
p3402
sI6
S'    return dict(tickets=tickets)'
p3403
sI7
S''
sI8
S'@auth.requires(auth.has_membership(config.grupo_consultor))'
p3404
sI9
S'def novo():'
p3405
sI10
S"    response.view = 'simple_form.html'"
p3406
sI11
S'    db.ticket.consultor.default = auth.user_id'
p3407
sI12
S'    db.ticket.consultor.writable = False'
p3408
sI13
S'    form = crud.create(db.ticket)'
p3409
sI14
S'    return dict(form=form)'
p3410
ssg3394
S'()'
p3411
sg3396
S'<module>'
p3412
sa(dp3413
g3373
S'/home/www-data/web2py/gluon/globals.py'
p3414
sg3375
(dp3415
S'self'
p3416
S'undefined'
p3417
sS'f'
S'<function novo>'
p3418
ssg3381
I145
sg3382
(dp3419
I140
S'        self.meta = Storage()      # used by web2py_ajax.html'
p3420
sI141
S'        self.menu = []             # used by the default view layout'
p3421
sI142
S'        self.files = []            # used by web2py_ajax.html'
p3422
sI143
S'        self.generic_patterns = [] # patterns to allow generic views'
p3423
sI144
S'        self._vars = None'
p3424
sI145
S'        self._caller = lambda f: f()'
p3425
sI146
S'        self._view_environment = None'
p3426
sI147
S'        self._custom_commit = None'
p3427
sI148
S'        self._custom_rollback = None'
p3428
sI149
S''
ssg3394
S'(f=<function novo>)'
p3429
sg3396
S'<lambda>'
p3430
sa(dp3431
g3373
S'/home/www-data/web2py/gluon/tools.py'
p3432
sg3375
(dp3433
S'action'
p3434
S'<function novo>'
p3435
sS'a'
S'()'
p3436
sS'b'
g44
ssg3381
I2429
sg3382
(dp3437
I2432
S'            f.__dict__.update(action.__dict__)'
p3438
sI2433
S'            return f'
p3439
sI2424
S'                            self.settings.on_failed_authentication,'
p3440
sI2425
S"                            self.settings.login_url + '?_next='+urllib.quote(next))"
p3441
sI2426
S'                    else:'
p3442
sI2427
S'                        current.session.flash = self.messages.access_denied'
p3443
sI2428
S'                        return call_or_redirect(self.settings.on_failed_authorization)'
p3444
sI2429
S'                return action(*a, **b)'
p3445
sI2430
S'            f.__doc__ = action.__doc__'
p3446
sI2431
S'            f.__name__ = action.__name__'
p3447
ssg3394
S'(*a=(), **b={})'
p3448
sg3396
S'f'
sa(dp3449
g3373
S'/home/www-data/web2py/applications/scrum/controllers/ticket.py'
p3450
sg3375
(dp3451
S'global crud'
p3452
S'<gluon.tools.Crud object>'
p3453
sS'crud.create'
p3454
S'<bound method Crud.create of <gluon.tools.Crud object>>'
p3455
sS'global db'
p3456
S"<DAL {'auth_event': <Table {'origin': <gluon.dal... 'id': <gluon.dal.Field object at 0xb96a76ac>}>}>"
p3457
sS'form'
p3458
g3417
sS'db.ticket'
p3459
S"<Table {'ALL': <gluon.dal.SQLALL object at 0xb9a...>, 'id': <gluon.dal.Field object at 0xb9a2086c>}>"
p3460
ssg3381
I13
sg3382
(dp3461
I5
S'                 (db.ticket.analista == auth.user_id)).select()'
p3462
sI6
S'    return dict(tickets=tickets)'
p3463
sI7
S''
sI8
S'@auth.requires(auth.has_membership(config.grupo_consultor))'
p3464
sI9
S'def novo():'
p3465
sI10
S"    response.view = 'simple_form.html'"
p3466
sI11
S'    db.ticket.consultor.default = auth.user_id'
p3467
sI12
S'    db.ticket.consultor.writable = False'
p3468
sI13
S'    form = crud.create(db.ticket)'
p3469
sI14
S'    return dict(form=form)'
p3470
ssg3394
S'()'
p3471
sg3396
S'novo'
p3472
sa(dp3473
g3373
S'/home/www-data/web2py/gluon/tools.py'
p3474
sg3375
(dp3475
S'formname'
p3476
S'<function <lambda>>'
p3477
ssg3381
I3136
sg3382
(dp3478
I3136
S'            formname=formname,'
p3479
sI3137
S'            )'
p3480
sI3138
S''
sI3139
S'    def read(self, table, record):'
p3481
sI3140
S'        if not (isinstance(table, self.db.Table) or table in self.db.tables) \\'
p3482
sI3131
S'            onvalidation=onvalidation,'
p3483
sI3132
S'            onaccept=onaccept,'
p3484
sI3133
S'            log=log,'
p3485
sI3134
S'            message=message,'
p3486
sI3135
S'            deletable=False,'
p3487
ssg3394
S"(self=<gluon.tools.Crud object>, table=<Table {'ALL': <gluon.dal.SQLALL object at 0xb9a...>, 'id': <gluon.dal.Field object at 0xb9a2086c>}>, next=None, onvalidation=<Storage {}>, onaccept=<Storage {'item_biv': [<function <lambda> at 0xb9469a3c>, <function <lambda> at 0xb946948c>]}>, log='Registro %(id)s criado', message='Registro Criado', formname=<function <lambda>>)"
p3488
sg3396
S'create'
p3489
sa(dp3490
g3373
S'/home/www-data/web2py/gluon/tools.py'
p3491
sg3375
(dp3492
S'self'
p3493
S'<gluon.tools.Crud object>'
p3494
sS'separator'
p3495
g3417
sS'self.settings.label_separator'
p3496
S"': '"
p3497
sS'self.settings'
p3498
S"<Storage {'showid': False, 'delete_onaccept': <S...ble': True, 'create_onvalidation': <Storage {}>}>"
p3499
ssg3381
I3048
sg3382
(dp3500
I3043
S'            submit_button=self.messages.submit_button,'
p3501
sI3044
S'            delete_label=self.messages.delete_label,'
p3502
sI3045
S'            deletable=deletable,'
p3503
sI3046
S'            upload=self.settings.download_url,'
p3504
sI3047
S'            formstyle=self.settings.formstyle,'
p3505
sI3048
S'            separator=self.settings.label_separator'
p3506
sI3049
S'            )'
p3507
sI3050
S'        self.accepted = False'
p3508
sI3051
S'        self.deleted = False'
p3509
sI3052
S'        captcha = self.settings.update_captcha or \\'
p3510
ssg3394
S"(self=<gluon.tools.Crud object>, table=<Table {'ALL': <gluon.dal.SQLALL object at 0xb9a...>, 'id': <gluon.dal.Field object at 0xb9a2086c>}>, record=None, next=None, onvalidation=<Storage {}>, onaccept=<Storage {'item_biv': [<function <lambda> at 0xb9469a3c>, <function <lambda> at 0xb946948c>]}>, ondelete=<Storage {}>, log='Registro %(id)s criado', message='Registro Criado', deletable=False, formname=<function <lambda>>)"
p3511
sg3396
S'update'
p3512
sa(dp3513
g3373
S'/home/www-data/web2py/gluon/sqlhtml.py'
p3514
sg3375
(dp3515
S'default'
p3516
S'None'
p3517
sS'self.widgets.options.widget'
p3518
S'<function widget>'
p3519
sS'self'
p3520
S'<gluon.sqlhtml.SQLFORM object>'
p3521
sS'inp'
p3522
S"'Carlos Jos\\xc3\\xa9 da Costa (1)'"
p3523
sS'self.widgets'
p3524
S"<Storage {'multiple': <class 'gluon.sqlhtml.Mult...ss 'gluon.sqlhtml.OptionsWidget'>, 'blob': None}>"
p3525
sS'field'
p3526
S'<gluon.dal.Field object>'
p3527
sS'self.widgets.options'
p3528
S"<class 'gluon.sqlhtml.OptionsWidget'>"
p3529
ssg3381
I830
sg3382
(dp3530
I832
S'                    inp = self.widgets.multiple.widget(field, default)'
p3531
sI833
S'                if fieldname in keepopts:'
p3532
sI834
S"                    inpval = TAG[''](*inp.components)"
p3533
sI825
S"                    inpval = 'checked'"
p3534
sI826
S'                else:'
p3535
sI827
S"                    inpval = ''"
p3536
sI828
S'            elif OptionsWidget.has_options(field):'
p3537
sI829
S'                if not field.requires.multiple:'
p3538
sI830
S'                    inp = self.widgets.options.widget(field, default)'
p3539
sI831
S'                else:'
p3540
ssg3394
S"(self=<gluon.sqlhtml.SQLFORM object>, table=<Table {'ALL': <gluon.dal.SQLALL object at 0xb9a...>, 'id': <gluon.dal.Field object at 0xb9a2086c>}>, record=None, deletable=False, linkto=None, upload='/scrum/default/download', fields=['id', 'chamado', 'consultor', 'analista', 'estado', 'patch', 'local_teste'], labels=None, col3={}, submit_button='Enviar', delete_label='Marque para deletar:', showid=False, readonly=False, comments=True, keepopts=[], ignore_rw=False, record_id=None, formstyle='table3cols', buttons=['submit'], separator=': ', **attributes={'hidden': {'_next': None}})"
p3541
sg3396
g49
sa(dp3542
g3373
S'/home/www-data/web2py/gluon/sqlhtml.py'
p3543
sg3375
(dp3544
S'].options'
p3545
g3417
sS'requires'
p3546
S'[<gluon.validators.IS_IN_DB object>]'
p3547
sS'options'
p3548
g3417
ssg3381
I218
sg3382
(dp3549
I213
S'        requires = field.requires'
p3550
sI214
S'        if not isinstance(requires, (list, tuple)):'
p3551
sI215
S'            requires = [requires]'
p3552
sI216
S'        if requires:'
p3553
sI217
S"            if hasattr(requires[0], 'options'):"
p3554
sI218
S'                options = requires[0].options()'
p3555
sI219
S'            else:'
p3556
sI220
S"                raise SyntaxError, 'widget cannot determine options of %s' \\"
p3557
sI221
S'                    % field'
p3558
sI222
S'        opts = [OPTION(v, _value=k) for (k, v) in options]'
p3559
ssg3394
S'(field=<gluon.dal.Field object>, value=None, **attributes={})'
p3560
sg3396
S'widget'
p3561
sa(dp3562
g3373
S'/home/www-data/web2py/gluon/validators.py'
p3563
sg3375
(dp3564
S'self'
p3565
S'<gluon.validators.IS_IN_DB object>'
p3566
sS'self.build_set'
p3567
S'<bound method IS_IN_DB.build_set of <gluon.validators.IS_IN_DB object>>'
p3568
ssg3381
I438
sg3382
(dp3569
I433
S'            self.labels = [self.label % dict(r) for r in records]'
p3570
sI434
S'        else:'
p3571
sI435
S'            self.labels = [self.label(r) for r in records]'
p3572
sI436
S''
sI437
S'    def options(self, zero=True):'
p3573
sI438
S'        self.build_set()'
p3574
sI439
S'        items = [(k, self.labels[i]) for (i, k) in enumerate(self.theset)]'
p3575
sI440
S'        if self.sort:'
p3576
sI441
S'            items.sort(options_sorter)'
p3577
sI442
S'        if zero and self.zero != None and not self.multiple:'
p3578
ssg3394
S'(self=<gluon.validators.IS_IN_DB object>, zero=True)'
p3579
sg3396
S'options'
p3580
sa(dp3581
g3373
S'/home/www-data/web2py/gluon/validators.py'
p3582
sg3375
(dp3583
S'self.dbset.select'
p3584
S'<bound method Set.select of <gluon.dal.Set object>>'
p3585
sS'self.dbset'
p3586
S'<gluon.dal.Set object>'
p3587
sS'fields'
p3588
S'[<gluon.dal.Field object>]'
p3589
sS'self'
p3590
S'<gluon.validators.IS_IN_DB object>'
p3591
sS'records'
p3592
g3417
sS'dd'
p3593
S"{'cache': None, 'groupby': None, 'orderby': <gluon.dal.Field object>}"
p3594
ssg3381
I426
sg3382
(dp3595
I421
S'            fields = [self.dbset.db[self.ktable][k] for k in self.fields]'
p3596
sI422
S"        if self.dbset.db._dbname != 'gae':"
p3597
sI423
S'            orderby = self.orderby or reduce(lambda a,b:a|b,fields)'
p3598
sI424
S'            groupby = self.groupby'
p3599
sI425
S'            dd = dict(orderby=orderby, groupby=groupby, cache=self.cache)'
p3600
sI426
S'            records = self.dbset.select(*fields, **dd)'
p3601
sI427
S'        else:'
p3602
sI428
S"            orderby = self.orderby or reduce(lambda a,b:a|b,(f for f in fields if not f.name=='id'))"
p3603
sI429
S'            dd = dict(orderby=orderby, cache=self.cache)'
p3604
sI430
S'            records = self.dbset.select(self.dbset.db[self.ktable].ALL, **dd)'
p3605
ssg3394
S'(self=<gluon.validators.IS_IN_DB object>)'
p3606
sg3396
S'build_set'
p3607
sa(dp3608
g3373
S'/home/www-data/web2py/gluon/dal.py'
p3609
sg3375
(dp3610
S'self.query'
p3611
S'<gluon.dal.Query object>'
p3612
sS'fields'
p3613
S'(<gluon.dal.Field object>,)'
p3614
sS'self'
p3615
S'<gluon.dal.Set object>'
p3616
sS'self.db._adapter.select'
p3617
S'<bound method SQLiteAdapter.select of <gluon.dal.SQLiteAdapter object>>'
p3618
sS'self.db._adapter'
p3619
S'<gluon.dal.SQLiteAdapter object>'
p3620
sS'attributes'
p3621
S"{'cache': None, 'groupby': None, 'orderby': <gluon.dal.Field object>}"
p3622
sS'self.db'
p3623
S"<DAL {'auth_event': <Table {'origin': <gluon.dal... 'id': <gluon.dal.Field object at 0xb96a76ac>}>}>"
p3624
ssg3381
I5481
sg3382
(dp3625
I5476
S''
sI5477
S'    def count(self,distinct=None):'
p3626
sI5478
S'        return self.db._adapter.count(self.query,distinct)'
p3627
sI5479
S''
sI5480
S'    def select(self, *fields, **attributes):'
p3628
sI5481
S'        return self.db._adapter.select(self.query,fields,attributes)'
p3629
sI5482
S''
sI5483
S'    def delete(self):'
p3630
sI5484
S'        tablename=self.db._adapter.get_table(self.query)'
p3631
sI5485
S'        self.delete_uploaded_files()'
p3632
ssg3394
S"(self=<gluon.dal.Set object>, *fields=(<gluon.dal.Field object>,), **attributes={'cache': None, 'groupby': None, 'orderby': <gluon.dal.Field object>})"
p3633
sg3396
S'select'
p3634
sa(dp3635
g3373
S'/home/www-data/web2py/gluon/dal.py'
p3636
sg3375
(dp3637
S'self._select'
p3638
S'<bound method SQLiteAdapter._select of <gluon.dal.SQLiteAdapter object>>'
p3639
sS'fields'
p3640
S'(<gluon.dal.Field object>,)'
p3641
sS'self'
p3642
S'<gluon.dal.SQLiteAdapter object>'
p3643
sS'sql'
p3644
g3417
sS'query'
p3645
S'<gluon.dal.Query object>'
p3646
sS'attributes'
p3647
S"{'cache': None, 'groupby': None, 'orderby': <gluon.dal.Field object>}"
p3648
ssg3381
I1179
sg3382
(dp3649
I1174
S'        Always returns a Rows object, even if it may be empty'
p3650
sI1175
S'        """'
p3651
sI1176
S'        def response(sql):'
p3652
sI1177
S'            self.execute(sql)'
p3653
sI1178
S'            return self.cursor.fetchall()'
p3654
sI1179
S'        sql = self._select(query,fields,attributes)'
p3655
sI1180
S"        if attributes.get('cache', None):"
p3656
sI1181
S"            (cache_model, time_expire) = attributes['cache']"
p3657
sI1182
S"            del attributes['cache']"
p3658
sI1183
S"            key = self.uri + '/' + sql"
p3659
ssg3394
S"(self=<gluon.dal.SQLiteAdapter object>, query=<gluon.dal.Query object>, fields=(<gluon.dal.Field object>,), attributes={'cache': None, 'groupby': None, 'orderby': <gluon.dal.Field object>})"
p3660
sg3396
g3634
sa(dp3661
g3373
S'/home/www-data/web2py/gluon/dal.py'
p3662
sg3375
(dp3663
S'query'
p3664
S'<gluon.dal.Query object>'
p3665
sS'self'
p3666
S'<gluon.dal.SQLiteAdapter object>'
p3667
sS'sql_w'
p3668
g3417
sS'self.expand'
p3669
S'<bound method SQLiteAdapter.expand of <gluon.dal.SQLiteAdapter object>>'
p3670
ssg3381
I1086
sg3382
(dp3671
I1088
S"            sql_w = ''"
p3672
sI1089
S"        sql_o = ''"
p3673
sI1090
S"        sql_s = ''"
p3674
sI1081
S'        if len(tablenames) < 1:'
p3675
sI1082
S"            raise SyntaxError, 'Set: no tables selected'"
p3676
sI1083
S"        sql_f = ', '.join(map(self.expand,fields))"
p3677
sI1084
S"        self._colnames = [c.strip() for c in sql_f.split(', ')]"
p3678
sI1085
S'        if query:'
p3679
sI1086
S"            sql_w = ' WHERE ' + self.expand(query)"
p3680
sI1087
S'        else:'
p3681
ssg3394
S"(self=<gluon.dal.SQLiteAdapter object>, query=<gluon.dal.Query object>, fields=[<gluon.dal.Field object>], attributes={'cache': None, 'groupby': None, 'orderby': <gluon.dal.Field object>})"
p3682
sg3396
S'_select'
p3683
sa(dp3684
g3373
S'/home/www-data/web2py/gluon/dal.py'
p3685
sg3375
(dp3686
S'expression.op'
p3687
S'<bound method SQLiteAdapter.AND of <gluon.dal.SQLiteAdapter object>>'
p3688
sS'expression'
p3689
S'<gluon.dal.Query object>'
p3690
sS'expression.first'
p3691
S'<gluon.dal.Query object>'
p3692
sS'expression.second'
p3693
S'<gluon.dal.Query object>'
p3694
ssg3381
I945
sg3382
(dp3695
I940
S'    def expand(self,expression,field_type=None):'
p3696
sI941
S'        if isinstance(expression,Field):'
p3697
sI942
S'            return str(expression)'
p3698
sI943
S'        elif isinstance(expression, (Expression, Query)):'
p3699
sI944
S'            if not expression.second is None:'
p3700
sI945
S'                return expression.op(expression.first, expression.second)'
p3701
sI946
S'            elif not expression.first is None:'
p3702
sI947
S'                return expression.op(expression.first)'
p3703
sI948
S'            else:'
p3704
sI949
S'                return expression.op()'
p3705
ssg3394
S'(self=<gluon.dal.SQLiteAdapter object>, expression=<gluon.dal.Query object>, field_type=None)'
p3706
sg3396
S'expand'
p3707
sa(dp3708
g3373
S'/home/www-data/web2py/gluon/dal.py'
p3709
sg3375
(dp3710
S'self'
p3711
S'<gluon.dal.SQLiteAdapter object>'
p3712
sS'first'
p3713
S'<gluon.dal.Query object>'
p3714
sS'second'
p3715
S'<gluon.dal.Query object>'
p3716
sS'self.expand'
p3717
S'<bound method SQLiteAdapter.expand of <gluon.dal.SQLiteAdapter object>>'
p3718
ssg3381
I862
sg3382
(dp3719
I864
S'    def OR(self,first,second):'
p3720
sI865
S"        return '(%s OR %s)' % (self.expand(first),self.expand(second))"
p3721
sI866
S''
sI857
S''
sI858
S'    def NOT(self,first):'
p3722
sI859
S"        return '(NOT %s)' % self.expand(first)"
p3723
sI860
S''
sI861
S'    def AND(self,first,second):'
p3724
sI862
S"        return '(%s AND %s)' % (self.expand(first),self.expand(second))"
p3725
sI863
S''
ssg3394
S'(self=<gluon.dal.SQLiteAdapter object>, first=<gluon.dal.Query object>, second=<gluon.dal.Query object>)'
p3726
sg3396
S'AND'
p3727
sa(dp3728
g3373
S'/home/www-data/web2py/gluon/dal.py'
p3729
sg3375
(dp3730
S'expression.op'
p3731
S'<bound method SQLiteAdapter.EQ of <gluon.dal.SQLiteAdapter object>>'
p3732
sS'expression'
p3733
S'<gluon.dal.Query object>'
p3734
sS'expression.first'
p3735
S'<gluon.dal.Field object>'
p3736
sS'expression.second'
p3737
S"<Table {'ALL': <gluon.dal.SQLALL object at 0xb99...>, 'id': <gluon.dal.Field object at 0xb990b54c>}>"
p3738
ssg3381
I945
sg3382
(dp3739
I940
S'    def expand(self,expression,field_type=None):'
p3740
sI941
S'        if isinstance(expression,Field):'
p3741
sI942
S'            return str(expression)'
p3742
sI943
S'        elif isinstance(expression, (Expression, Query)):'
p3743
sI944
S'            if not expression.second is None:'
p3744
sI945
S'                return expression.op(expression.first, expression.second)'
p3745
sI946
S'            elif not expression.first is None:'
p3746
sI947
S'                return expression.op(expression.first)'
p3747
sI948
S'            else:'
p3748
sI949
S'                return expression.op()'
p3749
ssg3394
S'(self=<gluon.dal.SQLiteAdapter object>, expression=<gluon.dal.Query object>, field_type=None)'
p3750
sg3396
g3707
sa(dp3751
g3373
S'/home/www-data/web2py/gluon/dal.py'
p3752
sg3375
(dp3753
S'first.type'
p3754
S"'id'"
p3755
sS'self'
p3756
S'<gluon.dal.SQLiteAdapter object>'
p3757
sS'first'
p3758
S'<gluon.dal.Field object>'
p3759
sS'second'
p3760
S"<Table {'ALL': <gluon.dal.SQLALL object at 0xb99...>, 'id': <gluon.dal.Field object at 0xb990b54c>}>"
p3761
sS'self.expand'
p3762
S'<bound method SQLiteAdapter.expand of <gluon.dal.SQLiteAdapter object>>'
p3763
ssg3381
I894
sg3382
(dp3764
I896
S'    def NE(self,first,second=None):'
p3765
sI897
S'        if second is None:'
p3766
sI898
S"            return '(%s IS NOT NULL)' % self.expand(first)"
p3767
sI889
S"        return '(%s LIKE %s)' % (self.expand(first),self.expand(key,'string'))"
p3768
sI890
S''
sI891
S'    def EQ(self,first,second=None):'
p3769
sI892
S'        if second is None:'
p3770
sI893
S"            return '(%s IS NULL)' % self.expand(first)"
p3771
sI894
S"        return '(%s = %s)' % (self.expand(first),self.expand(second,first.type))"
p3772
sI895
S''
ssg3394
S"(self=<gluon.dal.SQLiteAdapter object>, first=<gluon.dal.Field object>, second=<Table {'ALL': <gluon.dal.SQLALL object at 0xb99...>, 'id': <gluon.dal.Field object at 0xb990b54c>}>)"
p3773
sg3396
S'EQ'
p3774
sa(dp3775
g3373
S'/home/www-data/web2py/gluon/dal.py'
p3776
sg3375
(dp3777
S'field_type'
p3778
S"'id'"
p3779
sS'self'
p3780
S'<gluon.dal.SQLiteAdapter object>'
p3781
sS'expression'
p3782
S"<Table {'ALL': <gluon.dal.SQLALL object at 0xb99...>, 'id': <gluon.dal.Field object at 0xb990b54c>}>"
p3783
sS'self.represent'
p3784
S'<bound method SQLiteAdapter.represent of <gluon.dal.SQLiteAdapter object>>'
p3785
ssg3381
I951
sg3382
(dp3786
I946
S'            elif not expression.first is None:'
p3787
sI947
S'                return expression.op(expression.first)'
p3788
sI948
S'            else:'
p3789
sI949
S'                return expression.op()'
p3790
sI950
S'        elif field_type:'
p3791
sI951
S'            return self.represent(expression,field_type)'
p3792
sI952
S'        elif isinstance(expression,(list,tuple)):'
p3793
sI953
S"            return ','.join([self.represent(item,field_type) for item in expression])"
p3794
sI954
S'        else:'
p3795
sI955
S'            return str(expression)'
p3796
ssg3394
S"(self=<gluon.dal.SQLiteAdapter object>, expression=<Table {'ALL': <gluon.dal.SQLALL object at 0xb99...>, 'id': <gluon.dal.Field object at 0xb990b54c>}>, field_type='id')"
p3797
sg3396
g3707
sa(dp3798
g3373
S'/home/www-data/web2py/gluon/dal.py'
p3799
sg3375
(dp3800
S'builtinstr'
p3801
S"<type 'str'>"
p3802
sS'builtinint'
p3803
S"<type 'int'>"
p3804
sS'obj'
p3805
S"<Table {'ALL': <gluon.dal.SQLALL object at 0xb99...>, 'id': <gluon.dal.Field object at 0xb990b54c>}>"
p3806
ssg3381
I1291
sg3382
(dp3807
I1286
S"            if obj and not str(obj)[:1].upper() in ['F', '0']:"
p3808
sI1287
S'                return "\'T\'"'
p3809
sI1288
S'            else:'
p3810
sI1289
S'                return "\'F\'"'
p3811
sI1290
S"        if fieldtype == 'id' or fieldtype == 'integer':"
p3812
sI1291
S'            return str(int(obj))'
p3813
sI1292
S"        if fieldtype.startswith('decimal'):"
p3814
sI1293
S'            return str(obj)'
p3815
sI1294
S"        elif fieldtype.startswith('reference'): # reference"
p3816
sI1295
S"            if fieldtype.find('.')>0:"
p3817
ssg3394
S"(self=<gluon.dal.SQLiteAdapter object>, obj=<Table {'ALL': <gluon.dal.SQLALL object at 0xb99...>, 'id': <gluon.dal.Field object at 0xb990b54c>}>, fieldtype='id')"
p3818
sg3396
S'represent'
p3819
sasS'pyver'
p3820
S'Python 2.7.1+: /usr/bin/python'
p3821
sS'session'
p3822
g56
(g57
g58
NtRp3823
(dp3824
g61
(dp3825
sg63
(lp3826
g56
(g65
g58
NtRp3827
(dp3828
g61
(dp3829
g69
I5
ssg70
Nsg63
(lp3830
g56
(g72
g58
NtRp3831
(dp3832
g61
(dp3833
sg70
g3827
sg63
(lp3834
g56
(g77
g58
NtRp3835
(dp3836
g61
(dp3837
g81
g82
ssg70
g3831
sg63
(lp3838
S'auth'
p3839
asbag56
(g77
g58
NtRp3840
(dp3841
g61
(dp3842
g88
g89
ssg70
g3831
sg63
(lp3843
S':'
asbag56
(g77
g58
NtRp3844
(dp3845
g61
(dp3846
sg70
g3831
sg63
(lp3847
g56
(g57
g58
NtRp3848
(dp3849
g61
(dp3850
g69
I5
ssg70
g3844
sg63
(lp3851
g56
(g65
g58
NtRp3852
(dp3853
g61
(dp3854
g69
I4
ssg70
Nsg63
(lp3855
g56
(g72
g58
NtRp3856
(dp3857
g61
(dp3858
sg70
g3852
sg63
(lp3859
g56
(g77
g58
NtRp3860
(dp3861
g61
(dp3862
g81
g82
ssg70
g3856
sg63
(lp3863
S'expiration'
p3864
asbag56
(g77
g58
NtRp3865
(dp3866
g61
(dp3867
g88
g89
ssg70
g3856
sg63
(lp3868
S':'
asbag56
(g77
g58
NtRp3869
(dp3870
g61
(dp3871
sg70
g3856
sg63
(lp3872
g56
(g57
g58
NtRp3873
(dp3874
g61
(dp3875
g69
I4
ssg70
g3869
sg63
(lp3876
S'3600'
p3877
asbasbasbag56
(g72
g58
NtRp3878
(dp3879
g61
(dp3880
sg70
g3852
sg63
(lp3881
g56
(g77
g58
NtRp3882
(dp3883
g61
(dp3884
g81
g82
ssg70
g3878
sg63
(lp3885
S'hmac_key'
p3886
asbag56
(g77
g58
NtRp3887
(dp3888
g61
(dp3889
g88
g89
ssg70
g3878
sg63
(lp3890
S':'
asbag56
(g77
g58
NtRp3891
(dp3892
g61
(dp3893
sg70
g3878
sg63
(lp3894
g56
(g57
g58
NtRp3895
(dp3896
g61
(dp3897
g69
I4
ssg70
g3891
sg63
(lp3898
S'c18b391f-62d1-4a51-8b2b-1e809e4c900d'
p3899
asbasbasbag56
(g72
g58
NtRp3900
(dp3901
g61
(dp3902
sg70
g3852
sg63
(lp3903
g56
(g77
g58
NtRp3904
(dp3905
g61
(dp3906
g81
g82
ssg70
g3900
sg63
(lp3907
S'last_visit'
p3908
asbag56
(g77
g58
NtRp3909
(dp3910
g61
(dp3911
g88
g89
ssg70
g3900
sg63
(lp3912
S':'
asbag56
(g77
g58
NtRp3913
(dp3914
g61
(dp3915
sg70
g3900
sg63
(lp3916
g56
(g57
g58
NtRp3917
(dp3918
g61
(dp3919
g69
I4
ssg70
g3913
sg63
(lp3920
S'datetime.datetime(2011, 9, 8, 16, 7, 39, 221985)'
p3921
asbasbasbag56
(g72
g58
NtRp3922
(dp3923
g61
(dp3924
sg70
g3852
sg63
(lp3925
g56
(g77
g58
NtRp3926
(dp3927
g61
(dp3928
g81
g82
ssg70
g3922
sg63
(lp3929
S'user'
p3930
asbag56
(g77
g58
NtRp3931
(dp3932
g61
(dp3933
g88
g89
ssg70
g3922
sg63
(lp3934
S':'
asbag56
(g77
g58
NtRp3935
(dp3936
g61
(dp3937
sg70
g3922
sg63
(lp3938
g56
(g57
g58
NtRp3939
(dp3940
g61
(dp3941
g69
I4
ssg70
g3935
sg63
(lp3942
g56
(g65
g58
NtRp3943
(dp3944
g61
(dp3945
g69
I3
ssg70
Nsg63
(lp3946
g56
(g72
g58
NtRp3947
(dp3948
g61
(dp3949
sg70
g3943
sg63
(lp3950
g56
(g77
g58
NtRp3951
(dp3952
g61
(dp3953
g81
g82
ssg70
g3947
sg63
(lp3954
S'email'
p3955
asbag56
(g77
g58
NtRp3956
(dp3957
g61
(dp3958
g88
g89
ssg70
g3947
sg63
(lp3959
S':'
asbag56
(g77
g58
NtRp3960
(dp3961
g61
(dp3962
sg70
g3947
sg63
(lp3963
g56
(g57
g58
NtRp3964
(dp3965
g61
(dp3966
g69
I3
ssg70
g3960
sg63
(lp3967
S'carlos.mg@vilesoft.com.br'
p3968
asbasbasbag56
(g72
g58
NtRp3969
(dp3970
g61
(dp3971
sg70
g3943
sg63
(lp3972
g56
(g77
g58
NtRp3973
(dp3974
g61
(dp3975
g81
g82
ssg70
g3969
sg63
(lp3976
S'first_name'
p3977
asbag56
(g77
g58
NtRp3978
(dp3979
g61
(dp3980
g88
g89
ssg70
g3969
sg63
(lp3981
S':'
asbag56
(g77
g58
NtRp3982
(dp3983
g61
(dp3984
sg70
g3969
sg63
(lp3985
g56
(g57
g58
NtRp3986
(dp3987
g61
(dp3988
g69
I3
ssg70
g3982
sg63
(lp3989
S'Carlos Jos\xc3\xa9'
p3990
asbasbasbag56
(g72
g58
NtRp3991
(dp3992
g61
(dp3993
sg70
g3943
sg63
(lp3994
g56
(g77
g58
NtRp3995
(dp3996
g61
(dp3997
g81
g82
ssg70
g3991
sg63
(lp3998
S'id'
p3999
asbag56
(g77
g58
NtRp4000
(dp4001
g61
(dp4002
g88
g89
ssg70
g3991
sg63
(lp4003
S':'
asbag56
(g77
g58
NtRp4004
(dp4005
g61
(dp4006
sg70
g3991
sg63
(lp4007
g56
(g57
g58
NtRp4008
(dp4009
g61
(dp4010
g69
I3
ssg70
g4004
sg63
(lp4011
S'1'
asbasbasbag56
(g72
g58
NtRp4012
(dp4013
g61
(dp4014
sg70
g3943
sg63
(lp4015
g56
(g77
g58
NtRp4016
(dp4017
g61
(dp4018
g81
g82
ssg70
g4012
sg63
(lp4019
S'last_name'
p4020
asbag56
(g77
g58
NtRp4021
(dp4022
g61
(dp4023
g88
g89
ssg70
g4012
sg63
(lp4024
S':'
asbag56
(g77
g58
NtRp4025
(dp4026
g61
(dp4027
sg70
g4012
sg63
(lp4028
g56
(g57
g58
NtRp4029
(dp4030
g61
(dp4031
g69
I3
ssg70
g4025
sg63
(lp4032
S'da Costa'
p4033
asbasbasbag56
(g72
g58
NtRp4034
(dp4035
g61
(dp4036
sg70
g3943
sg63
(lp4037
g56
(g77
g58
NtRp4038
(dp4039
g61
(dp4040
g81
g82
ssg70
g4034
sg63
(lp4041
S'password'
p4042
asbag56
(g77
g58
NtRp4043
(dp4044
g61
(dp4045
g88
g89
ssg70
g4034
sg63
(lp4046
S':'
asbag56
(g77
g58
NtRp4047
(dp4048
g61
(dp4049
sg70
g4034
sg63
(lp4050
g56
(g57
g58
NtRp4051
(dp4052
g61
(dp4053
g69
I3
ssg70
g4047
sg63
(lp4054
S'00a7a128f71552b063e36943370dd0944d5adb4000c6382d33eb3e1a93dc679cb99beb47e3003d318803f96ef839a18a379eae2e2bb917ca3c52c4e45231b331'
p4055
asbasbasbag56
(g72
g58
NtRp4056
(dp4057
g61
(dp4058
sg70
g3943
sg63
(lp4059
g56
(g77
g58
NtRp4060
(dp4061
g61
(dp4062
g81
g82
ssg70
g4056
sg63
(lp4063
S'registration_key'
p4064
asbag56
(g77
g58
NtRp4065
(dp4066
g61
(dp4067
g88
g89
ssg70
g4056
sg63
(lp4068
S':'
asbag56
(g77
g58
NtRp4069
(dp4070
g61
(dp4071
sg70
g4056
sg63
(lp4072
g56
(g57
g58
NtRp4073
(dp4074
g61
(dp4075
g69
I3
ssg70
g4069
sg63
(lp4076
S''
asbasbasbag56
(g72
g58
NtRp4077
(dp4078
g61
(dp4079
sg70
g3943
sg63
(lp4080
g56
(g77
g58
NtRp4081
(dp4082
g61
(dp4083
g81
g82
ssg70
g4077
sg63
(lp4084
S'reset_password_key'
p4085
asbag56
(g77
g58
NtRp4086
(dp4087
g61
(dp4088
g88
g89
ssg70
g4077
sg63
(lp4089
S':'
asbag56
(g77
g58
NtRp4090
(dp4091
g61
(dp4092
sg70
g4077
sg63
(lp4093
g56
(g57
g58
NtRp4094
(dp4095
g61
(dp4096
g69
I3
ssg70
g4090
sg63
(lp4097
S''
asbasbasbasbasbasbasbasbasbasbasbag56
(g72
g58
NtRp4098
(dp4099
g61
(dp4100
sg70
g3827
sg63
(lp4101
g56
(g77
g58
NtRp4102
(dp4103
g61
(dp4104
g81
g82
ssg70
g4098
sg63
(lp4105
S'last_query'
p4106
asbag56
(g77
g58
NtRp4107
(dp4108
g61
(dp4109
g88
g89
ssg70
g4098
sg63
(lp4110
S':'
asbag56
(g77
g58
NtRp4111
(dp4112
g61
(dp4113
sg70
g4098
sg63
(lp4114
g56
(g57
g58
NtRp4115
(dp4116
g61
(dp4117
g69
I5
ssg70
g4111
sg63
(lp4118
S'db.auth_membership.id>0'
p4119
asbasbasbasbasbsS'etype'
p4120
S"<type 'exceptions.TypeError'>"
p4121
sS'date'
p4122
S'Thu Sep  8 16:10:44 2011'
p4123
sS'response'
p4124
g56
(g57
g58
NtRp4125
(dp4126
g61
(dp4127
sg63
(lp4128
g56
(g65
g58
NtRp4129
(dp4130
g61
(dp4131
g69
I5
ssg70
Nsg63
(lp4132
g56
(g72
g58
NtRp4133
(dp4134
g61
(dp4135
sg70
g4129
sg63
(lp4136
g56
(g77
g58
NtRp4137
(dp4138
g61
(dp4139
g81
g82
ssg70
g4133
sg63
(lp4140
g154
asbag56
(g77
g58
NtRp4141
(dp4142
g61
(dp4143
g88
g89
ssg70
g4133
sg63
(lp4144
S':'
asbag56
(g77
g58
NtRp4145
(dp4146
g61
(dp4147
sg70
g4133
sg63
(lp4148
g56
(g57
g58
NtRp4149
(dp4150
g61
(dp4151
g69
I5
ssg70
g4145
sg63
(lp4152
S'<cStringIO.StringO object at 0xb960e140>'
p4153
asbasbasbag56
(g72
g58
NtRp4154
(dp4155
g61
(dp4156
sg70
g4129
sg63
(lp4157
g56
(g77
g58
NtRp4158
(dp4159
g61
(dp4160
g81
g82
ssg70
g4154
sg63
(lp4161
g220
asbag56
(g77
g58
NtRp4162
(dp4163
g61
(dp4164
g88
g89
ssg70
g4154
sg63
(lp4165
S':'
asbag56
(g77
g58
NtRp4166
(dp4167
g61
(dp4168
sg70
g4154
sg63
(lp4169
g56
(g57
g58
NtRp4170
(dp4171
g61
(dp4172
g69
I5
ssg70
g4166
sg63
(lp4173
g56
(g65
g58
NtRp4174
(dp4175
g61
(dp4176
g69
I4
ssg70
Nsg63
(lp4177
g56
(g72
g58
NtRp4178
(dp4179
g61
(dp4180
sg70
g4174
sg63
(lp4181
g56
(g77
g58
NtRp4182
(dp4183
g61
(dp4184
g81
g82
ssg70
g4178
sg63
(lp4185
S'session_id_scrum'
p4186
asbag56
(g77
g58
NtRp4187
(dp4188
g61
(dp4189
g88
g89
ssg70
g4178
sg63
(lp4190
S':'
asbag56
(g77
g58
NtRp4191
(dp4192
g61
(dp4193
sg70
g4178
sg63
(lp4194
g56
(g57
g58
NtRp4195
(dp4196
g61
(dp4197
g69
I4
ssg70
g4191
sg63
(lp4198
g56
(g65
g58
NtRp4199
(dp4200
g61
(dp4201
g69
I3
ssg70
Nsg63
(lp4202
g56
(g72
g58
NtRp4203
(dp4204
g61
(dp4205
sg70
g4199
sg63
(lp4206
g56
(g77
g58
NtRp4207
(dp4208
g61
(dp4209
g81
g82
ssg70
g4203
sg63
(lp4210
g270
asbag56
(g77
g58
NtRp4211
(dp4212
g61
(dp4213
g88
g89
ssg70
g4203
sg63
(lp4214
S':'
asbag56
(g77
g58
NtRp4215
(dp4216
g61
(dp4217
sg70
g4203
sg63
(lp4218
g56
(g57
g58
NtRp4219
(dp4220
g61
(dp4221
g69
I3
ssg70
g4215
sg63
(lp4222
S''
asbasbasbag56
(g72
g58
NtRp4223
(dp4224
g61
(dp4225
sg70
g4199
sg63
(lp4226
g56
(g77
g58
NtRp4227
(dp4228
g61
(dp4229
g81
g82
ssg70
g4223
sg63
(lp4230
g291
asbag56
(g77
g58
NtRp4231
(dp4232
g61
(dp4233
g88
g89
ssg70
g4223
sg63
(lp4234
S':'
asbag56
(g77
g58
NtRp4235
(dp4236
g61
(dp4237
sg70
g4223
sg63
(lp4238
g56
(g57
g58
NtRp4239
(dp4240
g61
(dp4241
g69
I3
ssg70
g4235
sg63
(lp4242
S''
asbasbasbag56
(g72
g58
NtRp4243
(dp4244
g61
(dp4245
sg70
g4199
sg63
(lp4246
g56
(g77
g58
NtRp4247
(dp4248
g61
(dp4249
g81
g82
ssg70
g4243
sg63
(lp4250
g312
asbag56
(g77
g58
NtRp4251
(dp4252
g61
(dp4253
g88
g89
ssg70
g4243
sg63
(lp4254
S':'
asbag56
(g77
g58
NtRp4255
(dp4256
g61
(dp4257
sg70
g4243
sg63
(lp4258
g56
(g57
g58
NtRp4259
(dp4260
g61
(dp4261
g69
I3
ssg70
g4255
sg63
(lp4262
S''
asbasbasbag56
(g72
g58
NtRp4263
(dp4264
g61
(dp4265
sg70
g4199
sg63
(lp4266
g56
(g77
g58
NtRp4267
(dp4268
g61
(dp4269
g81
g82
ssg70
g4263
sg63
(lp4270
g333
asbag56
(g77
g58
NtRp4271
(dp4272
g61
(dp4273
g88
g89
ssg70
g4263
sg63
(lp4274
S':'
asbag56
(g77
g58
NtRp4275
(dp4276
g61
(dp4277
sg70
g4263
sg63
(lp4278
g56
(g57
g58
NtRp4279
(dp4280
g61
(dp4281
g69
I3
ssg70
g4275
sg63
(lp4282
S''
asbasbasbag56
(g72
g58
NtRp4283
(dp4284
g61
(dp4285
sg70
g4199
sg63
(lp4286
g56
(g77
g58
NtRp4287
(dp4288
g61
(dp4289
g81
g82
ssg70
g4283
sg63
(lp4290
g354
asbag56
(g77
g58
NtRp4291
(dp4292
g61
(dp4293
g88
g89
ssg70
g4283
sg63
(lp4294
S':'
asbag56
(g77
g58
NtRp4295
(dp4296
g61
(dp4297
sg70
g4283
sg63
(lp4298
g56
(g57
g58
NtRp4299
(dp4300
g61
(dp4301
g69
I3
ssg70
g4295
sg63
(lp4302
S''
asbasbasbag56
(g72
g58
NtRp4303
(dp4304
g61
(dp4305
sg70
g4199
sg63
(lp4306
g56
(g77
g58
NtRp4307
(dp4308
g61
(dp4309
g81
g82
ssg70
g4303
sg63
(lp4310
g375
asbag56
(g77
g58
NtRp4311
(dp4312
g61
(dp4313
g88
g89
ssg70
g4303
sg63
(lp4314
S':'
asbag56
(g77
g58
NtRp4315
(dp4316
g61
(dp4317
sg70
g4303
sg63
(lp4318
g56
(g57
g58
NtRp4319
(dp4320
g61
(dp4321
g69
I3
ssg70
g4315
sg63
(lp4322
S'/'
asbasbasbag56
(g72
g58
NtRp4323
(dp4324
g61
(dp4325
sg70
g4199
sg63
(lp4326
g56
(g77
g58
NtRp4327
(dp4328
g61
(dp4329
g81
g82
ssg70
g4323
sg63
(lp4330
g396
asbag56
(g77
g58
NtRp4331
(dp4332
g61
(dp4333
g88
g89
ssg70
g4323
sg63
(lp4334
S':'
asbag56
(g77
g58
NtRp4335
(dp4336
g61
(dp4337
sg70
g4323
sg63
(lp4338
g56
(g57
g58
NtRp4339
(dp4340
g61
(dp4341
g69
I3
ssg70
g4335
sg63
(lp4342
S''
asbasbasbag56
(g72
g58
NtRp4343
(dp4344
g61
(dp4345
sg70
g4199
sg63
(lp4346
g56
(g77
g58
NtRp4347
(dp4348
g61
(dp4349
g81
g82
ssg70
g4343
sg63
(lp4350
g417
asbag56
(g77
g58
NtRp4351
(dp4352
g61
(dp4353
g88
g89
ssg70
g4343
sg63
(lp4354
S':'
asbag56
(g77
g58
NtRp4355
(dp4356
g61
(dp4357
sg70
g4343
sg63
(lp4358
g56
(g57
g58
NtRp4359
(dp4360
g61
(dp4361
g69
I3
ssg70
g4355
sg63
(lp4362
S''
asbasbasbasbasbasbasbasbasbasbasbag56
(g72
g58
NtRp4363
(dp4364
g61
(dp4365
sg70
g4129
sg63
(lp4366
g56
(g77
g58
NtRp4367
(dp4368
g61
(dp4369
g81
g82
ssg70
g4363
sg63
(lp4370
S'files'
p4371
asbag56
(g77
g58
NtRp4372
(dp4373
g61
(dp4374
g88
g89
ssg70
g4363
sg63
(lp4375
S':'
asbag56
(g77
g58
NtRp4376
(dp4377
g61
(dp4378
sg70
g4363
sg63
(lp4379
g56
(g57
g58
NtRp4380
(dp4381
g61
(dp4382
g69
I5
ssg70
g4376
sg63
(lp4383
g56
(g65
g58
NtRp4384
(dp4385
g61
(dp4386
g69
I4
ssg70
Nsg63
(lp4387
sbasbasbasbag56
(g72
g58
NtRp4388
(dp4389
g61
(dp4390
sg70
g4129
sg63
(lp4391
g56
(g77
g58
NtRp4392
(dp4393
g61
(dp4394
g81
g82
ssg70
g4388
sg63
(lp4395
S'flash'
p4396
asbag56
(g77
g58
NtRp4397
(dp4398
g61
(dp4399
g88
g89
ssg70
g4388
sg63
(lp4400
S':'
asbag56
(g77
g58
NtRp4401
(dp4402
g61
(dp4403
sg70
g4388
sg63
(lp4404
g56
(g57
g58
NtRp4405
(dp4406
g61
(dp4407
g69
I5
ssg70
g4401
sg63
(lp4408
S''
asbasbasbag56
(g72
g58
NtRp4409
(dp4410
g61
(dp4411
sg70
g4129
sg63
(lp4412
g56
(g77
g58
NtRp4413
(dp4414
g61
(dp4415
g81
g82
ssg70
g4409
sg63
(lp4416
S'generic_patterns'
p4417
asbag56
(g77
g58
NtRp4418
(dp4419
g61
(dp4420
g88
g89
ssg70
g4409
sg63
(lp4421
S':'
asbag56
(g77
g58
NtRp4422
(dp4423
g61
(dp4424
sg70
g4409
sg63
(lp4425
g56
(g57
g58
NtRp4426
(dp4427
g61
(dp4428
g69
I5
ssg70
g4422
sg63
(lp4429
g56
(g65
g58
NtRp4430
(dp4431
g61
(dp4432
g69
I4
ssg70
Nsg63
(lp4433
sbasbasbasbag56
(g72
g58
NtRp4434
(dp4435
g61
(dp4436
sg70
g4129
sg63
(lp4437
g56
(g77
g58
NtRp4438
(dp4439
g61
(dp4440
g81
g82
ssg70
g4434
sg63
(lp4441
S'headers'
p4442
asbag56
(g77
g58
NtRp4443
(dp4444
g61
(dp4445
g88
g89
ssg70
g4434
sg63
(lp4446
S':'
asbag56
(g77
g58
NtRp4447
(dp4448
g61
(dp4449
sg70
g4434
sg63
(lp4450
g56
(g57
g58
NtRp4451
(dp4452
g61
(dp4453
g69
I5
ssg70
g4447
sg63
(lp4454
g56
(g65
g58
NtRp4455
(dp4456
g61
(dp4457
g69
I4
ssg70
Nsg63
(lp4458
g56
(g72
g58
NtRp4459
(dp4460
g61
(dp4461
sg70
g4455
sg63
(lp4462
g56
(g77
g58
NtRp4463
(dp4464
g61
(dp4465
g81
g82
ssg70
g4459
sg63
(lp4466
S'Cache-Control'
p4467
asbag56
(g77
g58
NtRp4468
(dp4469
g61
(dp4470
g88
g89
ssg70
g4459
sg63
(lp4471
S':'
asbag56
(g77
g58
NtRp4472
(dp4473
g61
(dp4474
sg70
g4459
sg63
(lp4475
g56
(g57
g58
NtRp4476
(dp4477
g61
(dp4478
g69
I4
ssg70
g4472
sg63
(lp4479
S'no-store, no-cache, must-revalidate, post-check=0, pre-check=0'
p4480
asbasbasbag56
(g72
g58
NtRp4481
(dp4482
g61
(dp4483
sg70
g4455
sg63
(lp4484
g56
(g77
g58
NtRp4485
(dp4486
g61
(dp4487
g81
g82
ssg70
g4481
sg63
(lp4488
S'Content-Type'
p4489
asbag56
(g77
g58
NtRp4490
(dp4491
g61
(dp4492
g88
g89
ssg70
g4481
sg63
(lp4493
S':'
asbag56
(g77
g58
NtRp4494
(dp4495
g61
(dp4496
sg70
g4481
sg63
(lp4497
g56
(g57
g58
NtRp4498
(dp4499
g61
(dp4500
g69
I4
ssg70
g4494
sg63
(lp4501
S'text/html; charset=utf-8'
p4502
asbasbasbag56
(g72
g58
NtRp4503
(dp4504
g61
(dp4505
sg70
g4455
sg63
(lp4506
g56
(g77
g58
NtRp4507
(dp4508
g61
(dp4509
g81
g82
ssg70
g4503
sg63
(lp4510
S'Expires'
p4511
asbag56
(g77
g58
NtRp4512
(dp4513
g61
(dp4514
g88
g89
ssg70
g4503
sg63
(lp4515
S':'
asbag56
(g77
g58
NtRp4516
(dp4517
g61
(dp4518
sg70
g4503
sg63
(lp4519
g56
(g57
g58
NtRp4520
(dp4521
g61
(dp4522
g69
I4
ssg70
g4516
sg63
(lp4523
S'Thu, 08 Sep 2011 19:10:44 GMT'
p4524
asbasbasbag56
(g72
g58
NtRp4525
(dp4526
g61
(dp4527
sg70
g4455
sg63
(lp4528
g56
(g77
g58
NtRp4529
(dp4530
g61
(dp4531
g81
g82
ssg70
g4525
sg63
(lp4532
S'Pragma'
p4533
asbag56
(g77
g58
NtRp4534
(dp4535
g61
(dp4536
g88
g89
ssg70
g4525
sg63
(lp4537
S':'
asbag56
(g77
g58
NtRp4538
(dp4539
g61
(dp4540
sg70
g4525
sg63
(lp4541
g56
(g57
g58
NtRp4542
(dp4543
g61
(dp4544
g69
I4
ssg70
g4538
sg63
(lp4545
S'no-cache'
p4546
asbasbasbag56
(g72
g58
NtRp4547
(dp4548
g61
(dp4549
sg70
g4455
sg63
(lp4550
g56
(g77
g58
NtRp4551
(dp4552
g61
(dp4553
g81
g82
ssg70
g4547
sg63
(lp4554
S'X-Powered-By'
p4555
asbag56
(g77
g58
NtRp4556
(dp4557
g61
(dp4558
g88
g89
ssg70
g4547
sg63
(lp4559
S':'
asbag56
(g77
g58
NtRp4560
(dp4561
g61
(dp4562
sg70
g4547
sg63
(lp4563
g56
(g57
g58
NtRp4564
(dp4565
g61
(dp4566
g69
I4
ssg70
g4560
sg63
(lp4567
S'web2py'
p4568
asbasbasbasbasbasbasbag56
(g72
g58
NtRp4569
(dp4570
g61
(dp4571
sg70
g4129
sg63
(lp4572
g56
(g77
g58
NtRp4573
(dp4574
g61
(dp4575
g81
g82
ssg70
g4569
sg63
(lp4576
S'menu'
p4577
asbag56
(g77
g58
NtRp4578
(dp4579
g61
(dp4580
g88
g89
ssg70
g4569
sg63
(lp4581
S':'
asbag56
(g77
g58
NtRp4582
(dp4583
g61
(dp4584
sg70
g4569
sg63
(lp4585
g56
(g57
g58
NtRp4586
(dp4587
g61
(dp4588
g69
I5
ssg70
g4582
sg63
(lp4589
g56
(g65
g58
NtRp4590
(dp4591
g61
(dp4592
g69
I4
ssg70
Nsg63
(lp4593
g56
(g72
g58
NtRp4594
(dp4595
g61
(dp4596
sg70
g4590
sg63
(lp4597
g56
(g77
g58
NtRp4598
(dp4599
g61
(dp4600
sg70
g4594
sg63
(lp4601
g56
(g57
g58
NtRp4602
(dp4603
g61
(dp4604
g69
I4
ssg70
g4598
sg63
(lp4605
g56
(g65
g58
NtRp4606
(dp4607
g61
(dp4608
g69
I3
ssg70
Nsg63
(lp4609
g56
(g72
g58
NtRp4610
(dp4611
g61
(dp4612
sg70
g4606
sg63
(lp4613
g56
(g77
g58
NtRp4614
(dp4615
g61
(dp4616
sg70
g4610
sg63
(lp4617
g56
(g57
g58
NtRp4618
(dp4619
g61
(dp4620
g69
I3
ssg70
g4614
sg63
(lp4621
cgluon.languages
lazyT_unpickle
p4622
(S't\x04\x00\x00\x00Home'
tRp4623
asbasbasbag56
(g72
g58
NtRp4624
(dp4625
g61
(dp4626
sg70
g4606
sg63
(lp4627
g56
(g77
g58
NtRp4628
(dp4629
g61
(dp4630
sg70
g4624
sg63
(lp4631
g56
(g57
g58
NtRp4632
(dp4633
g61
(dp4634
g69
I3
ssg70
g4628
sg63
(lp4635
g99
asbasbasbag56
(g72
g58
NtRp4636
(dp4637
g61
(dp4638
sg70
g4606
sg63
(lp4639
g56
(g77
g58
NtRp4640
(dp4641
g61
(dp4642
sg70
g4636
sg63
(lp4643
g56
(g57
g58
NtRp4644
(dp4645
g61
(dp4646
g69
I3
ssg70
g4640
sg63
(lp4647
S'/scrum/default/index'
p4648
asbasbasbag56
(g72
g58
NtRp4649
(dp4650
g61
(dp4651
sg70
g4606
sg63
(lp4652
g56
(g77
g58
NtRp4653
(dp4654
g61
(dp4655
sg70
g4649
sg63
(lp4656
g56
(g57
g58
NtRp4657
(dp4658
g61
(dp4659
g69
I3
ssg70
g4653
sg63
(lp4660
g56
(g65
g58
NtRp4661
(dp4662
g61
(dp4663
g69
I2
ssg70
Nsg63
(lp4664
sbasbasbasbasbasbasbasbag56
(g72
g58
NtRp4665
(dp4666
g61
(dp4667
sg70
g4590
sg63
(lp4668
g56
(g77
g58
NtRp4669
(dp4670
g61
(dp4671
sg70
g4665
sg63
(lp4672
g56
(g57
g58
NtRp4673
(dp4674
g61
(dp4675
g69
I4
ssg70
g4669
sg63
(lp4676
g56
(g65
g58
NtRp4677
(dp4678
g61
(dp4679
g69
I3
ssg70
Nsg63
(lp4680
g56
(g72
g58
NtRp4681
(dp4682
g61
(dp4683
sg70
g4677
sg63
(lp4684
g56
(g77
g58
NtRp4685
(dp4686
g61
(dp4687
sg70
g4681
sg63
(lp4688
g56
(g57
g58
NtRp4689
(dp4690
g61
(dp4691
g69
I3
ssg70
g4685
sg63
(lp4692
g4622
(S't\x03\x00\x00\x00BIV'
tRp4693
asbasbasbag56
(g72
g58
NtRp4694
(dp4695
g61
(dp4696
sg70
g4677
sg63
(lp4697
g56
(g77
g58
NtRp4698
(dp4699
g61
(dp4700
sg70
g4694
sg63
(lp4701
g56
(g57
g58
NtRp4702
(dp4703
g61
(dp4704
g69
I3
ssg70
g4698
sg63
(lp4705
g99
asbasbasbag56
(g72
g58
NtRp4706
(dp4707
g61
(dp4708
sg70
g4677
sg63
(lp4709
g56
(g77
g58
NtRp4710
(dp4711
g61
(dp4712
sg70
g4706
sg63
(lp4713
g56
(g57
g58
NtRp4714
(dp4715
g61
(dp4716
g69
I3
ssg70
g4710
sg63
(lp4717
S''
asbasbasbag56
(g72
g58
NtRp4718
(dp4719
g61
(dp4720
sg70
g4677
sg63
(lp4721
g56
(g77
g58
NtRp4722
(dp4723
g61
(dp4724
sg70
g4718
sg63
(lp4725
g56
(g57
g58
NtRp4726
(dp4727
g61
(dp4728
g69
I3
ssg70
g4722
sg63
(lp4729
g56
(g65
g58
NtRp4730
(dp4731
g61
(dp4732
g69
I2
ssg70
Nsg63
(lp4733
g56
(g72
g58
NtRp4734
(dp4735
g61
(dp4736
sg70
g4730
sg63
(lp4737
g56
(g77
g58
NtRp4738
(dp4739
g61
(dp4740
sg70
g4734
sg63
(lp4741
g56
(g57
g58
NtRp4742
(dp4743
g61
(dp4744
g69
I2
ssg70
g4738
sg63
(lp4745
g56
(g65
g58
NtRp4746
(dp4747
g61
(dp4748
g69
I1
ssg70
Nsg63
(lp4749
g56
(g72
g58
NtRp4750
(dp4751
g61
(dp4752
sg70
g4746
sg63
(lp4753
g56
(g77
g58
NtRp4754
(dp4755
g61
(dp4756
sg70
g4750
sg63
(lp4757
g56
(g57
g58
NtRp4758
(dp4759
g61
(dp4760
g69
I1
ssg70
g4754
sg63
(lp4761
g4622
(S't\x04\x00\x00\x00Novo'
tRp4762
asbasbasbag56
(g72
g58
NtRp4763
(dp4764
g61
(dp4765
sg70
g4746
sg63
(lp4766
g56
(g77
g58
NtRp4767
(dp4768
g61
(dp4769
sg70
g4763
sg63
(lp4770
g56
(g57
g58
NtRp4771
(dp4772
g61
(dp4773
g69
I1
ssg70
g4767
sg63
(lp4774
I00
asbasbasbag56
(g72
g58
NtRp4775
(dp4776
g61
(dp4777
sg70
g4746
sg63
(lp4778
g56
(g77
g58
NtRp4779
(dp4780
g61
(dp4781
sg70
g4775
sg63
(lp4782
g56
(g57
g58
NtRp4783
(dp4784
g61
(dp4785
g69
I1
ssg70
g4779
sg63
(lp4786
S'/scrum/default/novo_biv'
p4787
asbasbasbag56
(g72
g58
NtRp4788
(dp4789
g61
(dp4790
sg70
g4746
sg63
(lp4791
g56
(g77
g58
NtRp4792
(dp4793
g61
(dp4794
sg70
g4788
sg63
(lp4795
g56
(g57
g58
NtRp4796
(dp4797
g61
(dp4798
g69
I1
ssg70
g4792
sg63
(lp4799
(lp4800
asbasbasbasbasbasbasbag56
(g72
g58
NtRp4801
(dp4802
g61
(dp4803
sg70
g4730
sg63
(lp4804
g56
(g77
g58
NtRp4805
(dp4806
g61
(dp4807
sg70
g4801
sg63
(lp4808
g56
(g57
g58
NtRp4809
(dp4810
g61
(dp4811
g69
I2
ssg70
g4805
sg63
(lp4812
g56
(g65
g58
NtRp4813
(dp4814
g61
(dp4815
g69
I1
ssg70
Nsg63
(lp4816
g56
(g72
g58
NtRp4817
(dp4818
g61
(dp4819
sg70
g4813
sg63
(lp4820
g56
(g77
g58
NtRp4821
(dp4822
g61
(dp4823
sg70
g4817
sg63
(lp4824
g56
(g57
g58
NtRp4825
(dp4826
g61
(dp4827
g69
I1
ssg70
g4821
sg63
(lp4828
g4622
(S't\n\x00\x00\x00Selecionar'
tRp4829
asbasbasbag56
(g72
g58
NtRp4830
(dp4831
g61
(dp4832
sg70
g4813
sg63
(lp4833
g56
(g77
g58
NtRp4834
(dp4835
g61
(dp4836
sg70
g4830
sg63
(lp4837
g56
(g57
g58
NtRp4838
(dp4839
g61
(dp4840
g69
I1
ssg70
g4834
sg63
(lp4841
I00
asbasbasbag56
(g72
g58
NtRp4842
(dp4843
g61
(dp4844
sg70
g4813
sg63
(lp4845
g56
(g77
g58
NtRp4846
(dp4847
g61
(dp4848
sg70
g4842
sg63
(lp4849
g56
(g57
g58
NtRp4850
(dp4851
g61
(dp4852
g69
I1
ssg70
g4846
sg63
(lp4853
S'/scrum/default/selecionar_biv'
p4854
asbasbasbag56
(g72
g58
NtRp4855
(dp4856
g61
(dp4857
sg70
g4813
sg63
(lp4858
g56
(g77
g58
NtRp4859
(dp4860
g61
(dp4861
sg70
g4855
sg63
(lp4862
g56
(g57
g58
NtRp4863
(dp4864
g61
(dp4865
g69
I1
ssg70
g4859
sg63
(lp4866
(lp4867
asbasbasbasbasbasbasbasbasbasbasbasbasbasbasbag56
(g72
g58
NtRp4868
(dp4869
g61
(dp4870
sg70
g4590
sg63
(lp4871
g56
(g77
g58
NtRp4872
(dp4873
g61
(dp4874
sg70
g4868
sg63
(lp4875
g56
(g57
g58
NtRp4876
(dp4877
g61
(dp4878
g69
I4
ssg70
g4872
sg63
(lp4879
g56
(g65
g58
NtRp4880
(dp4881
g61
(dp4882
g69
I3
ssg70
Nsg63
(lp4883
g56
(g72
g58
NtRp4884
(dp4885
g61
(dp4886
sg70
g4880
sg63
(lp4887
g56
(g77
g58
NtRp4888
(dp4889
g61
(dp4890
sg70
g4884
sg63
(lp4891
g56
(g57
g58
NtRp4892
(dp4893
g61
(dp4894
g69
I3
ssg70
g4888
sg63
(lp4895
g4622
(S't\x07\x00\x00\x00Tickets'
tRp4896
asbasbasbag56
(g72
g58
NtRp4897
(dp4898
g61
(dp4899
sg70
g4880
sg63
(lp4900
g56
(g77
g58
NtRp4901
(dp4902
g61
(dp4903
sg70
g4897
sg63
(lp4904
g56
(g57
g58
NtRp4905
(dp4906
g61
(dp4907
g69
I3
ssg70
g4901
sg63
(lp4908
g99
asbasbasbag56
(g72
g58
NtRp4909
(dp4910
g61
(dp4911
sg70
g4880
sg63
(lp4912
g56
(g77
g58
NtRp4913
(dp4914
g61
(dp4915
sg70
g4909
sg63
(lp4916
g56
(g57
g58
NtRp4917
(dp4918
g61
(dp4919
g69
I3
ssg70
g4913
sg63
(lp4920
S'/scrum/ticket/index'
p4921
asbasbasbag56
(g72
g58
NtRp4922
(dp4923
g61
(dp4924
sg70
g4880
sg63
(lp4925
g56
(g77
g58
NtRp4926
(dp4927
g61
(dp4928
sg70
g4922
sg63
(lp4929
g56
(g57
g58
NtRp4930
(dp4931
g61
(dp4932
g69
I3
ssg70
g4926
sg63
(lp4933
g56
(g65
g58
NtRp4934
(dp4935
g61
(dp4936
g69
I2
ssg70
Nsg63
(lp4937
g56
(g72
g58
NtRp4938
(dp4939
g61
(dp4940
sg70
g4934
sg63
(lp4941
g56
(g77
g58
NtRp4942
(dp4943
g61
(dp4944
sg70
g4938
sg63
(lp4945
g56
(g57
g58
NtRp4946
(dp4947
g61
(dp4948
g69
I2
ssg70
g4942
sg63
(lp4949
g56
(g65
g58
NtRp4950
(dp4951
g61
(dp4952
g69
I1
ssg70
Nsg63
(lp4953
g56
(g72
g58
NtRp4954
(dp4955
g61
(dp4956
sg70
g4950
sg63
(lp4957
g56
(g77
g58
NtRp4958
(dp4959
g61
(dp4960
sg70
g4954
sg63
(lp4961
g56
(g57
g58
NtRp4962
(dp4963
g61
(dp4964
g69
I1
ssg70
g4958
sg63
(lp4965
g4622
(S't\x04\x00\x00\x00Novo'
tRp4966
asbasbasbag56
(g72
g58
NtRp4967
(dp4968
g61
(dp4969
sg70
g4950
sg63
(lp4970
g56
(g77
g58
NtRp4971
(dp4972
g61
(dp4973
sg70
g4967
sg63
(lp4974
g56
(g57
g58
NtRp4975
(dp4976
g61
(dp4977
g69
I1
ssg70
g4971
sg63
(lp4978
I00
asbasbasbag56
(g72
g58
NtRp4979
(dp4980
g61
(dp4981
sg70
g4950
sg63
(lp4982
g56
(g77
g58
NtRp4983
(dp4984
g61
(dp4985
sg70
g4979
sg63
(lp4986
g56
(g57
g58
NtRp4987
(dp4988
g61
(dp4989
g69
I1
ssg70
g4983
sg63
(lp4990
S'/scrum/ticket/novo'
p4991
asbasbasbag56
(g72
g58
NtRp4992
(dp4993
g61
(dp4994
sg70
g4950
sg63
(lp4995
g56
(g77
g58
NtRp4996
(dp4997
g61
(dp4998
sg70
g4992
sg63
(lp4999
g56
(g57
g58
NtRp5000
(dp5001
g61
(dp5002
g69
I1
ssg70
g4996
sg63
(lp5003
(lp5004
asbasbasbasbasbasbasbag56
(g72
g58
NtRp5005
(dp5006
g61
(dp5007
sg70
g4934
sg63
(lp5008
g56
(g77
g58
NtRp5009
(dp5010
g61
(dp5011
sg70
g5005
sg63
(lp5012
g56
(g57
g58
NtRp5013
(dp5014
g61
(dp5015
g69
I2
ssg70
g5009
sg63
(lp5016
g56
(g65
g58
NtRp5017
(dp5018
g61
(dp5019
g69
I1
ssg70
Nsg63
(lp5020
g56
(g72
g58
NtRp5021
(dp5022
g61
(dp5023
sg70
g5017
sg63
(lp5024
g56
(g77
g58
NtRp5025
(dp5026
g61
(dp5027
sg70
g5021
sg63
(lp5028
g56
(g57
g58
NtRp5029
(dp5030
g61
(dp5031
g69
I1
ssg70
g5025
sg63
(lp5032
g4622
(S't\n\x00\x00\x00Selecionar'
tRp5033
asbasbasbag56
(g72
g58
NtRp5034
(dp5035
g61
(dp5036
sg70
g5017
sg63
(lp5037
g56
(g77
g58
NtRp5038
(dp5039
g61
(dp5040
sg70
g5034
sg63
(lp5041
g56
(g57
g58
NtRp5042
(dp5043
g61
(dp5044
g69
I1
ssg70
g5038
sg63
(lp5045
I00
asbasbasbag56
(g72
g58
NtRp5046
(dp5047
g61
(dp5048
sg70
g5017
sg63
(lp5049
g56
(g77
g58
NtRp5050
(dp5051
g61
(dp5052
sg70
g5046
sg63
(lp5053
g56
(g57
g58
NtRp5054
(dp5055
g61
(dp5056
g69
I1
ssg70
g5050
sg63
(lp5057
S'/scrum/ticket/index'
p5058
asbasbasbag56
(g72
g58
NtRp5059
(dp5060
g61
(dp5061
sg70
g5017
sg63
(lp5062
g56
(g77
g58
NtRp5063
(dp5064
g61
(dp5065
sg70
g5059
sg63
(lp5066
g56
(g57
g58
NtRp5067
(dp5068
g61
(dp5069
g69
I1
ssg70
g5063
sg63
(lp5070
(lp5071
asbasbasbasbasbasbasbasbasbasbasbasbasbasbasbag56
(g72
g58
NtRp5072
(dp5073
g61
(dp5074
sg70
g4590
sg63
(lp5075
g56
(g77
g58
NtRp5076
(dp5077
g61
(dp5078
sg70
g5072
sg63
(lp5079
g56
(g57
g58
NtRp5080
(dp5081
g61
(dp5082
g69
I4
ssg70
g5076
sg63
(lp5083
g56
(g65
g58
NtRp5084
(dp5085
g61
(dp5086
g69
I3
ssg70
Nsg63
(lp5087
g56
(g72
g58
NtRp5088
(dp5089
g61
(dp5090
sg70
g5084
sg63
(lp5091
g56
(g77
g58
NtRp5092
(dp5093
g61
(dp5094
sg70
g5088
sg63
(lp5095
g56
(g57
g58
NtRp5096
(dp5097
g61
(dp5098
g69
I3
ssg70
g5092
sg63
(lp5099
g4622
(S't\x06\x00\x00\x00Sprint'
tRp5100
asbasbasbag56
(g72
g58
NtRp5101
(dp5102
g61
(dp5103
sg70
g5084
sg63
(lp5104
g56
(g77
g58
NtRp5105
(dp5106
g61
(dp5107
sg70
g5101
sg63
(lp5108
g56
(g57
g58
NtRp5109
(dp5110
g61
(dp5111
g69
I3
ssg70
g5105
sg63
(lp5112
g99
asbasbasbag56
(g72
g58
NtRp5113
(dp5114
g61
(dp5115
sg70
g5084
sg63
(lp5116
g56
(g77
g58
NtRp5117
(dp5118
g61
(dp5119
sg70
g5113
sg63
(lp5120
g56
(g57
g58
NtRp5121
(dp5122
g61
(dp5123
g69
I3
ssg70
g5117
sg63
(lp5124
S''
asbasbasbag56
(g72
g58
NtRp5125
(dp5126
g61
(dp5127
sg70
g5084
sg63
(lp5128
g56
(g77
g58
NtRp5129
(dp5130
g61
(dp5131
sg70
g5125
sg63
(lp5132
g56
(g57
g58
NtRp5133
(dp5134
g61
(dp5135
g69
I3
ssg70
g5129
sg63
(lp5136
g56
(g65
g58
NtRp5137
(dp5138
g61
(dp5139
g69
I2
ssg70
Nsg63
(lp5140
g56
(g72
g58
NtRp5141
(dp5142
g61
(dp5143
sg70
g5137
sg63
(lp5144
g56
(g77
g58
NtRp5145
(dp5146
g61
(dp5147
sg70
g5141
sg63
(lp5148
g56
(g57
g58
NtRp5149
(dp5150
g61
(dp5151
g69
I2
ssg70
g5145
sg63
(lp5152
g56
(g65
g58
NtRp5153
(dp5154
g61
(dp5155
g69
I1
ssg70
Nsg63
(lp5156
g56
(g72
g58
NtRp5157
(dp5158
g61
(dp5159
sg70
g5153
sg63
(lp5160
g56
(g77
g58
NtRp5161
(dp5162
g61
(dp5163
sg70
g5157
sg63
(lp5164
g56
(g57
g58
NtRp5165
(dp5166
g61
(dp5167
g69
I1
ssg70
g5161
sg63
(lp5168
g4622
(S't\x04\x00\x00\x00Novo'
tRp5169
asbasbasbag56
(g72
g58
NtRp5170
(dp5171
g61
(dp5172
sg70
g5153
sg63
(lp5173
g56
(g77
g58
NtRp5174
(dp5175
g61
(dp5176
sg70
g5170
sg63
(lp5177
g56
(g57
g58
NtRp5178
(dp5179
g61
(dp5180
g69
I1
ssg70
g5174
sg63
(lp5181
I00
asbasbasbag56
(g72
g58
NtRp5182
(dp5183
g61
(dp5184
sg70
g5153
sg63
(lp5185
g56
(g77
g58
NtRp5186
(dp5187
g61
(dp5188
sg70
g5182
sg63
(lp5189
g56
(g57
g58
NtRp5190
(dp5191
g61
(dp5192
g69
I1
ssg70
g5186
sg63
(lp5193
S'/scrum/sprint/novo'
p5194
asbasbasbag56
(g72
g58
NtRp5195
(dp5196
g61
(dp5197
sg70
g5153
sg63
(lp5198
g56
(g77
g58
NtRp5199
(dp5200
g61
(dp5201
sg70
g5195
sg63
(lp5202
g56
(g57
g58
NtRp5203
(dp5204
g61
(dp5205
g69
I1
ssg70
g5199
sg63
(lp5206
(lp5207
asbasbasbasbasbasbasbag56
(g72
g58
NtRp5208
(dp5209
g61
(dp5210
sg70
g5137
sg63
(lp5211
g56
(g77
g58
NtRp5212
(dp5213
g61
(dp5214
sg70
g5208
sg63
(lp5215
g56
(g57
g58
NtRp5216
(dp5217
g61
(dp5218
g69
I2
ssg70
g5212
sg63
(lp5219
g56
(g65
g58
NtRp5220
(dp5221
g61
(dp5222
g69
I1
ssg70
Nsg63
(lp5223
g56
(g72
g58
NtRp5224
(dp5225
g61
(dp5226
sg70
g5220
sg63
(lp5227
g56
(g77
g58
NtRp5228
(dp5229
g61
(dp5230
sg70
g5224
sg63
(lp5231
g56
(g57
g58
NtRp5232
(dp5233
g61
(dp5234
g69
I1
ssg70
g5228
sg63
(lp5235
g4622
(S't\n\x00\x00\x00Selecionar'
tRp5236
asbasbasbag56
(g72
g58
NtRp5237
(dp5238
g61
(dp5239
sg70
g5220
sg63
(lp5240
g56
(g77
g58
NtRp5241
(dp5242
g61
(dp5243
sg70
g5237
sg63
(lp5244
g56
(g57
g58
NtRp5245
(dp5246
g61
(dp5247
g69
I1
ssg70
g5241
sg63
(lp5248
I00
asbasbasbag56
(g72
g58
NtRp5249
(dp5250
g61
(dp5251
sg70
g5220
sg63
(lp5252
g56
(g77
g58
NtRp5253
(dp5254
g61
(dp5255
sg70
g5249
sg63
(lp5256
g56
(g57
g58
NtRp5257
(dp5258
g61
(dp5259
g69
I1
ssg70
g5253
sg63
(lp5260
S'/scrum/sprint/index'
p5261
asbasbasbag56
(g72
g58
NtRp5262
(dp5263
g61
(dp5264
sg70
g5220
sg63
(lp5265
g56
(g77
g58
NtRp5266
(dp5267
g61
(dp5268
sg70
g5262
sg63
(lp5269
g56
(g57
g58
NtRp5270
(dp5271
g61
(dp5272
g69
I1
ssg70
g5266
sg63
(lp5273
(lp5274
asbasbasbasbasbasbasbasbasbasbasbasbasbasbasbasbasbasbasbag56
(g72
g58
NtRp5275
(dp5276
g61
(dp5277
sg70
g4129
sg63
(lp5278
g56
(g77
g58
NtRp5279
(dp5280
g61
(dp5281
g81
g82
ssg70
g5275
sg63
(lp5282
S'meta'
p5283
asbag56
(g77
g58
NtRp5284
(dp5285
g61
(dp5286
g88
g89
ssg70
g5275
sg63
(lp5287
S':'
asbag56
(g77
g58
NtRp5288
(dp5289
g61
(dp5290
sg70
g5275
sg63
(lp5291
g56
(g57
g58
NtRp5292
(dp5293
g61
(dp5294
g69
I5
ssg70
g5288
sg63
(lp5295
g56
(g65
g58
NtRp5296
(dp5297
g61
(dp5298
g69
I4
ssg70
Nsg63
(lp5299
g56
(g72
g58
NtRp5300
(dp5301
g61
(dp5302
sg70
g5296
sg63
(lp5303
g56
(g77
g58
NtRp5304
(dp5305
g61
(dp5306
g81
g82
ssg70
g5300
sg63
(lp5307
S'author'
p5308
asbag56
(g77
g58
NtRp5309
(dp5310
g61
(dp5311
g88
g89
ssg70
g5300
sg63
(lp5312
S':'
asbag56
(g77
g58
NtRp5313
(dp5314
g61
(dp5315
sg70
g5300
sg63
(lp5316
g56
(g57
g58
NtRp5317
(dp5318
g61
(dp5319
g69
I4
ssg70
g5313
sg63
(lp5320
S'Carlos J. Costa'
p5321
asbasbasbag56
(g72
g58
NtRp5322
(dp5323
g61
(dp5324
sg70
g5296
sg63
(lp5325
g56
(g77
g58
NtRp5326
(dp5327
g61
(dp5328
g81
g82
ssg70
g5322
sg63
(lp5329
S'copyright'
p5330
asbag56
(g77
g58
NtRp5331
(dp5332
g61
(dp5333
g88
g89
ssg70
g5322
sg63
(lp5334
S':'
asbag56
(g77
g58
NtRp5335
(dp5336
g61
(dp5337
sg70
g5322
sg63
(lp5338
g56
(g57
g58
NtRp5339
(dp5340
g61
(dp5341
g69
I4
ssg70
g5335
sg63
(lp5342
S'Copyright 2007-2010'
p5343
asbasbasbag56
(g72
g58
NtRp5344
(dp5345
g61
(dp5346
sg70
g5296
sg63
(lp5347
g56
(g77
g58
NtRp5348
(dp5349
g61
(dp5350
g81
g82
ssg70
g5344
sg63
(lp5351
S'description'
p5352
asbag56
(g77
g58
NtRp5353
(dp5354
g61
(dp5355
g88
g89
ssg70
g5344
sg63
(lp5356
S':'
asbag56
(g77
g58
NtRp5357
(dp5358
g61
(dp5359
sg70
g5344
sg63
(lp5360
g56
(g57
g58
NtRp5361
(dp5362
g61
(dp5363
g69
I4
ssg70
g5357
sg63
(lp5364
S'Development track'
p5365
asbasbasbag56
(g72
g58
NtRp5366
(dp5367
g61
(dp5368
sg70
g5296
sg63
(lp5369
g56
(g77
g58
NtRp5370
(dp5371
g61
(dp5372
g81
g82
ssg70
g5366
sg63
(lp5373
S'generator'
p5374
asbag56
(g77
g58
NtRp5375
(dp5376
g61
(dp5377
g88
g89
ssg70
g5366
sg63
(lp5378
S':'
asbag56
(g77
g58
NtRp5379
(dp5380
g61
(dp5381
sg70
g5366
sg63
(lp5382
g56
(g57
g58
NtRp5383
(dp5384
g61
(dp5385
g69
I4
ssg70
g5379
sg63
(lp5386
S'Web2py Enterprise Framework'
p5387
asbasbasbag56
(g72
g58
NtRp5388
(dp5389
g61
(dp5390
sg70
g5296
sg63
(lp5391
g56
(g77
g58
NtRp5392
(dp5393
g61
(dp5394
g81
g82
ssg70
g5388
sg63
(lp5395
S'keywords'
p5396
asbag56
(g77
g58
NtRp5397
(dp5398
g61
(dp5399
g88
g89
ssg70
g5388
sg63
(lp5400
S':'
asbag56
(g77
g58
NtRp5401
(dp5402
g61
(dp5403
sg70
g5388
sg63
(lp5404
g56
(g57
g58
NtRp5405
(dp5406
g61
(dp5407
g69
I4
ssg70
g5401
sg63
(lp5408
S'test, issue'
p5409
asbasbasbasbasbasbasbag56
(g72
g58
NtRp5410
(dp5411
g61
(dp5412
sg70
g4129
sg63
(lp5413
g56
(g77
g58
NtRp5414
(dp5415
g61
(dp5416
g81
g82
ssg70
g5410
sg63
(lp5417
S'postprocessing'
p5418
asbag56
(g77
g58
NtRp5419
(dp5420
g61
(dp5421
g88
g89
ssg70
g5410
sg63
(lp5422
S':'
asbag56
(g77
g58
NtRp5423
(dp5424
g61
(dp5425
sg70
g5410
sg63
(lp5426
g56
(g57
g58
NtRp5427
(dp5428
g61
(dp5429
g69
I5
ssg70
g5423
sg63
(lp5430
g56
(g65
g58
NtRp5431
(dp5432
g61
(dp5433
g69
I4
ssg70
Nsg63
(lp5434
sbasbasbasbag56
(g72
g58
NtRp5435
(dp5436
g61
(dp5437
sg70
g4129
sg63
(lp5438
g56
(g77
g58
NtRp5439
(dp5440
g61
(dp5441
g81
g82
ssg70
g5435
sg63
(lp5442
S'session_file'
p5443
asbag56
(g77
g58
NtRp5444
(dp5445
g61
(dp5446
g88
g89
ssg70
g5435
sg63
(lp5447
S':'
asbag56
(g77
g58
NtRp5448
(dp5449
g61
(dp5450
sg70
g5435
sg63
(lp5451
g56
(g57
g58
NtRp5452
(dp5453
g61
(dp5454
g69
I5
ssg70
g5448
sg63
(lp5455
S"<open file '/home/www-data/web2py/applications/scrum/sessions/127.0.0.1-f47d3ac4-8d8c-46d5-8321-f944561d518f', mode 'rb+' at 0xb96b6808>"
p5456
asbasbasbag56
(g72
g58
NtRp5457
(dp5458
g61
(dp5459
sg70
g4129
sg63
(lp5460
g56
(g77
g58
NtRp5461
(dp5462
g61
(dp5463
g81
g82
ssg70
g5457
sg63
(lp5464
S'session_filename'
p5465
asbag56
(g77
g58
NtRp5466
(dp5467
g61
(dp5468
g88
g89
ssg70
g5457
sg63
(lp5469
S':'
asbag56
(g77
g58
NtRp5470
(dp5471
g61
(dp5472
sg70
g5457
sg63
(lp5473
g56
(g57
g58
NtRp5474
(dp5475
g61
(dp5476
g69
I5
ssg70
g5470
sg63
(lp5477
S'/home/www-data/web2py/applications/scrum/sessions/127.0.0.1-f47d3ac4-8d8c-46d5-8321-f944561d518f'
p5478
asbasbasbag56
(g72
g58
NtRp5479
(dp5480
g61
(dp5481
sg70
g4129
sg63
(lp5482
g56
(g77
g58
NtRp5483
(dp5484
g61
(dp5485
g81
g82
ssg70
g5479
sg63
(lp5486
S'session_id'
p5487
asbag56
(g77
g58
NtRp5488
(dp5489
g61
(dp5490
g88
g89
ssg70
g5479
sg63
(lp5491
S':'
asbag56
(g77
g58
NtRp5492
(dp5493
g61
(dp5494
sg70
g5479
sg63
(lp5495
g56
(g57
g58
NtRp5496
(dp5497
g61
(dp5498
g69
I5
ssg70
g5492
sg63
(lp5499
S'127.0.0.1-f47d3ac4-8d8c-46d5-8321-f944561d518f'
p5500
asbasbasbag56
(g72
g58
NtRp5501
(dp5502
g61
(dp5503
sg70
g4129
sg63
(lp5504
g56
(g77
g58
NtRp5505
(dp5506
g61
(dp5507
g81
g82
ssg70
g5501
sg63
(lp5508
S'session_id_name'
p5509
asbag56
(g77
g58
NtRp5510
(dp5511
g61
(dp5512
g88
g89
ssg70
g5501
sg63
(lp5513
S':'
asbag56
(g77
g58
NtRp5514
(dp5515
g61
(dp5516
sg70
g5501
sg63
(lp5517
g56
(g57
g58
NtRp5518
(dp5519
g61
(dp5520
g69
I5
ssg70
g5514
sg63
(lp5521
g4186
asbasbasbag56
(g72
g58
NtRp5522
(dp5523
g61
(dp5524
sg70
g4129
sg63
(lp5525
g56
(g77
g58
NtRp5526
(dp5527
g61
(dp5528
g81
g82
ssg70
g5522
sg63
(lp5529
S'session_locked'
p5530
asbag56
(g77
g58
NtRp5531
(dp5532
g61
(dp5533
g88
g89
ssg70
g5522
sg63
(lp5534
S':'
asbag56
(g77
g58
NtRp5535
(dp5536
g61
(dp5537
sg70
g5522
sg63
(lp5538
g56
(g57
g58
NtRp5539
(dp5540
g61
(dp5541
g69
I5
ssg70
g5535
sg63
(lp5542
g1960
asbasbasbag56
(g72
g58
NtRp5543
(dp5544
g61
(dp5545
sg70
g4129
sg63
(lp5546
g56
(g77
g58
NtRp5547
(dp5548
g61
(dp5549
g81
g82
ssg70
g5543
sg63
(lp5550
S'session_new'
p5551
asbag56
(g77
g58
NtRp5552
(dp5553
g61
(dp5554
g88
g89
ssg70
g5543
sg63
(lp5555
S':'
asbag56
(g77
g58
NtRp5556
(dp5557
g61
(dp5558
sg70
g5543
sg63
(lp5559
g56
(g57
g58
NtRp5560
(dp5561
g61
(dp5562
g69
I5
ssg70
g5556
sg63
(lp5563
g99
asbasbasbag56
(g72
g58
NtRp5564
(dp5565
g61
(dp5566
sg70
g4129
sg63
(lp5567
g56
(g77
g58
NtRp5568
(dp5569
g61
(dp5570
g81
g82
ssg70
g5564
sg63
(lp5571
S'status'
p5572
asbag56
(g77
g58
NtRp5573
(dp5574
g61
(dp5575
g88
g89
ssg70
g5564
sg63
(lp5576
S':'
asbag56
(g77
g58
NtRp5577
(dp5578
g61
(dp5579
sg70
g5564
sg63
(lp5580
g56
(g57
g58
NtRp5581
(dp5582
g61
(dp5583
g69
I5
ssg70
g5577
sg63
(lp5584
S'200'
p5585
asbasbasbag56
(g72
g58
NtRp5586
(dp5587
g61
(dp5588
sg70
g4129
sg63
(lp5589
g56
(g77
g58
NtRp5590
(dp5591
g61
(dp5592
g81
g82
ssg70
g5586
sg63
(lp5593
S'subtitle'
p5594
asbag56
(g77
g58
NtRp5595
(dp5596
g61
(dp5597
g88
g89
ssg70
g5586
sg63
(lp5598
S':'
asbag56
(g77
g58
NtRp5599
(dp5600
g61
(dp5601
sg70
g5586
sg63
(lp5602
g56
(g57
g58
NtRp5603
(dp5604
g61
(dp5605
g69
I5
ssg70
g5599
sg63
(lp5606
g4622
(S's\x0f\x00\x00\x00Personalize-me!'
tRp5607
asbasbasbag56
(g72
g58
NtRp5608
(dp5609
g61
(dp5610
sg70
g4129
sg63
(lp5611
g56
(g77
g58
NtRp5612
(dp5613
g61
(dp5614
g81
g82
ssg70
g5608
sg63
(lp5615
S'title'
p5616
asbag56
(g77
g58
NtRp5617
(dp5618
g61
(dp5619
g88
g89
ssg70
g5608
sg63
(lp5620
S':'
asbag56
(g77
g58
NtRp5621
(dp5622
g61
(dp5623
sg70
g5608
sg63
(lp5624
g56
(g57
g58
NtRp5625
(dp5626
g61
(dp5627
g69
I5
ssg70
g5621
sg63
(lp5628
g121
asbasbasbag56
(g72
g58
NtRp5629
(dp5630
g61
(dp5631
sg70
g4129
sg63
(lp5632
g56
(g77
g58
NtRp5633
(dp5634
g61
(dp5635
g81
g82
ssg70
g5629
sg63
(lp5636
g2284
asbag56
(g77
g58
NtRp5637
(dp5638
g61
(dp5639
g88
g89
ssg70
g5629
sg63
(lp5640
S':'
asbag56
(g77
g58
NtRp5641
(dp5642
g61
(dp5643
sg70
g5629
sg63
(lp5644
g56
(g57
g58
NtRp5645
(dp5646
g61
(dp5647
g69
I5
ssg70
g5641
sg63
(lp5648
g2297
asbasbasbag56
(g72
g58
NtRp5649
(dp5650
g61
(dp5651
sg70
g4129
sg63
(lp5652
g56
(g77
g58
NtRp5653
(dp5654
g61
(dp5655
g81
g82
ssg70
g5649
sg63
(lp5656
S'view'
p5657
asbag56
(g77
g58
NtRp5658
(dp5659
g61
(dp5660
g88
g89
ssg70
g5649
sg63
(lp5661
S':'
asbag56
(g77
g58
NtRp5662
(dp5663
g61
(dp5664
sg70
g5649
sg63
(lp5665
g56
(g57
g58
NtRp5666
(dp5667
g61
(dp5668
g69
I5
ssg70
g5662
sg63
(lp5669
S'simple_form.html'
p5670
asbasbasbasbasbsS'locals'
p5671
(dp5672
S'self'
p5673
S'<gluon.dal.SQLiteAdapter object>'
p5674
sS'r'
S'None'
p5675
sS'obj'
p5676
S"<Table {'ALL': <gluon.dal.SQLALL object at 0xb99...>, 'id': <gluon.dal.Field object at 0xb990b54c>}>"
p5677
sS'fieldtype'
p5678
S"'id'"
p5679
sssS'traceback'
p5680
S'Traceback (most recent call last):\n  File "/home/www-data/web2py/gluon/restricted.py", line 192, in restricted\n    exec ccode in environment\n  File "/home/www-data/web2py/applications/scrum/controllers/ticket.py", line 16, in <module>\n  File "/home/www-data/web2py/gluon/globals.py", line 145, in <lambda>\n    self._caller = lambda f: f()\n  File "/home/www-data/web2py/gluon/tools.py", line 2429, in f\n    return action(*a, **b)\n  File "/home/www-data/web2py/applications/scrum/controllers/ticket.py", line 13, in novo\n    form = crud.create(db.ticket)\n  File "/home/www-data/web2py/gluon/tools.py", line 3136, in create\n    formname=formname,\n  File "/home/www-data/web2py/gluon/tools.py", line 3048, in update\n    separator=self.settings.label_separator\n  File "/home/www-data/web2py/gluon/sqlhtml.py", line 830, in __init__\n    inp = self.widgets.options.widget(field, default)\n  File "/home/www-data/web2py/gluon/sqlhtml.py", line 218, in widget\n    options = requires[0].options()\n  File "/home/www-data/web2py/gluon/validators.py", line 438, in options\n    self.build_set()\n  File "/home/www-data/web2py/gluon/validators.py", line 426, in build_set\n    records = self.dbset.select(*fields, **dd)\n  File "/home/www-data/web2py/gluon/dal.py", line 5481, in select\n    return self.db._adapter.select(self.query,fields,attributes)\n  File "/home/www-data/web2py/gluon/dal.py", line 1179, in select\n    sql = self._select(query,fields,attributes)\n  File "/home/www-data/web2py/gluon/dal.py", line 1086, in _select\n    sql_w = \' WHERE \' + self.expand(query)\n  File "/home/www-data/web2py/gluon/dal.py", line 945, in expand\n    return expression.op(expression.first, expression.second)\n  File "/home/www-data/web2py/gluon/dal.py", line 862, in AND\n    return \'(%s AND %s)\' % (self.expand(first),self.expand(second))\n  File "/home/www-data/web2py/gluon/dal.py", line 945, in expand\n    return expression.op(expression.first, expression.second)\n  File "/home/www-data/web2py/gluon/dal.py", line 894, in EQ\n    return \'(%s = %s)\' % (self.expand(first),self.expand(second,first.type))\n  File "/home/www-data/web2py/gluon/dal.py", line 951, in expand\n    return self.represent(expression,field_type)\n  File "/home/www-data/web2py/gluon/dal.py", line 1291, in represent\n    return str(int(obj))\nTypeError: int() argument must be a string or a number, not \'Table\'\n'
p5681
s.