(dp1
S'output'
p2
S''
sS'layer'
p3
S'/home/www-data/web2py/applications/scrum/controllers/ticket.py'
p4
sS'code'
p5
S"# coding: utf8# tente algo como\n@auth.requires(auth.has_membership(config.grupo_consultor))\ndef index():    \n    tickets = db((db.ticket.consultor == auth.user_id) | \n                 (db.ticket.analista == auth.user_id)).select()\n    return dict(tickets=tickets)\n   \n@auth.requires(auth.has_membership(config.grupo_consultor))\ndef novo():\n    response.view = 'simple_form.html'\n    db.ticket.consultor.default = auth.user_id\n    db.ticket.consultor.writable = False  \n    form = crud.create(db.ticket)\n    return dict(form=form)\n\nresponse._vars=response._caller(novo)\n"
p6
sS'snapshot'
p7
(dp8
S'exception'
p9
(dp10
S'__hash__'
p11
S"<method-wrapper '__hash__' of exceptions.TypeError object>"
p12
sS'__setattr__'
p13
S"<method-wrapper '__setattr__' of exceptions.TypeError object>"
p14
sS'__reduce_ex__'
p15
S'<built-in method __reduce_ex__ of exceptions.TypeError object>'
p16
sS'__getslice__'
p17
S"<method-wrapper '__getslice__' of exceptions.TypeError object>"
p18
sS'__getitem__'
p19
S"<method-wrapper '__getitem__' of exceptions.TypeError object>"
p20
sS'__setstate__'
p21
S'<built-in method __setstate__ of exceptions.TypeError object>'
p22
sS'__reduce__'
p23
S'<built-in method __reduce__ of exceptions.TypeError object>'
p24
sS'__str__'
p25
S"<method-wrapper '__str__' of exceptions.TypeError object>"
p26
sS'__format__'
p27
S'<built-in method __format__ of exceptions.TypeError object>'
p28
sS'__getattribute__'
p29
S"<method-wrapper '__getattribute__' of exceptions.TypeError object>"
p30
sS'__class__'
p31
S"<type 'exceptions.TypeError'>"
p32
sS'__unicode__'
p33
S'<built-in method __unicode__ of exceptions.TypeError object>'
p34
sS'__delattr__'
p35
S"<method-wrapper '__delattr__' of exceptions.TypeError object>"
p36
sS'__subclasshook__'
p37
S'<built-in method __subclasshook__ of type object>'
p38
sS'__repr__'
p39
S"<method-wrapper '__repr__' of exceptions.TypeError object>"
p40
sS'args'
p41
S'("int() argument must be a string or a number, not \'Table\'",)'
p42
sS'__dict__'
p43
S'{}'
p44
sS'__sizeof__'
p45
S'<built-in method __sizeof__ of exceptions.TypeError object>'
p46
sS'__doc__'
p47
S"'Inappropriate argument type.'"
p48
sS'__init__'
p49
S"<method-wrapper '__init__' of exceptions.TypeError object>"
p50
sS'__new__'
p51
S'<built-in method __new__ of type object>'
p52
ssS'evalue'
p53
S"int() argument must be a string or a number, not 'Table'"
p54
sS'request'
p55
ccopy_reg
_reconstructor
p56
(cgluon.html
BEAUTIFY
p57
c__builtin__
object
p58
NtRp59
(dp60
S'attributes'
p61
(dp62
sS'components'
p63
(lp64
g56
(cgluon.html
TABLE
p65
g58
NtRp66
(dp67
g61
(dp68
S'level'
p69
I5
ssS'parent'
p70
Nsg63
(lp71
g56
(cgluon.html
TR
p72
g58
NtRp73
(dp74
g61
(dp75
sg70
g66
sg63
(lp76
g56
(cgluon.html
TD
p77
g58
NtRp78
(dp79
g61
(dp80
S'_style'
p81
S'font-weight:bold;'
p82
ssg70
g73
sg63
(lp83
S'ajax'
p84
asbag56
(g77
g58
NtRp85
(dp86
g61
(dp87
S'_valign'
p88
S'top'
p89
ssg70
g73
sg63
(lp90
S':'
asbag56
(g77
g58
NtRp91
(dp92
g61
(dp93
sg70
g73
sg63
(lp94
g56
(g57
g58
NtRp95
(dp96
g61
(dp97
g69
I5
ssg70
g91
sg63
(lp98
S'False'
p99
asbasbasbag56
(g72
g58
NtRp100
(dp101
g61
(dp102
sg70
g66
sg63
(lp103
g56
(g77
g58
NtRp104
(dp105
g61
(dp106
g81
g82
ssg70
g100
sg63
(lp107
S'application'
p108
asbag56
(g77
g58
NtRp109
(dp110
g61
(dp111
g88
g89
ssg70
g100
sg63
(lp112
S':'
asbag56
(g77
g58
NtRp113
(dp114
g61
(dp115
sg70
g100
sg63
(lp116
g56
(g57
g58
NtRp117
(dp118
g61
(dp119
g69
I5
ssg70
g113
sg63
(lp120
S'scrum'
p121
asbasbasbag56
(g72
g58
NtRp122
(dp123
g61
(dp124
sg70
g66
sg63
(lp125
g56
(g77
g58
NtRp126
(dp127
g61
(dp128
g81
g82
ssg70
g122
sg63
(lp129
g41
asbag56
(g77
g58
NtRp130
(dp131
g61
(dp132
g88
g89
ssg70
g122
sg63
(lp133
S':'
asbag56
(g77
g58
NtRp134
(dp135
g61
(dp136
sg70
g122
sg63
(lp137
g56
(g57
g58
NtRp138
(dp139
g61
(dp140
g69
I5
ssg70
g134
sg63
(lp141
g56
(g65
g58
NtRp142
(dp143
g61
(dp144
g69
I4
ssg70
Nsg63
(lp145
sbasbasbasbag56
(g72
g58
NtRp146
(dp147
g61
(dp148
sg70
g66
sg63
(lp149
g56
(g77
g58
NtRp150
(dp151
g61
(dp152
g81
g82
ssg70
g146
sg63
(lp153
S'body'
p154
asbag56
(g77
g58
NtRp155
(dp156
g61
(dp157
g88
g89
ssg70
g146
sg63
(lp158
S':'
asbag56
(g77
g58
NtRp159
(dp160
g61
(dp161
sg70
g146
sg63
(lp162
g56
(g57
g58
NtRp163
(dp164
g61
(dp165
g69
I5
ssg70
g159
sg63
(lp166
S'<cStringIO.StringO object at 0xba4304c0>'
p167
asbasbasbag56
(g72
g58
NtRp168
(dp169
g61
(dp170
sg70
g66
sg63
(lp171
g56
(g77
g58
NtRp172
(dp173
g61
(dp174
g81
g82
ssg70
g168
sg63
(lp175
S'client'
p176
asbag56
(g77
g58
NtRp177
(dp178
g61
(dp179
g88
g89
ssg70
g168
sg63
(lp180
S':'
asbag56
(g77
g58
NtRp181
(dp182
g61
(dp183
sg70
g168
sg63
(lp184
g56
(g57
g58
NtRp185
(dp186
g61
(dp187
g69
I5
ssg70
g181
sg63
(lp188
S'127.0.0.1'
p189
asbasbasbag56
(g72
g58
NtRp190
(dp191
g61
(dp192
sg70
g66
sg63
(lp193
g56
(g77
g58
NtRp194
(dp195
g61
(dp196
g81
g82
ssg70
g190
sg63
(lp197
S'controller'
p198
asbag56
(g77
g58
NtRp199
(dp200
g61
(dp201
g88
g89
ssg70
g190
sg63
(lp202
S':'
asbag56
(g77
g58
NtRp203
(dp204
g61
(dp205
sg70
g190
sg63
(lp206
g56
(g57
g58
NtRp207
(dp208
g61
(dp209
g69
I5
ssg70
g203
sg63
(lp210
S'ticket'
p211
asbasbasbag56
(g72
g58
NtRp212
(dp213
g61
(dp214
sg70
g66
sg63
(lp215
g56
(g77
g58
NtRp216
(dp217
g61
(dp218
g81
g82
ssg70
g212
sg63
(lp219
S'cookies'
p220
asbag56
(g77
g58
NtRp221
(dp222
g61
(dp223
g88
g89
ssg70
g212
sg63
(lp224
S':'
asbag56
(g77
g58
NtRp225
(dp226
g61
(dp227
sg70
g212
sg63
(lp228
g56
(g57
g58
NtRp229
(dp230
g61
(dp231
g69
I5
ssg70
g225
sg63
(lp232
g56
(g65
g58
NtRp233
(dp234
g61
(dp235
g69
I4
ssg70
Nsg63
(lp236
g56
(g72
g58
NtRp237
(dp238
g61
(dp239
sg70
g233
sg63
(lp240
g56
(g77
g58
NtRp241
(dp242
g61
(dp243
g81
g82
ssg70
g237
sg63
(lp244
S'session_id_admin'
p245
asbag56
(g77
g58
NtRp246
(dp247
g61
(dp248
g88
g89
ssg70
g237
sg63
(lp249
S':'
asbag56
(g77
g58
NtRp250
(dp251
g61
(dp252
sg70
g237
sg63
(lp253
g56
(g57
g58
NtRp254
(dp255
g61
(dp256
g69
I4
ssg70
g250
sg63
(lp257
g56
(g65
g58
NtRp258
(dp259
g61
(dp260
g69
I3
ssg70
Nsg63
(lp261
g56
(g72
g58
NtRp262
(dp263
g61
(dp264
sg70
g258
sg63
(lp265
g56
(g77
g58
NtRp266
(dp267
g61
(dp268
g81
g82
ssg70
g262
sg63
(lp269
S'comment'
p270
asbag56
(g77
g58
NtRp271
(dp272
g61
(dp273
g88
g89
ssg70
g262
sg63
(lp274
S':'
asbag56
(g77
g58
NtRp275
(dp276
g61
(dp277
sg70
g262
sg63
(lp278
g56
(g57
g58
NtRp279
(dp280
g61
(dp281
g69
I3
ssg70
g275
sg63
(lp282
S''
asbasbasbag56
(g72
g58
NtRp283
(dp284
g61
(dp285
sg70
g258
sg63
(lp286
g56
(g77
g58
NtRp287
(dp288
g61
(dp289
g81
g82
ssg70
g283
sg63
(lp290
S'domain'
p291
asbag56
(g77
g58
NtRp292
(dp293
g61
(dp294
g88
g89
ssg70
g283
sg63
(lp295
S':'
asbag56
(g77
g58
NtRp296
(dp297
g61
(dp298
sg70
g283
sg63
(lp299
g56
(g57
g58
NtRp300
(dp301
g61
(dp302
g69
I3
ssg70
g296
sg63
(lp303
S''
asbasbasbag56
(g72
g58
NtRp304
(dp305
g61
(dp306
sg70
g258
sg63
(lp307
g56
(g77
g58
NtRp308
(dp309
g61
(dp310
g81
g82
ssg70
g304
sg63
(lp311
S'expires'
p312
asbag56
(g77
g58
NtRp313
(dp314
g61
(dp315
g88
g89
ssg70
g304
sg63
(lp316
S':'
asbag56
(g77
g58
NtRp317
(dp318
g61
(dp319
sg70
g304
sg63
(lp320
g56
(g57
g58
NtRp321
(dp322
g61
(dp323
g69
I3
ssg70
g317
sg63
(lp324
S''
asbasbasbag56
(g72
g58
NtRp325
(dp326
g61
(dp327
sg70
g258
sg63
(lp328
g56
(g77
g58
NtRp329
(dp330
g61
(dp331
g81
g82
ssg70
g325
sg63
(lp332
S'httponly'
p333
asbag56
(g77
g58
NtRp334
(dp335
g61
(dp336
g88
g89
ssg70
g325
sg63
(lp337
S':'
asbag56
(g77
g58
NtRp338
(dp339
g61
(dp340
sg70
g325
sg63
(lp341
g56
(g57
g58
NtRp342
(dp343
g61
(dp344
g69
I3
ssg70
g338
sg63
(lp345
S''
asbasbasbag56
(g72
g58
NtRp346
(dp347
g61
(dp348
sg70
g258
sg63
(lp349
g56
(g77
g58
NtRp350
(dp351
g61
(dp352
g81
g82
ssg70
g346
sg63
(lp353
S'max-age'
p354
asbag56
(g77
g58
NtRp355
(dp356
g61
(dp357
g88
g89
ssg70
g346
sg63
(lp358
S':'
asbag56
(g77
g58
NtRp359
(dp360
g61
(dp361
sg70
g346
sg63
(lp362
g56
(g57
g58
NtRp363
(dp364
g61
(dp365
g69
I3
ssg70
g359
sg63
(lp366
S''
asbasbasbag56
(g72
g58
NtRp367
(dp368
g61
(dp369
sg70
g258
sg63
(lp370
g56
(g77
g58
NtRp371
(dp372
g61
(dp373
g81
g82
ssg70
g367
sg63
(lp374
S'path'
p375
asbag56
(g77
g58
NtRp376
(dp377
g61
(dp378
g88
g89
ssg70
g367
sg63
(lp379
S':'
asbag56
(g77
g58
NtRp380
(dp381
g61
(dp382
sg70
g367
sg63
(lp383
g56
(g57
g58
NtRp384
(dp385
g61
(dp386
g69
I3
ssg70
g380
sg63
(lp387
S''
asbasbasbag56
(g72
g58
NtRp388
(dp389
g61
(dp390
sg70
g258
sg63
(lp391
g56
(g77
g58
NtRp392
(dp393
g61
(dp394
g81
g82
ssg70
g388
sg63
(lp395
S'secure'
p396
asbag56
(g77
g58
NtRp397
(dp398
g61
(dp399
g88
g89
ssg70
g388
sg63
(lp400
S':'
asbag56
(g77
g58
NtRp401
(dp402
g61
(dp403
sg70
g388
sg63
(lp404
g56
(g57
g58
NtRp405
(dp406
g61
(dp407
g69
I3
ssg70
g401
sg63
(lp408
S''
asbasbasbag56
(g72
g58
NtRp409
(dp410
g61
(dp411
sg70
g258
sg63
(lp412
g56
(g77
g58
NtRp413
(dp414
g61
(dp415
g81
g82
ssg70
g409
sg63
(lp416
S'version'
p417
asbag56
(g77
g58
NtRp418
(dp419
g61
(dp420
g88
g89
ssg70
g409
sg63
(lp421
S':'
asbag56
(g77
g58
NtRp422
(dp423
g61
(dp424
sg70
g409
sg63
(lp425
g56
(g57
g58
NtRp426
(dp427
g61
(dp428
g69
I3
ssg70
g422
sg63
(lp429
S''
asbasbasbasbasbasbasbag56
(g72
g58
NtRp430
(dp431
g61
(dp432
sg70
g233
sg63
(lp433
g56
(g77
g58
NtRp434
(dp435
g61
(dp436
g81
g82
ssg70
g430
sg63
(lp437
S'session_id_scrum'
p438
asbag56
(g77
g58
NtRp439
(dp440
g61
(dp441
g88
g89
ssg70
g430
sg63
(lp442
S':'
asbag56
(g77
g58
NtRp443
(dp444
g61
(dp445
sg70
g430
sg63
(lp446
g56
(g57
g58
NtRp447
(dp448
g61
(dp449
g69
I4
ssg70
g443
sg63
(lp450
g56
(g65
g58
NtRp451
(dp452
g61
(dp453
g69
I3
ssg70
Nsg63
(lp454
g56
(g72
g58
NtRp455
(dp456
g61
(dp457
sg70
g451
sg63
(lp458
g56
(g77
g58
NtRp459
(dp460
g61
(dp461
g81
g82
ssg70
g455
sg63
(lp462
g270
asbag56
(g77
g58
NtRp463
(dp464
g61
(dp465
g88
g89
ssg70
g455
sg63
(lp466
S':'
asbag56
(g77
g58
NtRp467
(dp468
g61
(dp469
sg70
g455
sg63
(lp470
g56
(g57
g58
NtRp471
(dp472
g61
(dp473
g69
I3
ssg70
g467
sg63
(lp474
S''
asbasbasbag56
(g72
g58
NtRp475
(dp476
g61
(dp477
sg70
g451
sg63
(lp478
g56
(g77
g58
NtRp479
(dp480
g61
(dp481
g81
g82
ssg70
g475
sg63
(lp482
g291
asbag56
(g77
g58
NtRp483
(dp484
g61
(dp485
g88
g89
ssg70
g475
sg63
(lp486
S':'
asbag56
(g77
g58
NtRp487
(dp488
g61
(dp489
sg70
g475
sg63
(lp490
g56
(g57
g58
NtRp491
(dp492
g61
(dp493
g69
I3
ssg70
g487
sg63
(lp494
S''
asbasbasbag56
(g72
g58
NtRp495
(dp496
g61
(dp497
sg70
g451
sg63
(lp498
g56
(g77
g58
NtRp499
(dp500
g61
(dp501
g81
g82
ssg70
g495
sg63
(lp502
g312
asbag56
(g77
g58
NtRp503
(dp504
g61
(dp505
g88
g89
ssg70
g495
sg63
(lp506
S':'
asbag56
(g77
g58
NtRp507
(dp508
g61
(dp509
sg70
g495
sg63
(lp510
g56
(g57
g58
NtRp511
(dp512
g61
(dp513
g69
I3
ssg70
g507
sg63
(lp514
S''
asbasbasbag56
(g72
g58
NtRp515
(dp516
g61
(dp517
sg70
g451
sg63
(lp518
g56
(g77
g58
NtRp519
(dp520
g61
(dp521
g81
g82
ssg70
g515
sg63
(lp522
g333
asbag56
(g77
g58
NtRp523
(dp524
g61
(dp525
g88
g89
ssg70
g515
sg63
(lp526
S':'
asbag56
(g77
g58
NtRp527
(dp528
g61
(dp529
sg70
g515
sg63
(lp530
g56
(g57
g58
NtRp531
(dp532
g61
(dp533
g69
I3
ssg70
g527
sg63
(lp534
S''
asbasbasbag56
(g72
g58
NtRp535
(dp536
g61
(dp537
sg70
g451
sg63
(lp538
g56
(g77
g58
NtRp539
(dp540
g61
(dp541
g81
g82
ssg70
g535
sg63
(lp542
g354
asbag56
(g77
g58
NtRp543
(dp544
g61
(dp545
g88
g89
ssg70
g535
sg63
(lp546
S':'
asbag56
(g77
g58
NtRp547
(dp548
g61
(dp549
sg70
g535
sg63
(lp550
g56
(g57
g58
NtRp551
(dp552
g61
(dp553
g69
I3
ssg70
g547
sg63
(lp554
S''
asbasbasbag56
(g72
g58
NtRp555
(dp556
g61
(dp557
sg70
g451
sg63
(lp558
g56
(g77
g58
NtRp559
(dp560
g61
(dp561
g81
g82
ssg70
g555
sg63
(lp562
g375
asbag56
(g77
g58
NtRp563
(dp564
g61
(dp565
g88
g89
ssg70
g555
sg63
(lp566
S':'
asbag56
(g77
g58
NtRp567
(dp568
g61
(dp569
sg70
g555
sg63
(lp570
g56
(g57
g58
NtRp571
(dp572
g61
(dp573
g69
I3
ssg70
g567
sg63
(lp574
S''
asbasbasbag56
(g72
g58
NtRp575
(dp576
g61
(dp577
sg70
g451
sg63
(lp578
g56
(g77
g58
NtRp579
(dp580
g61
(dp581
g81
g82
ssg70
g575
sg63
(lp582
g396
asbag56
(g77
g58
NtRp583
(dp584
g61
(dp585
g88
g89
ssg70
g575
sg63
(lp586
S':'
asbag56
(g77
g58
NtRp587
(dp588
g61
(dp589
sg70
g575
sg63
(lp590
g56
(g57
g58
NtRp591
(dp592
g61
(dp593
g69
I3
ssg70
g587
sg63
(lp594
S''
asbasbasbag56
(g72
g58
NtRp595
(dp596
g61
(dp597
sg70
g451
sg63
(lp598
g56
(g77
g58
NtRp599
(dp600
g61
(dp601
g81
g82
ssg70
g595
sg63
(lp602
g417
asbag56
(g77
g58
NtRp603
(dp604
g61
(dp605
g88
g89
ssg70
g595
sg63
(lp606
S':'
asbag56
(g77
g58
NtRp607
(dp608
g61
(dp609
sg70
g595
sg63
(lp610
g56
(g57
g58
NtRp611
(dp612
g61
(dp613
g69
I3
ssg70
g607
sg63
(lp614
S''
asbasbasbasbasbasbasbag56
(g72
g58
NtRp615
(dp616
g61
(dp617
sg70
g233
sg63
(lp618
g56
(g77
g58
NtRp619
(dp620
g61
(dp621
g81
g82
ssg70
g615
sg63
(lp622
S'session_id_welcome'
p623
asbag56
(g77
g58
NtRp624
(dp625
g61
(dp626
g88
g89
ssg70
g615
sg63
(lp627
S':'
asbag56
(g77
g58
NtRp628
(dp629
g61
(dp630
sg70
g615
sg63
(lp631
g56
(g57
g58
NtRp632
(dp633
g61
(dp634
g69
I4
ssg70
g628
sg63
(lp635
g56
(g65
g58
NtRp636
(dp637
g61
(dp638
g69
I3
ssg70
Nsg63
(lp639
g56
(g72
g58
NtRp640
(dp641
g61
(dp642
sg70
g636
sg63
(lp643
g56
(g77
g58
NtRp644
(dp645
g61
(dp646
g81
g82
ssg70
g640
sg63
(lp647
g270
asbag56
(g77
g58
NtRp648
(dp649
g61
(dp650
g88
g89
ssg70
g640
sg63
(lp651
S':'
asbag56
(g77
g58
NtRp652
(dp653
g61
(dp654
sg70
g640
sg63
(lp655
g56
(g57
g58
NtRp656
(dp657
g61
(dp658
g69
I3
ssg70
g652
sg63
(lp659
S''
asbasbasbag56
(g72
g58
NtRp660
(dp661
g61
(dp662
sg70
g636
sg63
(lp663
g56
(g77
g58
NtRp664
(dp665
g61
(dp666
g81
g82
ssg70
g660
sg63
(lp667
g291
asbag56
(g77
g58
NtRp668
(dp669
g61
(dp670
g88
g89
ssg70
g660
sg63
(lp671
S':'
asbag56
(g77
g58
NtRp672
(dp673
g61
(dp674
sg70
g660
sg63
(lp675
g56
(g57
g58
NtRp676
(dp677
g61
(dp678
g69
I3
ssg70
g672
sg63
(lp679
S''
asbasbasbag56
(g72
g58
NtRp680
(dp681
g61
(dp682
sg70
g636
sg63
(lp683
g56
(g77
g58
NtRp684
(dp685
g61
(dp686
g81
g82
ssg70
g680
sg63
(lp687
g312
asbag56
(g77
g58
NtRp688
(dp689
g61
(dp690
g88
g89
ssg70
g680
sg63
(lp691
S':'
asbag56
(g77
g58
NtRp692
(dp693
g61
(dp694
sg70
g680
sg63
(lp695
g56
(g57
g58
NtRp696
(dp697
g61
(dp698
g69
I3
ssg70
g692
sg63
(lp699
S''
asbasbasbag56
(g72
g58
NtRp700
(dp701
g61
(dp702
sg70
g636
sg63
(lp703
g56
(g77
g58
NtRp704
(dp705
g61
(dp706
g81
g82
ssg70
g700
sg63
(lp707
g333
asbag56
(g77
g58
NtRp708
(dp709
g61
(dp710
g88
g89
ssg70
g700
sg63
(lp711
S':'
asbag56
(g77
g58
NtRp712
(dp713
g61
(dp714
sg70
g700
sg63
(lp715
g56
(g57
g58
NtRp716
(dp717
g61
(dp718
g69
I3
ssg70
g712
sg63
(lp719
S''
asbasbasbag56
(g72
g58
NtRp720
(dp721
g61
(dp722
sg70
g636
sg63
(lp723
g56
(g77
g58
NtRp724
(dp725
g61
(dp726
g81
g82
ssg70
g720
sg63
(lp727
g354
asbag56
(g77
g58
NtRp728
(dp729
g61
(dp730
g88
g89
ssg70
g720
sg63
(lp731
S':'
asbag56
(g77
g58
NtRp732
(dp733
g61
(dp734
sg70
g720
sg63
(lp735
g56
(g57
g58
NtRp736
(dp737
g61
(dp738
g69
I3
ssg70
g732
sg63
(lp739
S''
asbasbasbag56
(g72
g58
NtRp740
(dp741
g61
(dp742
sg70
g636
sg63
(lp743
g56
(g77
g58
NtRp744
(dp745
g61
(dp746
g81
g82
ssg70
g740
sg63
(lp747
g375
asbag56
(g77
g58
NtRp748
(dp749
g61
(dp750
g88
g89
ssg70
g740
sg63
(lp751
S':'
asbag56
(g77
g58
NtRp752
(dp753
g61
(dp754
sg70
g740
sg63
(lp755
g56
(g57
g58
NtRp756
(dp757
g61
(dp758
g69
I3
ssg70
g752
sg63
(lp759
S''
asbasbasbag56
(g72
g58
NtRp760
(dp761
g61
(dp762
sg70
g636
sg63
(lp763
g56
(g77
g58
NtRp764
(dp765
g61
(dp766
g81
g82
ssg70
g760
sg63
(lp767
g396
asbag56
(g77
g58
NtRp768
(dp769
g61
(dp770
g88
g89
ssg70
g760
sg63
(lp771
S':'
asbag56
(g77
g58
NtRp772
(dp773
g61
(dp774
sg70
g760
sg63
(lp775
g56
(g57
g58
NtRp776
(dp777
g61
(dp778
g69
I3
ssg70
g772
sg63
(lp779
S''
asbasbasbag56
(g72
g58
NtRp780
(dp781
g61
(dp782
sg70
g636
sg63
(lp783
g56
(g77
g58
NtRp784
(dp785
g61
(dp786
g81
g82
ssg70
g780
sg63
(lp787
g417
asbag56
(g77
g58
NtRp788
(dp789
g61
(dp790
g88
g89
ssg70
g780
sg63
(lp791
S':'
asbag56
(g77
g58
NtRp792
(dp793
g61
(dp794
sg70
g780
sg63
(lp795
g56
(g57
g58
NtRp796
(dp797
g61
(dp798
g69
I3
ssg70
g792
sg63
(lp799
S''
asbasbasbasbasbasbasbasbasbasbasbag56
(g72
g58
NtRp800
(dp801
g61
(dp802
sg70
g66
sg63
(lp803
g56
(g77
g58
NtRp804
(dp805
g61
(dp806
g81
g82
ssg70
g800
sg63
(lp807
S'env'
p808
asbag56
(g77
g58
NtRp809
(dp810
g61
(dp811
g88
g89
ssg70
g800
sg63
(lp812
S':'
asbag56
(g77
g58
NtRp813
(dp814
g61
(dp815
sg70
g800
sg63
(lp816
g56
(g57
g58
NtRp817
(dp818
g61
(dp819
g69
I5
ssg70
g813
sg63
(lp820
g56
(g65
g58
NtRp821
(dp822
g61
(dp823
g69
I4
ssg70
Nsg63
(lp824
g56
(g72
g58
NtRp825
(dp826
g61
(dp827
sg70
g821
sg63
(lp828
g56
(g77
g58
NtRp829
(dp830
g61
(dp831
g81
g82
ssg70
g825
sg63
(lp832
S'app_folders'
p833
asbag56
(g77
g58
NtRp834
(dp835
g61
(dp836
g88
g89
ssg70
g825
sg63
(lp837
S':'
asbag56
(g77
g58
NtRp838
(dp839
g61
(dp840
sg70
g825
sg63
(lp841
g56
(g57
g58
NtRp842
(dp843
g61
(dp844
g69
I4
ssg70
g838
sg63
(lp845
S"set(['/home/www-data/web2py/applications/scrum/', '/home/www-data/web2py/applications/welcome/', '/home/www-data/web2py/applications/admin/'])"
p846
asbasbasbag56
(g72
g58
NtRp847
(dp848
g61
(dp849
sg70
g821
sg63
(lp850
g56
(g77
g58
NtRp851
(dp852
g61
(dp853
g81
g82
ssg70
g847
sg63
(lp854
S'applications_parent'
p855
asbag56
(g77
g58
NtRp856
(dp857
g61
(dp858
g88
g89
ssg70
g847
sg63
(lp859
S':'
asbag56
(g77
g58
NtRp860
(dp861
g61
(dp862
sg70
g847
sg63
(lp863
g56
(g57
g58
NtRp864
(dp865
g61
(dp866
g69
I4
ssg70
g860
sg63
(lp867
S'/home/www-data/web2py'
p868
asbasbasbag56
(g72
g58
NtRp869
(dp870
g61
(dp871
sg70
g821
sg63
(lp872
g56
(g77
g58
NtRp873
(dp874
g61
(dp875
g81
g82
ssg70
g869
sg63
(lp876
S'db_sessions'
p877
asbag56
(g77
g58
NtRp878
(dp879
g61
(dp880
g88
g89
ssg70
g869
sg63
(lp881
S':'
asbag56
(g77
g58
NtRp882
(dp883
g61
(dp884
sg70
g869
sg63
(lp885
g56
(g57
g58
NtRp886
(dp887
g61
(dp888
g69
I4
ssg70
g882
sg63
(lp889
S'set([])'
p890
asbasbasbag56
(g72
g58
NtRp891
(dp892
g61
(dp893
sg70
g821
sg63
(lp894
g56
(g77
g58
NtRp895
(dp896
g61
(dp897
g81
g82
ssg70
g891
sg63
(lp898
S'debugging'
p899
asbag56
(g77
g58
NtRp900
(dp901
g61
(dp902
g88
g89
ssg70
g891
sg63
(lp903
S':'
asbag56
(g77
g58
NtRp904
(dp905
g61
(dp906
sg70
g891
sg63
(lp907
g56
(g57
g58
NtRp908
(dp909
g61
(dp910
g69
I4
ssg70
g904
sg63
(lp911
g99
asbasbasbag56
(g72
g58
NtRp912
(dp913
g61
(dp914
sg70
g821
sg63
(lp915
g56
(g77
g58
NtRp916
(dp917
g61
(dp918
g81
g82
ssg70
g912
sg63
(lp919
S'document_root'
p920
asbag56
(g77
g58
NtRp921
(dp922
g61
(dp923
g88
g89
ssg70
g912
sg63
(lp924
S':'
asbag56
(g77
g58
NtRp925
(dp926
g61
(dp927
sg70
g912
sg63
(lp928
g56
(g57
g58
NtRp929
(dp930
g61
(dp931
g69
I4
ssg70
g925
sg63
(lp932
S'/etc/apache2/htdocs'
p933
asbasbasbag56
(g72
g58
NtRp934
(dp935
g61
(dp936
sg70
g821
sg63
(lp937
g56
(g77
g58
NtRp938
(dp939
g61
(dp940
g81
g82
ssg70
g934
sg63
(lp941
S'gateway_interface'
p942
asbag56
(g77
g58
NtRp943
(dp944
g61
(dp945
g88
g89
ssg70
g934
sg63
(lp946
S':'
asbag56
(g77
g58
NtRp947
(dp948
g61
(dp949
sg70
g934
sg63
(lp950
g56
(g57
g58
NtRp951
(dp952
g61
(dp953
g69
I4
ssg70
g947
sg63
(lp954
S'CGI/1.1'
p955
asbasbasbag56
(g72
g58
NtRp956
(dp957
g61
(dp958
sg70
g821
sg63
(lp959
g56
(g77
g58
NtRp960
(dp961
g61
(dp962
g81
g82
ssg70
g956
sg63
(lp963
S'gluon_parent'
p964
asbag56
(g77
g58
NtRp965
(dp966
g61
(dp967
g88
g89
ssg70
g956
sg63
(lp968
S':'
asbag56
(g77
g58
NtRp969
(dp970
g61
(dp971
sg70
g956
sg63
(lp972
g56
(g57
g58
NtRp973
(dp974
g61
(dp975
g69
I4
ssg70
g969
sg63
(lp976
g868
asbasbasbag56
(g72
g58
NtRp977
(dp978
g61
(dp979
sg70
g821
sg63
(lp980
g56
(g77
g58
NtRp981
(dp982
g61
(dp983
g81
g82
ssg70
g977
sg63
(lp984
S'http_accept'
p985
asbag56
(g77
g58
NtRp986
(dp987
g61
(dp988
g88
g89
ssg70
g977
sg63
(lp989
S':'
asbag56
(g77
g58
NtRp990
(dp991
g61
(dp992
sg70
g977
sg63
(lp993
g56
(g57
g58
NtRp994
(dp995
g61
(dp996
g69
I4
ssg70
g990
sg63
(lp997
S'text/html, application/xml;q=0.9, application/xhtml+xml, image/png, image/webp, image/jpeg, image/gif, image/x-xbitmap, */*;q=0.1'
p998
asbasbasbag56
(g72
g58
NtRp999
(dp1000
g61
(dp1001
sg70
g821
sg63
(lp1002
g56
(g77
g58
NtRp1003
(dp1004
g61
(dp1005
g81
g82
ssg70
g999
sg63
(lp1006
S'http_accept_encoding'
p1007
asbag56
(g77
g58
NtRp1008
(dp1009
g61
(dp1010
g88
g89
ssg70
g999
sg63
(lp1011
S':'
asbag56
(g77
g58
NtRp1012
(dp1013
g61
(dp1014
sg70
g999
sg63
(lp1015
g56
(g57
g58
NtRp1016
(dp1017
g61
(dp1018
g69
I4
ssg70
g1012
sg63
(lp1019
S'gzip, deflate'
p1020
asbasbasbag56
(g72
g58
NtRp1021
(dp1022
g61
(dp1023
sg70
g821
sg63
(lp1024
g56
(g77
g58
NtRp1025
(dp1026
g61
(dp1027
g81
g82
ssg70
g1021
sg63
(lp1028
S'http_accept_language'
p1029
asbag56
(g77
g58
NtRp1030
(dp1031
g61
(dp1032
g88
g89
ssg70
g1021
sg63
(lp1033
S':'
asbag56
(g77
g58
NtRp1034
(dp1035
g61
(dp1036
sg70
g1021
sg63
(lp1037
g56
(g57
g58
NtRp1038
(dp1039
g61
(dp1040
g69
I4
ssg70
g1034
sg63
(lp1041
S'pt-BR,pt;q=0.9,en;q=0.8'
p1042
asbasbasbag56
(g72
g58
NtRp1043
(dp1044
g61
(dp1045
sg70
g821
sg63
(lp1046
g56
(g77
g58
NtRp1047
(dp1048
g61
(dp1049
g81
g82
ssg70
g1043
sg63
(lp1050
S'http_connection'
p1051
asbag56
(g77
g58
NtRp1052
(dp1053
g61
(dp1054
g88
g89
ssg70
g1043
sg63
(lp1055
S':'
asbag56
(g77
g58
NtRp1056
(dp1057
g61
(dp1058
sg70
g1043
sg63
(lp1059
g56
(g57
g58
NtRp1060
(dp1061
g61
(dp1062
g69
I4
ssg70
g1056
sg63
(lp1063
S'Keep-Alive'
p1064
asbasbasbag56
(g72
g58
NtRp1065
(dp1066
g61
(dp1067
sg70
g821
sg63
(lp1068
g56
(g77
g58
NtRp1069
(dp1070
g61
(dp1071
g81
g82
ssg70
g1065
sg63
(lp1072
S'http_cookie'
p1073
asbag56
(g77
g58
NtRp1074
(dp1075
g61
(dp1076
g88
g89
ssg70
g1065
sg63
(lp1077
S':'
asbag56
(g77
g58
NtRp1078
(dp1079
g61
(dp1080
sg70
g1065
sg63
(lp1081
g56
(g57
g58
NtRp1082
(dp1083
g61
(dp1084
g69
I4
ssg70
g1078
sg63
(lp1085
S'session_id_welcome=127.0.0.1-59bb9f3c-ccbe-49d8-bb33-39cb1149a47f; session_id_scrum=127.0.0.1-f47d3ac4-8d8c-46d5-8321-f944561d518f; session_id_admin=127.0.0.1-ce034cfe-dc55-49ae-8249-b059df779a22'
p1086
asbasbasbag56
(g72
g58
NtRp1087
(dp1088
g61
(dp1089
sg70
g821
sg63
(lp1090
g56
(g77
g58
NtRp1091
(dp1092
g61
(dp1093
g81
g82
ssg70
g1087
sg63
(lp1094
S'http_host'
p1095
asbag56
(g77
g58
NtRp1096
(dp1097
g61
(dp1098
g88
g89
ssg70
g1087
sg63
(lp1099
S':'
asbag56
(g77
g58
NtRp1100
(dp1101
g61
(dp1102
sg70
g1087
sg63
(lp1103
g56
(g57
g58
NtRp1104
(dp1105
g61
(dp1106
g69
I4
ssg70
g1100
sg63
(lp1107
S'localhost'
p1108
asbasbasbag56
(g72
g58
NtRp1109
(dp1110
g61
(dp1111
sg70
g821
sg63
(lp1112
g56
(g77
g58
NtRp1113
(dp1114
g61
(dp1115
g81
g82
ssg70
g1109
sg63
(lp1116
S'http_user_agent'
p1117
asbag56
(g77
g58
NtRp1118
(dp1119
g61
(dp1120
g88
g89
ssg70
g1109
sg63
(lp1121
S':'
asbag56
(g77
g58
NtRp1122
(dp1123
g61
(dp1124
sg70
g1109
sg63
(lp1125
g56
(g57
g58
NtRp1126
(dp1127
g61
(dp1128
g69
I4
ssg70
g1122
sg63
(lp1129
S'Opera/9.80 (X11; Linux i686; U; pt-BR) Presto/2.9.168 Version/11.51'
p1130
asbasbasbag56
(g72
g58
NtRp1131
(dp1132
g61
(dp1133
sg70
g821
sg63
(lp1134
g56
(g77
g58
NtRp1135
(dp1136
g61
(dp1137
g81
g82
ssg70
g1131
sg63
(lp1138
S'https'
p1139
asbag56
(g77
g58
NtRp1140
(dp1141
g61
(dp1142
g88
g89
ssg70
g1131
sg63
(lp1143
S':'
asbag56
(g77
g58
NtRp1144
(dp1145
g61
(dp1146
sg70
g1131
sg63
(lp1147
g56
(g57
g58
NtRp1148
(dp1149
g61
(dp1150
g69
I4
ssg70
g1144
sg63
(lp1151
S'1'
asbasbasbag56
(g72
g58
NtRp1152
(dp1153
g61
(dp1154
sg70
g821
sg63
(lp1155
g56
(g77
g58
NtRp1156
(dp1157
g61
(dp1158
g81
g82
ssg70
g1152
sg63
(lp1159
S'is_jython'
p1160
asbag56
(g77
g58
NtRp1161
(dp1162
g61
(dp1163
g88
g89
ssg70
g1152
sg63
(lp1164
S':'
asbag56
(g77
g58
NtRp1165
(dp1166
g61
(dp1167
sg70
g1152
sg63
(lp1168
g56
(g57
g58
NtRp1169
(dp1170
g61
(dp1171
g69
I4
ssg70
g1165
sg63
(lp1172
g99
asbasbasbag56
(g72
g58
NtRp1173
(dp1174
g61
(dp1175
sg70
g821
sg63
(lp1176
g56
(g77
g58
NtRp1177
(dp1178
g61
(dp1179
g81
g82
ssg70
g1173
sg63
(lp1180
S'mod_wsgi_application_group'
p1181
asbag56
(g77
g58
NtRp1182
(dp1183
g61
(dp1184
g88
g89
ssg70
g1173
sg63
(lp1185
S':'
asbag56
(g77
g58
NtRp1186
(dp1187
g61
(dp1188
sg70
g1173
sg63
(lp1189
g56
(g57
g58
NtRp1190
(dp1191
g61
(dp1192
g69
I4
ssg70
g1186
sg63
(lp1193
S'localhost.localdomain|'
p1194
asbasbasbag56
(g72
g58
NtRp1195
(dp1196
g61
(dp1197
sg70
g821
sg63
(lp1198
g56
(g77
g58
NtRp1199
(dp1200
g61
(dp1201
g81
g82
ssg70
g1195
sg63
(lp1202
S'mod_wsgi_callable_object'
p1203
asbag56
(g77
g58
NtRp1204
(dp1205
g61
(dp1206
g88
g89
ssg70
g1195
sg63
(lp1207
S':'
asbag56
(g77
g58
NtRp1208
(dp1209
g61
(dp1210
sg70
g1195
sg63
(lp1211
g56
(g57
g58
NtRp1212
(dp1213
g61
(dp1214
g69
I4
ssg70
g1208
sg63
(lp1215
S'application'
p1216
asbasbasbag56
(g72
g58
NtRp1217
(dp1218
g61
(dp1219
sg70
g821
sg63
(lp1220
g56
(g77
g58
NtRp1221
(dp1222
g61
(dp1223
g81
g82
ssg70
g1217
sg63
(lp1224
S'mod_wsgi_handler_script'
p1225
asbag56
(g77
g58
NtRp1226
(dp1227
g61
(dp1228
g88
g89
ssg70
g1217
sg63
(lp1229
S':'
asbag56
(g77
g58
NtRp1230
(dp1231
g61
(dp1232
sg70
g1217
sg63
(lp1233
g56
(g57
g58
NtRp1234
(dp1235
g61
(dp1236
g69
I4
ssg70
g1230
sg63
(lp1237
S''
asbasbasbag56
(g72
g58
NtRp1238
(dp1239
g61
(dp1240
sg70
g821
sg63
(lp1241
g56
(g77
g58
NtRp1242
(dp1243
g61
(dp1244
g81
g82
ssg70
g1238
sg63
(lp1245
S'mod_wsgi_input_chunked'
p1246
asbag56
(g77
g58
NtRp1247
(dp1248
g61
(dp1249
g88
g89
ssg70
g1238
sg63
(lp1250
S':'
asbag56
(g77
g58
NtRp1251
(dp1252
g61
(dp1253
sg70
g1238
sg63
(lp1254
g56
(g57
g58
NtRp1255
(dp1256
g61
(dp1257
g69
I4
ssg70
g1251
sg63
(lp1258
S'0'
asbasbasbag56
(g72
g58
NtRp1259
(dp1260
g61
(dp1261
sg70
g821
sg63
(lp1262
g56
(g77
g58
NtRp1263
(dp1264
g61
(dp1265
g81
g82
ssg70
g1259
sg63
(lp1266
S'mod_wsgi_listener_host'
p1267
asbag56
(g77
g58
NtRp1268
(dp1269
g61
(dp1270
g88
g89
ssg70
g1259
sg63
(lp1271
S':'
asbag56
(g77
g58
NtRp1272
(dp1273
g61
(dp1274
sg70
g1259
sg63
(lp1275
g56
(g57
g58
NtRp1276
(dp1277
g61
(dp1278
g69
I4
ssg70
g1272
sg63
(lp1279
S''
asbasbasbag56
(g72
g58
NtRp1280
(dp1281
g61
(dp1282
sg70
g821
sg63
(lp1283
g56
(g77
g58
NtRp1284
(dp1285
g61
(dp1286
g81
g82
ssg70
g1280
sg63
(lp1287
S'mod_wsgi_listener_port'
p1288
asbag56
(g77
g58
NtRp1289
(dp1290
g61
(dp1291
g88
g89
ssg70
g1280
sg63
(lp1292
S':'
asbag56
(g77
g58
NtRp1293
(dp1294
g61
(dp1295
sg70
g1280
sg63
(lp1296
g56
(g57
g58
NtRp1297
(dp1298
g61
(dp1299
g69
I4
ssg70
g1293
sg63
(lp1300
S'443'
p1301
asbasbasbag56
(g72
g58
NtRp1302
(dp1303
g61
(dp1304
sg70
g821
sg63
(lp1305
g56
(g77
g58
NtRp1306
(dp1307
g61
(dp1308
g81
g82
ssg70
g1302
sg63
(lp1309
S'mod_wsgi_process_group'
p1310
asbag56
(g77
g58
NtRp1311
(dp1312
g61
(dp1313
g88
g89
ssg70
g1302
sg63
(lp1314
S':'
asbag56
(g77
g58
NtRp1315
(dp1316
g61
(dp1317
sg70
g1302
sg63
(lp1318
g56
(g57
g58
NtRp1319
(dp1320
g61
(dp1321
g69
I4
ssg70
g1315
sg63
(lp1322
S'web2py'
p1323
asbasbasbag56
(g72
g58
NtRp1324
(dp1325
g61
(dp1326
sg70
g821
sg63
(lp1327
g56
(g77
g58
NtRp1328
(dp1329
g61
(dp1330
g81
g82
ssg70
g1324
sg63
(lp1331
S'mod_wsgi_request_handler'
p1332
asbag56
(g77
g58
NtRp1333
(dp1334
g61
(dp1335
g88
g89
ssg70
g1324
sg63
(lp1336
S':'
asbag56
(g77
g58
NtRp1337
(dp1338
g61
(dp1339
sg70
g1324
sg63
(lp1340
g56
(g57
g58
NtRp1341
(dp1342
g61
(dp1343
g69
I4
ssg70
g1337
sg63
(lp1344
S'wsgi-script'
p1345
asbasbasbag56
(g72
g58
NtRp1346
(dp1347
g61
(dp1348
sg70
g821
sg63
(lp1349
g56
(g77
g58
NtRp1350
(dp1351
g61
(dp1352
g81
g82
ssg70
g1346
sg63
(lp1353
S'mod_wsgi_script_reloading'
p1354
asbag56
(g77
g58
NtRp1355
(dp1356
g61
(dp1357
g88
g89
ssg70
g1346
sg63
(lp1358
S':'
asbag56
(g77
g58
NtRp1359
(dp1360
g61
(dp1361
sg70
g1346
sg63
(lp1362
g56
(g57
g58
NtRp1363
(dp1364
g61
(dp1365
g69
I4
ssg70
g1359
sg63
(lp1366
S'1'
asbasbasbag56
(g72
g58
NtRp1367
(dp1368
g61
(dp1369
sg70
g821
sg63
(lp1370
g56
(g77
g58
NtRp1371
(dp1372
g61
(dp1373
g81
g82
ssg70
g1367
sg63
(lp1374
S'mod_wsgi_version'
p1375
asbag56
(g77
g58
NtRp1376
(dp1377
g61
(dp1378
g88
g89
ssg70
g1367
sg63
(lp1379
S':'
asbag56
(g77
g58
NtRp1380
(dp1381
g61
(dp1382
sg70
g1367
sg63
(lp1383
g56
(g57
g58
NtRp1384
(dp1385
g61
(dp1386
g69
I4
ssg70
g1380
sg63
(lp1387
g56
(g65
g58
NtRp1388
(dp1389
g61
(dp1390
g69
I3
ssg70
Nsg63
(lp1391
g56
(g72
g58
NtRp1392
(dp1393
g61
(dp1394
sg70
g1388
sg63
(lp1395
g56
(g77
g58
NtRp1396
(dp1397
g61
(dp1398
sg70
g1392
sg63
(lp1399
g56
(g57
g58
NtRp1400
(dp1401
g61
(dp1402
g69
I3
ssg70
g1396
sg63
(lp1403
S'3'
asbasbasbag56
(g72
g58
NtRp1404
(dp1405
g61
(dp1406
sg70
g1388
sg63
(lp1407
g56
(g77
g58
NtRp1408
(dp1409
g61
(dp1410
sg70
g1404
sg63
(lp1411
g56
(g57
g58
NtRp1412
(dp1413
g61
(dp1414
g69
I3
ssg70
g1408
sg63
(lp1415
S'3'
asbasbasbasbasbasbasbag56
(g72
g58
NtRp1416
(dp1417
g61
(dp1418
sg70
g821
sg63
(lp1419
g56
(g77
g58
NtRp1420
(dp1421
g61
(dp1422
g81
g82
ssg70
g1416
sg63
(lp1423
S'path_info'
p1424
asbag56
(g77
g58
NtRp1425
(dp1426
g61
(dp1427
g88
g89
ssg70
g1416
sg63
(lp1428
S':'
asbag56
(g77
g58
NtRp1429
(dp1430
g61
(dp1431
sg70
g1416
sg63
(lp1432
g56
(g57
g58
NtRp1433
(dp1434
g61
(dp1435
g69
I4
ssg70
g1429
sg63
(lp1436
S'/scrum/ticket/novo'
p1437
asbasbasbag56
(g72
g58
NtRp1438
(dp1439
g61
(dp1440
sg70
g821
sg63
(lp1441
g56
(g77
g58
NtRp1442
(dp1443
g61
(dp1444
g81
g82
ssg70
g1438
sg63
(lp1445
S'path_translated'
p1446
asbag56
(g77
g58
NtRp1447
(dp1448
g61
(dp1449
g88
g89
ssg70
g1438
sg63
(lp1450
S':'
asbag56
(g77
g58
NtRp1451
(dp1452
g61
(dp1453
sg70
g1438
sg63
(lp1454
g56
(g57
g58
NtRp1455
(dp1456
g61
(dp1457
g69
I4
ssg70
g1451
sg63
(lp1458
S'/home/www-data/web2py/wsgihandler.py/scrum/ticket/novo'
p1459
asbasbasbag56
(g72
g58
NtRp1460
(dp1461
g61
(dp1462
sg70
g821
sg63
(lp1463
g56
(g77
g58
NtRp1464
(dp1465
g61
(dp1466
g81
g82
ssg70
g1460
sg63
(lp1467
S'query_string'
p1468
asbag56
(g77
g58
NtRp1469
(dp1470
g61
(dp1471
g88
g89
ssg70
g1460
sg63
(lp1472
S':'
asbag56
(g77
g58
NtRp1473
(dp1474
g61
(dp1475
sg70
g1460
sg63
(lp1476
g56
(g57
g58
NtRp1477
(dp1478
g61
(dp1479
g69
I4
ssg70
g1473
sg63
(lp1480
S''
asbasbasbag56
(g72
g58
NtRp1481
(dp1482
g61
(dp1483
sg70
g821
sg63
(lp1484
g56
(g77
g58
NtRp1485
(dp1486
g61
(dp1487
g81
g82
ssg70
g1481
sg63
(lp1488
S'remote_addr'
p1489
asbag56
(g77
g58
NtRp1490
(dp1491
g61
(dp1492
g88
g89
ssg70
g1481
sg63
(lp1493
S':'
asbag56
(g77
g58
NtRp1494
(dp1495
g61
(dp1496
sg70
g1481
sg63
(lp1497
g56
(g57
g58
NtRp1498
(dp1499
g61
(dp1500
g69
I4
ssg70
g1494
sg63
(lp1501
g189
asbasbasbag56
(g72
g58
NtRp1502
(dp1503
g61
(dp1504
sg70
g821
sg63
(lp1505
g56
(g77
g58
NtRp1506
(dp1507
g61
(dp1508
g81
g82
ssg70
g1502
sg63
(lp1509
S'remote_port'
p1510
asbag56
(g77
g58
NtRp1511
(dp1512
g61
(dp1513
g88
g89
ssg70
g1502
sg63
(lp1514
S':'
asbag56
(g77
g58
NtRp1515
(dp1516
g61
(dp1517
sg70
g1502
sg63
(lp1518
g56
(g57
g58
NtRp1519
(dp1520
g61
(dp1521
g69
I4
ssg70
g1515
sg63
(lp1522
S'50572'
p1523
asbasbasbag56
(g72
g58
NtRp1524
(dp1525
g61
(dp1526
sg70
g821
sg63
(lp1527
g56
(g77
g58
NtRp1528
(dp1529
g61
(dp1530
g81
g82
ssg70
g1524
sg63
(lp1531
S'request_method'
p1532
asbag56
(g77
g58
NtRp1533
(dp1534
g61
(dp1535
g88
g89
ssg70
g1524
sg63
(lp1536
S':'
asbag56
(g77
g58
NtRp1537
(dp1538
g61
(dp1539
sg70
g1524
sg63
(lp1540
g56
(g57
g58
NtRp1541
(dp1542
g61
(dp1543
g69
I4
ssg70
g1537
sg63
(lp1544
S'GET'
p1545
asbasbasbag56
(g72
g58
NtRp1546
(dp1547
g61
(dp1548
sg70
g821
sg63
(lp1549
g56
(g77
g58
NtRp1550
(dp1551
g61
(dp1552
g81
g82
ssg70
g1546
sg63
(lp1553
S'request_uri'
p1554
asbag56
(g77
g58
NtRp1555
(dp1556
g61
(dp1557
g88
g89
ssg70
g1546
sg63
(lp1558
S':'
asbag56
(g77
g58
NtRp1559
(dp1560
g61
(dp1561
sg70
g1546
sg63
(lp1562
g56
(g57
g58
NtRp1563
(dp1564
g61
(dp1565
g69
I4
ssg70
g1559
sg63
(lp1566
S'/scrum/ticket/novo'
p1567
asbasbasbag56
(g72
g58
NtRp1568
(dp1569
g61
(dp1570
sg70
g821
sg63
(lp1571
g56
(g77
g58
NtRp1572
(dp1573
g61
(dp1574
g81
g82
ssg70
g1568
sg63
(lp1575
S'script_filename'
p1576
asbag56
(g77
g58
NtRp1577
(dp1578
g61
(dp1579
g88
g89
ssg70
g1568
sg63
(lp1580
S':'
asbag56
(g77
g58
NtRp1581
(dp1582
g61
(dp1583
sg70
g1568
sg63
(lp1584
g56
(g57
g58
NtRp1585
(dp1586
g61
(dp1587
g69
I4
ssg70
g1581
sg63
(lp1588
S'/home/www-data/web2py/wsgihandler.py'
p1589
asbasbasbag56
(g72
g58
NtRp1590
(dp1591
g61
(dp1592
sg70
g821
sg63
(lp1593
g56
(g77
g58
NtRp1594
(dp1595
g61
(dp1596
g81
g82
ssg70
g1590
sg63
(lp1597
S'script_name'
p1598
asbag56
(g77
g58
NtRp1599
(dp1600
g61
(dp1601
g88
g89
ssg70
g1590
sg63
(lp1602
S':'
asbag56
(g77
g58
NtRp1603
(dp1604
g61
(dp1605
sg70
g1590
sg63
(lp1606
g56
(g57
g58
NtRp1607
(dp1608
g61
(dp1609
g69
I4
ssg70
g1603
sg63
(lp1610
S''
asbasbasbag56
(g72
g58
NtRp1611
(dp1612
g61
(dp1613
sg70
g821
sg63
(lp1614
g56
(g77
g58
NtRp1615
(dp1616
g61
(dp1617
g81
g82
ssg70
g1611
sg63
(lp1618
S'server_addr'
p1619
asbag56
(g77
g58
NtRp1620
(dp1621
g61
(dp1622
g88
g89
ssg70
g1611
sg63
(lp1623
S':'
asbag56
(g77
g58
NtRp1624
(dp1625
g61
(dp1626
sg70
g1611
sg63
(lp1627
g56
(g57
g58
NtRp1628
(dp1629
g61
(dp1630
g69
I4
ssg70
g1624
sg63
(lp1631
S'127.0.0.1'
p1632
asbasbasbag56
(g72
g58
NtRp1633
(dp1634
g61
(dp1635
sg70
g821
sg63
(lp1636
g56
(g77
g58
NtRp1637
(dp1638
g61
(dp1639
g81
g82
ssg70
g1633
sg63
(lp1640
S'server_admin'
p1641
asbag56
(g77
g58
NtRp1642
(dp1643
g61
(dp1644
g88
g89
ssg70
g1633
sg63
(lp1645
S':'
asbag56
(g77
g58
NtRp1646
(dp1647
g61
(dp1648
sg70
g1633
sg63
(lp1649
g56
(g57
g58
NtRp1650
(dp1651
g61
(dp1652
g69
I4
ssg70
g1646
sg63
(lp1653
S'[no address given]'
p1654
asbasbasbag56
(g72
g58
NtRp1655
(dp1656
g61
(dp1657
sg70
g821
sg63
(lp1658
g56
(g77
g58
NtRp1659
(dp1660
g61
(dp1661
g81
g82
ssg70
g1655
sg63
(lp1662
S'server_name'
p1663
asbag56
(g77
g58
NtRp1664
(dp1665
g61
(dp1666
g88
g89
ssg70
g1655
sg63
(lp1667
S':'
asbag56
(g77
g58
NtRp1668
(dp1669
g61
(dp1670
sg70
g1655
sg63
(lp1671
g56
(g57
g58
NtRp1672
(dp1673
g61
(dp1674
g69
I4
ssg70
g1668
sg63
(lp1675
S'localhost'
p1676
asbasbasbag56
(g72
g58
NtRp1677
(dp1678
g61
(dp1679
sg70
g821
sg63
(lp1680
g56
(g77
g58
NtRp1681
(dp1682
g61
(dp1683
g81
g82
ssg70
g1677
sg63
(lp1684
S'server_port'
p1685
asbag56
(g77
g58
NtRp1686
(dp1687
g61
(dp1688
g88
g89
ssg70
g1677
sg63
(lp1689
S':'
asbag56
(g77
g58
NtRp1690
(dp1691
g61
(dp1692
sg70
g1677
sg63
(lp1693
g56
(g57
g58
NtRp1694
(dp1695
g61
(dp1696
g69
I4
ssg70
g1690
sg63
(lp1697
S'443'
p1698
asbasbasbag56
(g72
g58
NtRp1699
(dp1700
g61
(dp1701
sg70
g821
sg63
(lp1702
g56
(g77
g58
NtRp1703
(dp1704
g61
(dp1705
g81
g82
ssg70
g1699
sg63
(lp1706
S'server_protocol'
p1707
asbag56
(g77
g58
NtRp1708
(dp1709
g61
(dp1710
g88
g89
ssg70
g1699
sg63
(lp1711
S':'
asbag56
(g77
g58
NtRp1712
(dp1713
g61
(dp1714
sg70
g1699
sg63
(lp1715
g56
(g57
g58
NtRp1716
(dp1717
g61
(dp1718
g69
I4
ssg70
g1712
sg63
(lp1719
S'HTTP/1.1'
p1720
asbasbasbag56
(g72
g58
NtRp1721
(dp1722
g61
(dp1723
sg70
g821
sg63
(lp1724
g56
(g77
g58
NtRp1725
(dp1726
g61
(dp1727
g81
g82
ssg70
g1721
sg63
(lp1728
S'server_signature'
p1729
asbag56
(g77
g58
NtRp1730
(dp1731
g61
(dp1732
g88
g89
ssg70
g1721
sg63
(lp1733
S':'
asbag56
(g77
g58
NtRp1734
(dp1735
g61
(dp1736
sg70
g1721
sg63
(lp1737
g56
(g57
g58
NtRp1738
(dp1739
g61
(dp1740
g69
I4
ssg70
g1734
sg63
(lp1741
S'<address>Apache/2.2.17 (Ubuntu) Server at localhost Port 443</address>\n'
p1742
asbasbasbag56
(g72
g58
NtRp1743
(dp1744
g61
(dp1745
sg70
g821
sg63
(lp1746
g56
(g77
g58
NtRp1747
(dp1748
g61
(dp1749
g81
g82
ssg70
g1743
sg63
(lp1750
S'server_software'
p1751
asbag56
(g77
g58
NtRp1752
(dp1753
g61
(dp1754
g88
g89
ssg70
g1743
sg63
(lp1755
S':'
asbag56
(g77
g58
NtRp1756
(dp1757
g61
(dp1758
sg70
g1743
sg63
(lp1759
g56
(g57
g58
NtRp1760
(dp1761
g61
(dp1762
g69
I4
ssg70
g1756
sg63
(lp1763
S'Apache/2.2.17 (Ubuntu)'
p1764
asbasbasbag56
(g72
g58
NtRp1765
(dp1766
g61
(dp1767
sg70
g821
sg63
(lp1768
g56
(g77
g58
NtRp1769
(dp1770
g61
(dp1771
g81
g82
ssg70
g1765
sg63
(lp1772
S'ssl_tls_sni'
p1773
asbag56
(g77
g58
NtRp1774
(dp1775
g61
(dp1776
g88
g89
ssg70
g1765
sg63
(lp1777
S':'
asbag56
(g77
g58
NtRp1778
(dp1779
g61
(dp1780
sg70
g1765
sg63
(lp1781
g56
(g57
g58
NtRp1782
(dp1783
g61
(dp1784
g69
I4
ssg70
g1778
sg63
(lp1785
S'localhost'
p1786
asbasbasbag56
(g72
g58
NtRp1787
(dp1788
g61
(dp1789
sg70
g821
sg63
(lp1790
g56
(g77
g58
NtRp1791
(dp1792
g61
(dp1793
g81
g82
ssg70
g1787
sg63
(lp1794
S'web2py_path'
p1795
asbag56
(g77
g58
NtRp1796
(dp1797
g61
(dp1798
g88
g89
ssg70
g1787
sg63
(lp1799
S':'
asbag56
(g77
g58
NtRp1800
(dp1801
g61
(dp1802
sg70
g1787
sg63
(lp1803
g56
(g57
g58
NtRp1804
(dp1805
g61
(dp1806
g69
I4
ssg70
g1800
sg63
(lp1807
g868
asbasbasbag56
(g72
g58
NtRp1808
(dp1809
g61
(dp1810
sg70
g821
sg63
(lp1811
g56
(g77
g58
NtRp1812
(dp1813
g61
(dp1814
g81
g82
ssg70
g1808
sg63
(lp1815
S'web2py_version'
p1816
asbag56
(g77
g58
NtRp1817
(dp1818
g61
(dp1819
g88
g89
ssg70
g1808
sg63
(lp1820
S':'
asbag56
(g77
g58
NtRp1821
(dp1822
g61
(dp1823
sg70
g1808
sg63
(lp1824
g56
(g57
g58
NtRp1825
(dp1826
g61
(dp1827
g69
I4
ssg70
g1821
sg63
(lp1828
S'Version 1.98.2 (2011-08-04 00:47:09)\n'
p1829
asbasbasbag56
(g72
g58
NtRp1830
(dp1831
g61
(dp1832
sg70
g821
sg63
(lp1833
g56
(g77
g58
NtRp1834
(dp1835
g61
(dp1836
g81
g82
ssg70
g1830
sg63
(lp1837
S'wsgi_errors'
p1838
asbag56
(g77
g58
NtRp1839
(dp1840
g61
(dp1841
g88
g89
ssg70
g1830
sg63
(lp1842
S':'
asbag56
(g77
g58
NtRp1843
(dp1844
g61
(dp1845
sg70
g1830
sg63
(lp1846
g56
(g57
g58
NtRp1847
(dp1848
g61
(dp1849
g69
I4
ssg70
g1843
sg63
(lp1850
S'<mod_wsgi.Log object at 0xb9e00e80>'
p1851
asbasbasbag56
(g72
g58
NtRp1852
(dp1853
g61
(dp1854
sg70
g821
sg63
(lp1855
g56
(g77
g58
NtRp1856
(dp1857
g61
(dp1858
g81
g82
ssg70
g1852
sg63
(lp1859
S'wsgi_file_wrapper'
p1860
asbag56
(g77
g58
NtRp1861
(dp1862
g61
(dp1863
g88
g89
ssg70
g1852
sg63
(lp1864
S':'
asbag56
(g77
g58
NtRp1865
(dp1866
g61
(dp1867
sg70
g1852
sg63
(lp1868
g56
(g57
g58
NtRp1869
(dp1870
g61
(dp1871
g69
I4
ssg70
g1865
sg63
(lp1872
S'<built-in method file_wrapper of mod_wsgi.Adapter object at 0xb9639650>'
p1873
asbasbasbag56
(g72
g58
NtRp1874
(dp1875
g61
(dp1876
sg70
g821
sg63
(lp1877
g56
(g77
g58
NtRp1878
(dp1879
g61
(dp1880
g81
g82
ssg70
g1874
sg63
(lp1881
S'wsgi_input'
p1882
asbag56
(g77
g58
NtRp1883
(dp1884
g61
(dp1885
g88
g89
ssg70
g1874
sg63
(lp1886
S':'
asbag56
(g77
g58
NtRp1887
(dp1888
g61
(dp1889
sg70
g1874
sg63
(lp1890
g56
(g57
g58
NtRp1891
(dp1892
g61
(dp1893
g69
I4
ssg70
g1887
sg63
(lp1894
S'<mod_wsgi.Input object at 0xb9e00f70>'
p1895
asbasbasbag56
(g72
g58
NtRp1896
(dp1897
g61
(dp1898
sg70
g821
sg63
(lp1899
g56
(g77
g58
NtRp1900
(dp1901
g61
(dp1902
g81
g82
ssg70
g1896
sg63
(lp1903
S'wsgi_multiprocess'
p1904
asbag56
(g77
g58
NtRp1905
(dp1906
g61
(dp1907
g88
g89
ssg70
g1896
sg63
(lp1908
S':'
asbag56
(g77
g58
NtRp1909
(dp1910
g61
(dp1911
sg70
g1896
sg63
(lp1912
g56
(g57
g58
NtRp1913
(dp1914
g61
(dp1915
g69
I4
ssg70
g1909
sg63
(lp1916
g99
asbasbasbag56
(g72
g58
NtRp1917
(dp1918
g61
(dp1919
sg70
g821
sg63
(lp1920
g56
(g77
g58
NtRp1921
(dp1922
g61
(dp1923
g81
g82
ssg70
g1917
sg63
(lp1924
S'wsgi_multithread'
p1925
asbag56
(g77
g58
NtRp1926
(dp1927
g61
(dp1928
g88
g89
ssg70
g1917
sg63
(lp1929
S':'
asbag56
(g77
g58
NtRp1930
(dp1931
g61
(dp1932
sg70
g1917
sg63
(lp1933
g56
(g57
g58
NtRp1934
(dp1935
g61
(dp1936
g69
I4
ssg70
g1930
sg63
(lp1937
S'True'
p1938
asbasbasbag56
(g72
g58
NtRp1939
(dp1940
g61
(dp1941
sg70
g821
sg63
(lp1942
g56
(g77
g58
NtRp1943
(dp1944
g61
(dp1945
g81
g82
ssg70
g1939
sg63
(lp1946
S'wsgi_run_once'
p1947
asbag56
(g77
g58
NtRp1948
(dp1949
g61
(dp1950
g88
g89
ssg70
g1939
sg63
(lp1951
S':'
asbag56
(g77
g58
NtRp1952
(dp1953
g61
(dp1954
sg70
g1939
sg63
(lp1955
g56
(g57
g58
NtRp1956
(dp1957
g61
(dp1958
g69
I4
ssg70
g1952
sg63
(lp1959
g99
asbasbasbag56
(g72
g58
NtRp1960
(dp1961
g61
(dp1962
sg70
g821
sg63
(lp1963
g56
(g77
g58
NtRp1964
(dp1965
g61
(dp1966
g81
g82
ssg70
g1960
sg63
(lp1967
S'wsgi_url_scheme'
p1968
asbag56
(g77
g58
NtRp1969
(dp1970
g61
(dp1971
g88
g89
ssg70
g1960
sg63
(lp1972
S':'
asbag56
(g77
g58
NtRp1973
(dp1974
g61
(dp1975
sg70
g1960
sg63
(lp1976
g56
(g57
g58
NtRp1977
(dp1978
g61
(dp1979
g69
I4
ssg70
g1973
sg63
(lp1980
S'https'
p1981
asbasbasbag56
(g72
g58
NtRp1982
(dp1983
g61
(dp1984
sg70
g821
sg63
(lp1985
g56
(g77
g58
NtRp1986
(dp1987
g61
(dp1988
g81
g82
ssg70
g1982
sg63
(lp1989
S'wsgi_version'
p1990
asbag56
(g77
g58
NtRp1991
(dp1992
g61
(dp1993
g88
g89
ssg70
g1982
sg63
(lp1994
S':'
asbag56
(g77
g58
NtRp1995
(dp1996
g61
(dp1997
sg70
g1982
sg63
(lp1998
g56
(g57
g58
NtRp1999
(dp2000
g61
(dp2001
g69
I4
ssg70
g1995
sg63
(lp2002
g56
(g65
g58
NtRp2003
(dp2004
g61
(dp2005
g69
I3
ssg70
Nsg63
(lp2006
g56
(g72
g58
NtRp2007
(dp2008
g61
(dp2009
sg70
g2003
sg63
(lp2010
g56
(g77
g58
NtRp2011
(dp2012
g61
(dp2013
sg70
g2007
sg63
(lp2014
g56
(g57
g58
NtRp2015
(dp2016
g61
(dp2017
g69
I3
ssg70
g2011
sg63
(lp2018
S'1'
asbasbasbag56
(g72
g58
NtRp2019
(dp2020
g61
(dp2021
sg70
g2003
sg63
(lp2022
g56
(g77
g58
NtRp2023
(dp2024
g61
(dp2025
sg70
g2019
sg63
(lp2026
g56
(g57
g58
NtRp2027
(dp2028
g61
(dp2029
g69
I3
ssg70
g2023
sg63
(lp2030
S'1'
asbasbasbasbasbasbasbasbasbasbasbag56
(g72
g58
NtRp2031
(dp2032
g61
(dp2033
sg70
g66
sg63
(lp2034
g56
(g77
g58
NtRp2035
(dp2036
g61
(dp2037
g81
g82
ssg70
g2031
sg63
(lp2038
S'extension'
p2039
asbag56
(g77
g58
NtRp2040
(dp2041
g61
(dp2042
g88
g89
ssg70
g2031
sg63
(lp2043
S':'
asbag56
(g77
g58
NtRp2044
(dp2045
g61
(dp2046
sg70
g2031
sg63
(lp2047
g56
(g57
g58
NtRp2048
(dp2049
g61
(dp2050
g69
I5
ssg70
g2044
sg63
(lp2051
S'html'
p2052
asbasbasbag56
(g72
g58
NtRp2053
(dp2054
g61
(dp2055
sg70
g66
sg63
(lp2056
g56
(g77
g58
NtRp2057
(dp2058
g61
(dp2059
g81
g82
ssg70
g2053
sg63
(lp2060
S'folder'
p2061
asbag56
(g77
g58
NtRp2062
(dp2063
g61
(dp2064
g88
g89
ssg70
g2053
sg63
(lp2065
S':'
asbag56
(g77
g58
NtRp2066
(dp2067
g61
(dp2068
sg70
g2053
sg63
(lp2069
g56
(g57
g58
NtRp2070
(dp2071
g61
(dp2072
g69
I5
ssg70
g2066
sg63
(lp2073
S'/home/www-data/web2py/applications/scrum/'
p2074
asbasbasbag56
(g72
g58
NtRp2075
(dp2076
g61
(dp2077
sg70
g66
sg63
(lp2078
g56
(g77
g58
NtRp2079
(dp2080
g61
(dp2081
g81
g82
ssg70
g2075
sg63
(lp2082
S'function'
p2083
asbag56
(g77
g58
NtRp2084
(dp2085
g61
(dp2086
g88
g89
ssg70
g2075
sg63
(lp2087
S':'
asbag56
(g77
g58
NtRp2088
(dp2089
g61
(dp2090
sg70
g2075
sg63
(lp2091
g56
(g57
g58
NtRp2092
(dp2093
g61
(dp2094
g69
I5
ssg70
g2088
sg63
(lp2095
S'novo'
p2096
asbasbasbag56
(g72
g58
NtRp2097
(dp2098
g61
(dp2099
sg70
g66
sg63
(lp2100
g56
(g77
g58
NtRp2101
(dp2102
g61
(dp2103
g81
g82
ssg70
g2097
sg63
(lp2104
S'get_vars'
p2105
asbag56
(g77
g58
NtRp2106
(dp2107
g61
(dp2108
g88
g89
ssg70
g2097
sg63
(lp2109
S':'
asbag56
(g77
g58
NtRp2110
(dp2111
g61
(dp2112
sg70
g2097
sg63
(lp2113
g56
(g57
g58
NtRp2114
(dp2115
g61
(dp2116
g69
I5
ssg70
g2110
sg63
(lp2117
g56
(g65
g58
NtRp2118
(dp2119
g61
(dp2120
g69
I4
ssg70
Nsg63
(lp2121
sbasbasbasbag56
(g72
g58
NtRp2122
(dp2123
g61
(dp2124
sg70
g66
sg63
(lp2125
g56
(g77
g58
NtRp2126
(dp2127
g61
(dp2128
g81
g82
ssg70
g2122
sg63
(lp2129
S'is_https'
p2130
asbag56
(g77
g58
NtRp2131
(dp2132
g61
(dp2133
g88
g89
ssg70
g2122
sg63
(lp2134
S':'
asbag56
(g77
g58
NtRp2135
(dp2136
g61
(dp2137
sg70
g2122
sg63
(lp2138
g56
(g57
g58
NtRp2139
(dp2140
g61
(dp2141
g69
I5
ssg70
g2135
sg63
(lp2142
g1938
asbasbasbag56
(g72
g58
NtRp2143
(dp2144
g61
(dp2145
sg70
g66
sg63
(lp2146
g56
(g77
g58
NtRp2147
(dp2148
g61
(dp2149
g81
g82
ssg70
g2143
sg63
(lp2150
S'is_local'
p2151
asbag56
(g77
g58
NtRp2152
(dp2153
g61
(dp2154
g88
g89
ssg70
g2143
sg63
(lp2155
S':'
asbag56
(g77
g58
NtRp2156
(dp2157
g61
(dp2158
sg70
g2143
sg63
(lp2159
g56
(g57
g58
NtRp2160
(dp2161
g61
(dp2162
g69
I5
ssg70
g2156
sg63
(lp2163
g1938
asbasbasbag56
(g72
g58
NtRp2164
(dp2165
g61
(dp2166
sg70
g66
sg63
(lp2167
g56
(g77
g58
NtRp2168
(dp2169
g61
(dp2170
g81
g82
ssg70
g2164
sg63
(lp2171
S'is_restful'
p2172
asbag56
(g77
g58
NtRp2173
(dp2174
g61
(dp2175
g88
g89
ssg70
g2164
sg63
(lp2176
S':'
asbag56
(g77
g58
NtRp2177
(dp2178
g61
(dp2179
sg70
g2164
sg63
(lp2180
g56
(g57
g58
NtRp2181
(dp2182
g61
(dp2183
g69
I5
ssg70
g2177
sg63
(lp2184
g99
asbasbasbag56
(g72
g58
NtRp2185
(dp2186
g61
(dp2187
sg70
g66
sg63
(lp2188
g56
(g77
g58
NtRp2189
(dp2190
g61
(dp2191
g81
g82
ssg70
g2185
sg63
(lp2192
S'now'
p2193
asbag56
(g77
g58
NtRp2194
(dp2195
g61
(dp2196
g88
g89
ssg70
g2185
sg63
(lp2197
S':'
asbag56
(g77
g58
NtRp2198
(dp2199
g61
(dp2200
sg70
g2185
sg63
(lp2201
g56
(g57
g58
NtRp2202
(dp2203
g61
(dp2204
g69
I5
ssg70
g2198
sg63
(lp2205
S'datetime.datetime(2011, 9, 8, 16, 30, 40, 405720)'
p2206
asbasbasbag56
(g72
g58
NtRp2207
(dp2208
g61
(dp2209
sg70
g66
sg63
(lp2210
g56
(g77
g58
NtRp2211
(dp2212
g61
(dp2213
g81
g82
ssg70
g2207
sg63
(lp2214
S'post_vars'
p2215
asbag56
(g77
g58
NtRp2216
(dp2217
g61
(dp2218
g88
g89
ssg70
g2207
sg63
(lp2219
S':'
asbag56
(g77
g58
NtRp2220
(dp2221
g61
(dp2222
sg70
g2207
sg63
(lp2223
g56
(g57
g58
NtRp2224
(dp2225
g61
(dp2226
g69
I5
ssg70
g2220
sg63
(lp2227
g56
(g65
g58
NtRp2228
(dp2229
g61
(dp2230
g69
I4
ssg70
Nsg63
(lp2231
sbasbasbasbag56
(g72
g58
NtRp2232
(dp2233
g61
(dp2234
sg70
g66
sg63
(lp2235
g56
(g77
g58
NtRp2236
(dp2237
g61
(dp2238
g81
g82
ssg70
g2232
sg63
(lp2239
S'url'
p2240
asbag56
(g77
g58
NtRp2241
(dp2242
g61
(dp2243
g88
g89
ssg70
g2232
sg63
(lp2244
S':'
asbag56
(g77
g58
NtRp2245
(dp2246
g61
(dp2247
sg70
g2232
sg63
(lp2248
g56
(g57
g58
NtRp2249
(dp2250
g61
(dp2251
g69
I5
ssg70
g2245
sg63
(lp2252
S'/scrum/ticket/novo'
p2253
asbasbasbag56
(g72
g58
NtRp2254
(dp2255
g61
(dp2256
sg70
g66
sg63
(lp2257
g56
(g77
g58
NtRp2258
(dp2259
g61
(dp2260
g81
g82
ssg70
g2254
sg63
(lp2261
S'uuid'
p2262
asbag56
(g77
g58
NtRp2263
(dp2264
g61
(dp2265
g88
g89
ssg70
g2254
sg63
(lp2266
S':'
asbag56
(g77
g58
NtRp2267
(dp2268
g61
(dp2269
sg70
g2254
sg63
(lp2270
g56
(g57
g58
NtRp2271
(dp2272
g61
(dp2273
g69
I5
ssg70
g2267
sg63
(lp2274
S'scrum/127.0.0.1.2011-09-08.16-30-40.4ca64134-f123-4933-84ef-77c51354df0d'
p2275
asbasbasbag56
(g72
g58
NtRp2276
(dp2277
g61
(dp2278
sg70
g66
sg63
(lp2279
g56
(g77
g58
NtRp2280
(dp2281
g61
(dp2282
g81
g82
ssg70
g2276
sg63
(lp2283
S'vars'
p2284
asbag56
(g77
g58
NtRp2285
(dp2286
g61
(dp2287
g88
g89
ssg70
g2276
sg63
(lp2288
S':'
asbag56
(g77
g58
NtRp2289
(dp2290
g61
(dp2291
sg70
g2276
sg63
(lp2292
g56
(g57
g58
NtRp2293
(dp2294
g61
(dp2295
g69
I5
ssg70
g2289
sg63
(lp2296
g56
(g65
g58
NtRp2297
(dp2298
g61
(dp2299
g69
I4
ssg70
Nsg63
(lp2300
sbasbasbasbag56
(g72
g58
NtRp2301
(dp2302
g61
(dp2303
sg70
g66
sg63
(lp2304
g56
(g77
g58
NtRp2305
(dp2306
g61
(dp2307
g81
g82
ssg70
g2301
sg63
(lp2308
S'wsgi'
p2309
asbag56
(g77
g58
NtRp2310
(dp2311
g61
(dp2312
g88
g89
ssg70
g2301
sg63
(lp2313
S':'
asbag56
(g77
g58
NtRp2314
(dp2315
g61
(dp2316
sg70
g2301
sg63
(lp2317
g56
(g57
g58
NtRp2318
(dp2319
g61
(dp2320
g69
I5
ssg70
g2314
sg63
(lp2321
g56
(g65
g58
NtRp2322
(dp2323
g61
(dp2324
g69
I4
ssg70
Nsg63
(lp2325
g56
(g72
g58
NtRp2326
(dp2327
g61
(dp2328
sg70
g2322
sg63
(lp2329
g56
(g77
g58
NtRp2330
(dp2331
g61
(dp2332
g81
g82
ssg70
g2326
sg63
(lp2333
S'environ'
p2334
asbag56
(g77
g58
NtRp2335
(dp2336
g61
(dp2337
g88
g89
ssg70
g2326
sg63
(lp2338
S':'
asbag56
(g77
g58
NtRp2339
(dp2340
g61
(dp2341
sg70
g2326
sg63
(lp2342
g56
(g57
g58
NtRp2343
(dp2344
g61
(dp2345
g69
I4
ssg70
g2339
sg63
(lp2346
g56
(g65
g58
NtRp2347
(dp2348
g61
(dp2349
g69
I3
ssg70
Nsg63
(lp2350
g56
(g72
g58
NtRp2351
(dp2352
g61
(dp2353
sg70
g2347
sg63
(lp2354
g56
(g77
g58
NtRp2355
(dp2356
g61
(dp2357
g81
g82
ssg70
g2351
sg63
(lp2358
S'DOCUMENT_ROOT'
p2359
asbag56
(g77
g58
NtRp2360
(dp2361
g61
(dp2362
g88
g89
ssg70
g2351
sg63
(lp2363
S':'
asbag56
(g77
g58
NtRp2364
(dp2365
g61
(dp2366
sg70
g2351
sg63
(lp2367
g56
(g57
g58
NtRp2368
(dp2369
g61
(dp2370
g69
I3
ssg70
g2364
sg63
(lp2371
g933
asbasbasbag56
(g72
g58
NtRp2372
(dp2373
g61
(dp2374
sg70
g2347
sg63
(lp2375
g56
(g77
g58
NtRp2376
(dp2377
g61
(dp2378
g81
g82
ssg70
g2372
sg63
(lp2379
S'GATEWAY_INTERFACE'
p2380
asbag56
(g77
g58
NtRp2381
(dp2382
g61
(dp2383
g88
g89
ssg70
g2372
sg63
(lp2384
S':'
asbag56
(g77
g58
NtRp2385
(dp2386
g61
(dp2387
sg70
g2372
sg63
(lp2388
g56
(g57
g58
NtRp2389
(dp2390
g61
(dp2391
g69
I3
ssg70
g2385
sg63
(lp2392
g955
asbasbasbag56
(g72
g58
NtRp2393
(dp2394
g61
(dp2395
sg70
g2347
sg63
(lp2396
g56
(g77
g58
NtRp2397
(dp2398
g61
(dp2399
g81
g82
ssg70
g2393
sg63
(lp2400
S'HTTPS'
p2401
asbag56
(g77
g58
NtRp2402
(dp2403
g61
(dp2404
g88
g89
ssg70
g2393
sg63
(lp2405
S':'
asbag56
(g77
g58
NtRp2406
(dp2407
g61
(dp2408
sg70
g2393
sg63
(lp2409
g56
(g57
g58
NtRp2410
(dp2411
g61
(dp2412
g69
I3
ssg70
g2406
sg63
(lp2413
S'1'
asbasbasbag56
(g72
g58
NtRp2414
(dp2415
g61
(dp2416
sg70
g2347
sg63
(lp2417
g56
(g77
g58
NtRp2418
(dp2419
g61
(dp2420
g81
g82
ssg70
g2414
sg63
(lp2421
S'HTTP_ACCEPT'
p2422
asbag56
(g77
g58
NtRp2423
(dp2424
g61
(dp2425
g88
g89
ssg70
g2414
sg63
(lp2426
S':'
asbag56
(g77
g58
NtRp2427
(dp2428
g61
(dp2429
sg70
g2414
sg63
(lp2430
g56
(g57
g58
NtRp2431
(dp2432
g61
(dp2433
g69
I3
ssg70
g2427
sg63
(lp2434
g998
asbasbasbag56
(g72
g58
NtRp2435
(dp2436
g61
(dp2437
sg70
g2347
sg63
(lp2438
g56
(g77
g58
NtRp2439
(dp2440
g61
(dp2441
g81
g82
ssg70
g2435
sg63
(lp2442
S'HTTP_ACCEPT_ENCODING'
p2443
asbag56
(g77
g58
NtRp2444
(dp2445
g61
(dp2446
g88
g89
ssg70
g2435
sg63
(lp2447
S':'
asbag56
(g77
g58
NtRp2448
(dp2449
g61
(dp2450
sg70
g2435
sg63
(lp2451
g56
(g57
g58
NtRp2452
(dp2453
g61
(dp2454
g69
I3
ssg70
g2448
sg63
(lp2455
g1020
asbasbasbag56
(g72
g58
NtRp2456
(dp2457
g61
(dp2458
sg70
g2347
sg63
(lp2459
g56
(g77
g58
NtRp2460
(dp2461
g61
(dp2462
g81
g82
ssg70
g2456
sg63
(lp2463
S'HTTP_ACCEPT_LANGUAGE'
p2464
asbag56
(g77
g58
NtRp2465
(dp2466
g61
(dp2467
g88
g89
ssg70
g2456
sg63
(lp2468
S':'
asbag56
(g77
g58
NtRp2469
(dp2470
g61
(dp2471
sg70
g2456
sg63
(lp2472
g56
(g57
g58
NtRp2473
(dp2474
g61
(dp2475
g69
I3
ssg70
g2469
sg63
(lp2476
g1042
asbasbasbag56
(g72
g58
NtRp2477
(dp2478
g61
(dp2479
sg70
g2347
sg63
(lp2480
g56
(g77
g58
NtRp2481
(dp2482
g61
(dp2483
g81
g82
ssg70
g2477
sg63
(lp2484
S'HTTP_CONNECTION'
p2485
asbag56
(g77
g58
NtRp2486
(dp2487
g61
(dp2488
g88
g89
ssg70
g2477
sg63
(lp2489
S':'
asbag56
(g77
g58
NtRp2490
(dp2491
g61
(dp2492
sg70
g2477
sg63
(lp2493
g56
(g57
g58
NtRp2494
(dp2495
g61
(dp2496
g69
I3
ssg70
g2490
sg63
(lp2497
g1064
asbasbasbag56
(g72
g58
NtRp2498
(dp2499
g61
(dp2500
sg70
g2347
sg63
(lp2501
g56
(g77
g58
NtRp2502
(dp2503
g61
(dp2504
g81
g82
ssg70
g2498
sg63
(lp2505
S'HTTP_COOKIE'
p2506
asbag56
(g77
g58
NtRp2507
(dp2508
g61
(dp2509
g88
g89
ssg70
g2498
sg63
(lp2510
S':'
asbag56
(g77
g58
NtRp2511
(dp2512
g61
(dp2513
sg70
g2498
sg63
(lp2514
g56
(g57
g58
NtRp2515
(dp2516
g61
(dp2517
g69
I3
ssg70
g2511
sg63
(lp2518
g1086
asbasbasbag56
(g72
g58
NtRp2519
(dp2520
g61
(dp2521
sg70
g2347
sg63
(lp2522
g56
(g77
g58
NtRp2523
(dp2524
g61
(dp2525
g81
g82
ssg70
g2519
sg63
(lp2526
S'HTTP_HOST'
p2527
asbag56
(g77
g58
NtRp2528
(dp2529
g61
(dp2530
g88
g89
ssg70
g2519
sg63
(lp2531
S':'
asbag56
(g77
g58
NtRp2532
(dp2533
g61
(dp2534
sg70
g2519
sg63
(lp2535
g56
(g57
g58
NtRp2536
(dp2537
g61
(dp2538
g69
I3
ssg70
g2532
sg63
(lp2539
g1108
asbasbasbag56
(g72
g58
NtRp2540
(dp2541
g61
(dp2542
sg70
g2347
sg63
(lp2543
g56
(g77
g58
NtRp2544
(dp2545
g61
(dp2546
g81
g82
ssg70
g2540
sg63
(lp2547
S'HTTP_USER_AGENT'
p2548
asbag56
(g77
g58
NtRp2549
(dp2550
g61
(dp2551
g88
g89
ssg70
g2540
sg63
(lp2552
S':'
asbag56
(g77
g58
NtRp2553
(dp2554
g61
(dp2555
sg70
g2540
sg63
(lp2556
g56
(g57
g58
NtRp2557
(dp2558
g61
(dp2559
g69
I3
ssg70
g2553
sg63
(lp2560
g1130
asbasbasbag56
(g72
g58
NtRp2561
(dp2562
g61
(dp2563
sg70
g2347
sg63
(lp2564
g56
(g77
g58
NtRp2565
(dp2566
g61
(dp2567
g81
g82
ssg70
g2561
sg63
(lp2568
S'PATH_INFO'
p2569
asbag56
(g77
g58
NtRp2570
(dp2571
g61
(dp2572
g88
g89
ssg70
g2561
sg63
(lp2573
S':'
asbag56
(g77
g58
NtRp2574
(dp2575
g61
(dp2576
sg70
g2561
sg63
(lp2577
g56
(g57
g58
NtRp2578
(dp2579
g61
(dp2580
g69
I3
ssg70
g2574
sg63
(lp2581
g1437
asbasbasbag56
(g72
g58
NtRp2582
(dp2583
g61
(dp2584
sg70
g2347
sg63
(lp2585
g56
(g77
g58
NtRp2586
(dp2587
g61
(dp2588
g81
g82
ssg70
g2582
sg63
(lp2589
S'PATH_TRANSLATED'
p2590
asbag56
(g77
g58
NtRp2591
(dp2592
g61
(dp2593
g88
g89
ssg70
g2582
sg63
(lp2594
S':'
asbag56
(g77
g58
NtRp2595
(dp2596
g61
(dp2597
sg70
g2582
sg63
(lp2598
g56
(g57
g58
NtRp2599
(dp2600
g61
(dp2601
g69
I3
ssg70
g2595
sg63
(lp2602
g1459
asbasbasbag56
(g72
g58
NtRp2603
(dp2604
g61
(dp2605
sg70
g2347
sg63
(lp2606
g56
(g77
g58
NtRp2607
(dp2608
g61
(dp2609
g81
g82
ssg70
g2603
sg63
(lp2610
S'QUERY_STRING'
p2611
asbag56
(g77
g58
NtRp2612
(dp2613
g61
(dp2614
g88
g89
ssg70
g2603
sg63
(lp2615
S':'
asbag56
(g77
g58
NtRp2616
(dp2617
g61
(dp2618
sg70
g2603
sg63
(lp2619
g56
(g57
g58
NtRp2620
(dp2621
g61
(dp2622
g69
I3
ssg70
g2616
sg63
(lp2623
S''
asbasbasbag56
(g72
g58
NtRp2624
(dp2625
g61
(dp2626
sg70
g2347
sg63
(lp2627
g56
(g77
g58
NtRp2628
(dp2629
g61
(dp2630
g81
g82
ssg70
g2624
sg63
(lp2631
S'REMOTE_ADDR'
p2632
asbag56
(g77
g58
NtRp2633
(dp2634
g61
(dp2635
g88
g89
ssg70
g2624
sg63
(lp2636
S':'
asbag56
(g77
g58
NtRp2637
(dp2638
g61
(dp2639
sg70
g2624
sg63
(lp2640
g56
(g57
g58
NtRp2641
(dp2642
g61
(dp2643
g69
I3
ssg70
g2637
sg63
(lp2644
g189
asbasbasbag56
(g72
g58
NtRp2645
(dp2646
g61
(dp2647
sg70
g2347
sg63
(lp2648
g56
(g77
g58
NtRp2649
(dp2650
g61
(dp2651
g81
g82
ssg70
g2645
sg63
(lp2652
S'REMOTE_PORT'
p2653
asbag56
(g77
g58
NtRp2654
(dp2655
g61
(dp2656
g88
g89
ssg70
g2645
sg63
(lp2657
S':'
asbag56
(g77
g58
NtRp2658
(dp2659
g61
(dp2660
sg70
g2645
sg63
(lp2661
g56
(g57
g58
NtRp2662
(dp2663
g61
(dp2664
g69
I3
ssg70
g2658
sg63
(lp2665
g1523
asbasbasbag56
(g72
g58
NtRp2666
(dp2667
g61
(dp2668
sg70
g2347
sg63
(lp2669
g56
(g77
g58
NtRp2670
(dp2671
g61
(dp2672
g81
g82
ssg70
g2666
sg63
(lp2673
S'REQUEST_METHOD'
p2674
asbag56
(g77
g58
NtRp2675
(dp2676
g61
(dp2677
g88
g89
ssg70
g2666
sg63
(lp2678
S':'
asbag56
(g77
g58
NtRp2679
(dp2680
g61
(dp2681
sg70
g2666
sg63
(lp2682
g56
(g57
g58
NtRp2683
(dp2684
g61
(dp2685
g69
I3
ssg70
g2679
sg63
(lp2686
g1545
asbasbasbag56
(g72
g58
NtRp2687
(dp2688
g61
(dp2689
sg70
g2347
sg63
(lp2690
g56
(g77
g58
NtRp2691
(dp2692
g61
(dp2693
g81
g82
ssg70
g2687
sg63
(lp2694
S'REQUEST_URI'
p2695
asbag56
(g77
g58
NtRp2696
(dp2697
g61
(dp2698
g88
g89
ssg70
g2687
sg63
(lp2699
S':'
asbag56
(g77
g58
NtRp2700
(dp2701
g61
(dp2702
sg70
g2687
sg63
(lp2703
g56
(g57
g58
NtRp2704
(dp2705
g61
(dp2706
g69
I3
ssg70
g2700
sg63
(lp2707
g1567
asbasbasbag56
(g72
g58
NtRp2708
(dp2709
g61
(dp2710
sg70
g2347
sg63
(lp2711
g56
(g77
g58
NtRp2712
(dp2713
g61
(dp2714
g81
g82
ssg70
g2708
sg63
(lp2715
S'SCRIPT_FILENAME'
p2716
asbag56
(g77
g58
NtRp2717
(dp2718
g61
(dp2719
g88
g89
ssg70
g2708
sg63
(lp2720
S':'
asbag56
(g77
g58
NtRp2721
(dp2722
g61
(dp2723
sg70
g2708
sg63
(lp2724
g56
(g57
g58
NtRp2725
(dp2726
g61
(dp2727
g69
I3
ssg70
g2721
sg63
(lp2728
g1589
asbasbasbag56
(g72
g58
NtRp2729
(dp2730
g61
(dp2731
sg70
g2347
sg63
(lp2732
g56
(g77
g58
NtRp2733
(dp2734
g61
(dp2735
g81
g82
ssg70
g2729
sg63
(lp2736
S'SCRIPT_NAME'
p2737
asbag56
(g77
g58
NtRp2738
(dp2739
g61
(dp2740
g88
g89
ssg70
g2729
sg63
(lp2741
S':'
asbag56
(g77
g58
NtRp2742
(dp2743
g61
(dp2744
sg70
g2729
sg63
(lp2745
g56
(g57
g58
NtRp2746
(dp2747
g61
(dp2748
g69
I3
ssg70
g2742
sg63
(lp2749
S''
asbasbasbag56
(g72
g58
NtRp2750
(dp2751
g61
(dp2752
sg70
g2347
sg63
(lp2753
g56
(g77
g58
NtRp2754
(dp2755
g61
(dp2756
g81
g82
ssg70
g2750
sg63
(lp2757
S'SERVER_ADDR'
p2758
asbag56
(g77
g58
NtRp2759
(dp2760
g61
(dp2761
g88
g89
ssg70
g2750
sg63
(lp2762
S':'
asbag56
(g77
g58
NtRp2763
(dp2764
g61
(dp2765
sg70
g2750
sg63
(lp2766
g56
(g57
g58
NtRp2767
(dp2768
g61
(dp2769
g69
I3
ssg70
g2763
sg63
(lp2770
g1632
asbasbasbag56
(g72
g58
NtRp2771
(dp2772
g61
(dp2773
sg70
g2347
sg63
(lp2774
g56
(g77
g58
NtRp2775
(dp2776
g61
(dp2777
g81
g82
ssg70
g2771
sg63
(lp2778
S'SERVER_ADMIN'
p2779
asbag56
(g77
g58
NtRp2780
(dp2781
g61
(dp2782
g88
g89
ssg70
g2771
sg63
(lp2783
S':'
asbag56
(g77
g58
NtRp2784
(dp2785
g61
(dp2786
sg70
g2771
sg63
(lp2787
g56
(g57
g58
NtRp2788
(dp2789
g61
(dp2790
g69
I3
ssg70
g2784
sg63
(lp2791
g1654
asbasbasbag56
(g72
g58
NtRp2792
(dp2793
g61
(dp2794
sg70
g2347
sg63
(lp2795
g56
(g77
g58
NtRp2796
(dp2797
g61
(dp2798
g81
g82
ssg70
g2792
sg63
(lp2799
S'SERVER_NAME'
p2800
asbag56
(g77
g58
NtRp2801
(dp2802
g61
(dp2803
g88
g89
ssg70
g2792
sg63
(lp2804
S':'
asbag56
(g77
g58
NtRp2805
(dp2806
g61
(dp2807
sg70
g2792
sg63
(lp2808
g56
(g57
g58
NtRp2809
(dp2810
g61
(dp2811
g69
I3
ssg70
g2805
sg63
(lp2812
g1676
asbasbasbag56
(g72
g58
NtRp2813
(dp2814
g61
(dp2815
sg70
g2347
sg63
(lp2816
g56
(g77
g58
NtRp2817
(dp2818
g61
(dp2819
g81
g82
ssg70
g2813
sg63
(lp2820
S'SERVER_PORT'
p2821
asbag56
(g77
g58
NtRp2822
(dp2823
g61
(dp2824
g88
g89
ssg70
g2813
sg63
(lp2825
S':'
asbag56
(g77
g58
NtRp2826
(dp2827
g61
(dp2828
sg70
g2813
sg63
(lp2829
g56
(g57
g58
NtRp2830
(dp2831
g61
(dp2832
g69
I3
ssg70
g2826
sg63
(lp2833
g1698
asbasbasbag56
(g72
g58
NtRp2834
(dp2835
g61
(dp2836
sg70
g2347
sg63
(lp2837
g56
(g77
g58
NtRp2838
(dp2839
g61
(dp2840
g81
g82
ssg70
g2834
sg63
(lp2841
S'SERVER_PROTOCOL'
p2842
asbag56
(g77
g58
NtRp2843
(dp2844
g61
(dp2845
g88
g89
ssg70
g2834
sg63
(lp2846
S':'
asbag56
(g77
g58
NtRp2847
(dp2848
g61
(dp2849
sg70
g2834
sg63
(lp2850
g56
(g57
g58
NtRp2851
(dp2852
g61
(dp2853
g69
I3
ssg70
g2847
sg63
(lp2854
g1720
asbasbasbag56
(g72
g58
NtRp2855
(dp2856
g61
(dp2857
sg70
g2347
sg63
(lp2858
g56
(g77
g58
NtRp2859
(dp2860
g61
(dp2861
g81
g82
ssg70
g2855
sg63
(lp2862
S'SERVER_SIGNATURE'
p2863
asbag56
(g77
g58
NtRp2864
(dp2865
g61
(dp2866
g88
g89
ssg70
g2855
sg63
(lp2867
S':'
asbag56
(g77
g58
NtRp2868
(dp2869
g61
(dp2870
sg70
g2855
sg63
(lp2871
g56
(g57
g58
NtRp2872
(dp2873
g61
(dp2874
g69
I3
ssg70
g2868
sg63
(lp2875
g1742
asbasbasbag56
(g72
g58
NtRp2876
(dp2877
g61
(dp2878
sg70
g2347
sg63
(lp2879
g56
(g77
g58
NtRp2880
(dp2881
g61
(dp2882
g81
g82
ssg70
g2876
sg63
(lp2883
S'SERVER_SOFTWARE'
p2884
asbag56
(g77
g58
NtRp2885
(dp2886
g61
(dp2887
g88
g89
ssg70
g2876
sg63
(lp2888
S':'
asbag56
(g77
g58
NtRp2889
(dp2890
g61
(dp2891
sg70
g2876
sg63
(lp2892
g56
(g57
g58
NtRp2893
(dp2894
g61
(dp2895
g69
I3
ssg70
g2889
sg63
(lp2896
g1764
asbasbasbag56
(g72
g58
NtRp2897
(dp2898
g61
(dp2899
sg70
g2347
sg63
(lp2900
g56
(g77
g58
NtRp2901
(dp2902
g61
(dp2903
g81
g82
ssg70
g2897
sg63
(lp2904
S'SSL_TLS_SNI'
p2905
asbag56
(g77
g58
NtRp2906
(dp2907
g61
(dp2908
g88
g89
ssg70
g2897
sg63
(lp2909
S':'
asbag56
(g77
g58
NtRp2910
(dp2911
g61
(dp2912
sg70
g2897
sg63
(lp2913
g56
(g57
g58
NtRp2914
(dp2915
g61
(dp2916
g69
I3
ssg70
g2910
sg63
(lp2917
g1786
asbasbasbag56
(g72
g58
NtRp2918
(dp2919
g61
(dp2920
sg70
g2347
sg63
(lp2921
g56
(g77
g58
NtRp2922
(dp2923
g61
(dp2924
g81
g82
ssg70
g2918
sg63
(lp2925
S'mod_wsgi.application_group'
p2926
asbag56
(g77
g58
NtRp2927
(dp2928
g61
(dp2929
g88
g89
ssg70
g2918
sg63
(lp2930
S':'
asbag56
(g77
g58
NtRp2931
(dp2932
g61
(dp2933
sg70
g2918
sg63
(lp2934
g56
(g57
g58
NtRp2935
(dp2936
g61
(dp2937
g69
I3
ssg70
g2931
sg63
(lp2938
g1194
asbasbasbag56
(g72
g58
NtRp2939
(dp2940
g61
(dp2941
sg70
g2347
sg63
(lp2942
g56
(g77
g58
NtRp2943
(dp2944
g61
(dp2945
g81
g82
ssg70
g2939
sg63
(lp2946
S'mod_wsgi.callable_object'
p2947
asbag56
(g77
g58
NtRp2948
(dp2949
g61
(dp2950
g88
g89
ssg70
g2939
sg63
(lp2951
S':'
asbag56
(g77
g58
NtRp2952
(dp2953
g61
(dp2954
sg70
g2939
sg63
(lp2955
g56
(g57
g58
NtRp2956
(dp2957
g61
(dp2958
g69
I3
ssg70
g2952
sg63
(lp2959
g1216
asbasbasbag56
(g72
g58
NtRp2960
(dp2961
g61
(dp2962
sg70
g2347
sg63
(lp2963
g56
(g77
g58
NtRp2964
(dp2965
g61
(dp2966
g81
g82
ssg70
g2960
sg63
(lp2967
S'mod_wsgi.handler_script'
p2968
asbag56
(g77
g58
NtRp2969
(dp2970
g61
(dp2971
g88
g89
ssg70
g2960
sg63
(lp2972
S':'
asbag56
(g77
g58
NtRp2973
(dp2974
g61
(dp2975
sg70
g2960
sg63
(lp2976
g56
(g57
g58
NtRp2977
(dp2978
g61
(dp2979
g69
I3
ssg70
g2973
sg63
(lp2980
S''
asbasbasbag56
(g72
g58
NtRp2981
(dp2982
g61
(dp2983
sg70
g2347
sg63
(lp2984
g56
(g77
g58
NtRp2985
(dp2986
g61
(dp2987
g81
g82
ssg70
g2981
sg63
(lp2988
S'mod_wsgi.input_chunked'
p2989
asbag56
(g77
g58
NtRp2990
(dp2991
g61
(dp2992
g88
g89
ssg70
g2981
sg63
(lp2993
S':'
asbag56
(g77
g58
NtRp2994
(dp2995
g61
(dp2996
sg70
g2981
sg63
(lp2997
g56
(g57
g58
NtRp2998
(dp2999
g61
(dp3000
g69
I3
ssg70
g2994
sg63
(lp3001
S'0'
asbasbasbag56
(g72
g58
NtRp3002
(dp3003
g61
(dp3004
sg70
g2347
sg63
(lp3005
g56
(g77
g58
NtRp3006
(dp3007
g61
(dp3008
g81
g82
ssg70
g3002
sg63
(lp3009
S'mod_wsgi.listener_host'
p3010
asbag56
(g77
g58
NtRp3011
(dp3012
g61
(dp3013
g88
g89
ssg70
g3002
sg63
(lp3014
S':'
asbag56
(g77
g58
NtRp3015
(dp3016
g61
(dp3017
sg70
g3002
sg63
(lp3018
g56
(g57
g58
NtRp3019
(dp3020
g61
(dp3021
g69
I3
ssg70
g3015
sg63
(lp3022
S''
asbasbasbag56
(g72
g58
NtRp3023
(dp3024
g61
(dp3025
sg70
g2347
sg63
(lp3026
g56
(g77
g58
NtRp3027
(dp3028
g61
(dp3029
g81
g82
ssg70
g3023
sg63
(lp3030
S'mod_wsgi.listener_port'
p3031
asbag56
(g77
g58
NtRp3032
(dp3033
g61
(dp3034
g88
g89
ssg70
g3023
sg63
(lp3035
S':'
asbag56
(g77
g58
NtRp3036
(dp3037
g61
(dp3038
sg70
g3023
sg63
(lp3039
g56
(g57
g58
NtRp3040
(dp3041
g61
(dp3042
g69
I3
ssg70
g3036
sg63
(lp3043
g1301
asbasbasbag56
(g72
g58
NtRp3044
(dp3045
g61
(dp3046
sg70
g2347
sg63
(lp3047
g56
(g77
g58
NtRp3048
(dp3049
g61
(dp3050
g81
g82
ssg70
g3044
sg63
(lp3051
S'mod_wsgi.process_group'
p3052
asbag56
(g77
g58
NtRp3053
(dp3054
g61
(dp3055
g88
g89
ssg70
g3044
sg63
(lp3056
S':'
asbag56
(g77
g58
NtRp3057
(dp3058
g61
(dp3059
sg70
g3044
sg63
(lp3060
g56
(g57
g58
NtRp3061
(dp3062
g61
(dp3063
g69
I3
ssg70
g3057
sg63
(lp3064
g1323
asbasbasbag56
(g72
g58
NtRp3065
(dp3066
g61
(dp3067
sg70
g2347
sg63
(lp3068
g56
(g77
g58
NtRp3069
(dp3070
g61
(dp3071
g81
g82
ssg70
g3065
sg63
(lp3072
S'mod_wsgi.request_handler'
p3073
asbag56
(g77
g58
NtRp3074
(dp3075
g61
(dp3076
g88
g89
ssg70
g3065
sg63
(lp3077
S':'
asbag56
(g77
g58
NtRp3078
(dp3079
g61
(dp3080
sg70
g3065
sg63
(lp3081
g56
(g57
g58
NtRp3082
(dp3083
g61
(dp3084
g69
I3
ssg70
g3078
sg63
(lp3085
g1345
asbasbasbag56
(g72
g58
NtRp3086
(dp3087
g61
(dp3088
sg70
g2347
sg63
(lp3089
g56
(g77
g58
NtRp3090
(dp3091
g61
(dp3092
g81
g82
ssg70
g3086
sg63
(lp3093
S'mod_wsgi.script_reloading'
p3094
asbag56
(g77
g58
NtRp3095
(dp3096
g61
(dp3097
g88
g89
ssg70
g3086
sg63
(lp3098
S':'
asbag56
(g77
g58
NtRp3099
(dp3100
g61
(dp3101
sg70
g3086
sg63
(lp3102
g56
(g57
g58
NtRp3103
(dp3104
g61
(dp3105
g69
I3
ssg70
g3099
sg63
(lp3106
S'1'
asbasbasbag56
(g72
g58
NtRp3107
(dp3108
g61
(dp3109
sg70
g2347
sg63
(lp3110
g56
(g77
g58
NtRp3111
(dp3112
g61
(dp3113
g81
g82
ssg70
g3107
sg63
(lp3114
S'mod_wsgi.version'
p3115
asbag56
(g77
g58
NtRp3116
(dp3117
g61
(dp3118
g88
g89
ssg70
g3107
sg63
(lp3119
S':'
asbag56
(g77
g58
NtRp3120
(dp3121
g61
(dp3122
sg70
g3107
sg63
(lp3123
g56
(g57
g58
NtRp3124
(dp3125
g61
(dp3126
g69
I3
ssg70
g3120
sg63
(lp3127
g56
(g65
g58
NtRp3128
(dp3129
g61
(dp3130
g69
I2
ssg70
Nsg63
(lp3131
g56
(g72
g58
NtRp3132
(dp3133
g61
(dp3134
sg70
g3128
sg63
(lp3135
g56
(g77
g58
NtRp3136
(dp3137
g61
(dp3138
sg70
g3132
sg63
(lp3139
g56
(g57
g58
NtRp3140
(dp3141
g61
(dp3142
g69
I2
ssg70
g3136
sg63
(lp3143
S'3'
asbasbasbag56
(g72
g58
NtRp3144
(dp3145
g61
(dp3146
sg70
g3128
sg63
(lp3147
g56
(g77
g58
NtRp3148
(dp3149
g61
(dp3150
sg70
g3144
sg63
(lp3151
g56
(g57
g58
NtRp3152
(dp3153
g61
(dp3154
g69
I2
ssg70
g3148
sg63
(lp3155
S'3'
asbasbasbasbasbasbasbag56
(g72
g58
NtRp3156
(dp3157
g61
(dp3158
sg70
g2347
sg63
(lp3159
g56
(g77
g58
NtRp3160
(dp3161
g61
(dp3162
g81
g82
ssg70
g3156
sg63
(lp3163
S'wsgi.errors'
p3164
asbag56
(g77
g58
NtRp3165
(dp3166
g61
(dp3167
g88
g89
ssg70
g3156
sg63
(lp3168
S':'
asbag56
(g77
g58
NtRp3169
(dp3170
g61
(dp3171
sg70
g3156
sg63
(lp3172
g56
(g57
g58
NtRp3173
(dp3174
g61
(dp3175
g69
I3
ssg70
g3169
sg63
(lp3176
S'<mod_wsgi.Log object at 0xb9e00e80>'
p3177
asbasbasbag56
(g72
g58
NtRp3178
(dp3179
g61
(dp3180
sg70
g2347
sg63
(lp3181
g56
(g77
g58
NtRp3182
(dp3183
g61
(dp3184
g81
g82
ssg70
g3178
sg63
(lp3185
S'wsgi.file_wrapper'
p3186
asbag56
(g77
g58
NtRp3187
(dp3188
g61
(dp3189
g88
g89
ssg70
g3178
sg63
(lp3190
S':'
asbag56
(g77
g58
NtRp3191
(dp3192
g61
(dp3193
sg70
g3178
sg63
(lp3194
g56
(g57
g58
NtRp3195
(dp3196
g61
(dp3197
g69
I3
ssg70
g3191
sg63
(lp3198
S'<built-in method file_wrapper of mod_wsgi.Adapter object at 0xb9639650>'
p3199
asbasbasbag56
(g72
g58
NtRp3200
(dp3201
g61
(dp3202
sg70
g2347
sg63
(lp3203
g56
(g77
g58
NtRp3204
(dp3205
g61
(dp3206
g81
g82
ssg70
g3200
sg63
(lp3207
S'wsgi.input'
p3208
asbag56
(g77
g58
NtRp3209
(dp3210
g61
(dp3211
g88
g89
ssg70
g3200
sg63
(lp3212
S':'
asbag56
(g77
g58
NtRp3213
(dp3214
g61
(dp3215
sg70
g3200
sg63
(lp3216
g56
(g57
g58
NtRp3217
(dp3218
g61
(dp3219
g69
I3
ssg70
g3213
sg63
(lp3220
S'<cStringIO.StringO object at 0xba4304c0>'
p3221
asbasbasbag56
(g72
g58
NtRp3222
(dp3223
g61
(dp3224
sg70
g2347
sg63
(lp3225
g56
(g77
g58
NtRp3226
(dp3227
g61
(dp3228
g81
g82
ssg70
g3222
sg63
(lp3229
S'wsgi.multiprocess'
p3230
asbag56
(g77
g58
NtRp3231
(dp3232
g61
(dp3233
g88
g89
ssg70
g3222
sg63
(lp3234
S':'
asbag56
(g77
g58
NtRp3235
(dp3236
g61
(dp3237
sg70
g3222
sg63
(lp3238
g56
(g57
g58
NtRp3239
(dp3240
g61
(dp3241
g69
I3
ssg70
g3235
sg63
(lp3242
g99
asbasbasbag56
(g72
g58
NtRp3243
(dp3244
g61
(dp3245
sg70
g2347
sg63
(lp3246
g56
(g77
g58
NtRp3247
(dp3248
g61
(dp3249
g81
g82
ssg70
g3243
sg63
(lp3250
S'wsgi.multithread'
p3251
asbag56
(g77
g58
NtRp3252
(dp3253
g61
(dp3254
g88
g89
ssg70
g3243
sg63
(lp3255
S':'
asbag56
(g77
g58
NtRp3256
(dp3257
g61
(dp3258
sg70
g3243
sg63
(lp3259
g56
(g57
g58
NtRp3260
(dp3261
g61
(dp3262
g69
I3
ssg70
g3256
sg63
(lp3263
g1938
asbasbasbag56
(g72
g58
NtRp3264
(dp3265
g61
(dp3266
sg70
g2347
sg63
(lp3267
g56
(g77
g58
NtRp3268
(dp3269
g61
(dp3270
g81
g82
ssg70
g3264
sg63
(lp3271
S'wsgi.run_once'
p3272
asbag56
(g77
g58
NtRp3273
(dp3274
g61
(dp3275
g88
g89
ssg70
g3264
sg63
(lp3276
S':'
asbag56
(g77
g58
NtRp3277
(dp3278
g61
(dp3279
sg70
g3264
sg63
(lp3280
g56
(g57
g58
NtRp3281
(dp3282
g61
(dp3283
g69
I3
ssg70
g3277
sg63
(lp3284
g99
asbasbasbag56
(g72
g58
NtRp3285
(dp3286
g61
(dp3287
sg70
g2347
sg63
(lp3288
g56
(g77
g58
NtRp3289
(dp3290
g61
(dp3291
g81
g82
ssg70
g3285
sg63
(lp3292
S'wsgi.url_scheme'
p3293
asbag56
(g77
g58
NtRp3294
(dp3295
g61
(dp3296
g88
g89
ssg70
g3285
sg63
(lp3297
S':'
asbag56
(g77
g58
NtRp3298
(dp3299
g61
(dp3300
sg70
g3285
sg63
(lp3301
g56
(g57
g58
NtRp3302
(dp3303
g61
(dp3304
g69
I3
ssg70
g3298
sg63
(lp3305
g1981
asbasbasbag56
(g72
g58
NtRp3306
(dp3307
g61
(dp3308
sg70
g2347
sg63
(lp3309
g56
(g77
g58
NtRp3310
(dp3311
g61
(dp3312
g81
g82
ssg70
g3306
sg63
(lp3313
S'wsgi.version'
p3314
asbag56
(g77
g58
NtRp3315
(dp3316
g61
(dp3317
g88
g89
ssg70
g3306
sg63
(lp3318
S':'
asbag56
(g77
g58
NtRp3319
(dp3320
g61
(dp3321
sg70
g3306
sg63
(lp3322
g56
(g57
g58
NtRp3323
(dp3324
g61
(dp3325
g69
I3
ssg70
g3319
sg63
(lp3326
S'1'
asbasbasbasbasbasbasbasbasbasbasbasbasbsS'frames'
p3327
(lp3328
(dp3329
S'file'
p3330
S'/home/www-data/web2py/gluon/restricted.py'
p3331
sS'dump'
p3332
(dp3333
S'environment'
p3334
S"{'A': <class 'gluon.html.A'>, 'Auth': <class 'gluon.tools.Auth'>, 'B': <class 'gluon.html.B'>, 'BEAUTIFY': <class 'gluon.html.BEAUTIFY'>, 'BODY': <class 'gluon.html.BODY'>, 'BR': <class 'gluon.html.BR'>, 'BRAZILIAN_DATE': <gluon.validators.IS_DATE object>, 'BUTTON': <class 'gluon.html.BUTTON'>, 'CAT': <class 'gluon.html.CAT'>, 'CENTER': <class 'gluon.html.CENTER'>, ...}"
p3335
sS'ccode'
p3336
S'<code object <module> at 0xb9467800, file "/home...pplications/scrum/controllers/ticket.py", line 2>'
p3337
ssS'lnum'
p3338
I192
sS'lines'
p3339
(dp3340
I192
S'        exec ccode in environment'
p3341
sI193
S'    except HTTP:'
p3342
sI194
S'        raise'
p3343
sI195
S'    except Exception, error:'
p3344
sI196
S'        # XXX Show exception in Wing IDE if running in debugger'
p3345
sI187
S'    try:'
p3346
sI188
S'        if type(code) == types.CodeType:'
p3347
sI189
S'            ccode = code'
p3348
sI190
S'        else:'
p3349
sI191
S'            ccode = compile2(code,layer)'
p3350
ssS'call'
p3351
S"(code='# coding: utf8# tente algo como\\n@auth.requires(a...orm=form)\\n\\nresponse._vars=response._caller(novo)\\n', environment={'A': <class 'gluon.html.A'>, 'Auth': <class 'gluon.tools.Auth'>, 'B': <class 'gluon.html.B'>, 'BEAUTIFY': <class 'gluon.html.BEAUTIFY'>, 'BODY': <class 'gluon.html.BODY'>, 'BR': <class 'gluon.html.BR'>, 'BRAZILIAN_DATE': <gluon.validators.IS_DATE object>, 'BUTTON': <class 'gluon.html.BUTTON'>, 'CAT': <class 'gluon.html.CAT'>, 'CENTER': <class 'gluon.html.CENTER'>, ...}, layer='/home/www-data/web2py/applications/scrum/controllers/ticket.py')"
p3352
sS'func'
p3353
S'restricted'
p3354
sa(dp3355
g3330
S'/home/www-data/web2py/applications/scrum/controllers/ticket.py'
p3356
sg3332
(dp3357
sg3338
I16
sg3339
(dp3358
I5
S'                 (db.ticket.analista == auth.user_id)).select()'
p3359
sI6
S'    return dict(tickets=tickets)'
p3360
sI7
S''
sI8
S'@auth.requires(auth.has_membership(config.grupo_consultor))'
p3361
sI9
S'def novo():'
p3362
sI10
S"    response.view = 'simple_form.html'"
p3363
sI11
S'    db.ticket.consultor.default = auth.user_id'
p3364
sI12
S'    db.ticket.consultor.writable = False'
p3365
sI13
S'    form = crud.create(db.ticket)'
p3366
sI14
S'    return dict(form=form)'
p3367
ssg3351
S'()'
p3368
sg3353
S'<module>'
p3369
sa(dp3370
g3330
S'/home/www-data/web2py/gluon/globals.py'
p3371
sg3332
(dp3372
S'self'
p3373
S'undefined'
p3374
sS'f'
S'<function novo>'
p3375
ssg3338
I145
sg3339
(dp3376
I140
S'        self.meta = Storage()      # used by web2py_ajax.html'
p3377
sI141
S'        self.menu = []             # used by the default view layout'
p3378
sI142
S'        self.files = []            # used by web2py_ajax.html'
p3379
sI143
S'        self.generic_patterns = [] # patterns to allow generic views'
p3380
sI144
S'        self._vars = None'
p3381
sI145
S'        self._caller = lambda f: f()'
p3382
sI146
S'        self._view_environment = None'
p3383
sI147
S'        self._custom_commit = None'
p3384
sI148
S'        self._custom_rollback = None'
p3385
sI149
S''
ssg3351
S'(f=<function novo>)'
p3386
sg3353
S'<lambda>'
p3387
sa(dp3388
g3330
S'/home/www-data/web2py/gluon/tools.py'
p3389
sg3332
(dp3390
S'action'
p3391
S'<function novo>'
p3392
sS'a'
S'()'
p3393
sS'b'
g44
ssg3338
I2429
sg3339
(dp3394
I2432
S'            f.__dict__.update(action.__dict__)'
p3395
sI2433
S'            return f'
p3396
sI2424
S'                            self.settings.on_failed_authentication,'
p3397
sI2425
S"                            self.settings.login_url + '?_next='+urllib.quote(next))"
p3398
sI2426
S'                    else:'
p3399
sI2427
S'                        current.session.flash = self.messages.access_denied'
p3400
sI2428
S'                        return call_or_redirect(self.settings.on_failed_authorization)'
p3401
sI2429
S'                return action(*a, **b)'
p3402
sI2430
S'            f.__doc__ = action.__doc__'
p3403
sI2431
S'            f.__name__ = action.__name__'
p3404
ssg3351
S'(*a=(), **b={})'
p3405
sg3353
S'f'
sa(dp3406
g3330
S'/home/www-data/web2py/applications/scrum/controllers/ticket.py'
p3407
sg3332
(dp3408
S'global crud'
p3409
S'<gluon.tools.Crud object>'
p3410
sS'crud.create'
p3411
S'<bound method Crud.create of <gluon.tools.Crud object>>'
p3412
sS'global db'
p3413
S"<DAL {'auth_event': <Table {'origin': <gluon.dal... 'id': <gluon.dal.Field object at 0xb9e0de2c>}>}>"
p3414
sS'form'
p3415
g3374
sS'db.ticket'
p3416
S"<Table {'ALL': <gluon.dal.SQLALL object at 0xb95...>, 'id': <gluon.dal.Field object at 0xb95d4f4c>}>"
p3417
ssg3338
I13
sg3339
(dp3418
I5
S'                 (db.ticket.analista == auth.user_id)).select()'
p3419
sI6
S'    return dict(tickets=tickets)'
p3420
sI7
S''
sI8
S'@auth.requires(auth.has_membership(config.grupo_consultor))'
p3421
sI9
S'def novo():'
p3422
sI10
S"    response.view = 'simple_form.html'"
p3423
sI11
S'    db.ticket.consultor.default = auth.user_id'
p3424
sI12
S'    db.ticket.consultor.writable = False'
p3425
sI13
S'    form = crud.create(db.ticket)'
p3426
sI14
S'    return dict(form=form)'
p3427
ssg3351
S'()'
p3428
sg3353
S'novo'
p3429
sa(dp3430
g3330
S'/home/www-data/web2py/gluon/tools.py'
p3431
sg3332
(dp3432
S'formname'
p3433
S'<function <lambda>>'
p3434
ssg3338
I3136
sg3339
(dp3435
I3136
S'            formname=formname,'
p3436
sI3137
S'            )'
p3437
sI3138
S''
sI3139
S'    def read(self, table, record):'
p3438
sI3140
S'        if not (isinstance(table, self.db.Table) or table in self.db.tables) \\'
p3439
sI3131
S'            onvalidation=onvalidation,'
p3440
sI3132
S'            onaccept=onaccept,'
p3441
sI3133
S'            log=log,'
p3442
sI3134
S'            message=message,'
p3443
sI3135
S'            deletable=False,'
p3444
ssg3351
S"(self=<gluon.tools.Crud object>, table=<Table {'ALL': <gluon.dal.SQLALL object at 0xb95...>, 'id': <gluon.dal.Field object at 0xb95d4f4c>}>, next=None, onvalidation=<Storage {}>, onaccept=<Storage {'item_biv': [<function <lambda> at 0xb9a44a3c>, <function <lambda> at 0xb9a441b4>]}>, log='Registro %(id)s criado', message='Registro Criado', formname=<function <lambda>>)"
p3445
sg3353
S'create'
p3446
sa(dp3447
g3330
S'/home/www-data/web2py/gluon/tools.py'
p3448
sg3332
(dp3449
S'self'
p3450
S'<gluon.tools.Crud object>'
p3451
sS'separator'
p3452
g3374
sS'self.settings.label_separator'
p3453
S"': '"
p3454
sS'self.settings'
p3455
S"<Storage {'showid': False, 'delete_onaccept': <S...ble': True, 'create_onvalidation': <Storage {}>}>"
p3456
ssg3338
I3048
sg3339
(dp3457
I3043
S'            submit_button=self.messages.submit_button,'
p3458
sI3044
S'            delete_label=self.messages.delete_label,'
p3459
sI3045
S'            deletable=deletable,'
p3460
sI3046
S'            upload=self.settings.download_url,'
p3461
sI3047
S'            formstyle=self.settings.formstyle,'
p3462
sI3048
S'            separator=self.settings.label_separator'
p3463
sI3049
S'            )'
p3464
sI3050
S'        self.accepted = False'
p3465
sI3051
S'        self.deleted = False'
p3466
sI3052
S'        captcha = self.settings.update_captcha or \\'
p3467
ssg3351
S"(self=<gluon.tools.Crud object>, table=<Table {'ALL': <gluon.dal.SQLALL object at 0xb95...>, 'id': <gluon.dal.Field object at 0xb95d4f4c>}>, record=None, next=None, onvalidation=<Storage {}>, onaccept=<Storage {'item_biv': [<function <lambda> at 0xb9a44a3c>, <function <lambda> at 0xb9a441b4>]}>, ondelete=<Storage {}>, log='Registro %(id)s criado', message='Registro Criado', deletable=False, formname=<function <lambda>>)"
p3468
sg3353
S'update'
p3469
sa(dp3470
g3330
S'/home/www-data/web2py/gluon/sqlhtml.py'
p3471
sg3332
(dp3472
S'default'
p3473
S'None'
p3474
sS'self.widgets.options.widget'
p3475
S'<function widget>'
p3476
sS'self'
p3477
S'<gluon.sqlhtml.SQLFORM object>'
p3478
sS'inp'
p3479
S"'Carlos Jos\\xc3\\xa9 da Costa (1)'"
p3480
sS'self.widgets'
p3481
S"<Storage {'multiple': <class 'gluon.sqlhtml.Mult...ss 'gluon.sqlhtml.OptionsWidget'>, 'blob': None}>"
p3482
sS'field'
p3483
S'<gluon.dal.Field object>'
p3484
sS'self.widgets.options'
p3485
S"<class 'gluon.sqlhtml.OptionsWidget'>"
p3486
ssg3338
I830
sg3339
(dp3487
I832
S'                    inp = self.widgets.multiple.widget(field, default)'
p3488
sI833
S'                if fieldname in keepopts:'
p3489
sI834
S"                    inpval = TAG[''](*inp.components)"
p3490
sI825
S"                    inpval = 'checked'"
p3491
sI826
S'                else:'
p3492
sI827
S"                    inpval = ''"
p3493
sI828
S'            elif OptionsWidget.has_options(field):'
p3494
sI829
S'                if not field.requires.multiple:'
p3495
sI830
S'                    inp = self.widgets.options.widget(field, default)'
p3496
sI831
S'                else:'
p3497
ssg3351
S"(self=<gluon.sqlhtml.SQLFORM object>, table=<Table {'ALL': <gluon.dal.SQLALL object at 0xb95...>, 'id': <gluon.dal.Field object at 0xb95d4f4c>}>, record=None, deletable=False, linkto=None, upload='/scrum/default/download', fields=['id', 'chamado', 'consultor', 'analista', 'estado', 'patch', 'local_teste'], labels=None, col3={}, submit_button='Enviar', delete_label='Marque para deletar:', showid=False, readonly=False, comments=True, keepopts=[], ignore_rw=False, record_id=None, formstyle='table3cols', buttons=['submit'], separator=': ', **attributes={'hidden': {'_next': None}})"
p3498
sg3353
g49
sa(dp3499
g3330
S'/home/www-data/web2py/gluon/sqlhtml.py'
p3500
sg3332
(dp3501
S'].options'
p3502
g3374
sS'requires'
p3503
S'[<gluon.validators.IS_IN_DB object>]'
p3504
sS'options'
p3505
g3374
ssg3338
I218
sg3339
(dp3506
I213
S'        requires = field.requires'
p3507
sI214
S'        if not isinstance(requires, (list, tuple)):'
p3508
sI215
S'            requires = [requires]'
p3509
sI216
S'        if requires:'
p3510
sI217
S"            if hasattr(requires[0], 'options'):"
p3511
sI218
S'                options = requires[0].options()'
p3512
sI219
S'            else:'
p3513
sI220
S"                raise SyntaxError, 'widget cannot determine options of %s' \\"
p3514
sI221
S'                    % field'
p3515
sI222
S'        opts = [OPTION(v, _value=k) for (k, v) in options]'
p3516
ssg3351
S'(field=<gluon.dal.Field object>, value=None, **attributes={})'
p3517
sg3353
S'widget'
p3518
sa(dp3519
g3330
S'/home/www-data/web2py/gluon/validators.py'
p3520
sg3332
(dp3521
S'self'
p3522
S'<gluon.validators.IS_IN_DB object>'
p3523
sS'self.build_set'
p3524
S'<bound method IS_IN_DB.build_set of <gluon.validators.IS_IN_DB object>>'
p3525
ssg3338
I438
sg3339
(dp3526
I433
S'            self.labels = [self.label % dict(r) for r in records]'
p3527
sI434
S'        else:'
p3528
sI435
S'            self.labels = [self.label(r) for r in records]'
p3529
sI436
S''
sI437
S'    def options(self, zero=True):'
p3530
sI438
S'        self.build_set()'
p3531
sI439
S'        items = [(k, self.labels[i]) for (i, k) in enumerate(self.theset)]'
p3532
sI440
S'        if self.sort:'
p3533
sI441
S'            items.sort(options_sorter)'
p3534
sI442
S'        if zero and self.zero != None and not self.multiple:'
p3535
ssg3351
S'(self=<gluon.validators.IS_IN_DB object>, zero=True)'
p3536
sg3353
S'options'
p3537
sa(dp3538
g3330
S'/home/www-data/web2py/gluon/validators.py'
p3539
sg3332
(dp3540
S'self.dbset.select'
p3541
S'<bound method Set.select of <gluon.dal.Set object>>'
p3542
sS'self.dbset'
p3543
S'<gluon.dal.Set object>'
p3544
sS'fields'
p3545
S'[<gluon.dal.Field object>, <gluon.dal.Field object>]'
p3546
sS'self'
p3547
S'<gluon.validators.IS_IN_DB object>'
p3548
sS'records'
p3549
g3374
sS'dd'
p3550
S"{'cache': None, 'groupby': None, 'orderby': <gluon.dal.Expression object>}"
p3551
ssg3338
I426
sg3339
(dp3552
I421
S'            fields = [self.dbset.db[self.ktable][k] for k in self.fields]'
p3553
sI422
S"        if self.dbset.db._dbname != 'gae':"
p3554
sI423
S'            orderby = self.orderby or reduce(lambda a,b:a|b,fields)'
p3555
sI424
S'            groupby = self.groupby'
p3556
sI425
S'            dd = dict(orderby=orderby, groupby=groupby, cache=self.cache)'
p3557
sI426
S'            records = self.dbset.select(*fields, **dd)'
p3558
sI427
S'        else:'
p3559
sI428
S"            orderby = self.orderby or reduce(lambda a,b:a|b,(f for f in fields if not f.name=='id'))"
p3560
sI429
S'            dd = dict(orderby=orderby, cache=self.cache)'
p3561
sI430
S'            records = self.dbset.select(self.dbset.db[self.ktable].ALL, **dd)'
p3562
ssg3351
S'(self=<gluon.validators.IS_IN_DB object>)'
p3563
sg3353
S'build_set'
p3564
sa(dp3565
g3330
S'/home/www-data/web2py/gluon/dal.py'
p3566
sg3332
(dp3567
S'self.query'
p3568
S'<gluon.dal.Query object>'
p3569
sS'fields'
p3570
S'(<gluon.dal.Field object>, <gluon.dal.Field object>)'
p3571
sS'self'
p3572
S'<gluon.dal.Set object>'
p3573
sS'self.db._adapter.select'
p3574
S'<bound method SQLiteAdapter.select of <gluon.dal.SQLiteAdapter object>>'
p3575
sS'self.db._adapter'
p3576
S'<gluon.dal.SQLiteAdapter object>'
p3577
sS'attributes'
p3578
S"{'cache': None, 'groupby': None, 'orderby': <gluon.dal.Expression object>}"
p3579
sS'self.db'
p3580
S"<DAL {'auth_event': <Table {'origin': <gluon.dal... 'id': <gluon.dal.Field object at 0xb9e0de2c>}>}>"
p3581
ssg3338
I5481
sg3339
(dp3582
I5476
S''
sI5477
S'    def count(self,distinct=None):'
p3583
sI5478
S'        return self.db._adapter.count(self.query,distinct)'
p3584
sI5479
S''
sI5480
S'    def select(self, *fields, **attributes):'
p3585
sI5481
S'        return self.db._adapter.select(self.query,fields,attributes)'
p3586
sI5482
S''
sI5483
S'    def delete(self):'
p3587
sI5484
S'        tablename=self.db._adapter.get_table(self.query)'
p3588
sI5485
S'        self.delete_uploaded_files()'
p3589
ssg3351
S"(self=<gluon.dal.Set object>, *fields=(<gluon.dal.Field object>, <gluon.dal.Field object>), **attributes={'cache': None, 'groupby': None, 'orderby': <gluon.dal.Expression object>})"
p3590
sg3353
S'select'
p3591
sa(dp3592
g3330
S'/home/www-data/web2py/gluon/dal.py'
p3593
sg3332
(dp3594
S'self._select'
p3595
S'<bound method SQLiteAdapter._select of <gluon.dal.SQLiteAdapter object>>'
p3596
sS'fields'
p3597
S'(<gluon.dal.Field object>, <gluon.dal.Field object>)'
p3598
sS'self'
p3599
S'<gluon.dal.SQLiteAdapter object>'
p3600
sS'sql'
p3601
g3374
sS'query'
p3602
S'<gluon.dal.Query object>'
p3603
sS'attributes'
p3604
S"{'cache': None, 'groupby': None, 'orderby': <gluon.dal.Expression object>}"
p3605
ssg3338
I1179
sg3339
(dp3606
I1174
S'        Always returns a Rows object, even if it may be empty'
p3607
sI1175
S'        """'
p3608
sI1176
S'        def response(sql):'
p3609
sI1177
S'            self.execute(sql)'
p3610
sI1178
S'            return self.cursor.fetchall()'
p3611
sI1179
S'        sql = self._select(query,fields,attributes)'
p3612
sI1180
S"        if attributes.get('cache', None):"
p3613
sI1181
S"            (cache_model, time_expire) = attributes['cache']"
p3614
sI1182
S"            del attributes['cache']"
p3615
sI1183
S"            key = self.uri + '/' + sql"
p3616
ssg3351
S"(self=<gluon.dal.SQLiteAdapter object>, query=<gluon.dal.Query object>, fields=(<gluon.dal.Field object>, <gluon.dal.Field object>), attributes={'cache': None, 'groupby': None, 'orderby': <gluon.dal.Expression object>})"
p3617
sg3353
g3591
sa(dp3618
g3330
S'/home/www-data/web2py/gluon/dal.py'
p3619
sg3332
(dp3620
S'query'
p3621
S'<gluon.dal.Query object>'
p3622
sS'self'
p3623
S'<gluon.dal.SQLiteAdapter object>'
p3624
sS'sql_w'
p3625
g3374
sS'self.expand'
p3626
S'<bound method SQLiteAdapter.expand of <gluon.dal.SQLiteAdapter object>>'
p3627
ssg3338
I1086
sg3339
(dp3628
I1088
S"            sql_w = ''"
p3629
sI1089
S"        sql_o = ''"
p3630
sI1090
S"        sql_s = ''"
p3631
sI1081
S'        if len(tablenames) < 1:'
p3632
sI1082
S"            raise SyntaxError, 'Set: no tables selected'"
p3633
sI1083
S"        sql_f = ', '.join(map(self.expand,fields))"
p3634
sI1084
S"        self._colnames = [c.strip() for c in sql_f.split(', ')]"
p3635
sI1085
S'        if query:'
p3636
sI1086
S"            sql_w = ' WHERE ' + self.expand(query)"
p3637
sI1087
S'        else:'
p3638
ssg3351
S"(self=<gluon.dal.SQLiteAdapter object>, query=<gluon.dal.Query object>, fields=[<gluon.dal.Field object>, <gluon.dal.Field object>], attributes={'cache': None, 'groupby': None, 'orderby': <gluon.dal.Expression object>})"
p3639
sg3353
S'_select'
p3640
sa(dp3641
g3330
S'/home/www-data/web2py/gluon/dal.py'
p3642
sg3332
(dp3643
S'expression.op'
p3644
S'<bound method SQLiteAdapter.EQ of <gluon.dal.SQLiteAdapter object>>'
p3645
sS'expression'
p3646
S'<gluon.dal.Query object>'
p3647
sS'expression.first'
p3648
S'<gluon.dal.Field object>'
p3649
sS'expression.second'
p3650
S"<Table {'ALL': <gluon.dal.SQLALL object at 0xb9a...>, 'id': <gluon.dal.Field object at 0xb9a797ac>}>"
p3651
ssg3338
I945
sg3339
(dp3652
I940
S'    def expand(self,expression,field_type=None):'
p3653
sI941
S'        if isinstance(expression,Field):'
p3654
sI942
S'            return str(expression)'
p3655
sI943
S'        elif isinstance(expression, (Expression, Query)):'
p3656
sI944
S'            if not expression.second is None:'
p3657
sI945
S'                return expression.op(expression.first, expression.second)'
p3658
sI946
S'            elif not expression.first is None:'
p3659
sI947
S'                return expression.op(expression.first)'
p3660
sI948
S'            else:'
p3661
sI949
S'                return expression.op()'
p3662
ssg3351
S'(self=<gluon.dal.SQLiteAdapter object>, expression=<gluon.dal.Query object>, field_type=None)'
p3663
sg3353
S'expand'
p3664
sa(dp3665
g3330
S'/home/www-data/web2py/gluon/dal.py'
p3666
sg3332
(dp3667
S'first.type'
p3668
S"'id'"
p3669
sS'self'
p3670
S'<gluon.dal.SQLiteAdapter object>'
p3671
sS'first'
p3672
S'<gluon.dal.Field object>'
p3673
sS'second'
p3674
S"<Table {'ALL': <gluon.dal.SQLALL object at 0xb9a...>, 'id': <gluon.dal.Field object at 0xb9a797ac>}>"
p3675
sS'self.expand'
p3676
S'<bound method SQLiteAdapter.expand of <gluon.dal.SQLiteAdapter object>>'
p3677
ssg3338
I894
sg3339
(dp3678
I896
S'    def NE(self,first,second=None):'
p3679
sI897
S'        if second is None:'
p3680
sI898
S"            return '(%s IS NOT NULL)' % self.expand(first)"
p3681
sI889
S"        return '(%s LIKE %s)' % (self.expand(first),self.expand(key,'string'))"
p3682
sI890
S''
sI891
S'    def EQ(self,first,second=None):'
p3683
sI892
S'        if second is None:'
p3684
sI893
S"            return '(%s IS NULL)' % self.expand(first)"
p3685
sI894
S"        return '(%s = %s)' % (self.expand(first),self.expand(second,first.type))"
p3686
sI895
S''
ssg3351
S"(self=<gluon.dal.SQLiteAdapter object>, first=<gluon.dal.Field object>, second=<Table {'ALL': <gluon.dal.SQLALL object at 0xb9a...>, 'id': <gluon.dal.Field object at 0xb9a797ac>}>)"
p3687
sg3353
S'EQ'
p3688
sa(dp3689
g3330
S'/home/www-data/web2py/gluon/dal.py'
p3690
sg3332
(dp3691
S'field_type'
p3692
S"'id'"
p3693
sS'self'
p3694
S'<gluon.dal.SQLiteAdapter object>'
p3695
sS'expression'
p3696
S"<Table {'ALL': <gluon.dal.SQLALL object at 0xb9a...>, 'id': <gluon.dal.Field object at 0xb9a797ac>}>"
p3697
sS'self.represent'
p3698
S'<bound method SQLiteAdapter.represent of <gluon.dal.SQLiteAdapter object>>'
p3699
ssg3338
I951
sg3339
(dp3700
I946
S'            elif not expression.first is None:'
p3701
sI947
S'                return expression.op(expression.first)'
p3702
sI948
S'            else:'
p3703
sI949
S'                return expression.op()'
p3704
sI950
S'        elif field_type:'
p3705
sI951
S'            return self.represent(expression,field_type)'
p3706
sI952
S'        elif isinstance(expression,(list,tuple)):'
p3707
sI953
S"            return ','.join([self.represent(item,field_type) for item in expression])"
p3708
sI954
S'        else:'
p3709
sI955
S'            return str(expression)'
p3710
ssg3351
S"(self=<gluon.dal.SQLiteAdapter object>, expression=<Table {'ALL': <gluon.dal.SQLALL object at 0xb9a...>, 'id': <gluon.dal.Field object at 0xb9a797ac>}>, field_type='id')"
p3711
sg3353
g3664
sa(dp3712
g3330
S'/home/www-data/web2py/gluon/dal.py'
p3713
sg3332
(dp3714
S'builtinstr'
p3715
S"<type 'str'>"
p3716
sS'builtinint'
p3717
S"<type 'int'>"
p3718
sS'obj'
p3719
S"<Table {'ALL': <gluon.dal.SQLALL object at 0xb9a...>, 'id': <gluon.dal.Field object at 0xb9a797ac>}>"
p3720
ssg3338
I1291
sg3339
(dp3721
I1286
S"            if obj and not str(obj)[:1].upper() in ['F', '0']:"
p3722
sI1287
S'                return "\'T\'"'
p3723
sI1288
S'            else:'
p3724
sI1289
S'                return "\'F\'"'
p3725
sI1290
S"        if fieldtype == 'id' or fieldtype == 'integer':"
p3726
sI1291
S'            return str(int(obj))'
p3727
sI1292
S"        if fieldtype.startswith('decimal'):"
p3728
sI1293
S'            return str(obj)'
p3729
sI1294
S"        elif fieldtype.startswith('reference'): # reference"
p3730
sI1295
S"            if fieldtype.find('.')>0:"
p3731
ssg3351
S"(self=<gluon.dal.SQLiteAdapter object>, obj=<Table {'ALL': <gluon.dal.SQLALL object at 0xb9a...>, 'id': <gluon.dal.Field object at 0xb9a797ac>}>, fieldtype='id')"
p3732
sg3353
S'represent'
p3733
sasS'pyver'
p3734
S'Python 2.7.1+: /usr/bin/python'
p3735
sS'session'
p3736
g56
(g57
g58
NtRp3737
(dp3738
g61
(dp3739
sg63
(lp3740
g56
(g65
g58
NtRp3741
(dp3742
g61
(dp3743
g69
I5
ssg70
Nsg63
(lp3744
g56
(g72
g58
NtRp3745
(dp3746
g61
(dp3747
sg70
g3741
sg63
(lp3748
g56
(g77
g58
NtRp3749
(dp3750
g61
(dp3751
g81
g82
ssg70
g3745
sg63
(lp3752
S'auth'
p3753
asbag56
(g77
g58
NtRp3754
(dp3755
g61
(dp3756
g88
g89
ssg70
g3745
sg63
(lp3757
S':'
asbag56
(g77
g58
NtRp3758
(dp3759
g61
(dp3760
sg70
g3745
sg63
(lp3761
g56
(g57
g58
NtRp3762
(dp3763
g61
(dp3764
g69
I5
ssg70
g3758
sg63
(lp3765
g56
(g65
g58
NtRp3766
(dp3767
g61
(dp3768
g69
I4
ssg70
Nsg63
(lp3769
g56
(g72
g58
NtRp3770
(dp3771
g61
(dp3772
sg70
g3766
sg63
(lp3773
g56
(g77
g58
NtRp3774
(dp3775
g61
(dp3776
g81
g82
ssg70
g3770
sg63
(lp3777
S'expiration'
p3778
asbag56
(g77
g58
NtRp3779
(dp3780
g61
(dp3781
g88
g89
ssg70
g3770
sg63
(lp3782
S':'
asbag56
(g77
g58
NtRp3783
(dp3784
g61
(dp3785
sg70
g3770
sg63
(lp3786
g56
(g57
g58
NtRp3787
(dp3788
g61
(dp3789
g69
I4
ssg70
g3783
sg63
(lp3790
S'3600'
p3791
asbasbasbag56
(g72
g58
NtRp3792
(dp3793
g61
(dp3794
sg70
g3766
sg63
(lp3795
g56
(g77
g58
NtRp3796
(dp3797
g61
(dp3798
g81
g82
ssg70
g3792
sg63
(lp3799
S'hmac_key'
p3800
asbag56
(g77
g58
NtRp3801
(dp3802
g61
(dp3803
g88
g89
ssg70
g3792
sg63
(lp3804
S':'
asbag56
(g77
g58
NtRp3805
(dp3806
g61
(dp3807
sg70
g3792
sg63
(lp3808
g56
(g57
g58
NtRp3809
(dp3810
g61
(dp3811
g69
I4
ssg70
g3805
sg63
(lp3812
S'c18b391f-62d1-4a51-8b2b-1e809e4c900d'
p3813
asbasbasbag56
(g72
g58
NtRp3814
(dp3815
g61
(dp3816
sg70
g3766
sg63
(lp3817
g56
(g77
g58
NtRp3818
(dp3819
g61
(dp3820
g81
g82
ssg70
g3814
sg63
(lp3821
S'last_visit'
p3822
asbag56
(g77
g58
NtRp3823
(dp3824
g61
(dp3825
g88
g89
ssg70
g3814
sg63
(lp3826
S':'
asbag56
(g77
g58
NtRp3827
(dp3828
g61
(dp3829
sg70
g3814
sg63
(lp3830
g56
(g57
g58
NtRp3831
(dp3832
g61
(dp3833
g69
I4
ssg70
g3827
sg63
(lp3834
S'datetime.datetime(2011, 9, 8, 16, 30, 40, 405720)'
p3835
asbasbasbag56
(g72
g58
NtRp3836
(dp3837
g61
(dp3838
sg70
g3766
sg63
(lp3839
g56
(g77
g58
NtRp3840
(dp3841
g61
(dp3842
g81
g82
ssg70
g3836
sg63
(lp3843
S'user'
p3844
asbag56
(g77
g58
NtRp3845
(dp3846
g61
(dp3847
g88
g89
ssg70
g3836
sg63
(lp3848
S':'
asbag56
(g77
g58
NtRp3849
(dp3850
g61
(dp3851
sg70
g3836
sg63
(lp3852
g56
(g57
g58
NtRp3853
(dp3854
g61
(dp3855
g69
I4
ssg70
g3849
sg63
(lp3856
g56
(g65
g58
NtRp3857
(dp3858
g61
(dp3859
g69
I3
ssg70
Nsg63
(lp3860
g56
(g72
g58
NtRp3861
(dp3862
g61
(dp3863
sg70
g3857
sg63
(lp3864
g56
(g77
g58
NtRp3865
(dp3866
g61
(dp3867
g81
g82
ssg70
g3861
sg63
(lp3868
S'email'
p3869
asbag56
(g77
g58
NtRp3870
(dp3871
g61
(dp3872
g88
g89
ssg70
g3861
sg63
(lp3873
S':'
asbag56
(g77
g58
NtRp3874
(dp3875
g61
(dp3876
sg70
g3861
sg63
(lp3877
g56
(g57
g58
NtRp3878
(dp3879
g61
(dp3880
g69
I3
ssg70
g3874
sg63
(lp3881
S'carlos.mg@vilesoft.com.br'
p3882
asbasbasbag56
(g72
g58
NtRp3883
(dp3884
g61
(dp3885
sg70
g3857
sg63
(lp3886
g56
(g77
g58
NtRp3887
(dp3888
g61
(dp3889
g81
g82
ssg70
g3883
sg63
(lp3890
S'first_name'
p3891
asbag56
(g77
g58
NtRp3892
(dp3893
g61
(dp3894
g88
g89
ssg70
g3883
sg63
(lp3895
S':'
asbag56
(g77
g58
NtRp3896
(dp3897
g61
(dp3898
sg70
g3883
sg63
(lp3899
g56
(g57
g58
NtRp3900
(dp3901
g61
(dp3902
g69
I3
ssg70
g3896
sg63
(lp3903
S'Carlos Jos\xc3\xa9'
p3904
asbasbasbag56
(g72
g58
NtRp3905
(dp3906
g61
(dp3907
sg70
g3857
sg63
(lp3908
g56
(g77
g58
NtRp3909
(dp3910
g61
(dp3911
g81
g82
ssg70
g3905
sg63
(lp3912
S'id'
p3913
asbag56
(g77
g58
NtRp3914
(dp3915
g61
(dp3916
g88
g89
ssg70
g3905
sg63
(lp3917
S':'
asbag56
(g77
g58
NtRp3918
(dp3919
g61
(dp3920
sg70
g3905
sg63
(lp3921
g56
(g57
g58
NtRp3922
(dp3923
g61
(dp3924
g69
I3
ssg70
g3918
sg63
(lp3925
S'1'
asbasbasbag56
(g72
g58
NtRp3926
(dp3927
g61
(dp3928
sg70
g3857
sg63
(lp3929
g56
(g77
g58
NtRp3930
(dp3931
g61
(dp3932
g81
g82
ssg70
g3926
sg63
(lp3933
S'last_name'
p3934
asbag56
(g77
g58
NtRp3935
(dp3936
g61
(dp3937
g88
g89
ssg70
g3926
sg63
(lp3938
S':'
asbag56
(g77
g58
NtRp3939
(dp3940
g61
(dp3941
sg70
g3926
sg63
(lp3942
g56
(g57
g58
NtRp3943
(dp3944
g61
(dp3945
g69
I3
ssg70
g3939
sg63
(lp3946
S'da Costa'
p3947
asbasbasbag56
(g72
g58
NtRp3948
(dp3949
g61
(dp3950
sg70
g3857
sg63
(lp3951
g56
(g77
g58
NtRp3952
(dp3953
g61
(dp3954
g81
g82
ssg70
g3948
sg63
(lp3955
S'password'
p3956
asbag56
(g77
g58
NtRp3957
(dp3958
g61
(dp3959
g88
g89
ssg70
g3948
sg63
(lp3960
S':'
asbag56
(g77
g58
NtRp3961
(dp3962
g61
(dp3963
sg70
g3948
sg63
(lp3964
g56
(g57
g58
NtRp3965
(dp3966
g61
(dp3967
g69
I3
ssg70
g3961
sg63
(lp3968
S'00a7a128f71552b063e36943370dd0944d5adb4000c6382d33eb3e1a93dc679cb99beb47e3003d318803f96ef839a18a379eae2e2bb917ca3c52c4e45231b331'
p3969
asbasbasbag56
(g72
g58
NtRp3970
(dp3971
g61
(dp3972
sg70
g3857
sg63
(lp3973
g56
(g77
g58
NtRp3974
(dp3975
g61
(dp3976
g81
g82
ssg70
g3970
sg63
(lp3977
S'registration_key'
p3978
asbag56
(g77
g58
NtRp3979
(dp3980
g61
(dp3981
g88
g89
ssg70
g3970
sg63
(lp3982
S':'
asbag56
(g77
g58
NtRp3983
(dp3984
g61
(dp3985
sg70
g3970
sg63
(lp3986
g56
(g57
g58
NtRp3987
(dp3988
g61
(dp3989
g69
I3
ssg70
g3983
sg63
(lp3990
S''
asbasbasbag56
(g72
g58
NtRp3991
(dp3992
g61
(dp3993
sg70
g3857
sg63
(lp3994
g56
(g77
g58
NtRp3995
(dp3996
g61
(dp3997
g81
g82
ssg70
g3991
sg63
(lp3998
S'reset_password_key'
p3999
asbag56
(g77
g58
NtRp4000
(dp4001
g61
(dp4002
g88
g89
ssg70
g3991
sg63
(lp4003
S':'
asbag56
(g77
g58
NtRp4004
(dp4005
g61
(dp4006
sg70
g3991
sg63
(lp4007
g56
(g57
g58
NtRp4008
(dp4009
g61
(dp4010
g69
I3
ssg70
g4004
sg63
(lp4011
S''
asbasbasbasbasbasbasbasbasbasbasbag56
(g72
g58
NtRp4012
(dp4013
g61
(dp4014
sg70
g3741
sg63
(lp4015
g56
(g77
g58
NtRp4016
(dp4017
g61
(dp4018
g81
g82
ssg70
g4012
sg63
(lp4019
S'last_query'
p4020
asbag56
(g77
g58
NtRp4021
(dp4022
g61
(dp4023
g88
g89
ssg70
g4012
sg63
(lp4024
S':'
asbag56
(g77
g58
NtRp4025
(dp4026
g61
(dp4027
sg70
g4012
sg63
(lp4028
g56
(g57
g58
NtRp4029
(dp4030
g61
(dp4031
g69
I5
ssg70
g4025
sg63
(lp4032
S'db.auth_user.id>0'
p4033
asbasbasbasbasbsS'etype'
p4034
S"<type 'exceptions.TypeError'>"
p4035
sS'date'
p4036
S'Thu Sep  8 16:30:40 2011'
p4037
sS'response'
p4038
g56
(g57
g58
NtRp4039
(dp4040
g61
(dp4041
sg63
(lp4042
g56
(g65
g58
NtRp4043
(dp4044
g61
(dp4045
g69
I5
ssg70
Nsg63
(lp4046
g56
(g72
g58
NtRp4047
(dp4048
g61
(dp4049
sg70
g4043
sg63
(lp4050
g56
(g77
g58
NtRp4051
(dp4052
g61
(dp4053
g81
g82
ssg70
g4047
sg63
(lp4054
g154
asbag56
(g77
g58
NtRp4055
(dp4056
g61
(dp4057
g88
g89
ssg70
g4047
sg63
(lp4058
S':'
asbag56
(g77
g58
NtRp4059
(dp4060
g61
(dp4061
sg70
g4047
sg63
(lp4062
g56
(g57
g58
NtRp4063
(dp4064
g61
(dp4065
g69
I5
ssg70
g4059
sg63
(lp4066
S'<cStringIO.StringO object at 0xb93fb3e0>'
p4067
asbasbasbag56
(g72
g58
NtRp4068
(dp4069
g61
(dp4070
sg70
g4043
sg63
(lp4071
g56
(g77
g58
NtRp4072
(dp4073
g61
(dp4074
g81
g82
ssg70
g4068
sg63
(lp4075
g220
asbag56
(g77
g58
NtRp4076
(dp4077
g61
(dp4078
g88
g89
ssg70
g4068
sg63
(lp4079
S':'
asbag56
(g77
g58
NtRp4080
(dp4081
g61
(dp4082
sg70
g4068
sg63
(lp4083
g56
(g57
g58
NtRp4084
(dp4085
g61
(dp4086
g69
I5
ssg70
g4080
sg63
(lp4087
g56
(g65
g58
NtRp4088
(dp4089
g61
(dp4090
g69
I4
ssg70
Nsg63
(lp4091
g56
(g72
g58
NtRp4092
(dp4093
g61
(dp4094
sg70
g4088
sg63
(lp4095
g56
(g77
g58
NtRp4096
(dp4097
g61
(dp4098
g81
g82
ssg70
g4092
sg63
(lp4099
S'session_id_scrum'
p4100
asbag56
(g77
g58
NtRp4101
(dp4102
g61
(dp4103
g88
g89
ssg70
g4092
sg63
(lp4104
S':'
asbag56
(g77
g58
NtRp4105
(dp4106
g61
(dp4107
sg70
g4092
sg63
(lp4108
g56
(g57
g58
NtRp4109
(dp4110
g61
(dp4111
g69
I4
ssg70
g4105
sg63
(lp4112
g56
(g65
g58
NtRp4113
(dp4114
g61
(dp4115
g69
I3
ssg70
Nsg63
(lp4116
g56
(g72
g58
NtRp4117
(dp4118
g61
(dp4119
sg70
g4113
sg63
(lp4120
g56
(g77
g58
NtRp4121
(dp4122
g61
(dp4123
g81
g82
ssg70
g4117
sg63
(lp4124
g270
asbag56
(g77
g58
NtRp4125
(dp4126
g61
(dp4127
g88
g89
ssg70
g4117
sg63
(lp4128
S':'
asbag56
(g77
g58
NtRp4129
(dp4130
g61
(dp4131
sg70
g4117
sg63
(lp4132
g56
(g57
g58
NtRp4133
(dp4134
g61
(dp4135
g69
I3
ssg70
g4129
sg63
(lp4136
S''
asbasbasbag56
(g72
g58
NtRp4137
(dp4138
g61
(dp4139
sg70
g4113
sg63
(lp4140
g56
(g77
g58
NtRp4141
(dp4142
g61
(dp4143
g81
g82
ssg70
g4137
sg63
(lp4144
g291
asbag56
(g77
g58
NtRp4145
(dp4146
g61
(dp4147
g88
g89
ssg70
g4137
sg63
(lp4148
S':'
asbag56
(g77
g58
NtRp4149
(dp4150
g61
(dp4151
sg70
g4137
sg63
(lp4152
g56
(g57
g58
NtRp4153
(dp4154
g61
(dp4155
g69
I3
ssg70
g4149
sg63
(lp4156
S''
asbasbasbag56
(g72
g58
NtRp4157
(dp4158
g61
(dp4159
sg70
g4113
sg63
(lp4160
g56
(g77
g58
NtRp4161
(dp4162
g61
(dp4163
g81
g82
ssg70
g4157
sg63
(lp4164
g312
asbag56
(g77
g58
NtRp4165
(dp4166
g61
(dp4167
g88
g89
ssg70
g4157
sg63
(lp4168
S':'
asbag56
(g77
g58
NtRp4169
(dp4170
g61
(dp4171
sg70
g4157
sg63
(lp4172
g56
(g57
g58
NtRp4173
(dp4174
g61
(dp4175
g69
I3
ssg70
g4169
sg63
(lp4176
S''
asbasbasbag56
(g72
g58
NtRp4177
(dp4178
g61
(dp4179
sg70
g4113
sg63
(lp4180
g56
(g77
g58
NtRp4181
(dp4182
g61
(dp4183
g81
g82
ssg70
g4177
sg63
(lp4184
g333
asbag56
(g77
g58
NtRp4185
(dp4186
g61
(dp4187
g88
g89
ssg70
g4177
sg63
(lp4188
S':'
asbag56
(g77
g58
NtRp4189
(dp4190
g61
(dp4191
sg70
g4177
sg63
(lp4192
g56
(g57
g58
NtRp4193
(dp4194
g61
(dp4195
g69
I3
ssg70
g4189
sg63
(lp4196
S''
asbasbasbag56
(g72
g58
NtRp4197
(dp4198
g61
(dp4199
sg70
g4113
sg63
(lp4200
g56
(g77
g58
NtRp4201
(dp4202
g61
(dp4203
g81
g82
ssg70
g4197
sg63
(lp4204
g354
asbag56
(g77
g58
NtRp4205
(dp4206
g61
(dp4207
g88
g89
ssg70
g4197
sg63
(lp4208
S':'
asbag56
(g77
g58
NtRp4209
(dp4210
g61
(dp4211
sg70
g4197
sg63
(lp4212
g56
(g57
g58
NtRp4213
(dp4214
g61
(dp4215
g69
I3
ssg70
g4209
sg63
(lp4216
S''
asbasbasbag56
(g72
g58
NtRp4217
(dp4218
g61
(dp4219
sg70
g4113
sg63
(lp4220
g56
(g77
g58
NtRp4221
(dp4222
g61
(dp4223
g81
g82
ssg70
g4217
sg63
(lp4224
g375
asbag56
(g77
g58
NtRp4225
(dp4226
g61
(dp4227
g88
g89
ssg70
g4217
sg63
(lp4228
S':'
asbag56
(g77
g58
NtRp4229
(dp4230
g61
(dp4231
sg70
g4217
sg63
(lp4232
g56
(g57
g58
NtRp4233
(dp4234
g61
(dp4235
g69
I3
ssg70
g4229
sg63
(lp4236
S'/'
asbasbasbag56
(g72
g58
NtRp4237
(dp4238
g61
(dp4239
sg70
g4113
sg63
(lp4240
g56
(g77
g58
NtRp4241
(dp4242
g61
(dp4243
g81
g82
ssg70
g4237
sg63
(lp4244
g396
asbag56
(g77
g58
NtRp4245
(dp4246
g61
(dp4247
g88
g89
ssg70
g4237
sg63
(lp4248
S':'
asbag56
(g77
g58
NtRp4249
(dp4250
g61
(dp4251
sg70
g4237
sg63
(lp4252
g56
(g57
g58
NtRp4253
(dp4254
g61
(dp4255
g69
I3
ssg70
g4249
sg63
(lp4256
S''
asbasbasbag56
(g72
g58
NtRp4257
(dp4258
g61
(dp4259
sg70
g4113
sg63
(lp4260
g56
(g77
g58
NtRp4261
(dp4262
g61
(dp4263
g81
g82
ssg70
g4257
sg63
(lp4264
g417
asbag56
(g77
g58
NtRp4265
(dp4266
g61
(dp4267
g88
g89
ssg70
g4257
sg63
(lp4268
S':'
asbag56
(g77
g58
NtRp4269
(dp4270
g61
(dp4271
sg70
g4257
sg63
(lp4272
g56
(g57
g58
NtRp4273
(dp4274
g61
(dp4275
g69
I3
ssg70
g4269
sg63
(lp4276
S''
asbasbasbasbasbasbasbasbasbasbasbag56
(g72
g58
NtRp4277
(dp4278
g61
(dp4279
sg70
g4043
sg63
(lp4280
g56
(g77
g58
NtRp4281
(dp4282
g61
(dp4283
g81
g82
ssg70
g4277
sg63
(lp4284
S'files'
p4285
asbag56
(g77
g58
NtRp4286
(dp4287
g61
(dp4288
g88
g89
ssg70
g4277
sg63
(lp4289
S':'
asbag56
(g77
g58
NtRp4290
(dp4291
g61
(dp4292
sg70
g4277
sg63
(lp4293
g56
(g57
g58
NtRp4294
(dp4295
g61
(dp4296
g69
I5
ssg70
g4290
sg63
(lp4297
g56
(g65
g58
NtRp4298
(dp4299
g61
(dp4300
g69
I4
ssg70
Nsg63
(lp4301
sbasbasbasbag56
(g72
g58
NtRp4302
(dp4303
g61
(dp4304
sg70
g4043
sg63
(lp4305
g56
(g77
g58
NtRp4306
(dp4307
g61
(dp4308
g81
g82
ssg70
g4302
sg63
(lp4309
S'flash'
p4310
asbag56
(g77
g58
NtRp4311
(dp4312
g61
(dp4313
g88
g89
ssg70
g4302
sg63
(lp4314
S':'
asbag56
(g77
g58
NtRp4315
(dp4316
g61
(dp4317
sg70
g4302
sg63
(lp4318
g56
(g57
g58
NtRp4319
(dp4320
g61
(dp4321
g69
I5
ssg70
g4315
sg63
(lp4322
S''
asbasbasbag56
(g72
g58
NtRp4323
(dp4324
g61
(dp4325
sg70
g4043
sg63
(lp4326
g56
(g77
g58
NtRp4327
(dp4328
g61
(dp4329
g81
g82
ssg70
g4323
sg63
(lp4330
S'generic_patterns'
p4331
asbag56
(g77
g58
NtRp4332
(dp4333
g61
(dp4334
g88
g89
ssg70
g4323
sg63
(lp4335
S':'
asbag56
(g77
g58
NtRp4336
(dp4337
g61
(dp4338
sg70
g4323
sg63
(lp4339
g56
(g57
g58
NtRp4340
(dp4341
g61
(dp4342
g69
I5
ssg70
g4336
sg63
(lp4343
g56
(g65
g58
NtRp4344
(dp4345
g61
(dp4346
g69
I4
ssg70
Nsg63
(lp4347
sbasbasbasbag56
(g72
g58
NtRp4348
(dp4349
g61
(dp4350
sg70
g4043
sg63
(lp4351
g56
(g77
g58
NtRp4352
(dp4353
g61
(dp4354
g81
g82
ssg70
g4348
sg63
(lp4355
S'headers'
p4356
asbag56
(g77
g58
NtRp4357
(dp4358
g61
(dp4359
g88
g89
ssg70
g4348
sg63
(lp4360
S':'
asbag56
(g77
g58
NtRp4361
(dp4362
g61
(dp4363
sg70
g4348
sg63
(lp4364
g56
(g57
g58
NtRp4365
(dp4366
g61
(dp4367
g69
I5
ssg70
g4361
sg63
(lp4368
g56
(g65
g58
NtRp4369
(dp4370
g61
(dp4371
g69
I4
ssg70
Nsg63
(lp4372
g56
(g72
g58
NtRp4373
(dp4374
g61
(dp4375
sg70
g4369
sg63
(lp4376
g56
(g77
g58
NtRp4377
(dp4378
g61
(dp4379
g81
g82
ssg70
g4373
sg63
(lp4380
S'Cache-Control'
p4381
asbag56
(g77
g58
NtRp4382
(dp4383
g61
(dp4384
g88
g89
ssg70
g4373
sg63
(lp4385
S':'
asbag56
(g77
g58
NtRp4386
(dp4387
g61
(dp4388
sg70
g4373
sg63
(lp4389
g56
(g57
g58
NtRp4390
(dp4391
g61
(dp4392
g69
I4
ssg70
g4386
sg63
(lp4393
S'no-store, no-cache, must-revalidate, post-check=0, pre-check=0'
p4394
asbasbasbag56
(g72
g58
NtRp4395
(dp4396
g61
(dp4397
sg70
g4369
sg63
(lp4398
g56
(g77
g58
NtRp4399
(dp4400
g61
(dp4401
g81
g82
ssg70
g4395
sg63
(lp4402
S'Content-Type'
p4403
asbag56
(g77
g58
NtRp4404
(dp4405
g61
(dp4406
g88
g89
ssg70
g4395
sg63
(lp4407
S':'
asbag56
(g77
g58
NtRp4408
(dp4409
g61
(dp4410
sg70
g4395
sg63
(lp4411
g56
(g57
g58
NtRp4412
(dp4413
g61
(dp4414
g69
I4
ssg70
g4408
sg63
(lp4415
S'text/html; charset=utf-8'
p4416
asbasbasbag56
(g72
g58
NtRp4417
(dp4418
g61
(dp4419
sg70
g4369
sg63
(lp4420
g56
(g77
g58
NtRp4421
(dp4422
g61
(dp4423
g81
g82
ssg70
g4417
sg63
(lp4424
S'Expires'
p4425
asbag56
(g77
g58
NtRp4426
(dp4427
g61
(dp4428
g88
g89
ssg70
g4417
sg63
(lp4429
S':'
asbag56
(g77
g58
NtRp4430
(dp4431
g61
(dp4432
sg70
g4417
sg63
(lp4433
g56
(g57
g58
NtRp4434
(dp4435
g61
(dp4436
g69
I4
ssg70
g4430
sg63
(lp4437
S'Thu, 08 Sep 2011 19:30:40 GMT'
p4438
asbasbasbag56
(g72
g58
NtRp4439
(dp4440
g61
(dp4441
sg70
g4369
sg63
(lp4442
g56
(g77
g58
NtRp4443
(dp4444
g61
(dp4445
g81
g82
ssg70
g4439
sg63
(lp4446
S'Pragma'
p4447
asbag56
(g77
g58
NtRp4448
(dp4449
g61
(dp4450
g88
g89
ssg70
g4439
sg63
(lp4451
S':'
asbag56
(g77
g58
NtRp4452
(dp4453
g61
(dp4454
sg70
g4439
sg63
(lp4455
g56
(g57
g58
NtRp4456
(dp4457
g61
(dp4458
g69
I4
ssg70
g4452
sg63
(lp4459
S'no-cache'
p4460
asbasbasbag56
(g72
g58
NtRp4461
(dp4462
g61
(dp4463
sg70
g4369
sg63
(lp4464
g56
(g77
g58
NtRp4465
(dp4466
g61
(dp4467
g81
g82
ssg70
g4461
sg63
(lp4468
S'X-Powered-By'
p4469
asbag56
(g77
g58
NtRp4470
(dp4471
g61
(dp4472
g88
g89
ssg70
g4461
sg63
(lp4473
S':'
asbag56
(g77
g58
NtRp4474
(dp4475
g61
(dp4476
sg70
g4461
sg63
(lp4477
g56
(g57
g58
NtRp4478
(dp4479
g61
(dp4480
g69
I4
ssg70
g4474
sg63
(lp4481
S'web2py'
p4482
asbasbasbasbasbasbasbag56
(g72
g58
NtRp4483
(dp4484
g61
(dp4485
sg70
g4043
sg63
(lp4486
g56
(g77
g58
NtRp4487
(dp4488
g61
(dp4489
g81
g82
ssg70
g4483
sg63
(lp4490
S'menu'
p4491
asbag56
(g77
g58
NtRp4492
(dp4493
g61
(dp4494
g88
g89
ssg70
g4483
sg63
(lp4495
S':'
asbag56
(g77
g58
NtRp4496
(dp4497
g61
(dp4498
sg70
g4483
sg63
(lp4499
g56
(g57
g58
NtRp4500
(dp4501
g61
(dp4502
g69
I5
ssg70
g4496
sg63
(lp4503
g56
(g65
g58
NtRp4504
(dp4505
g61
(dp4506
g69
I4
ssg70
Nsg63
(lp4507
g56
(g72
g58
NtRp4508
(dp4509
g61
(dp4510
sg70
g4504
sg63
(lp4511
g56
(g77
g58
NtRp4512
(dp4513
g61
(dp4514
sg70
g4508
sg63
(lp4515
g56
(g57
g58
NtRp4516
(dp4517
g61
(dp4518
g69
I4
ssg70
g4512
sg63
(lp4519
g56
(g65
g58
NtRp4520
(dp4521
g61
(dp4522
g69
I3
ssg70
Nsg63
(lp4523
g56
(g72
g58
NtRp4524
(dp4525
g61
(dp4526
sg70
g4520
sg63
(lp4527
g56
(g77
g58
NtRp4528
(dp4529
g61
(dp4530
sg70
g4524
sg63
(lp4531
g56
(g57
g58
NtRp4532
(dp4533
g61
(dp4534
g69
I3
ssg70
g4528
sg63
(lp4535
cgluon.languages
lazyT_unpickle
p4536
(S't\x04\x00\x00\x00Home'
tRp4537
asbasbasbag56
(g72
g58
NtRp4538
(dp4539
g61
(dp4540
sg70
g4520
sg63
(lp4541
g56
(g77
g58
NtRp4542
(dp4543
g61
(dp4544
sg70
g4538
sg63
(lp4545
g56
(g57
g58
NtRp4546
(dp4547
g61
(dp4548
g69
I3
ssg70
g4542
sg63
(lp4549
g99
asbasbasbag56
(g72
g58
NtRp4550
(dp4551
g61
(dp4552
sg70
g4520
sg63
(lp4553
g56
(g77
g58
NtRp4554
(dp4555
g61
(dp4556
sg70
g4550
sg63
(lp4557
g56
(g57
g58
NtRp4558
(dp4559
g61
(dp4560
g69
I3
ssg70
g4554
sg63
(lp4561
S'/scrum/default/index'
p4562
asbasbasbag56
(g72
g58
NtRp4563
(dp4564
g61
(dp4565
sg70
g4520
sg63
(lp4566
g56
(g77
g58
NtRp4567
(dp4568
g61
(dp4569
sg70
g4563
sg63
(lp4570
g56
(g57
g58
NtRp4571
(dp4572
g61
(dp4573
g69
I3
ssg70
g4567
sg63
(lp4574
g56
(g65
g58
NtRp4575
(dp4576
g61
(dp4577
g69
I2
ssg70
Nsg63
(lp4578
sbasbasbasbasbasbasbasbag56
(g72
g58
NtRp4579
(dp4580
g61
(dp4581
sg70
g4504
sg63
(lp4582
g56
(g77
g58
NtRp4583
(dp4584
g61
(dp4585
sg70
g4579
sg63
(lp4586
g56
(g57
g58
NtRp4587
(dp4588
g61
(dp4589
g69
I4
ssg70
g4583
sg63
(lp4590
g56
(g65
g58
NtRp4591
(dp4592
g61
(dp4593
g69
I3
ssg70
Nsg63
(lp4594
g56
(g72
g58
NtRp4595
(dp4596
g61
(dp4597
sg70
g4591
sg63
(lp4598
g56
(g77
g58
NtRp4599
(dp4600
g61
(dp4601
sg70
g4595
sg63
(lp4602
g56
(g57
g58
NtRp4603
(dp4604
g61
(dp4605
g69
I3
ssg70
g4599
sg63
(lp4606
g4536
(S't\x03\x00\x00\x00BIV'
tRp4607
asbasbasbag56
(g72
g58
NtRp4608
(dp4609
g61
(dp4610
sg70
g4591
sg63
(lp4611
g56
(g77
g58
NtRp4612
(dp4613
g61
(dp4614
sg70
g4608
sg63
(lp4615
g56
(g57
g58
NtRp4616
(dp4617
g61
(dp4618
g69
I3
ssg70
g4612
sg63
(lp4619
g99
asbasbasbag56
(g72
g58
NtRp4620
(dp4621
g61
(dp4622
sg70
g4591
sg63
(lp4623
g56
(g77
g58
NtRp4624
(dp4625
g61
(dp4626
sg70
g4620
sg63
(lp4627
g56
(g57
g58
NtRp4628
(dp4629
g61
(dp4630
g69
I3
ssg70
g4624
sg63
(lp4631
S''
asbasbasbag56
(g72
g58
NtRp4632
(dp4633
g61
(dp4634
sg70
g4591
sg63
(lp4635
g56
(g77
g58
NtRp4636
(dp4637
g61
(dp4638
sg70
g4632
sg63
(lp4639
g56
(g57
g58
NtRp4640
(dp4641
g61
(dp4642
g69
I3
ssg70
g4636
sg63
(lp4643
g56
(g65
g58
NtRp4644
(dp4645
g61
(dp4646
g69
I2
ssg70
Nsg63
(lp4647
g56
(g72
g58
NtRp4648
(dp4649
g61
(dp4650
sg70
g4644
sg63
(lp4651
g56
(g77
g58
NtRp4652
(dp4653
g61
(dp4654
sg70
g4648
sg63
(lp4655
g56
(g57
g58
NtRp4656
(dp4657
g61
(dp4658
g69
I2
ssg70
g4652
sg63
(lp4659
g56
(g65
g58
NtRp4660
(dp4661
g61
(dp4662
g69
I1
ssg70
Nsg63
(lp4663
g56
(g72
g58
NtRp4664
(dp4665
g61
(dp4666
sg70
g4660
sg63
(lp4667
g56
(g77
g58
NtRp4668
(dp4669
g61
(dp4670
sg70
g4664
sg63
(lp4671
g56
(g57
g58
NtRp4672
(dp4673
g61
(dp4674
g69
I1
ssg70
g4668
sg63
(lp4675
g4536
(S't\x04\x00\x00\x00Novo'
tRp4676
asbasbasbag56
(g72
g58
NtRp4677
(dp4678
g61
(dp4679
sg70
g4660
sg63
(lp4680
g56
(g77
g58
NtRp4681
(dp4682
g61
(dp4683
sg70
g4677
sg63
(lp4684
g56
(g57
g58
NtRp4685
(dp4686
g61
(dp4687
g69
I1
ssg70
g4681
sg63
(lp4688
I00
asbasbasbag56
(g72
g58
NtRp4689
(dp4690
g61
(dp4691
sg70
g4660
sg63
(lp4692
g56
(g77
g58
NtRp4693
(dp4694
g61
(dp4695
sg70
g4689
sg63
(lp4696
g56
(g57
g58
NtRp4697
(dp4698
g61
(dp4699
g69
I1
ssg70
g4693
sg63
(lp4700
S'/scrum/default/novo_biv'
p4701
asbasbasbag56
(g72
g58
NtRp4702
(dp4703
g61
(dp4704
sg70
g4660
sg63
(lp4705
g56
(g77
g58
NtRp4706
(dp4707
g61
(dp4708
sg70
g4702
sg63
(lp4709
g56
(g57
g58
NtRp4710
(dp4711
g61
(dp4712
g69
I1
ssg70
g4706
sg63
(lp4713
(lp4714
asbasbasbasbasbasbasbag56
(g72
g58
NtRp4715
(dp4716
g61
(dp4717
sg70
g4644
sg63
(lp4718
g56
(g77
g58
NtRp4719
(dp4720
g61
(dp4721
sg70
g4715
sg63
(lp4722
g56
(g57
g58
NtRp4723
(dp4724
g61
(dp4725
g69
I2
ssg70
g4719
sg63
(lp4726
g56
(g65
g58
NtRp4727
(dp4728
g61
(dp4729
g69
I1
ssg70
Nsg63
(lp4730
g56
(g72
g58
NtRp4731
(dp4732
g61
(dp4733
sg70
g4727
sg63
(lp4734
g56
(g77
g58
NtRp4735
(dp4736
g61
(dp4737
sg70
g4731
sg63
(lp4738
g56
(g57
g58
NtRp4739
(dp4740
g61
(dp4741
g69
I1
ssg70
g4735
sg63
(lp4742
g4536
(S't\n\x00\x00\x00Selecionar'
tRp4743
asbasbasbag56
(g72
g58
NtRp4744
(dp4745
g61
(dp4746
sg70
g4727
sg63
(lp4747
g56
(g77
g58
NtRp4748
(dp4749
g61
(dp4750
sg70
g4744
sg63
(lp4751
g56
(g57
g58
NtRp4752
(dp4753
g61
(dp4754
g69
I1
ssg70
g4748
sg63
(lp4755
I00
asbasbasbag56
(g72
g58
NtRp4756
(dp4757
g61
(dp4758
sg70
g4727
sg63
(lp4759
g56
(g77
g58
NtRp4760
(dp4761
g61
(dp4762
sg70
g4756
sg63
(lp4763
g56
(g57
g58
NtRp4764
(dp4765
g61
(dp4766
g69
I1
ssg70
g4760
sg63
(lp4767
S'/scrum/default/selecionar_biv'
p4768
asbasbasbag56
(g72
g58
NtRp4769
(dp4770
g61
(dp4771
sg70
g4727
sg63
(lp4772
g56
(g77
g58
NtRp4773
(dp4774
g61
(dp4775
sg70
g4769
sg63
(lp4776
g56
(g57
g58
NtRp4777
(dp4778
g61
(dp4779
g69
I1
ssg70
g4773
sg63
(lp4780
(lp4781
asbasbasbasbasbasbasbasbasbasbasbasbasbasbasbag56
(g72
g58
NtRp4782
(dp4783
g61
(dp4784
sg70
g4504
sg63
(lp4785
g56
(g77
g58
NtRp4786
(dp4787
g61
(dp4788
sg70
g4782
sg63
(lp4789
g56
(g57
g58
NtRp4790
(dp4791
g61
(dp4792
g69
I4
ssg70
g4786
sg63
(lp4793
g56
(g65
g58
NtRp4794
(dp4795
g61
(dp4796
g69
I3
ssg70
Nsg63
(lp4797
g56
(g72
g58
NtRp4798
(dp4799
g61
(dp4800
sg70
g4794
sg63
(lp4801
g56
(g77
g58
NtRp4802
(dp4803
g61
(dp4804
sg70
g4798
sg63
(lp4805
g56
(g57
g58
NtRp4806
(dp4807
g61
(dp4808
g69
I3
ssg70
g4802
sg63
(lp4809
g4536
(S't\x07\x00\x00\x00Tickets'
tRp4810
asbasbasbag56
(g72
g58
NtRp4811
(dp4812
g61
(dp4813
sg70
g4794
sg63
(lp4814
g56
(g77
g58
NtRp4815
(dp4816
g61
(dp4817
sg70
g4811
sg63
(lp4818
g56
(g57
g58
NtRp4819
(dp4820
g61
(dp4821
g69
I3
ssg70
g4815
sg63
(lp4822
g99
asbasbasbag56
(g72
g58
NtRp4823
(dp4824
g61
(dp4825
sg70
g4794
sg63
(lp4826
g56
(g77
g58
NtRp4827
(dp4828
g61
(dp4829
sg70
g4823
sg63
(lp4830
g56
(g57
g58
NtRp4831
(dp4832
g61
(dp4833
g69
I3
ssg70
g4827
sg63
(lp4834
S'/scrum/ticket/index'
p4835
asbasbasbag56
(g72
g58
NtRp4836
(dp4837
g61
(dp4838
sg70
g4794
sg63
(lp4839
g56
(g77
g58
NtRp4840
(dp4841
g61
(dp4842
sg70
g4836
sg63
(lp4843
g56
(g57
g58
NtRp4844
(dp4845
g61
(dp4846
g69
I3
ssg70
g4840
sg63
(lp4847
g56
(g65
g58
NtRp4848
(dp4849
g61
(dp4850
g69
I2
ssg70
Nsg63
(lp4851
g56
(g72
g58
NtRp4852
(dp4853
g61
(dp4854
sg70
g4848
sg63
(lp4855
g56
(g77
g58
NtRp4856
(dp4857
g61
(dp4858
sg70
g4852
sg63
(lp4859
g56
(g57
g58
NtRp4860
(dp4861
g61
(dp4862
g69
I2
ssg70
g4856
sg63
(lp4863
g56
(g65
g58
NtRp4864
(dp4865
g61
(dp4866
g69
I1
ssg70
Nsg63
(lp4867
g56
(g72
g58
NtRp4868
(dp4869
g61
(dp4870
sg70
g4864
sg63
(lp4871
g56
(g77
g58
NtRp4872
(dp4873
g61
(dp4874
sg70
g4868
sg63
(lp4875
g56
(g57
g58
NtRp4876
(dp4877
g61
(dp4878
g69
I1
ssg70
g4872
sg63
(lp4879
g4536
(S't\x04\x00\x00\x00Novo'
tRp4880
asbasbasbag56
(g72
g58
NtRp4881
(dp4882
g61
(dp4883
sg70
g4864
sg63
(lp4884
g56
(g77
g58
NtRp4885
(dp4886
g61
(dp4887
sg70
g4881
sg63
(lp4888
g56
(g57
g58
NtRp4889
(dp4890
g61
(dp4891
g69
I1
ssg70
g4885
sg63
(lp4892
I00
asbasbasbag56
(g72
g58
NtRp4893
(dp4894
g61
(dp4895
sg70
g4864
sg63
(lp4896
g56
(g77
g58
NtRp4897
(dp4898
g61
(dp4899
sg70
g4893
sg63
(lp4900
g56
(g57
g58
NtRp4901
(dp4902
g61
(dp4903
g69
I1
ssg70
g4897
sg63
(lp4904
S'/scrum/ticket/novo'
p4905
asbasbasbag56
(g72
g58
NtRp4906
(dp4907
g61
(dp4908
sg70
g4864
sg63
(lp4909
g56
(g77
g58
NtRp4910
(dp4911
g61
(dp4912
sg70
g4906
sg63
(lp4913
g56
(g57
g58
NtRp4914
(dp4915
g61
(dp4916
g69
I1
ssg70
g4910
sg63
(lp4917
(lp4918
asbasbasbasbasbasbasbag56
(g72
g58
NtRp4919
(dp4920
g61
(dp4921
sg70
g4848
sg63
(lp4922
g56
(g77
g58
NtRp4923
(dp4924
g61
(dp4925
sg70
g4919
sg63
(lp4926
g56
(g57
g58
NtRp4927
(dp4928
g61
(dp4929
g69
I2
ssg70
g4923
sg63
(lp4930
g56
(g65
g58
NtRp4931
(dp4932
g61
(dp4933
g69
I1
ssg70
Nsg63
(lp4934
g56
(g72
g58
NtRp4935
(dp4936
g61
(dp4937
sg70
g4931
sg63
(lp4938
g56
(g77
g58
NtRp4939
(dp4940
g61
(dp4941
sg70
g4935
sg63
(lp4942
g56
(g57
g58
NtRp4943
(dp4944
g61
(dp4945
g69
I1
ssg70
g4939
sg63
(lp4946
g4536
(S't\n\x00\x00\x00Selecionar'
tRp4947
asbasbasbag56
(g72
g58
NtRp4948
(dp4949
g61
(dp4950
sg70
g4931
sg63
(lp4951
g56
(g77
g58
NtRp4952
(dp4953
g61
(dp4954
sg70
g4948
sg63
(lp4955
g56
(g57
g58
NtRp4956
(dp4957
g61
(dp4958
g69
I1
ssg70
g4952
sg63
(lp4959
I00
asbasbasbag56
(g72
g58
NtRp4960
(dp4961
g61
(dp4962
sg70
g4931
sg63
(lp4963
g56
(g77
g58
NtRp4964
(dp4965
g61
(dp4966
sg70
g4960
sg63
(lp4967
g56
(g57
g58
NtRp4968
(dp4969
g61
(dp4970
g69
I1
ssg70
g4964
sg63
(lp4971
S'/scrum/ticket/index'
p4972
asbasbasbag56
(g72
g58
NtRp4973
(dp4974
g61
(dp4975
sg70
g4931
sg63
(lp4976
g56
(g77
g58
NtRp4977
(dp4978
g61
(dp4979
sg70
g4973
sg63
(lp4980
g56
(g57
g58
NtRp4981
(dp4982
g61
(dp4983
g69
I1
ssg70
g4977
sg63
(lp4984
(lp4985
asbasbasbasbasbasbasbasbasbasbasbasbasbasbasbag56
(g72
g58
NtRp4986
(dp4987
g61
(dp4988
sg70
g4504
sg63
(lp4989
g56
(g77
g58
NtRp4990
(dp4991
g61
(dp4992
sg70
g4986
sg63
(lp4993
g56
(g57
g58
NtRp4994
(dp4995
g61
(dp4996
g69
I4
ssg70
g4990
sg63
(lp4997
g56
(g65
g58
NtRp4998
(dp4999
g61
(dp5000
g69
I3
ssg70
Nsg63
(lp5001
g56
(g72
g58
NtRp5002
(dp5003
g61
(dp5004
sg70
g4998
sg63
(lp5005
g56
(g77
g58
NtRp5006
(dp5007
g61
(dp5008
sg70
g5002
sg63
(lp5009
g56
(g57
g58
NtRp5010
(dp5011
g61
(dp5012
g69
I3
ssg70
g5006
sg63
(lp5013
g4536
(S't\x06\x00\x00\x00Sprint'
tRp5014
asbasbasbag56
(g72
g58
NtRp5015
(dp5016
g61
(dp5017
sg70
g4998
sg63
(lp5018
g56
(g77
g58
NtRp5019
(dp5020
g61
(dp5021
sg70
g5015
sg63
(lp5022
g56
(g57
g58
NtRp5023
(dp5024
g61
(dp5025
g69
I3
ssg70
g5019
sg63
(lp5026
g99
asbasbasbag56
(g72
g58
NtRp5027
(dp5028
g61
(dp5029
sg70
g4998
sg63
(lp5030
g56
(g77
g58
NtRp5031
(dp5032
g61
(dp5033
sg70
g5027
sg63
(lp5034
g56
(g57
g58
NtRp5035
(dp5036
g61
(dp5037
g69
I3
ssg70
g5031
sg63
(lp5038
S''
asbasbasbag56
(g72
g58
NtRp5039
(dp5040
g61
(dp5041
sg70
g4998
sg63
(lp5042
g56
(g77
g58
NtRp5043
(dp5044
g61
(dp5045
sg70
g5039
sg63
(lp5046
g56
(g57
g58
NtRp5047
(dp5048
g61
(dp5049
g69
I3
ssg70
g5043
sg63
(lp5050
g56
(g65
g58
NtRp5051
(dp5052
g61
(dp5053
g69
I2
ssg70
Nsg63
(lp5054
g56
(g72
g58
NtRp5055
(dp5056
g61
(dp5057
sg70
g5051
sg63
(lp5058
g56
(g77
g58
NtRp5059
(dp5060
g61
(dp5061
sg70
g5055
sg63
(lp5062
g56
(g57
g58
NtRp5063
(dp5064
g61
(dp5065
g69
I2
ssg70
g5059
sg63
(lp5066
g56
(g65
g58
NtRp5067
(dp5068
g61
(dp5069
g69
I1
ssg70
Nsg63
(lp5070
g56
(g72
g58
NtRp5071
(dp5072
g61
(dp5073
sg70
g5067
sg63
(lp5074
g56
(g77
g58
NtRp5075
(dp5076
g61
(dp5077
sg70
g5071
sg63
(lp5078
g56
(g57
g58
NtRp5079
(dp5080
g61
(dp5081
g69
I1
ssg70
g5075
sg63
(lp5082
g4536
(S't\x04\x00\x00\x00Novo'
tRp5083
asbasbasbag56
(g72
g58
NtRp5084
(dp5085
g61
(dp5086
sg70
g5067
sg63
(lp5087
g56
(g77
g58
NtRp5088
(dp5089
g61
(dp5090
sg70
g5084
sg63
(lp5091
g56
(g57
g58
NtRp5092
(dp5093
g61
(dp5094
g69
I1
ssg70
g5088
sg63
(lp5095
I00
asbasbasbag56
(g72
g58
NtRp5096
(dp5097
g61
(dp5098
sg70
g5067
sg63
(lp5099
g56
(g77
g58
NtRp5100
(dp5101
g61
(dp5102
sg70
g5096
sg63
(lp5103
g56
(g57
g58
NtRp5104
(dp5105
g61
(dp5106
g69
I1
ssg70
g5100
sg63
(lp5107
S'/scrum/sprint/novo'
p5108
asbasbasbag56
(g72
g58
NtRp5109
(dp5110
g61
(dp5111
sg70
g5067
sg63
(lp5112
g56
(g77
g58
NtRp5113
(dp5114
g61
(dp5115
sg70
g5109
sg63
(lp5116
g56
(g57
g58
NtRp5117
(dp5118
g61
(dp5119
g69
I1
ssg70
g5113
sg63
(lp5120
(lp5121
asbasbasbasbasbasbasbag56
(g72
g58
NtRp5122
(dp5123
g61
(dp5124
sg70
g5051
sg63
(lp5125
g56
(g77
g58
NtRp5126
(dp5127
g61
(dp5128
sg70
g5122
sg63
(lp5129
g56
(g57
g58
NtRp5130
(dp5131
g61
(dp5132
g69
I2
ssg70
g5126
sg63
(lp5133
g56
(g65
g58
NtRp5134
(dp5135
g61
(dp5136
g69
I1
ssg70
Nsg63
(lp5137
g56
(g72
g58
NtRp5138
(dp5139
g61
(dp5140
sg70
g5134
sg63
(lp5141
g56
(g77
g58
NtRp5142
(dp5143
g61
(dp5144
sg70
g5138
sg63
(lp5145
g56
(g57
g58
NtRp5146
(dp5147
g61
(dp5148
g69
I1
ssg70
g5142
sg63
(lp5149
g4536
(S't\n\x00\x00\x00Selecionar'
tRp5150
asbasbasbag56
(g72
g58
NtRp5151
(dp5152
g61
(dp5153
sg70
g5134
sg63
(lp5154
g56
(g77
g58
NtRp5155
(dp5156
g61
(dp5157
sg70
g5151
sg63
(lp5158
g56
(g57
g58
NtRp5159
(dp5160
g61
(dp5161
g69
I1
ssg70
g5155
sg63
(lp5162
I00
asbasbasbag56
(g72
g58
NtRp5163
(dp5164
g61
(dp5165
sg70
g5134
sg63
(lp5166
g56
(g77
g58
NtRp5167
(dp5168
g61
(dp5169
sg70
g5163
sg63
(lp5170
g56
(g57
g58
NtRp5171
(dp5172
g61
(dp5173
g69
I1
ssg70
g5167
sg63
(lp5174
S'/scrum/sprint/index'
p5175
asbasbasbag56
(g72
g58
NtRp5176
(dp5177
g61
(dp5178
sg70
g5134
sg63
(lp5179
g56
(g77
g58
NtRp5180
(dp5181
g61
(dp5182
sg70
g5176
sg63
(lp5183
g56
(g57
g58
NtRp5184
(dp5185
g61
(dp5186
g69
I1
ssg70
g5180
sg63
(lp5187
(lp5188
asbasbasbasbasbasbasbasbasbasbasbasbasbasbasbasbasbasbasbag56
(g72
g58
NtRp5189
(dp5190
g61
(dp5191
sg70
g4043
sg63
(lp5192
g56
(g77
g58
NtRp5193
(dp5194
g61
(dp5195
g81
g82
ssg70
g5189
sg63
(lp5196
S'meta'
p5197
asbag56
(g77
g58
NtRp5198
(dp5199
g61
(dp5200
g88
g89
ssg70
g5189
sg63
(lp5201
S':'
asbag56
(g77
g58
NtRp5202
(dp5203
g61
(dp5204
sg70
g5189
sg63
(lp5205
g56
(g57
g58
NtRp5206
(dp5207
g61
(dp5208
g69
I5
ssg70
g5202
sg63
(lp5209
g56
(g65
g58
NtRp5210
(dp5211
g61
(dp5212
g69
I4
ssg70
Nsg63
(lp5213
g56
(g72
g58
NtRp5214
(dp5215
g61
(dp5216
sg70
g5210
sg63
(lp5217
g56
(g77
g58
NtRp5218
(dp5219
g61
(dp5220
g81
g82
ssg70
g5214
sg63
(lp5221
S'author'
p5222
asbag56
(g77
g58
NtRp5223
(dp5224
g61
(dp5225
g88
g89
ssg70
g5214
sg63
(lp5226
S':'
asbag56
(g77
g58
NtRp5227
(dp5228
g61
(dp5229
sg70
g5214
sg63
(lp5230
g56
(g57
g58
NtRp5231
(dp5232
g61
(dp5233
g69
I4
ssg70
g5227
sg63
(lp5234
S'Carlos J. Costa'
p5235
asbasbasbag56
(g72
g58
NtRp5236
(dp5237
g61
(dp5238
sg70
g5210
sg63
(lp5239
g56
(g77
g58
NtRp5240
(dp5241
g61
(dp5242
g81
g82
ssg70
g5236
sg63
(lp5243
S'copyright'
p5244
asbag56
(g77
g58
NtRp5245
(dp5246
g61
(dp5247
g88
g89
ssg70
g5236
sg63
(lp5248
S':'
asbag56
(g77
g58
NtRp5249
(dp5250
g61
(dp5251
sg70
g5236
sg63
(lp5252
g56
(g57
g58
NtRp5253
(dp5254
g61
(dp5255
g69
I4
ssg70
g5249
sg63
(lp5256
S'Copyright 2007-2010'
p5257
asbasbasbag56
(g72
g58
NtRp5258
(dp5259
g61
(dp5260
sg70
g5210
sg63
(lp5261
g56
(g77
g58
NtRp5262
(dp5263
g61
(dp5264
g81
g82
ssg70
g5258
sg63
(lp5265
S'description'
p5266
asbag56
(g77
g58
NtRp5267
(dp5268
g61
(dp5269
g88
g89
ssg70
g5258
sg63
(lp5270
S':'
asbag56
(g77
g58
NtRp5271
(dp5272
g61
(dp5273
sg70
g5258
sg63
(lp5274
g56
(g57
g58
NtRp5275
(dp5276
g61
(dp5277
g69
I4
ssg70
g5271
sg63
(lp5278
S'Development track'
p5279
asbasbasbag56
(g72
g58
NtRp5280
(dp5281
g61
(dp5282
sg70
g5210
sg63
(lp5283
g56
(g77
g58
NtRp5284
(dp5285
g61
(dp5286
g81
g82
ssg70
g5280
sg63
(lp5287
S'generator'
p5288
asbag56
(g77
g58
NtRp5289
(dp5290
g61
(dp5291
g88
g89
ssg70
g5280
sg63
(lp5292
S':'
asbag56
(g77
g58
NtRp5293
(dp5294
g61
(dp5295
sg70
g5280
sg63
(lp5296
g56
(g57
g58
NtRp5297
(dp5298
g61
(dp5299
g69
I4
ssg70
g5293
sg63
(lp5300
S'Web2py Enterprise Framework'
p5301
asbasbasbag56
(g72
g58
NtRp5302
(dp5303
g61
(dp5304
sg70
g5210
sg63
(lp5305
g56
(g77
g58
NtRp5306
(dp5307
g61
(dp5308
g81
g82
ssg70
g5302
sg63
(lp5309
S'keywords'
p5310
asbag56
(g77
g58
NtRp5311
(dp5312
g61
(dp5313
g88
g89
ssg70
g5302
sg63
(lp5314
S':'
asbag56
(g77
g58
NtRp5315
(dp5316
g61
(dp5317
sg70
g5302
sg63
(lp5318
g56
(g57
g58
NtRp5319
(dp5320
g61
(dp5321
g69
I4
ssg70
g5315
sg63
(lp5322
S'test, issue'
p5323
asbasbasbasbasbasbasbag56
(g72
g58
NtRp5324
(dp5325
g61
(dp5326
sg70
g4043
sg63
(lp5327
g56
(g77
g58
NtRp5328
(dp5329
g61
(dp5330
g81
g82
ssg70
g5324
sg63
(lp5331
S'postprocessing'
p5332
asbag56
(g77
g58
NtRp5333
(dp5334
g61
(dp5335
g88
g89
ssg70
g5324
sg63
(lp5336
S':'
asbag56
(g77
g58
NtRp5337
(dp5338
g61
(dp5339
sg70
g5324
sg63
(lp5340
g56
(g57
g58
NtRp5341
(dp5342
g61
(dp5343
g69
I5
ssg70
g5337
sg63
(lp5344
g56
(g65
g58
NtRp5345
(dp5346
g61
(dp5347
g69
I4
ssg70
Nsg63
(lp5348
sbasbasbasbag56
(g72
g58
NtRp5349
(dp5350
g61
(dp5351
sg70
g4043
sg63
(lp5352
g56
(g77
g58
NtRp5353
(dp5354
g61
(dp5355
g81
g82
ssg70
g5349
sg63
(lp5356
S'session_file'
p5357
asbag56
(g77
g58
NtRp5358
(dp5359
g61
(dp5360
g88
g89
ssg70
g5349
sg63
(lp5361
S':'
asbag56
(g77
g58
NtRp5362
(dp5363
g61
(dp5364
sg70
g5349
sg63
(lp5365
g56
(g57
g58
NtRp5366
(dp5367
g61
(dp5368
g69
I5
ssg70
g5362
sg63
(lp5369
S"<open file '/home/www-data/web2py/applications/scrum/sessions/127.0.0.1-f47d3ac4-8d8c-46d5-8321-f944561d518f', mode 'rb+' at 0xb949e288>"
p5370
asbasbasbag56
(g72
g58
NtRp5371
(dp5372
g61
(dp5373
sg70
g4043
sg63
(lp5374
g56
(g77
g58
NtRp5375
(dp5376
g61
(dp5377
g81
g82
ssg70
g5371
sg63
(lp5378
S'session_filename'
p5379
asbag56
(g77
g58
NtRp5380
(dp5381
g61
(dp5382
g88
g89
ssg70
g5371
sg63
(lp5383
S':'
asbag56
(g77
g58
NtRp5384
(dp5385
g61
(dp5386
sg70
g5371
sg63
(lp5387
g56
(g57
g58
NtRp5388
(dp5389
g61
(dp5390
g69
I5
ssg70
g5384
sg63
(lp5391
S'/home/www-data/web2py/applications/scrum/sessions/127.0.0.1-f47d3ac4-8d8c-46d5-8321-f944561d518f'
p5392
asbasbasbag56
(g72
g58
NtRp5393
(dp5394
g61
(dp5395
sg70
g4043
sg63
(lp5396
g56
(g77
g58
NtRp5397
(dp5398
g61
(dp5399
g81
g82
ssg70
g5393
sg63
(lp5400
S'session_id'
p5401
asbag56
(g77
g58
NtRp5402
(dp5403
g61
(dp5404
g88
g89
ssg70
g5393
sg63
(lp5405
S':'
asbag56
(g77
g58
NtRp5406
(dp5407
g61
(dp5408
sg70
g5393
sg63
(lp5409
g56
(g57
g58
NtRp5410
(dp5411
g61
(dp5412
g69
I5
ssg70
g5406
sg63
(lp5413
S'127.0.0.1-f47d3ac4-8d8c-46d5-8321-f944561d518f'
p5414
asbasbasbag56
(g72
g58
NtRp5415
(dp5416
g61
(dp5417
sg70
g4043
sg63
(lp5418
g56
(g77
g58
NtRp5419
(dp5420
g61
(dp5421
g81
g82
ssg70
g5415
sg63
(lp5422
S'session_id_name'
p5423
asbag56
(g77
g58
NtRp5424
(dp5425
g61
(dp5426
g88
g89
ssg70
g5415
sg63
(lp5427
S':'
asbag56
(g77
g58
NtRp5428
(dp5429
g61
(dp5430
sg70
g5415
sg63
(lp5431
g56
(g57
g58
NtRp5432
(dp5433
g61
(dp5434
g69
I5
ssg70
g5428
sg63
(lp5435
g4100
asbasbasbag56
(g72
g58
NtRp5436
(dp5437
g61
(dp5438
sg70
g4043
sg63
(lp5439
g56
(g77
g58
NtRp5440
(dp5441
g61
(dp5442
g81
g82
ssg70
g5436
sg63
(lp5443
S'session_locked'
p5444
asbag56
(g77
g58
NtRp5445
(dp5446
g61
(dp5447
g88
g89
ssg70
g5436
sg63
(lp5448
S':'
asbag56
(g77
g58
NtRp5449
(dp5450
g61
(dp5451
sg70
g5436
sg63
(lp5452
g56
(g57
g58
NtRp5453
(dp5454
g61
(dp5455
g69
I5
ssg70
g5449
sg63
(lp5456
g1938
asbasbasbag56
(g72
g58
NtRp5457
(dp5458
g61
(dp5459
sg70
g4043
sg63
(lp5460
g56
(g77
g58
NtRp5461
(dp5462
g61
(dp5463
g81
g82
ssg70
g5457
sg63
(lp5464
S'session_new'
p5465
asbag56
(g77
g58
NtRp5466
(dp5467
g61
(dp5468
g88
g89
ssg70
g5457
sg63
(lp5469
S':'
asbag56
(g77
g58
NtRp5470
(dp5471
g61
(dp5472
sg70
g5457
sg63
(lp5473
g56
(g57
g58
NtRp5474
(dp5475
g61
(dp5476
g69
I5
ssg70
g5470
sg63
(lp5477
g99
asbasbasbag56
(g72
g58
NtRp5478
(dp5479
g61
(dp5480
sg70
g4043
sg63
(lp5481
g56
(g77
g58
NtRp5482
(dp5483
g61
(dp5484
g81
g82
ssg70
g5478
sg63
(lp5485
S'status'
p5486
asbag56
(g77
g58
NtRp5487
(dp5488
g61
(dp5489
g88
g89
ssg70
g5478
sg63
(lp5490
S':'
asbag56
(g77
g58
NtRp5491
(dp5492
g61
(dp5493
sg70
g5478
sg63
(lp5494
g56
(g57
g58
NtRp5495
(dp5496
g61
(dp5497
g69
I5
ssg70
g5491
sg63
(lp5498
S'200'
p5499
asbasbasbag56
(g72
g58
NtRp5500
(dp5501
g61
(dp5502
sg70
g4043
sg63
(lp5503
g56
(g77
g58
NtRp5504
(dp5505
g61
(dp5506
g81
g82
ssg70
g5500
sg63
(lp5507
S'subtitle'
p5508
asbag56
(g77
g58
NtRp5509
(dp5510
g61
(dp5511
g88
g89
ssg70
g5500
sg63
(lp5512
S':'
asbag56
(g77
g58
NtRp5513
(dp5514
g61
(dp5515
sg70
g5500
sg63
(lp5516
g56
(g57
g58
NtRp5517
(dp5518
g61
(dp5519
g69
I5
ssg70
g5513
sg63
(lp5520
g4536
(S's\x0f\x00\x00\x00Personalize-me!'
tRp5521
asbasbasbag56
(g72
g58
NtRp5522
(dp5523
g61
(dp5524
sg70
g4043
sg63
(lp5525
g56
(g77
g58
NtRp5526
(dp5527
g61
(dp5528
g81
g82
ssg70
g5522
sg63
(lp5529
S'title'
p5530
asbag56
(g77
g58
NtRp5531
(dp5532
g61
(dp5533
g88
g89
ssg70
g5522
sg63
(lp5534
S':'
asbag56
(g77
g58
NtRp5535
(dp5536
g61
(dp5537
sg70
g5522
sg63
(lp5538
g56
(g57
g58
NtRp5539
(dp5540
g61
(dp5541
g69
I5
ssg70
g5535
sg63
(lp5542
g121
asbasbasbag56
(g72
g58
NtRp5543
(dp5544
g61
(dp5545
sg70
g4043
sg63
(lp5546
g56
(g77
g58
NtRp5547
(dp5548
g61
(dp5549
g81
g82
ssg70
g5543
sg63
(lp5550
g2262
asbag56
(g77
g58
NtRp5551
(dp5552
g61
(dp5553
g88
g89
ssg70
g5543
sg63
(lp5554
S':'
asbag56
(g77
g58
NtRp5555
(dp5556
g61
(dp5557
sg70
g5543
sg63
(lp5558
g56
(g57
g58
NtRp5559
(dp5560
g61
(dp5561
g69
I5
ssg70
g5555
sg63
(lp5562
g2275
asbasbasbag56
(g72
g58
NtRp5563
(dp5564
g61
(dp5565
sg70
g4043
sg63
(lp5566
g56
(g77
g58
NtRp5567
(dp5568
g61
(dp5569
g81
g82
ssg70
g5563
sg63
(lp5570
S'view'
p5571
asbag56
(g77
g58
NtRp5572
(dp5573
g61
(dp5574
g88
g89
ssg70
g5563
sg63
(lp5575
S':'
asbag56
(g77
g58
NtRp5576
(dp5577
g61
(dp5578
sg70
g5563
sg63
(lp5579
g56
(g57
g58
NtRp5580
(dp5581
g61
(dp5582
g69
I5
ssg70
g5576
sg63
(lp5583
S'simple_form.html'
p5584
asbasbasbasbasbsS'locals'
p5585
(dp5586
S'self'
p5587
S'<gluon.dal.SQLiteAdapter object>'
p5588
sS'r'
S'None'
p5589
sS'obj'
p5590
S"<Table {'ALL': <gluon.dal.SQLALL object at 0xb9a...>, 'id': <gluon.dal.Field object at 0xb9a797ac>}>"
p5591
sS'fieldtype'
p5592
S"'id'"
p5593
sssS'traceback'
p5594
S'Traceback (most recent call last):\n  File "/home/www-data/web2py/gluon/restricted.py", line 192, in restricted\n    exec ccode in environment\n  File "/home/www-data/web2py/applications/scrum/controllers/ticket.py", line 16, in <module>\n  File "/home/www-data/web2py/gluon/globals.py", line 145, in <lambda>\n    self._caller = lambda f: f()\n  File "/home/www-data/web2py/gluon/tools.py", line 2429, in f\n    return action(*a, **b)\n  File "/home/www-data/web2py/applications/scrum/controllers/ticket.py", line 13, in novo\n    form = crud.create(db.ticket)\n  File "/home/www-data/web2py/gluon/tools.py", line 3136, in create\n    formname=formname,\n  File "/home/www-data/web2py/gluon/tools.py", line 3048, in update\n    separator=self.settings.label_separator\n  File "/home/www-data/web2py/gluon/sqlhtml.py", line 830, in __init__\n    inp = self.widgets.options.widget(field, default)\n  File "/home/www-data/web2py/gluon/sqlhtml.py", line 218, in widget\n    options = requires[0].options()\n  File "/home/www-data/web2py/gluon/validators.py", line 438, in options\n    self.build_set()\n  File "/home/www-data/web2py/gluon/validators.py", line 426, in build_set\n    records = self.dbset.select(*fields, **dd)\n  File "/home/www-data/web2py/gluon/dal.py", line 5481, in select\n    return self.db._adapter.select(self.query,fields,attributes)\n  File "/home/www-data/web2py/gluon/dal.py", line 1179, in select\n    sql = self._select(query,fields,attributes)\n  File "/home/www-data/web2py/gluon/dal.py", line 1086, in _select\n    sql_w = \' WHERE \' + self.expand(query)\n  File "/home/www-data/web2py/gluon/dal.py", line 945, in expand\n    return expression.op(expression.first, expression.second)\n  File "/home/www-data/web2py/gluon/dal.py", line 894, in EQ\n    return \'(%s = %s)\' % (self.expand(first),self.expand(second,first.type))\n  File "/home/www-data/web2py/gluon/dal.py", line 951, in expand\n    return self.represent(expression,field_type)\n  File "/home/www-data/web2py/gluon/dal.py", line 1291, in represent\n    return str(int(obj))\nTypeError: int() argument must be a string or a number, not \'Table\'\n'
p5595
s.