(dp1
S'output'
p2
S''
sS'layer'
p3
S'/home/www-data/web2py/applications/scrum/controllers/ticket.py'
p4
sS'code'
p5
S'# coding: utf8\n# tente algo como\ndef index():\n    tickets = db(db.ticket.consultor == auth.id | db.ticket.analista.id == auth.id)\n    return dict(message="hello from ticket.py")\n\nresponse._vars=response._caller(index)\n'
p6
sS'snapshot'
p7
(dp8
S'exception'
p9
(dp10
S'__hash__'
p11
S"<method-wrapper '__hash__' of exceptions.AttributeError object>"
p12
sS'__setattr__'
p13
S"<method-wrapper '__setattr__' of exceptions.AttributeError object>"
p14
sS'__reduce_ex__'
p15
S'<built-in method __reduce_ex__ of exceptions.AttributeError object>'
p16
sS'__getslice__'
p17
S"<method-wrapper '__getslice__' of exceptions.AttributeError object>"
p18
sS'__getitem__'
p19
S"<method-wrapper '__getitem__' of exceptions.AttributeError object>"
p20
sS'__setstate__'
p21
S'<built-in method __setstate__ of exceptions.AttributeError object>'
p22
sS'__reduce__'
p23
S'<built-in method __reduce__ of exceptions.AttributeError object>'
p24
sS'__str__'
p25
S"<method-wrapper '__str__' of exceptions.AttributeError object>"
p26
sS'__format__'
p27
S'<built-in method __format__ of exceptions.AttributeError object>'
p28
sS'__getattribute__'
p29
S"<method-wrapper '__getattribute__' of exceptions.AttributeError object>"
p30
sS'__class__'
p31
S"<type 'exceptions.AttributeError'>"
p32
sS'__unicode__'
p33
S'<built-in method __unicode__ of exceptions.AttributeError object>'
p34
sS'__delattr__'
p35
S"<method-wrapper '__delattr__' of exceptions.AttributeError object>"
p36
sS'__subclasshook__'
p37
S'<built-in method __subclasshook__ of type object>'
p38
sS'__repr__'
p39
S"<method-wrapper '__repr__' of exceptions.AttributeError object>"
p40
sS'args'
p41
S'("\'Auth\' object has no attribute \'id\'",)'
p42
sS'__dict__'
p43
S'{}'
p44
sS'__sizeof__'
p45
S'<built-in method __sizeof__ of exceptions.AttributeError object>'
p46
sS'__doc__'
p47
S"'Attribute not found.'"
p48
sS'__init__'
p49
S"<method-wrapper '__init__' of exceptions.AttributeError object>"
p50
sS'__new__'
p51
S'<built-in method __new__ of type object>'
p52
ssS'evalue'
p53
S"'Auth' object has no attribute 'id'"
p54
sS'request'
p55
ccopy_reg
_reconstructor
p56
(cgluon.html
BEAUTIFY
p57
c__builtin__
object
p58
NtRp59
(dp60
S'attributes'
p61
(dp62
sS'components'
p63
(lp64
g56
(cgluon.html
TABLE
p65
g58
NtRp66
(dp67
g61
(dp68
S'level'
p69
I5
ssS'parent'
p70
Nsg63
(lp71
g56
(cgluon.html
TR
p72
g58
NtRp73
(dp74
g61
(dp75
sg70
g66
sg63
(lp76
g56
(cgluon.html
TD
p77
g58
NtRp78
(dp79
g61
(dp80
S'_style'
p81
S'font-weight:bold;'
p82
ssg70
g73
sg63
(lp83
S'ajax'
p84
asbag56
(g77
g58
NtRp85
(dp86
g61
(dp87
S'_valign'
p88
S'top'
p89
ssg70
g73
sg63
(lp90
S':'
asbag56
(g77
g58
NtRp91
(dp92
g61
(dp93
sg70
g73
sg63
(lp94
g56
(g57
g58
NtRp95
(dp96
g61
(dp97
g69
I5
ssg70
g91
sg63
(lp98
S'False'
p99
asbasbasbag56
(g72
g58
NtRp100
(dp101
g61
(dp102
sg70
g66
sg63
(lp103
g56
(g77
g58
NtRp104
(dp105
g61
(dp106
g81
g82
ssg70
g100
sg63
(lp107
S'application'
p108
asbag56
(g77
g58
NtRp109
(dp110
g61
(dp111
g88
g89
ssg70
g100
sg63
(lp112
S':'
asbag56
(g77
g58
NtRp113
(dp114
g61
(dp115
sg70
g100
sg63
(lp116
g56
(g57
g58
NtRp117
(dp118
g61
(dp119
g69
I5
ssg70
g113
sg63
(lp120
S'scrum'
p121
asbasbasbag56
(g72
g58
NtRp122
(dp123
g61
(dp124
sg70
g66
sg63
(lp125
g56
(g77
g58
NtRp126
(dp127
g61
(dp128
g81
g82
ssg70
g122
sg63
(lp129
g41
asbag56
(g77
g58
NtRp130
(dp131
g61
(dp132
g88
g89
ssg70
g122
sg63
(lp133
S':'
asbag56
(g77
g58
NtRp134
(dp135
g61
(dp136
sg70
g122
sg63
(lp137
g56
(g57
g58
NtRp138
(dp139
g61
(dp140
g69
I5
ssg70
g134
sg63
(lp141
g56
(g65
g58
NtRp142
(dp143
g61
(dp144
g69
I4
ssg70
Nsg63
(lp145
sbasbasbasbag56
(g72
g58
NtRp146
(dp147
g61
(dp148
sg70
g66
sg63
(lp149
g56
(g77
g58
NtRp150
(dp151
g61
(dp152
g81
g82
ssg70
g146
sg63
(lp153
S'body'
p154
asbag56
(g77
g58
NtRp155
(dp156
g61
(dp157
g88
g89
ssg70
g146
sg63
(lp158
S':'
asbag56
(g77
g58
NtRp159
(dp160
g61
(dp161
sg70
g146
sg63
(lp162
g56
(g57
g58
NtRp163
(dp164
g61
(dp165
g69
I5
ssg70
g159
sg63
(lp166
S'<cStringIO.StringO object at 0xb973e9c0>'
p167
asbasbasbag56
(g72
g58
NtRp168
(dp169
g61
(dp170
sg70
g66
sg63
(lp171
g56
(g77
g58
NtRp172
(dp173
g61
(dp174
g81
g82
ssg70
g168
sg63
(lp175
S'client'
p176
asbag56
(g77
g58
NtRp177
(dp178
g61
(dp179
g88
g89
ssg70
g168
sg63
(lp180
S':'
asbag56
(g77
g58
NtRp181
(dp182
g61
(dp183
sg70
g168
sg63
(lp184
g56
(g57
g58
NtRp185
(dp186
g61
(dp187
g69
I5
ssg70
g181
sg63
(lp188
S'127.0.0.1'
p189
asbasbasbag56
(g72
g58
NtRp190
(dp191
g61
(dp192
sg70
g66
sg63
(lp193
g56
(g77
g58
NtRp194
(dp195
g61
(dp196
g81
g82
ssg70
g190
sg63
(lp197
S'controller'
p198
asbag56
(g77
g58
NtRp199
(dp200
g61
(dp201
g88
g89
ssg70
g190
sg63
(lp202
S':'
asbag56
(g77
g58
NtRp203
(dp204
g61
(dp205
sg70
g190
sg63
(lp206
g56
(g57
g58
NtRp207
(dp208
g61
(dp209
g69
I5
ssg70
g203
sg63
(lp210
S'ticket'
p211
asbasbasbag56
(g72
g58
NtRp212
(dp213
g61
(dp214
sg70
g66
sg63
(lp215
g56
(g77
g58
NtRp216
(dp217
g61
(dp218
g81
g82
ssg70
g212
sg63
(lp219
S'cookies'
p220
asbag56
(g77
g58
NtRp221
(dp222
g61
(dp223
g88
g89
ssg70
g212
sg63
(lp224
S':'
asbag56
(g77
g58
NtRp225
(dp226
g61
(dp227
sg70
g212
sg63
(lp228
g56
(g57
g58
NtRp229
(dp230
g61
(dp231
g69
I5
ssg70
g225
sg63
(lp232
g56
(g65
g58
NtRp233
(dp234
g61
(dp235
g69
I4
ssg70
Nsg63
(lp236
g56
(g72
g58
NtRp237
(dp238
g61
(dp239
sg70
g233
sg63
(lp240
g56
(g77
g58
NtRp241
(dp242
g61
(dp243
g81
g82
ssg70
g237
sg63
(lp244
S'session_id_admin'
p245
asbag56
(g77
g58
NtRp246
(dp247
g61
(dp248
g88
g89
ssg70
g237
sg63
(lp249
S':'
asbag56
(g77
g58
NtRp250
(dp251
g61
(dp252
sg70
g237
sg63
(lp253
g56
(g57
g58
NtRp254
(dp255
g61
(dp256
g69
I4
ssg70
g250
sg63
(lp257
g56
(g65
g58
NtRp258
(dp259
g61
(dp260
g69
I3
ssg70
Nsg63
(lp261
g56
(g72
g58
NtRp262
(dp263
g61
(dp264
sg70
g258
sg63
(lp265
g56
(g77
g58
NtRp266
(dp267
g61
(dp268
g81
g82
ssg70
g262
sg63
(lp269
S'comment'
p270
asbag56
(g77
g58
NtRp271
(dp272
g61
(dp273
g88
g89
ssg70
g262
sg63
(lp274
S':'
asbag56
(g77
g58
NtRp275
(dp276
g61
(dp277
sg70
g262
sg63
(lp278
g56
(g57
g58
NtRp279
(dp280
g61
(dp281
g69
I3
ssg70
g275
sg63
(lp282
S''
asbasbasbag56
(g72
g58
NtRp283
(dp284
g61
(dp285
sg70
g258
sg63
(lp286
g56
(g77
g58
NtRp287
(dp288
g61
(dp289
g81
g82
ssg70
g283
sg63
(lp290
S'domain'
p291
asbag56
(g77
g58
NtRp292
(dp293
g61
(dp294
g88
g89
ssg70
g283
sg63
(lp295
S':'
asbag56
(g77
g58
NtRp296
(dp297
g61
(dp298
sg70
g283
sg63
(lp299
g56
(g57
g58
NtRp300
(dp301
g61
(dp302
g69
I3
ssg70
g296
sg63
(lp303
S''
asbasbasbag56
(g72
g58
NtRp304
(dp305
g61
(dp306
sg70
g258
sg63
(lp307
g56
(g77
g58
NtRp308
(dp309
g61
(dp310
g81
g82
ssg70
g304
sg63
(lp311
S'expires'
p312
asbag56
(g77
g58
NtRp313
(dp314
g61
(dp315
g88
g89
ssg70
g304
sg63
(lp316
S':'
asbag56
(g77
g58
NtRp317
(dp318
g61
(dp319
sg70
g304
sg63
(lp320
g56
(g57
g58
NtRp321
(dp322
g61
(dp323
g69
I3
ssg70
g317
sg63
(lp324
S''
asbasbasbag56
(g72
g58
NtRp325
(dp326
g61
(dp327
sg70
g258
sg63
(lp328
g56
(g77
g58
NtRp329
(dp330
g61
(dp331
g81
g82
ssg70
g325
sg63
(lp332
S'httponly'
p333
asbag56
(g77
g58
NtRp334
(dp335
g61
(dp336
g88
g89
ssg70
g325
sg63
(lp337
S':'
asbag56
(g77
g58
NtRp338
(dp339
g61
(dp340
sg70
g325
sg63
(lp341
g56
(g57
g58
NtRp342
(dp343
g61
(dp344
g69
I3
ssg70
g338
sg63
(lp345
S''
asbasbasbag56
(g72
g58
NtRp346
(dp347
g61
(dp348
sg70
g258
sg63
(lp349
g56
(g77
g58
NtRp350
(dp351
g61
(dp352
g81
g82
ssg70
g346
sg63
(lp353
S'max-age'
p354
asbag56
(g77
g58
NtRp355
(dp356
g61
(dp357
g88
g89
ssg70
g346
sg63
(lp358
S':'
asbag56
(g77
g58
NtRp359
(dp360
g61
(dp361
sg70
g346
sg63
(lp362
g56
(g57
g58
NtRp363
(dp364
g61
(dp365
g69
I3
ssg70
g359
sg63
(lp366
S''
asbasbasbag56
(g72
g58
NtRp367
(dp368
g61
(dp369
sg70
g258
sg63
(lp370
g56
(g77
g58
NtRp371
(dp372
g61
(dp373
g81
g82
ssg70
g367
sg63
(lp374
S'path'
p375
asbag56
(g77
g58
NtRp376
(dp377
g61
(dp378
g88
g89
ssg70
g367
sg63
(lp379
S':'
asbag56
(g77
g58
NtRp380
(dp381
g61
(dp382
sg70
g367
sg63
(lp383
g56
(g57
g58
NtRp384
(dp385
g61
(dp386
g69
I3
ssg70
g380
sg63
(lp387
S''
asbasbasbag56
(g72
g58
NtRp388
(dp389
g61
(dp390
sg70
g258
sg63
(lp391
g56
(g77
g58
NtRp392
(dp393
g61
(dp394
g81
g82
ssg70
g388
sg63
(lp395
S'secure'
p396
asbag56
(g77
g58
NtRp397
(dp398
g61
(dp399
g88
g89
ssg70
g388
sg63
(lp400
S':'
asbag56
(g77
g58
NtRp401
(dp402
g61
(dp403
sg70
g388
sg63
(lp404
g56
(g57
g58
NtRp405
(dp406
g61
(dp407
g69
I3
ssg70
g401
sg63
(lp408
S''
asbasbasbag56
(g72
g58
NtRp409
(dp410
g61
(dp411
sg70
g258
sg63
(lp412
g56
(g77
g58
NtRp413
(dp414
g61
(dp415
g81
g82
ssg70
g409
sg63
(lp416
S'version'
p417
asbag56
(g77
g58
NtRp418
(dp419
g61
(dp420
g88
g89
ssg70
g409
sg63
(lp421
S':'
asbag56
(g77
g58
NtRp422
(dp423
g61
(dp424
sg70
g409
sg63
(lp425
g56
(g57
g58
NtRp426
(dp427
g61
(dp428
g69
I3
ssg70
g422
sg63
(lp429
S''
asbasbasbasbasbasbasbasbasbasbasbag56
(g72
g58
NtRp430
(dp431
g61
(dp432
sg70
g66
sg63
(lp433
g56
(g77
g58
NtRp434
(dp435
g61
(dp436
g81
g82
ssg70
g430
sg63
(lp437
S'env'
p438
asbag56
(g77
g58
NtRp439
(dp440
g61
(dp441
g88
g89
ssg70
g430
sg63
(lp442
S':'
asbag56
(g77
g58
NtRp443
(dp444
g61
(dp445
sg70
g430
sg63
(lp446
g56
(g57
g58
NtRp447
(dp448
g61
(dp449
g69
I5
ssg70
g443
sg63
(lp450
g56
(g65
g58
NtRp451
(dp452
g61
(dp453
g69
I4
ssg70
Nsg63
(lp454
g56
(g72
g58
NtRp455
(dp456
g61
(dp457
sg70
g451
sg63
(lp458
g56
(g77
g58
NtRp459
(dp460
g61
(dp461
g81
g82
ssg70
g455
sg63
(lp462
S'app_folders'
p463
asbag56
(g77
g58
NtRp464
(dp465
g61
(dp466
g88
g89
ssg70
g455
sg63
(lp467
S':'
asbag56
(g77
g58
NtRp468
(dp469
g61
(dp470
sg70
g455
sg63
(lp471
g56
(g57
g58
NtRp472
(dp473
g61
(dp474
g69
I4
ssg70
g468
sg63
(lp475
S"set(['/home/www-data/web2py/applications/scrum/', '/home/www-data/web2py/applications/admin/'])"
p476
asbasbasbag56
(g72
g58
NtRp477
(dp478
g61
(dp479
sg70
g451
sg63
(lp480
g56
(g77
g58
NtRp481
(dp482
g61
(dp483
g81
g82
ssg70
g477
sg63
(lp484
S'applications_parent'
p485
asbag56
(g77
g58
NtRp486
(dp487
g61
(dp488
g88
g89
ssg70
g477
sg63
(lp489
S':'
asbag56
(g77
g58
NtRp490
(dp491
g61
(dp492
sg70
g477
sg63
(lp493
g56
(g57
g58
NtRp494
(dp495
g61
(dp496
g69
I4
ssg70
g490
sg63
(lp497
S'/home/www-data/web2py'
p498
asbasbasbag56
(g72
g58
NtRp499
(dp500
g61
(dp501
sg70
g451
sg63
(lp502
g56
(g77
g58
NtRp503
(dp504
g61
(dp505
g81
g82
ssg70
g499
sg63
(lp506
S'db_sessions'
p507
asbag56
(g77
g58
NtRp508
(dp509
g61
(dp510
g88
g89
ssg70
g499
sg63
(lp511
S':'
asbag56
(g77
g58
NtRp512
(dp513
g61
(dp514
sg70
g499
sg63
(lp515
g56
(g57
g58
NtRp516
(dp517
g61
(dp518
g69
I4
ssg70
g512
sg63
(lp519
S'set([])'
p520
asbasbasbag56
(g72
g58
NtRp521
(dp522
g61
(dp523
sg70
g451
sg63
(lp524
g56
(g77
g58
NtRp525
(dp526
g61
(dp527
g81
g82
ssg70
g521
sg63
(lp528
S'debugging'
p529
asbag56
(g77
g58
NtRp530
(dp531
g61
(dp532
g88
g89
ssg70
g521
sg63
(lp533
S':'
asbag56
(g77
g58
NtRp534
(dp535
g61
(dp536
sg70
g521
sg63
(lp537
g56
(g57
g58
NtRp538
(dp539
g61
(dp540
g69
I4
ssg70
g534
sg63
(lp541
g99
asbasbasbag56
(g72
g58
NtRp542
(dp543
g61
(dp544
sg70
g451
sg63
(lp545
g56
(g77
g58
NtRp546
(dp547
g61
(dp548
g81
g82
ssg70
g542
sg63
(lp549
S'document_root'
p550
asbag56
(g77
g58
NtRp551
(dp552
g61
(dp553
g88
g89
ssg70
g542
sg63
(lp554
S':'
asbag56
(g77
g58
NtRp555
(dp556
g61
(dp557
sg70
g542
sg63
(lp558
g56
(g57
g58
NtRp559
(dp560
g61
(dp561
g69
I4
ssg70
g555
sg63
(lp562
S'/etc/apache2/htdocs'
p563
asbasbasbag56
(g72
g58
NtRp564
(dp565
g61
(dp566
sg70
g451
sg63
(lp567
g56
(g77
g58
NtRp568
(dp569
g61
(dp570
g81
g82
ssg70
g564
sg63
(lp571
S'gateway_interface'
p572
asbag56
(g77
g58
NtRp573
(dp574
g61
(dp575
g88
g89
ssg70
g564
sg63
(lp576
S':'
asbag56
(g77
g58
NtRp577
(dp578
g61
(dp579
sg70
g564
sg63
(lp580
g56
(g57
g58
NtRp581
(dp582
g61
(dp583
g69
I4
ssg70
g577
sg63
(lp584
S'CGI/1.1'
p585
asbasbasbag56
(g72
g58
NtRp586
(dp587
g61
(dp588
sg70
g451
sg63
(lp589
g56
(g77
g58
NtRp590
(dp591
g61
(dp592
g81
g82
ssg70
g586
sg63
(lp593
S'gluon_parent'
p594
asbag56
(g77
g58
NtRp595
(dp596
g61
(dp597
g88
g89
ssg70
g586
sg63
(lp598
S':'
asbag56
(g77
g58
NtRp599
(dp600
g61
(dp601
sg70
g586
sg63
(lp602
g56
(g57
g58
NtRp603
(dp604
g61
(dp605
g69
I4
ssg70
g599
sg63
(lp606
g498
asbasbasbag56
(g72
g58
NtRp607
(dp608
g61
(dp609
sg70
g451
sg63
(lp610
g56
(g77
g58
NtRp611
(dp612
g61
(dp613
g81
g82
ssg70
g607
sg63
(lp614
S'http_accept'
p615
asbag56
(g77
g58
NtRp616
(dp617
g61
(dp618
g88
g89
ssg70
g607
sg63
(lp619
S':'
asbag56
(g77
g58
NtRp620
(dp621
g61
(dp622
sg70
g607
sg63
(lp623
g56
(g57
g58
NtRp624
(dp625
g61
(dp626
g69
I4
ssg70
g620
sg63
(lp627
S'text/html, application/xml;q=0.9, application/xhtml+xml, image/png, image/webp, image/jpeg, image/gif, image/x-xbitmap, */*;q=0.1'
p628
asbasbasbag56
(g72
g58
NtRp629
(dp630
g61
(dp631
sg70
g451
sg63
(lp632
g56
(g77
g58
NtRp633
(dp634
g61
(dp635
g81
g82
ssg70
g629
sg63
(lp636
S'http_accept_encoding'
p637
asbag56
(g77
g58
NtRp638
(dp639
g61
(dp640
g88
g89
ssg70
g629
sg63
(lp641
S':'
asbag56
(g77
g58
NtRp642
(dp643
g61
(dp644
sg70
g629
sg63
(lp645
g56
(g57
g58
NtRp646
(dp647
g61
(dp648
g69
I4
ssg70
g642
sg63
(lp649
S'gzip, deflate'
p650
asbasbasbag56
(g72
g58
NtRp651
(dp652
g61
(dp653
sg70
g451
sg63
(lp654
g56
(g77
g58
NtRp655
(dp656
g61
(dp657
g81
g82
ssg70
g651
sg63
(lp658
S'http_accept_language'
p659
asbag56
(g77
g58
NtRp660
(dp661
g61
(dp662
g88
g89
ssg70
g651
sg63
(lp663
S':'
asbag56
(g77
g58
NtRp664
(dp665
g61
(dp666
sg70
g651
sg63
(lp667
g56
(g57
g58
NtRp668
(dp669
g61
(dp670
g69
I4
ssg70
g664
sg63
(lp671
S'pt-BR,pt;q=0.9,en;q=0.8'
p672
asbasbasbag56
(g72
g58
NtRp673
(dp674
g61
(dp675
sg70
g451
sg63
(lp676
g56
(g77
g58
NtRp677
(dp678
g61
(dp679
g81
g82
ssg70
g673
sg63
(lp680
S'http_cache_control'
p681
asbag56
(g77
g58
NtRp682
(dp683
g61
(dp684
g88
g89
ssg70
g673
sg63
(lp685
S':'
asbag56
(g77
g58
NtRp686
(dp687
g61
(dp688
sg70
g673
sg63
(lp689
g56
(g57
g58
NtRp690
(dp691
g61
(dp692
g69
I4
ssg70
g686
sg63
(lp693
S'no-cache'
p694
asbasbasbag56
(g72
g58
NtRp695
(dp696
g61
(dp697
sg70
g451
sg63
(lp698
g56
(g77
g58
NtRp699
(dp700
g61
(dp701
g81
g82
ssg70
g695
sg63
(lp702
S'http_connection'
p703
asbag56
(g77
g58
NtRp704
(dp705
g61
(dp706
g88
g89
ssg70
g695
sg63
(lp707
S':'
asbag56
(g77
g58
NtRp708
(dp709
g61
(dp710
sg70
g695
sg63
(lp711
g56
(g57
g58
NtRp712
(dp713
g61
(dp714
g69
I4
ssg70
g708
sg63
(lp715
S'Keep-Alive'
p716
asbasbasbag56
(g72
g58
NtRp717
(dp718
g61
(dp719
sg70
g451
sg63
(lp720
g56
(g77
g58
NtRp721
(dp722
g61
(dp723
g81
g82
ssg70
g717
sg63
(lp724
S'http_cookie'
p725
asbag56
(g77
g58
NtRp726
(dp727
g61
(dp728
g88
g89
ssg70
g717
sg63
(lp729
S':'
asbag56
(g77
g58
NtRp730
(dp731
g61
(dp732
sg70
g717
sg63
(lp733
g56
(g57
g58
NtRp734
(dp735
g61
(dp736
g69
I4
ssg70
g730
sg63
(lp737
S'session_id_admin=127.0.0.1-ce034cfe-dc55-49ae-8249-b059df779a22'
p738
asbasbasbag56
(g72
g58
NtRp739
(dp740
g61
(dp741
sg70
g451
sg63
(lp742
g56
(g77
g58
NtRp743
(dp744
g61
(dp745
g81
g82
ssg70
g739
sg63
(lp746
S'http_host'
p747
asbag56
(g77
g58
NtRp748
(dp749
g61
(dp750
g88
g89
ssg70
g739
sg63
(lp751
S':'
asbag56
(g77
g58
NtRp752
(dp753
g61
(dp754
sg70
g739
sg63
(lp755
g56
(g57
g58
NtRp756
(dp757
g61
(dp758
g69
I4
ssg70
g752
sg63
(lp759
S'localhost'
p760
asbasbasbag56
(g72
g58
NtRp761
(dp762
g61
(dp763
sg70
g451
sg63
(lp764
g56
(g77
g58
NtRp765
(dp766
g61
(dp767
g81
g82
ssg70
g761
sg63
(lp768
S'http_referer'
p769
asbag56
(g77
g58
NtRp770
(dp771
g61
(dp772
g88
g89
ssg70
g761
sg63
(lp773
S':'
asbag56
(g77
g58
NtRp774
(dp775
g61
(dp776
sg70
g761
sg63
(lp777
g56
(g57
g58
NtRp778
(dp779
g61
(dp780
g69
I4
ssg70
g774
sg63
(lp781
S'https://localhost/admin/default/edit/scrum/controllers/ticket.py'
p782
asbasbasbag56
(g72
g58
NtRp783
(dp784
g61
(dp785
sg70
g451
sg63
(lp786
g56
(g77
g58
NtRp787
(dp788
g61
(dp789
g81
g82
ssg70
g783
sg63
(lp790
S'http_user_agent'
p791
asbag56
(g77
g58
NtRp792
(dp793
g61
(dp794
g88
g89
ssg70
g783
sg63
(lp795
S':'
asbag56
(g77
g58
NtRp796
(dp797
g61
(dp798
sg70
g783
sg63
(lp799
g56
(g57
g58
NtRp800
(dp801
g61
(dp802
g69
I4
ssg70
g796
sg63
(lp803
S'Opera/9.80 (X11; Linux i686; U; pt-BR) Presto/2.9.168 Version/11.51'
p804
asbasbasbag56
(g72
g58
NtRp805
(dp806
g61
(dp807
sg70
g451
sg63
(lp808
g56
(g77
g58
NtRp809
(dp810
g61
(dp811
g81
g82
ssg70
g805
sg63
(lp812
S'https'
p813
asbag56
(g77
g58
NtRp814
(dp815
g61
(dp816
g88
g89
ssg70
g805
sg63
(lp817
S':'
asbag56
(g77
g58
NtRp818
(dp819
g61
(dp820
sg70
g805
sg63
(lp821
g56
(g57
g58
NtRp822
(dp823
g61
(dp824
g69
I4
ssg70
g818
sg63
(lp825
S'1'
asbasbasbag56
(g72
g58
NtRp826
(dp827
g61
(dp828
sg70
g451
sg63
(lp829
g56
(g77
g58
NtRp830
(dp831
g61
(dp832
g81
g82
ssg70
g826
sg63
(lp833
S'is_jython'
p834
asbag56
(g77
g58
NtRp835
(dp836
g61
(dp837
g88
g89
ssg70
g826
sg63
(lp838
S':'
asbag56
(g77
g58
NtRp839
(dp840
g61
(dp841
sg70
g826
sg63
(lp842
g56
(g57
g58
NtRp843
(dp844
g61
(dp845
g69
I4
ssg70
g839
sg63
(lp846
g99
asbasbasbag56
(g72
g58
NtRp847
(dp848
g61
(dp849
sg70
g451
sg63
(lp850
g56
(g77
g58
NtRp851
(dp852
g61
(dp853
g81
g82
ssg70
g847
sg63
(lp854
S'mod_wsgi_application_group'
p855
asbag56
(g77
g58
NtRp856
(dp857
g61
(dp858
g88
g89
ssg70
g847
sg63
(lp859
S':'
asbag56
(g77
g58
NtRp860
(dp861
g61
(dp862
sg70
g847
sg63
(lp863
g56
(g57
g58
NtRp864
(dp865
g61
(dp866
g69
I4
ssg70
g860
sg63
(lp867
S'localhost.localdomain|'
p868
asbasbasbag56
(g72
g58
NtRp869
(dp870
g61
(dp871
sg70
g451
sg63
(lp872
g56
(g77
g58
NtRp873
(dp874
g61
(dp875
g81
g82
ssg70
g869
sg63
(lp876
S'mod_wsgi_callable_object'
p877
asbag56
(g77
g58
NtRp878
(dp879
g61
(dp880
g88
g89
ssg70
g869
sg63
(lp881
S':'
asbag56
(g77
g58
NtRp882
(dp883
g61
(dp884
sg70
g869
sg63
(lp885
g56
(g57
g58
NtRp886
(dp887
g61
(dp888
g69
I4
ssg70
g882
sg63
(lp889
S'application'
p890
asbasbasbag56
(g72
g58
NtRp891
(dp892
g61
(dp893
sg70
g451
sg63
(lp894
g56
(g77
g58
NtRp895
(dp896
g61
(dp897
g81
g82
ssg70
g891
sg63
(lp898
S'mod_wsgi_handler_script'
p899
asbag56
(g77
g58
NtRp900
(dp901
g61
(dp902
g88
g89
ssg70
g891
sg63
(lp903
S':'
asbag56
(g77
g58
NtRp904
(dp905
g61
(dp906
sg70
g891
sg63
(lp907
g56
(g57
g58
NtRp908
(dp909
g61
(dp910
g69
I4
ssg70
g904
sg63
(lp911
S''
asbasbasbag56
(g72
g58
NtRp912
(dp913
g61
(dp914
sg70
g451
sg63
(lp915
g56
(g77
g58
NtRp916
(dp917
g61
(dp918
g81
g82
ssg70
g912
sg63
(lp919
S'mod_wsgi_input_chunked'
p920
asbag56
(g77
g58
NtRp921
(dp922
g61
(dp923
g88
g89
ssg70
g912
sg63
(lp924
S':'
asbag56
(g77
g58
NtRp925
(dp926
g61
(dp927
sg70
g912
sg63
(lp928
g56
(g57
g58
NtRp929
(dp930
g61
(dp931
g69
I4
ssg70
g925
sg63
(lp932
S'0'
asbasbasbag56
(g72
g58
NtRp933
(dp934
g61
(dp935
sg70
g451
sg63
(lp936
g56
(g77
g58
NtRp937
(dp938
g61
(dp939
g81
g82
ssg70
g933
sg63
(lp940
S'mod_wsgi_listener_host'
p941
asbag56
(g77
g58
NtRp942
(dp943
g61
(dp944
g88
g89
ssg70
g933
sg63
(lp945
S':'
asbag56
(g77
g58
NtRp946
(dp947
g61
(dp948
sg70
g933
sg63
(lp949
g56
(g57
g58
NtRp950
(dp951
g61
(dp952
g69
I4
ssg70
g946
sg63
(lp953
S''
asbasbasbag56
(g72
g58
NtRp954
(dp955
g61
(dp956
sg70
g451
sg63
(lp957
g56
(g77
g58
NtRp958
(dp959
g61
(dp960
g81
g82
ssg70
g954
sg63
(lp961
S'mod_wsgi_listener_port'
p962
asbag56
(g77
g58
NtRp963
(dp964
g61
(dp965
g88
g89
ssg70
g954
sg63
(lp966
S':'
asbag56
(g77
g58
NtRp967
(dp968
g61
(dp969
sg70
g954
sg63
(lp970
g56
(g57
g58
NtRp971
(dp972
g61
(dp973
g69
I4
ssg70
g967
sg63
(lp974
S'443'
p975
asbasbasbag56
(g72
g58
NtRp976
(dp977
g61
(dp978
sg70
g451
sg63
(lp979
g56
(g77
g58
NtRp980
(dp981
g61
(dp982
g81
g82
ssg70
g976
sg63
(lp983
S'mod_wsgi_process_group'
p984
asbag56
(g77
g58
NtRp985
(dp986
g61
(dp987
g88
g89
ssg70
g976
sg63
(lp988
S':'
asbag56
(g77
g58
NtRp989
(dp990
g61
(dp991
sg70
g976
sg63
(lp992
g56
(g57
g58
NtRp993
(dp994
g61
(dp995
g69
I4
ssg70
g989
sg63
(lp996
S'web2py'
p997
asbasbasbag56
(g72
g58
NtRp998
(dp999
g61
(dp1000
sg70
g451
sg63
(lp1001
g56
(g77
g58
NtRp1002
(dp1003
g61
(dp1004
g81
g82
ssg70
g998
sg63
(lp1005
S'mod_wsgi_request_handler'
p1006
asbag56
(g77
g58
NtRp1007
(dp1008
g61
(dp1009
g88
g89
ssg70
g998
sg63
(lp1010
S':'
asbag56
(g77
g58
NtRp1011
(dp1012
g61
(dp1013
sg70
g998
sg63
(lp1014
g56
(g57
g58
NtRp1015
(dp1016
g61
(dp1017
g69
I4
ssg70
g1011
sg63
(lp1018
S'wsgi-script'
p1019
asbasbasbag56
(g72
g58
NtRp1020
(dp1021
g61
(dp1022
sg70
g451
sg63
(lp1023
g56
(g77
g58
NtRp1024
(dp1025
g61
(dp1026
g81
g82
ssg70
g1020
sg63
(lp1027
S'mod_wsgi_script_reloading'
p1028
asbag56
(g77
g58
NtRp1029
(dp1030
g61
(dp1031
g88
g89
ssg70
g1020
sg63
(lp1032
S':'
asbag56
(g77
g58
NtRp1033
(dp1034
g61
(dp1035
sg70
g1020
sg63
(lp1036
g56
(g57
g58
NtRp1037
(dp1038
g61
(dp1039
g69
I4
ssg70
g1033
sg63
(lp1040
S'1'
asbasbasbag56
(g72
g58
NtRp1041
(dp1042
g61
(dp1043
sg70
g451
sg63
(lp1044
g56
(g77
g58
NtRp1045
(dp1046
g61
(dp1047
g81
g82
ssg70
g1041
sg63
(lp1048
S'mod_wsgi_version'
p1049
asbag56
(g77
g58
NtRp1050
(dp1051
g61
(dp1052
g88
g89
ssg70
g1041
sg63
(lp1053
S':'
asbag56
(g77
g58
NtRp1054
(dp1055
g61
(dp1056
sg70
g1041
sg63
(lp1057
g56
(g57
g58
NtRp1058
(dp1059
g61
(dp1060
g69
I4
ssg70
g1054
sg63
(lp1061
g56
(g65
g58
NtRp1062
(dp1063
g61
(dp1064
g69
I3
ssg70
Nsg63
(lp1065
g56
(g72
g58
NtRp1066
(dp1067
g61
(dp1068
sg70
g1062
sg63
(lp1069
g56
(g77
g58
NtRp1070
(dp1071
g61
(dp1072
sg70
g1066
sg63
(lp1073
g56
(g57
g58
NtRp1074
(dp1075
g61
(dp1076
g69
I3
ssg70
g1070
sg63
(lp1077
S'3'
asbasbasbag56
(g72
g58
NtRp1078
(dp1079
g61
(dp1080
sg70
g1062
sg63
(lp1081
g56
(g77
g58
NtRp1082
(dp1083
g61
(dp1084
sg70
g1078
sg63
(lp1085
g56
(g57
g58
NtRp1086
(dp1087
g61
(dp1088
g69
I3
ssg70
g1082
sg63
(lp1089
S'3'
asbasbasbasbasbasbasbag56
(g72
g58
NtRp1090
(dp1091
g61
(dp1092
sg70
g451
sg63
(lp1093
g56
(g77
g58
NtRp1094
(dp1095
g61
(dp1096
g81
g82
ssg70
g1090
sg63
(lp1097
S'path_info'
p1098
asbag56
(g77
g58
NtRp1099
(dp1100
g61
(dp1101
g88
g89
ssg70
g1090
sg63
(lp1102
S':'
asbag56
(g77
g58
NtRp1103
(dp1104
g61
(dp1105
sg70
g1090
sg63
(lp1106
g56
(g57
g58
NtRp1107
(dp1108
g61
(dp1109
g69
I4
ssg70
g1103
sg63
(lp1110
S'/scrum/ticket/index'
p1111
asbasbasbag56
(g72
g58
NtRp1112
(dp1113
g61
(dp1114
sg70
g451
sg63
(lp1115
g56
(g77
g58
NtRp1116
(dp1117
g61
(dp1118
g81
g82
ssg70
g1112
sg63
(lp1119
S'path_translated'
p1120
asbag56
(g77
g58
NtRp1121
(dp1122
g61
(dp1123
g88
g89
ssg70
g1112
sg63
(lp1124
S':'
asbag56
(g77
g58
NtRp1125
(dp1126
g61
(dp1127
sg70
g1112
sg63
(lp1128
g56
(g57
g58
NtRp1129
(dp1130
g61
(dp1131
g69
I4
ssg70
g1125
sg63
(lp1132
S'/home/www-data/web2py/wsgihandler.py/scrum/ticket/index'
p1133
asbasbasbag56
(g72
g58
NtRp1134
(dp1135
g61
(dp1136
sg70
g451
sg63
(lp1137
g56
(g77
g58
NtRp1138
(dp1139
g61
(dp1140
g81
g82
ssg70
g1134
sg63
(lp1141
S'query_string'
p1142
asbag56
(g77
g58
NtRp1143
(dp1144
g61
(dp1145
g88
g89
ssg70
g1134
sg63
(lp1146
S':'
asbag56
(g77
g58
NtRp1147
(dp1148
g61
(dp1149
sg70
g1134
sg63
(lp1150
g56
(g57
g58
NtRp1151
(dp1152
g61
(dp1153
g69
I4
ssg70
g1147
sg63
(lp1154
S''
asbasbasbag56
(g72
g58
NtRp1155
(dp1156
g61
(dp1157
sg70
g451
sg63
(lp1158
g56
(g77
g58
NtRp1159
(dp1160
g61
(dp1161
g81
g82
ssg70
g1155
sg63
(lp1162
S'remote_addr'
p1163
asbag56
(g77
g58
NtRp1164
(dp1165
g61
(dp1166
g88
g89
ssg70
g1155
sg63
(lp1167
S':'
asbag56
(g77
g58
NtRp1168
(dp1169
g61
(dp1170
sg70
g1155
sg63
(lp1171
g56
(g57
g58
NtRp1172
(dp1173
g61
(dp1174
g69
I4
ssg70
g1168
sg63
(lp1175
g189
asbasbasbag56
(g72
g58
NtRp1176
(dp1177
g61
(dp1178
sg70
g451
sg63
(lp1179
g56
(g77
g58
NtRp1180
(dp1181
g61
(dp1182
g81
g82
ssg70
g1176
sg63
(lp1183
S'remote_port'
p1184
asbag56
(g77
g58
NtRp1185
(dp1186
g61
(dp1187
g88
g89
ssg70
g1176
sg63
(lp1188
S':'
asbag56
(g77
g58
NtRp1189
(dp1190
g61
(dp1191
sg70
g1176
sg63
(lp1192
g56
(g57
g58
NtRp1193
(dp1194
g61
(dp1195
g69
I4
ssg70
g1189
sg63
(lp1196
S'57343'
p1197
asbasbasbag56
(g72
g58
NtRp1198
(dp1199
g61
(dp1200
sg70
g451
sg63
(lp1201
g56
(g77
g58
NtRp1202
(dp1203
g61
(dp1204
g81
g82
ssg70
g1198
sg63
(lp1205
S'request_method'
p1206
asbag56
(g77
g58
NtRp1207
(dp1208
g61
(dp1209
g88
g89
ssg70
g1198
sg63
(lp1210
S':'
asbag56
(g77
g58
NtRp1211
(dp1212
g61
(dp1213
sg70
g1198
sg63
(lp1214
g56
(g57
g58
NtRp1215
(dp1216
g61
(dp1217
g69
I4
ssg70
g1211
sg63
(lp1218
S'GET'
p1219
asbasbasbag56
(g72
g58
NtRp1220
(dp1221
g61
(dp1222
sg70
g451
sg63
(lp1223
g56
(g77
g58
NtRp1224
(dp1225
g61
(dp1226
g81
g82
ssg70
g1220
sg63
(lp1227
S'request_uri'
p1228
asbag56
(g77
g58
NtRp1229
(dp1230
g61
(dp1231
g88
g89
ssg70
g1220
sg63
(lp1232
S':'
asbag56
(g77
g58
NtRp1233
(dp1234
g61
(dp1235
sg70
g1220
sg63
(lp1236
g56
(g57
g58
NtRp1237
(dp1238
g61
(dp1239
g69
I4
ssg70
g1233
sg63
(lp1240
S'/scrum/ticket/index'
p1241
asbasbasbag56
(g72
g58
NtRp1242
(dp1243
g61
(dp1244
sg70
g451
sg63
(lp1245
g56
(g77
g58
NtRp1246
(dp1247
g61
(dp1248
g81
g82
ssg70
g1242
sg63
(lp1249
S'script_filename'
p1250
asbag56
(g77
g58
NtRp1251
(dp1252
g61
(dp1253
g88
g89
ssg70
g1242
sg63
(lp1254
S':'
asbag56
(g77
g58
NtRp1255
(dp1256
g61
(dp1257
sg70
g1242
sg63
(lp1258
g56
(g57
g58
NtRp1259
(dp1260
g61
(dp1261
g69
I4
ssg70
g1255
sg63
(lp1262
S'/home/www-data/web2py/wsgihandler.py'
p1263
asbasbasbag56
(g72
g58
NtRp1264
(dp1265
g61
(dp1266
sg70
g451
sg63
(lp1267
g56
(g77
g58
NtRp1268
(dp1269
g61
(dp1270
g81
g82
ssg70
g1264
sg63
(lp1271
S'script_name'
p1272
asbag56
(g77
g58
NtRp1273
(dp1274
g61
(dp1275
g88
g89
ssg70
g1264
sg63
(lp1276
S':'
asbag56
(g77
g58
NtRp1277
(dp1278
g61
(dp1279
sg70
g1264
sg63
(lp1280
g56
(g57
g58
NtRp1281
(dp1282
g61
(dp1283
g69
I4
ssg70
g1277
sg63
(lp1284
S''
asbasbasbag56
(g72
g58
NtRp1285
(dp1286
g61
(dp1287
sg70
g451
sg63
(lp1288
g56
(g77
g58
NtRp1289
(dp1290
g61
(dp1291
g81
g82
ssg70
g1285
sg63
(lp1292
S'server_addr'
p1293
asbag56
(g77
g58
NtRp1294
(dp1295
g61
(dp1296
g88
g89
ssg70
g1285
sg63
(lp1297
S':'
asbag56
(g77
g58
NtRp1298
(dp1299
g61
(dp1300
sg70
g1285
sg63
(lp1301
g56
(g57
g58
NtRp1302
(dp1303
g61
(dp1304
g69
I4
ssg70
g1298
sg63
(lp1305
S'127.0.0.1'
p1306
asbasbasbag56
(g72
g58
NtRp1307
(dp1308
g61
(dp1309
sg70
g451
sg63
(lp1310
g56
(g77
g58
NtRp1311
(dp1312
g61
(dp1313
g81
g82
ssg70
g1307
sg63
(lp1314
S'server_admin'
p1315
asbag56
(g77
g58
NtRp1316
(dp1317
g61
(dp1318
g88
g89
ssg70
g1307
sg63
(lp1319
S':'
asbag56
(g77
g58
NtRp1320
(dp1321
g61
(dp1322
sg70
g1307
sg63
(lp1323
g56
(g57
g58
NtRp1324
(dp1325
g61
(dp1326
g69
I4
ssg70
g1320
sg63
(lp1327
S'[no address given]'
p1328
asbasbasbag56
(g72
g58
NtRp1329
(dp1330
g61
(dp1331
sg70
g451
sg63
(lp1332
g56
(g77
g58
NtRp1333
(dp1334
g61
(dp1335
g81
g82
ssg70
g1329
sg63
(lp1336
S'server_name'
p1337
asbag56
(g77
g58
NtRp1338
(dp1339
g61
(dp1340
g88
g89
ssg70
g1329
sg63
(lp1341
S':'
asbag56
(g77
g58
NtRp1342
(dp1343
g61
(dp1344
sg70
g1329
sg63
(lp1345
g56
(g57
g58
NtRp1346
(dp1347
g61
(dp1348
g69
I4
ssg70
g1342
sg63
(lp1349
S'localhost'
p1350
asbasbasbag56
(g72
g58
NtRp1351
(dp1352
g61
(dp1353
sg70
g451
sg63
(lp1354
g56
(g77
g58
NtRp1355
(dp1356
g61
(dp1357
g81
g82
ssg70
g1351
sg63
(lp1358
S'server_port'
p1359
asbag56
(g77
g58
NtRp1360
(dp1361
g61
(dp1362
g88
g89
ssg70
g1351
sg63
(lp1363
S':'
asbag56
(g77
g58
NtRp1364
(dp1365
g61
(dp1366
sg70
g1351
sg63
(lp1367
g56
(g57
g58
NtRp1368
(dp1369
g61
(dp1370
g69
I4
ssg70
g1364
sg63
(lp1371
S'443'
p1372
asbasbasbag56
(g72
g58
NtRp1373
(dp1374
g61
(dp1375
sg70
g451
sg63
(lp1376
g56
(g77
g58
NtRp1377
(dp1378
g61
(dp1379
g81
g82
ssg70
g1373
sg63
(lp1380
S'server_protocol'
p1381
asbag56
(g77
g58
NtRp1382
(dp1383
g61
(dp1384
g88
g89
ssg70
g1373
sg63
(lp1385
S':'
asbag56
(g77
g58
NtRp1386
(dp1387
g61
(dp1388
sg70
g1373
sg63
(lp1389
g56
(g57
g58
NtRp1390
(dp1391
g61
(dp1392
g69
I4
ssg70
g1386
sg63
(lp1393
S'HTTP/1.1'
p1394
asbasbasbag56
(g72
g58
NtRp1395
(dp1396
g61
(dp1397
sg70
g451
sg63
(lp1398
g56
(g77
g58
NtRp1399
(dp1400
g61
(dp1401
g81
g82
ssg70
g1395
sg63
(lp1402
S'server_signature'
p1403
asbag56
(g77
g58
NtRp1404
(dp1405
g61
(dp1406
g88
g89
ssg70
g1395
sg63
(lp1407
S':'
asbag56
(g77
g58
NtRp1408
(dp1409
g61
(dp1410
sg70
g1395
sg63
(lp1411
g56
(g57
g58
NtRp1412
(dp1413
g61
(dp1414
g69
I4
ssg70
g1408
sg63
(lp1415
S'<address>Apache/2.2.17 (Ubuntu) Server at localhost Port 443</address>\n'
p1416
asbasbasbag56
(g72
g58
NtRp1417
(dp1418
g61
(dp1419
sg70
g451
sg63
(lp1420
g56
(g77
g58
NtRp1421
(dp1422
g61
(dp1423
g81
g82
ssg70
g1417
sg63
(lp1424
S'server_software'
p1425
asbag56
(g77
g58
NtRp1426
(dp1427
g61
(dp1428
g88
g89
ssg70
g1417
sg63
(lp1429
S':'
asbag56
(g77
g58
NtRp1430
(dp1431
g61
(dp1432
sg70
g1417
sg63
(lp1433
g56
(g57
g58
NtRp1434
(dp1435
g61
(dp1436
g69
I4
ssg70
g1430
sg63
(lp1437
S'Apache/2.2.17 (Ubuntu)'
p1438
asbasbasbag56
(g72
g58
NtRp1439
(dp1440
g61
(dp1441
sg70
g451
sg63
(lp1442
g56
(g77
g58
NtRp1443
(dp1444
g61
(dp1445
g81
g82
ssg70
g1439
sg63
(lp1446
S'ssl_tls_sni'
p1447
asbag56
(g77
g58
NtRp1448
(dp1449
g61
(dp1450
g88
g89
ssg70
g1439
sg63
(lp1451
S':'
asbag56
(g77
g58
NtRp1452
(dp1453
g61
(dp1454
sg70
g1439
sg63
(lp1455
g56
(g57
g58
NtRp1456
(dp1457
g61
(dp1458
g69
I4
ssg70
g1452
sg63
(lp1459
S'localhost'
p1460
asbasbasbag56
(g72
g58
NtRp1461
(dp1462
g61
(dp1463
sg70
g451
sg63
(lp1464
g56
(g77
g58
NtRp1465
(dp1466
g61
(dp1467
g81
g82
ssg70
g1461
sg63
(lp1468
S'web2py_path'
p1469
asbag56
(g77
g58
NtRp1470
(dp1471
g61
(dp1472
g88
g89
ssg70
g1461
sg63
(lp1473
S':'
asbag56
(g77
g58
NtRp1474
(dp1475
g61
(dp1476
sg70
g1461
sg63
(lp1477
g56
(g57
g58
NtRp1478
(dp1479
g61
(dp1480
g69
I4
ssg70
g1474
sg63
(lp1481
g498
asbasbasbag56
(g72
g58
NtRp1482
(dp1483
g61
(dp1484
sg70
g451
sg63
(lp1485
g56
(g77
g58
NtRp1486
(dp1487
g61
(dp1488
g81
g82
ssg70
g1482
sg63
(lp1489
S'web2py_version'
p1490
asbag56
(g77
g58
NtRp1491
(dp1492
g61
(dp1493
g88
g89
ssg70
g1482
sg63
(lp1494
S':'
asbag56
(g77
g58
NtRp1495
(dp1496
g61
(dp1497
sg70
g1482
sg63
(lp1498
g56
(g57
g58
NtRp1499
(dp1500
g61
(dp1501
g69
I4
ssg70
g1495
sg63
(lp1502
S'Version 1.98.2 (2011-08-04 00:47:09)\n'
p1503
asbasbasbag56
(g72
g58
NtRp1504
(dp1505
g61
(dp1506
sg70
g451
sg63
(lp1507
g56
(g77
g58
NtRp1508
(dp1509
g61
(dp1510
g81
g82
ssg70
g1504
sg63
(lp1511
S'wsgi_errors'
p1512
asbag56
(g77
g58
NtRp1513
(dp1514
g61
(dp1515
g88
g89
ssg70
g1504
sg63
(lp1516
S':'
asbag56
(g77
g58
NtRp1517
(dp1518
g61
(dp1519
sg70
g1504
sg63
(lp1520
g56
(g57
g58
NtRp1521
(dp1522
g61
(dp1523
g69
I4
ssg70
g1517
sg63
(lp1524
S'<mod_wsgi.Log object at 0xb965a700>'
p1525
asbasbasbag56
(g72
g58
NtRp1526
(dp1527
g61
(dp1528
sg70
g451
sg63
(lp1529
g56
(g77
g58
NtRp1530
(dp1531
g61
(dp1532
g81
g82
ssg70
g1526
sg63
(lp1533
S'wsgi_file_wrapper'
p1534
asbag56
(g77
g58
NtRp1535
(dp1536
g61
(dp1537
g88
g89
ssg70
g1526
sg63
(lp1538
S':'
asbag56
(g77
g58
NtRp1539
(dp1540
g61
(dp1541
sg70
g1526
sg63
(lp1542
g56
(g57
g58
NtRp1543
(dp1544
g61
(dp1545
g69
I4
ssg70
g1539
sg63
(lp1546
S'<built-in method file_wrapper of mod_wsgi.Adapter object at 0xb9824ec0>'
p1547
asbasbasbag56
(g72
g58
NtRp1548
(dp1549
g61
(dp1550
sg70
g451
sg63
(lp1551
g56
(g77
g58
NtRp1552
(dp1553
g61
(dp1554
g81
g82
ssg70
g1548
sg63
(lp1555
S'wsgi_input'
p1556
asbag56
(g77
g58
NtRp1557
(dp1558
g61
(dp1559
g88
g89
ssg70
g1548
sg63
(lp1560
S':'
asbag56
(g77
g58
NtRp1561
(dp1562
g61
(dp1563
sg70
g1548
sg63
(lp1564
g56
(g57
g58
NtRp1565
(dp1566
g61
(dp1567
g69
I4
ssg70
g1561
sg63
(lp1568
S'<mod_wsgi.Input object at 0xb965aca0>'
p1569
asbasbasbag56
(g72
g58
NtRp1570
(dp1571
g61
(dp1572
sg70
g451
sg63
(lp1573
g56
(g77
g58
NtRp1574
(dp1575
g61
(dp1576
g81
g82
ssg70
g1570
sg63
(lp1577
S'wsgi_multiprocess'
p1578
asbag56
(g77
g58
NtRp1579
(dp1580
g61
(dp1581
g88
g89
ssg70
g1570
sg63
(lp1582
S':'
asbag56
(g77
g58
NtRp1583
(dp1584
g61
(dp1585
sg70
g1570
sg63
(lp1586
g56
(g57
g58
NtRp1587
(dp1588
g61
(dp1589
g69
I4
ssg70
g1583
sg63
(lp1590
g99
asbasbasbag56
(g72
g58
NtRp1591
(dp1592
g61
(dp1593
sg70
g451
sg63
(lp1594
g56
(g77
g58
NtRp1595
(dp1596
g61
(dp1597
g81
g82
ssg70
g1591
sg63
(lp1598
S'wsgi_multithread'
p1599
asbag56
(g77
g58
NtRp1600
(dp1601
g61
(dp1602
g88
g89
ssg70
g1591
sg63
(lp1603
S':'
asbag56
(g77
g58
NtRp1604
(dp1605
g61
(dp1606
sg70
g1591
sg63
(lp1607
g56
(g57
g58
NtRp1608
(dp1609
g61
(dp1610
g69
I4
ssg70
g1604
sg63
(lp1611
S'True'
p1612
asbasbasbag56
(g72
g58
NtRp1613
(dp1614
g61
(dp1615
sg70
g451
sg63
(lp1616
g56
(g77
g58
NtRp1617
(dp1618
g61
(dp1619
g81
g82
ssg70
g1613
sg63
(lp1620
S'wsgi_run_once'
p1621
asbag56
(g77
g58
NtRp1622
(dp1623
g61
(dp1624
g88
g89
ssg70
g1613
sg63
(lp1625
S':'
asbag56
(g77
g58
NtRp1626
(dp1627
g61
(dp1628
sg70
g1613
sg63
(lp1629
g56
(g57
g58
NtRp1630
(dp1631
g61
(dp1632
g69
I4
ssg70
g1626
sg63
(lp1633
g99
asbasbasbag56
(g72
g58
NtRp1634
(dp1635
g61
(dp1636
sg70
g451
sg63
(lp1637
g56
(g77
g58
NtRp1638
(dp1639
g61
(dp1640
g81
g82
ssg70
g1634
sg63
(lp1641
S'wsgi_url_scheme'
p1642
asbag56
(g77
g58
NtRp1643
(dp1644
g61
(dp1645
g88
g89
ssg70
g1634
sg63
(lp1646
S':'
asbag56
(g77
g58
NtRp1647
(dp1648
g61
(dp1649
sg70
g1634
sg63
(lp1650
g56
(g57
g58
NtRp1651
(dp1652
g61
(dp1653
g69
I4
ssg70
g1647
sg63
(lp1654
S'https'
p1655
asbasbasbag56
(g72
g58
NtRp1656
(dp1657
g61
(dp1658
sg70
g451
sg63
(lp1659
g56
(g77
g58
NtRp1660
(dp1661
g61
(dp1662
g81
g82
ssg70
g1656
sg63
(lp1663
S'wsgi_version'
p1664
asbag56
(g77
g58
NtRp1665
(dp1666
g61
(dp1667
g88
g89
ssg70
g1656
sg63
(lp1668
S':'
asbag56
(g77
g58
NtRp1669
(dp1670
g61
(dp1671
sg70
g1656
sg63
(lp1672
g56
(g57
g58
NtRp1673
(dp1674
g61
(dp1675
g69
I4
ssg70
g1669
sg63
(lp1676
g56
(g65
g58
NtRp1677
(dp1678
g61
(dp1679
g69
I3
ssg70
Nsg63
(lp1680
g56
(g72
g58
NtRp1681
(dp1682
g61
(dp1683
sg70
g1677
sg63
(lp1684
g56
(g77
g58
NtRp1685
(dp1686
g61
(dp1687
sg70
g1681
sg63
(lp1688
g56
(g57
g58
NtRp1689
(dp1690
g61
(dp1691
g69
I3
ssg70
g1685
sg63
(lp1692
S'1'
asbasbasbag56
(g72
g58
NtRp1693
(dp1694
g61
(dp1695
sg70
g1677
sg63
(lp1696
g56
(g77
g58
NtRp1697
(dp1698
g61
(dp1699
sg70
g1693
sg63
(lp1700
g56
(g57
g58
NtRp1701
(dp1702
g61
(dp1703
g69
I3
ssg70
g1697
sg63
(lp1704
S'1'
asbasbasbasbasbasbasbasbasbasbasbag56
(g72
g58
NtRp1705
(dp1706
g61
(dp1707
sg70
g66
sg63
(lp1708
g56
(g77
g58
NtRp1709
(dp1710
g61
(dp1711
g81
g82
ssg70
g1705
sg63
(lp1712
S'extension'
p1713
asbag56
(g77
g58
NtRp1714
(dp1715
g61
(dp1716
g88
g89
ssg70
g1705
sg63
(lp1717
S':'
asbag56
(g77
g58
NtRp1718
(dp1719
g61
(dp1720
sg70
g1705
sg63
(lp1721
g56
(g57
g58
NtRp1722
(dp1723
g61
(dp1724
g69
I5
ssg70
g1718
sg63
(lp1725
S'html'
p1726
asbasbasbag56
(g72
g58
NtRp1727
(dp1728
g61
(dp1729
sg70
g66
sg63
(lp1730
g56
(g77
g58
NtRp1731
(dp1732
g61
(dp1733
g81
g82
ssg70
g1727
sg63
(lp1734
S'folder'
p1735
asbag56
(g77
g58
NtRp1736
(dp1737
g61
(dp1738
g88
g89
ssg70
g1727
sg63
(lp1739
S':'
asbag56
(g77
g58
NtRp1740
(dp1741
g61
(dp1742
sg70
g1727
sg63
(lp1743
g56
(g57
g58
NtRp1744
(dp1745
g61
(dp1746
g69
I5
ssg70
g1740
sg63
(lp1747
S'/home/www-data/web2py/applications/scrum/'
p1748
asbasbasbag56
(g72
g58
NtRp1749
(dp1750
g61
(dp1751
sg70
g66
sg63
(lp1752
g56
(g77
g58
NtRp1753
(dp1754
g61
(dp1755
g81
g82
ssg70
g1749
sg63
(lp1756
S'function'
p1757
asbag56
(g77
g58
NtRp1758
(dp1759
g61
(dp1760
g88
g89
ssg70
g1749
sg63
(lp1761
S':'
asbag56
(g77
g58
NtRp1762
(dp1763
g61
(dp1764
sg70
g1749
sg63
(lp1765
g56
(g57
g58
NtRp1766
(dp1767
g61
(dp1768
g69
I5
ssg70
g1762
sg63
(lp1769
S'index'
p1770
asbasbasbag56
(g72
g58
NtRp1771
(dp1772
g61
(dp1773
sg70
g66
sg63
(lp1774
g56
(g77
g58
NtRp1775
(dp1776
g61
(dp1777
g81
g82
ssg70
g1771
sg63
(lp1778
S'get_vars'
p1779
asbag56
(g77
g58
NtRp1780
(dp1781
g61
(dp1782
g88
g89
ssg70
g1771
sg63
(lp1783
S':'
asbag56
(g77
g58
NtRp1784
(dp1785
g61
(dp1786
sg70
g1771
sg63
(lp1787
g56
(g57
g58
NtRp1788
(dp1789
g61
(dp1790
g69
I5
ssg70
g1784
sg63
(lp1791
g56
(g65
g58
NtRp1792
(dp1793
g61
(dp1794
g69
I4
ssg70
Nsg63
(lp1795
sbasbasbasbag56
(g72
g58
NtRp1796
(dp1797
g61
(dp1798
sg70
g66
sg63
(lp1799
g56
(g77
g58
NtRp1800
(dp1801
g61
(dp1802
g81
g82
ssg70
g1796
sg63
(lp1803
S'is_https'
p1804
asbag56
(g77
g58
NtRp1805
(dp1806
g61
(dp1807
g88
g89
ssg70
g1796
sg63
(lp1808
S':'
asbag56
(g77
g58
NtRp1809
(dp1810
g61
(dp1811
sg70
g1796
sg63
(lp1812
g56
(g57
g58
NtRp1813
(dp1814
g61
(dp1815
g69
I5
ssg70
g1809
sg63
(lp1816
g1612
asbasbasbag56
(g72
g58
NtRp1817
(dp1818
g61
(dp1819
sg70
g66
sg63
(lp1820
g56
(g77
g58
NtRp1821
(dp1822
g61
(dp1823
g81
g82
ssg70
g1817
sg63
(lp1824
S'is_local'
p1825
asbag56
(g77
g58
NtRp1826
(dp1827
g61
(dp1828
g88
g89
ssg70
g1817
sg63
(lp1829
S':'
asbag56
(g77
g58
NtRp1830
(dp1831
g61
(dp1832
sg70
g1817
sg63
(lp1833
g56
(g57
g58
NtRp1834
(dp1835
g61
(dp1836
g69
I5
ssg70
g1830
sg63
(lp1837
g1612
asbasbasbag56
(g72
g58
NtRp1838
(dp1839
g61
(dp1840
sg70
g66
sg63
(lp1841
g56
(g77
g58
NtRp1842
(dp1843
g61
(dp1844
g81
g82
ssg70
g1838
sg63
(lp1845
S'is_restful'
p1846
asbag56
(g77
g58
NtRp1847
(dp1848
g61
(dp1849
g88
g89
ssg70
g1838
sg63
(lp1850
S':'
asbag56
(g77
g58
NtRp1851
(dp1852
g61
(dp1853
sg70
g1838
sg63
(lp1854
g56
(g57
g58
NtRp1855
(dp1856
g61
(dp1857
g69
I5
ssg70
g1851
sg63
(lp1858
g99
asbasbasbag56
(g72
g58
NtRp1859
(dp1860
g61
(dp1861
sg70
g66
sg63
(lp1862
g56
(g77
g58
NtRp1863
(dp1864
g61
(dp1865
g81
g82
ssg70
g1859
sg63
(lp1866
S'now'
p1867
asbag56
(g77
g58
NtRp1868
(dp1869
g61
(dp1870
g88
g89
ssg70
g1859
sg63
(lp1871
S':'
asbag56
(g77
g58
NtRp1872
(dp1873
g61
(dp1874
sg70
g1859
sg63
(lp1875
g56
(g57
g58
NtRp1876
(dp1877
g61
(dp1878
g69
I5
ssg70
g1872
sg63
(lp1879
S'datetime.datetime(2011, 9, 8, 13, 38, 0, 829128)'
p1880
asbasbasbag56
(g72
g58
NtRp1881
(dp1882
g61
(dp1883
sg70
g66
sg63
(lp1884
g56
(g77
g58
NtRp1885
(dp1886
g61
(dp1887
g81
g82
ssg70
g1881
sg63
(lp1888
S'post_vars'
p1889
asbag56
(g77
g58
NtRp1890
(dp1891
g61
(dp1892
g88
g89
ssg70
g1881
sg63
(lp1893
S':'
asbag56
(g77
g58
NtRp1894
(dp1895
g61
(dp1896
sg70
g1881
sg63
(lp1897
g56
(g57
g58
NtRp1898
(dp1899
g61
(dp1900
g69
I5
ssg70
g1894
sg63
(lp1901
g56
(g65
g58
NtRp1902
(dp1903
g61
(dp1904
g69
I4
ssg70
Nsg63
(lp1905
sbasbasbasbag56
(g72
g58
NtRp1906
(dp1907
g61
(dp1908
sg70
g66
sg63
(lp1909
g56
(g77
g58
NtRp1910
(dp1911
g61
(dp1912
g81
g82
ssg70
g1906
sg63
(lp1913
S'url'
p1914
asbag56
(g77
g58
NtRp1915
(dp1916
g61
(dp1917
g88
g89
ssg70
g1906
sg63
(lp1918
S':'
asbag56
(g77
g58
NtRp1919
(dp1920
g61
(dp1921
sg70
g1906
sg63
(lp1922
g56
(g57
g58
NtRp1923
(dp1924
g61
(dp1925
g69
I5
ssg70
g1919
sg63
(lp1926
S'/scrum/ticket/index'
p1927
asbasbasbag56
(g72
g58
NtRp1928
(dp1929
g61
(dp1930
sg70
g66
sg63
(lp1931
g56
(g77
g58
NtRp1932
(dp1933
g61
(dp1934
g81
g82
ssg70
g1928
sg63
(lp1935
S'uuid'
p1936
asbag56
(g77
g58
NtRp1937
(dp1938
g61
(dp1939
g88
g89
ssg70
g1928
sg63
(lp1940
S':'
asbag56
(g77
g58
NtRp1941
(dp1942
g61
(dp1943
sg70
g1928
sg63
(lp1944
g56
(g57
g58
NtRp1945
(dp1946
g61
(dp1947
g69
I5
ssg70
g1941
sg63
(lp1948
S'scrum/127.0.0.1.2011-09-08.13-38-00.bf79b7a3-029a-4016-85d9-55f94adc192a'
p1949
asbasbasbag56
(g72
g58
NtRp1950
(dp1951
g61
(dp1952
sg70
g66
sg63
(lp1953
g56
(g77
g58
NtRp1954
(dp1955
g61
(dp1956
g81
g82
ssg70
g1950
sg63
(lp1957
S'vars'
p1958
asbag56
(g77
g58
NtRp1959
(dp1960
g61
(dp1961
g88
g89
ssg70
g1950
sg63
(lp1962
S':'
asbag56
(g77
g58
NtRp1963
(dp1964
g61
(dp1965
sg70
g1950
sg63
(lp1966
g56
(g57
g58
NtRp1967
(dp1968
g61
(dp1969
g69
I5
ssg70
g1963
sg63
(lp1970
g56
(g65
g58
NtRp1971
(dp1972
g61
(dp1973
g69
I4
ssg70
Nsg63
(lp1974
sbasbasbasbag56
(g72
g58
NtRp1975
(dp1976
g61
(dp1977
sg70
g66
sg63
(lp1978
g56
(g77
g58
NtRp1979
(dp1980
g61
(dp1981
g81
g82
ssg70
g1975
sg63
(lp1982
S'wsgi'
p1983
asbag56
(g77
g58
NtRp1984
(dp1985
g61
(dp1986
g88
g89
ssg70
g1975
sg63
(lp1987
S':'
asbag56
(g77
g58
NtRp1988
(dp1989
g61
(dp1990
sg70
g1975
sg63
(lp1991
g56
(g57
g58
NtRp1992
(dp1993
g61
(dp1994
g69
I5
ssg70
g1988
sg63
(lp1995
g56
(g65
g58
NtRp1996
(dp1997
g61
(dp1998
g69
I4
ssg70
Nsg63
(lp1999
g56
(g72
g58
NtRp2000
(dp2001
g61
(dp2002
sg70
g1996
sg63
(lp2003
g56
(g77
g58
NtRp2004
(dp2005
g61
(dp2006
g81
g82
ssg70
g2000
sg63
(lp2007
S'environ'
p2008
asbag56
(g77
g58
NtRp2009
(dp2010
g61
(dp2011
g88
g89
ssg70
g2000
sg63
(lp2012
S':'
asbag56
(g77
g58
NtRp2013
(dp2014
g61
(dp2015
sg70
g2000
sg63
(lp2016
g56
(g57
g58
NtRp2017
(dp2018
g61
(dp2019
g69
I4
ssg70
g2013
sg63
(lp2020
g56
(g65
g58
NtRp2021
(dp2022
g61
(dp2023
g69
I3
ssg70
Nsg63
(lp2024
g56
(g72
g58
NtRp2025
(dp2026
g61
(dp2027
sg70
g2021
sg63
(lp2028
g56
(g77
g58
NtRp2029
(dp2030
g61
(dp2031
g81
g82
ssg70
g2025
sg63
(lp2032
S'DOCUMENT_ROOT'
p2033
asbag56
(g77
g58
NtRp2034
(dp2035
g61
(dp2036
g88
g89
ssg70
g2025
sg63
(lp2037
S':'
asbag56
(g77
g58
NtRp2038
(dp2039
g61
(dp2040
sg70
g2025
sg63
(lp2041
g56
(g57
g58
NtRp2042
(dp2043
g61
(dp2044
g69
I3
ssg70
g2038
sg63
(lp2045
g563
asbasbasbag56
(g72
g58
NtRp2046
(dp2047
g61
(dp2048
sg70
g2021
sg63
(lp2049
g56
(g77
g58
NtRp2050
(dp2051
g61
(dp2052
g81
g82
ssg70
g2046
sg63
(lp2053
S'GATEWAY_INTERFACE'
p2054
asbag56
(g77
g58
NtRp2055
(dp2056
g61
(dp2057
g88
g89
ssg70
g2046
sg63
(lp2058
S':'
asbag56
(g77
g58
NtRp2059
(dp2060
g61
(dp2061
sg70
g2046
sg63
(lp2062
g56
(g57
g58
NtRp2063
(dp2064
g61
(dp2065
g69
I3
ssg70
g2059
sg63
(lp2066
g585
asbasbasbag56
(g72
g58
NtRp2067
(dp2068
g61
(dp2069
sg70
g2021
sg63
(lp2070
g56
(g77
g58
NtRp2071
(dp2072
g61
(dp2073
g81
g82
ssg70
g2067
sg63
(lp2074
S'HTTPS'
p2075
asbag56
(g77
g58
NtRp2076
(dp2077
g61
(dp2078
g88
g89
ssg70
g2067
sg63
(lp2079
S':'
asbag56
(g77
g58
NtRp2080
(dp2081
g61
(dp2082
sg70
g2067
sg63
(lp2083
g56
(g57
g58
NtRp2084
(dp2085
g61
(dp2086
g69
I3
ssg70
g2080
sg63
(lp2087
S'1'
asbasbasbag56
(g72
g58
NtRp2088
(dp2089
g61
(dp2090
sg70
g2021
sg63
(lp2091
g56
(g77
g58
NtRp2092
(dp2093
g61
(dp2094
g81
g82
ssg70
g2088
sg63
(lp2095
S'HTTP_ACCEPT'
p2096
asbag56
(g77
g58
NtRp2097
(dp2098
g61
(dp2099
g88
g89
ssg70
g2088
sg63
(lp2100
S':'
asbag56
(g77
g58
NtRp2101
(dp2102
g61
(dp2103
sg70
g2088
sg63
(lp2104
g56
(g57
g58
NtRp2105
(dp2106
g61
(dp2107
g69
I3
ssg70
g2101
sg63
(lp2108
g628
asbasbasbag56
(g72
g58
NtRp2109
(dp2110
g61
(dp2111
sg70
g2021
sg63
(lp2112
g56
(g77
g58
NtRp2113
(dp2114
g61
(dp2115
g81
g82
ssg70
g2109
sg63
(lp2116
S'HTTP_ACCEPT_ENCODING'
p2117
asbag56
(g77
g58
NtRp2118
(dp2119
g61
(dp2120
g88
g89
ssg70
g2109
sg63
(lp2121
S':'
asbag56
(g77
g58
NtRp2122
(dp2123
g61
(dp2124
sg70
g2109
sg63
(lp2125
g56
(g57
g58
NtRp2126
(dp2127
g61
(dp2128
g69
I3
ssg70
g2122
sg63
(lp2129
g650
asbasbasbag56
(g72
g58
NtRp2130
(dp2131
g61
(dp2132
sg70
g2021
sg63
(lp2133
g56
(g77
g58
NtRp2134
(dp2135
g61
(dp2136
g81
g82
ssg70
g2130
sg63
(lp2137
S'HTTP_ACCEPT_LANGUAGE'
p2138
asbag56
(g77
g58
NtRp2139
(dp2140
g61
(dp2141
g88
g89
ssg70
g2130
sg63
(lp2142
S':'
asbag56
(g77
g58
NtRp2143
(dp2144
g61
(dp2145
sg70
g2130
sg63
(lp2146
g56
(g57
g58
NtRp2147
(dp2148
g61
(dp2149
g69
I3
ssg70
g2143
sg63
(lp2150
g672
asbasbasbag56
(g72
g58
NtRp2151
(dp2152
g61
(dp2153
sg70
g2021
sg63
(lp2154
g56
(g77
g58
NtRp2155
(dp2156
g61
(dp2157
g81
g82
ssg70
g2151
sg63
(lp2158
S'HTTP_CACHE_CONTROL'
p2159
asbag56
(g77
g58
NtRp2160
(dp2161
g61
(dp2162
g88
g89
ssg70
g2151
sg63
(lp2163
S':'
asbag56
(g77
g58
NtRp2164
(dp2165
g61
(dp2166
sg70
g2151
sg63
(lp2167
g56
(g57
g58
NtRp2168
(dp2169
g61
(dp2170
g69
I3
ssg70
g2164
sg63
(lp2171
g694
asbasbasbag56
(g72
g58
NtRp2172
(dp2173
g61
(dp2174
sg70
g2021
sg63
(lp2175
g56
(g77
g58
NtRp2176
(dp2177
g61
(dp2178
g81
g82
ssg70
g2172
sg63
(lp2179
S'HTTP_CONNECTION'
p2180
asbag56
(g77
g58
NtRp2181
(dp2182
g61
(dp2183
g88
g89
ssg70
g2172
sg63
(lp2184
S':'
asbag56
(g77
g58
NtRp2185
(dp2186
g61
(dp2187
sg70
g2172
sg63
(lp2188
g56
(g57
g58
NtRp2189
(dp2190
g61
(dp2191
g69
I3
ssg70
g2185
sg63
(lp2192
g716
asbasbasbag56
(g72
g58
NtRp2193
(dp2194
g61
(dp2195
sg70
g2021
sg63
(lp2196
g56
(g77
g58
NtRp2197
(dp2198
g61
(dp2199
g81
g82
ssg70
g2193
sg63
(lp2200
S'HTTP_COOKIE'
p2201
asbag56
(g77
g58
NtRp2202
(dp2203
g61
(dp2204
g88
g89
ssg70
g2193
sg63
(lp2205
S':'
asbag56
(g77
g58
NtRp2206
(dp2207
g61
(dp2208
sg70
g2193
sg63
(lp2209
g56
(g57
g58
NtRp2210
(dp2211
g61
(dp2212
g69
I3
ssg70
g2206
sg63
(lp2213
g738
asbasbasbag56
(g72
g58
NtRp2214
(dp2215
g61
(dp2216
sg70
g2021
sg63
(lp2217
g56
(g77
g58
NtRp2218
(dp2219
g61
(dp2220
g81
g82
ssg70
g2214
sg63
(lp2221
S'HTTP_HOST'
p2222
asbag56
(g77
g58
NtRp2223
(dp2224
g61
(dp2225
g88
g89
ssg70
g2214
sg63
(lp2226
S':'
asbag56
(g77
g58
NtRp2227
(dp2228
g61
(dp2229
sg70
g2214
sg63
(lp2230
g56
(g57
g58
NtRp2231
(dp2232
g61
(dp2233
g69
I3
ssg70
g2227
sg63
(lp2234
g760
asbasbasbag56
(g72
g58
NtRp2235
(dp2236
g61
(dp2237
sg70
g2021
sg63
(lp2238
g56
(g77
g58
NtRp2239
(dp2240
g61
(dp2241
g81
g82
ssg70
g2235
sg63
(lp2242
S'HTTP_REFERER'
p2243
asbag56
(g77
g58
NtRp2244
(dp2245
g61
(dp2246
g88
g89
ssg70
g2235
sg63
(lp2247
S':'
asbag56
(g77
g58
NtRp2248
(dp2249
g61
(dp2250
sg70
g2235
sg63
(lp2251
g56
(g57
g58
NtRp2252
(dp2253
g61
(dp2254
g69
I3
ssg70
g2248
sg63
(lp2255
g782
asbasbasbag56
(g72
g58
NtRp2256
(dp2257
g61
(dp2258
sg70
g2021
sg63
(lp2259
g56
(g77
g58
NtRp2260
(dp2261
g61
(dp2262
g81
g82
ssg70
g2256
sg63
(lp2263
S'HTTP_USER_AGENT'
p2264
asbag56
(g77
g58
NtRp2265
(dp2266
g61
(dp2267
g88
g89
ssg70
g2256
sg63
(lp2268
S':'
asbag56
(g77
g58
NtRp2269
(dp2270
g61
(dp2271
sg70
g2256
sg63
(lp2272
g56
(g57
g58
NtRp2273
(dp2274
g61
(dp2275
g69
I3
ssg70
g2269
sg63
(lp2276
g804
asbasbasbag56
(g72
g58
NtRp2277
(dp2278
g61
(dp2279
sg70
g2021
sg63
(lp2280
g56
(g77
g58
NtRp2281
(dp2282
g61
(dp2283
g81
g82
ssg70
g2277
sg63
(lp2284
S'PATH_INFO'
p2285
asbag56
(g77
g58
NtRp2286
(dp2287
g61
(dp2288
g88
g89
ssg70
g2277
sg63
(lp2289
S':'
asbag56
(g77
g58
NtRp2290
(dp2291
g61
(dp2292
sg70
g2277
sg63
(lp2293
g56
(g57
g58
NtRp2294
(dp2295
g61
(dp2296
g69
I3
ssg70
g2290
sg63
(lp2297
g1111
asbasbasbag56
(g72
g58
NtRp2298
(dp2299
g61
(dp2300
sg70
g2021
sg63
(lp2301
g56
(g77
g58
NtRp2302
(dp2303
g61
(dp2304
g81
g82
ssg70
g2298
sg63
(lp2305
S'PATH_TRANSLATED'
p2306
asbag56
(g77
g58
NtRp2307
(dp2308
g61
(dp2309
g88
g89
ssg70
g2298
sg63
(lp2310
S':'
asbag56
(g77
g58
NtRp2311
(dp2312
g61
(dp2313
sg70
g2298
sg63
(lp2314
g56
(g57
g58
NtRp2315
(dp2316
g61
(dp2317
g69
I3
ssg70
g2311
sg63
(lp2318
g1133
asbasbasbag56
(g72
g58
NtRp2319
(dp2320
g61
(dp2321
sg70
g2021
sg63
(lp2322
g56
(g77
g58
NtRp2323
(dp2324
g61
(dp2325
g81
g82
ssg70
g2319
sg63
(lp2326
S'QUERY_STRING'
p2327
asbag56
(g77
g58
NtRp2328
(dp2329
g61
(dp2330
g88
g89
ssg70
g2319
sg63
(lp2331
S':'
asbag56
(g77
g58
NtRp2332
(dp2333
g61
(dp2334
sg70
g2319
sg63
(lp2335
g56
(g57
g58
NtRp2336
(dp2337
g61
(dp2338
g69
I3
ssg70
g2332
sg63
(lp2339
S''
asbasbasbag56
(g72
g58
NtRp2340
(dp2341
g61
(dp2342
sg70
g2021
sg63
(lp2343
g56
(g77
g58
NtRp2344
(dp2345
g61
(dp2346
g81
g82
ssg70
g2340
sg63
(lp2347
S'REMOTE_ADDR'
p2348
asbag56
(g77
g58
NtRp2349
(dp2350
g61
(dp2351
g88
g89
ssg70
g2340
sg63
(lp2352
S':'
asbag56
(g77
g58
NtRp2353
(dp2354
g61
(dp2355
sg70
g2340
sg63
(lp2356
g56
(g57
g58
NtRp2357
(dp2358
g61
(dp2359
g69
I3
ssg70
g2353
sg63
(lp2360
g189
asbasbasbag56
(g72
g58
NtRp2361
(dp2362
g61
(dp2363
sg70
g2021
sg63
(lp2364
g56
(g77
g58
NtRp2365
(dp2366
g61
(dp2367
g81
g82
ssg70
g2361
sg63
(lp2368
S'REMOTE_PORT'
p2369
asbag56
(g77
g58
NtRp2370
(dp2371
g61
(dp2372
g88
g89
ssg70
g2361
sg63
(lp2373
S':'
asbag56
(g77
g58
NtRp2374
(dp2375
g61
(dp2376
sg70
g2361
sg63
(lp2377
g56
(g57
g58
NtRp2378
(dp2379
g61
(dp2380
g69
I3
ssg70
g2374
sg63
(lp2381
g1197
asbasbasbag56
(g72
g58
NtRp2382
(dp2383
g61
(dp2384
sg70
g2021
sg63
(lp2385
g56
(g77
g58
NtRp2386
(dp2387
g61
(dp2388
g81
g82
ssg70
g2382
sg63
(lp2389
S'REQUEST_METHOD'
p2390
asbag56
(g77
g58
NtRp2391
(dp2392
g61
(dp2393
g88
g89
ssg70
g2382
sg63
(lp2394
S':'
asbag56
(g77
g58
NtRp2395
(dp2396
g61
(dp2397
sg70
g2382
sg63
(lp2398
g56
(g57
g58
NtRp2399
(dp2400
g61
(dp2401
g69
I3
ssg70
g2395
sg63
(lp2402
g1219
asbasbasbag56
(g72
g58
NtRp2403
(dp2404
g61
(dp2405
sg70
g2021
sg63
(lp2406
g56
(g77
g58
NtRp2407
(dp2408
g61
(dp2409
g81
g82
ssg70
g2403
sg63
(lp2410
S'REQUEST_URI'
p2411
asbag56
(g77
g58
NtRp2412
(dp2413
g61
(dp2414
g88
g89
ssg70
g2403
sg63
(lp2415
S':'
asbag56
(g77
g58
NtRp2416
(dp2417
g61
(dp2418
sg70
g2403
sg63
(lp2419
g56
(g57
g58
NtRp2420
(dp2421
g61
(dp2422
g69
I3
ssg70
g2416
sg63
(lp2423
g1241
asbasbasbag56
(g72
g58
NtRp2424
(dp2425
g61
(dp2426
sg70
g2021
sg63
(lp2427
g56
(g77
g58
NtRp2428
(dp2429
g61
(dp2430
g81
g82
ssg70
g2424
sg63
(lp2431
S'SCRIPT_FILENAME'
p2432
asbag56
(g77
g58
NtRp2433
(dp2434
g61
(dp2435
g88
g89
ssg70
g2424
sg63
(lp2436
S':'
asbag56
(g77
g58
NtRp2437
(dp2438
g61
(dp2439
sg70
g2424
sg63
(lp2440
g56
(g57
g58
NtRp2441
(dp2442
g61
(dp2443
g69
I3
ssg70
g2437
sg63
(lp2444
g1263
asbasbasbag56
(g72
g58
NtRp2445
(dp2446
g61
(dp2447
sg70
g2021
sg63
(lp2448
g56
(g77
g58
NtRp2449
(dp2450
g61
(dp2451
g81
g82
ssg70
g2445
sg63
(lp2452
S'SCRIPT_NAME'
p2453
asbag56
(g77
g58
NtRp2454
(dp2455
g61
(dp2456
g88
g89
ssg70
g2445
sg63
(lp2457
S':'
asbag56
(g77
g58
NtRp2458
(dp2459
g61
(dp2460
sg70
g2445
sg63
(lp2461
g56
(g57
g58
NtRp2462
(dp2463
g61
(dp2464
g69
I3
ssg70
g2458
sg63
(lp2465
S''
asbasbasbag56
(g72
g58
NtRp2466
(dp2467
g61
(dp2468
sg70
g2021
sg63
(lp2469
g56
(g77
g58
NtRp2470
(dp2471
g61
(dp2472
g81
g82
ssg70
g2466
sg63
(lp2473
S'SERVER_ADDR'
p2474
asbag56
(g77
g58
NtRp2475
(dp2476
g61
(dp2477
g88
g89
ssg70
g2466
sg63
(lp2478
S':'
asbag56
(g77
g58
NtRp2479
(dp2480
g61
(dp2481
sg70
g2466
sg63
(lp2482
g56
(g57
g58
NtRp2483
(dp2484
g61
(dp2485
g69
I3
ssg70
g2479
sg63
(lp2486
g1306
asbasbasbag56
(g72
g58
NtRp2487
(dp2488
g61
(dp2489
sg70
g2021
sg63
(lp2490
g56
(g77
g58
NtRp2491
(dp2492
g61
(dp2493
g81
g82
ssg70
g2487
sg63
(lp2494
S'SERVER_ADMIN'
p2495
asbag56
(g77
g58
NtRp2496
(dp2497
g61
(dp2498
g88
g89
ssg70
g2487
sg63
(lp2499
S':'
asbag56
(g77
g58
NtRp2500
(dp2501
g61
(dp2502
sg70
g2487
sg63
(lp2503
g56
(g57
g58
NtRp2504
(dp2505
g61
(dp2506
g69
I3
ssg70
g2500
sg63
(lp2507
g1328
asbasbasbag56
(g72
g58
NtRp2508
(dp2509
g61
(dp2510
sg70
g2021
sg63
(lp2511
g56
(g77
g58
NtRp2512
(dp2513
g61
(dp2514
g81
g82
ssg70
g2508
sg63
(lp2515
S'SERVER_NAME'
p2516
asbag56
(g77
g58
NtRp2517
(dp2518
g61
(dp2519
g88
g89
ssg70
g2508
sg63
(lp2520
S':'
asbag56
(g77
g58
NtRp2521
(dp2522
g61
(dp2523
sg70
g2508
sg63
(lp2524
g56
(g57
g58
NtRp2525
(dp2526
g61
(dp2527
g69
I3
ssg70
g2521
sg63
(lp2528
g1350
asbasbasbag56
(g72
g58
NtRp2529
(dp2530
g61
(dp2531
sg70
g2021
sg63
(lp2532
g56
(g77
g58
NtRp2533
(dp2534
g61
(dp2535
g81
g82
ssg70
g2529
sg63
(lp2536
S'SERVER_PORT'
p2537
asbag56
(g77
g58
NtRp2538
(dp2539
g61
(dp2540
g88
g89
ssg70
g2529
sg63
(lp2541
S':'
asbag56
(g77
g58
NtRp2542
(dp2543
g61
(dp2544
sg70
g2529
sg63
(lp2545
g56
(g57
g58
NtRp2546
(dp2547
g61
(dp2548
g69
I3
ssg70
g2542
sg63
(lp2549
g1372
asbasbasbag56
(g72
g58
NtRp2550
(dp2551
g61
(dp2552
sg70
g2021
sg63
(lp2553
g56
(g77
g58
NtRp2554
(dp2555
g61
(dp2556
g81
g82
ssg70
g2550
sg63
(lp2557
S'SERVER_PROTOCOL'
p2558
asbag56
(g77
g58
NtRp2559
(dp2560
g61
(dp2561
g88
g89
ssg70
g2550
sg63
(lp2562
S':'
asbag56
(g77
g58
NtRp2563
(dp2564
g61
(dp2565
sg70
g2550
sg63
(lp2566
g56
(g57
g58
NtRp2567
(dp2568
g61
(dp2569
g69
I3
ssg70
g2563
sg63
(lp2570
g1394
asbasbasbag56
(g72
g58
NtRp2571
(dp2572
g61
(dp2573
sg70
g2021
sg63
(lp2574
g56
(g77
g58
NtRp2575
(dp2576
g61
(dp2577
g81
g82
ssg70
g2571
sg63
(lp2578
S'SERVER_SIGNATURE'
p2579
asbag56
(g77
g58
NtRp2580
(dp2581
g61
(dp2582
g88
g89
ssg70
g2571
sg63
(lp2583
S':'
asbag56
(g77
g58
NtRp2584
(dp2585
g61
(dp2586
sg70
g2571
sg63
(lp2587
g56
(g57
g58
NtRp2588
(dp2589
g61
(dp2590
g69
I3
ssg70
g2584
sg63
(lp2591
g1416
asbasbasbag56
(g72
g58
NtRp2592
(dp2593
g61
(dp2594
sg70
g2021
sg63
(lp2595
g56
(g77
g58
NtRp2596
(dp2597
g61
(dp2598
g81
g82
ssg70
g2592
sg63
(lp2599
S'SERVER_SOFTWARE'
p2600
asbag56
(g77
g58
NtRp2601
(dp2602
g61
(dp2603
g88
g89
ssg70
g2592
sg63
(lp2604
S':'
asbag56
(g77
g58
NtRp2605
(dp2606
g61
(dp2607
sg70
g2592
sg63
(lp2608
g56
(g57
g58
NtRp2609
(dp2610
g61
(dp2611
g69
I3
ssg70
g2605
sg63
(lp2612
g1438
asbasbasbag56
(g72
g58
NtRp2613
(dp2614
g61
(dp2615
sg70
g2021
sg63
(lp2616
g56
(g77
g58
NtRp2617
(dp2618
g61
(dp2619
g81
g82
ssg70
g2613
sg63
(lp2620
S'SSL_TLS_SNI'
p2621
asbag56
(g77
g58
NtRp2622
(dp2623
g61
(dp2624
g88
g89
ssg70
g2613
sg63
(lp2625
S':'
asbag56
(g77
g58
NtRp2626
(dp2627
g61
(dp2628
sg70
g2613
sg63
(lp2629
g56
(g57
g58
NtRp2630
(dp2631
g61
(dp2632
g69
I3
ssg70
g2626
sg63
(lp2633
g1460
asbasbasbag56
(g72
g58
NtRp2634
(dp2635
g61
(dp2636
sg70
g2021
sg63
(lp2637
g56
(g77
g58
NtRp2638
(dp2639
g61
(dp2640
g81
g82
ssg70
g2634
sg63
(lp2641
S'mod_wsgi.application_group'
p2642
asbag56
(g77
g58
NtRp2643
(dp2644
g61
(dp2645
g88
g89
ssg70
g2634
sg63
(lp2646
S':'
asbag56
(g77
g58
NtRp2647
(dp2648
g61
(dp2649
sg70
g2634
sg63
(lp2650
g56
(g57
g58
NtRp2651
(dp2652
g61
(dp2653
g69
I3
ssg70
g2647
sg63
(lp2654
g868
asbasbasbag56
(g72
g58
NtRp2655
(dp2656
g61
(dp2657
sg70
g2021
sg63
(lp2658
g56
(g77
g58
NtRp2659
(dp2660
g61
(dp2661
g81
g82
ssg70
g2655
sg63
(lp2662
S'mod_wsgi.callable_object'
p2663
asbag56
(g77
g58
NtRp2664
(dp2665
g61
(dp2666
g88
g89
ssg70
g2655
sg63
(lp2667
S':'
asbag56
(g77
g58
NtRp2668
(dp2669
g61
(dp2670
sg70
g2655
sg63
(lp2671
g56
(g57
g58
NtRp2672
(dp2673
g61
(dp2674
g69
I3
ssg70
g2668
sg63
(lp2675
g890
asbasbasbag56
(g72
g58
NtRp2676
(dp2677
g61
(dp2678
sg70
g2021
sg63
(lp2679
g56
(g77
g58
NtRp2680
(dp2681
g61
(dp2682
g81
g82
ssg70
g2676
sg63
(lp2683
S'mod_wsgi.handler_script'
p2684
asbag56
(g77
g58
NtRp2685
(dp2686
g61
(dp2687
g88
g89
ssg70
g2676
sg63
(lp2688
S':'
asbag56
(g77
g58
NtRp2689
(dp2690
g61
(dp2691
sg70
g2676
sg63
(lp2692
g56
(g57
g58
NtRp2693
(dp2694
g61
(dp2695
g69
I3
ssg70
g2689
sg63
(lp2696
S''
asbasbasbag56
(g72
g58
NtRp2697
(dp2698
g61
(dp2699
sg70
g2021
sg63
(lp2700
g56
(g77
g58
NtRp2701
(dp2702
g61
(dp2703
g81
g82
ssg70
g2697
sg63
(lp2704
S'mod_wsgi.input_chunked'
p2705
asbag56
(g77
g58
NtRp2706
(dp2707
g61
(dp2708
g88
g89
ssg70
g2697
sg63
(lp2709
S':'
asbag56
(g77
g58
NtRp2710
(dp2711
g61
(dp2712
sg70
g2697
sg63
(lp2713
g56
(g57
g58
NtRp2714
(dp2715
g61
(dp2716
g69
I3
ssg70
g2710
sg63
(lp2717
S'0'
asbasbasbag56
(g72
g58
NtRp2718
(dp2719
g61
(dp2720
sg70
g2021
sg63
(lp2721
g56
(g77
g58
NtRp2722
(dp2723
g61
(dp2724
g81
g82
ssg70
g2718
sg63
(lp2725
S'mod_wsgi.listener_host'
p2726
asbag56
(g77
g58
NtRp2727
(dp2728
g61
(dp2729
g88
g89
ssg70
g2718
sg63
(lp2730
S':'
asbag56
(g77
g58
NtRp2731
(dp2732
g61
(dp2733
sg70
g2718
sg63
(lp2734
g56
(g57
g58
NtRp2735
(dp2736
g61
(dp2737
g69
I3
ssg70
g2731
sg63
(lp2738
S''
asbasbasbag56
(g72
g58
NtRp2739
(dp2740
g61
(dp2741
sg70
g2021
sg63
(lp2742
g56
(g77
g58
NtRp2743
(dp2744
g61
(dp2745
g81
g82
ssg70
g2739
sg63
(lp2746
S'mod_wsgi.listener_port'
p2747
asbag56
(g77
g58
NtRp2748
(dp2749
g61
(dp2750
g88
g89
ssg70
g2739
sg63
(lp2751
S':'
asbag56
(g77
g58
NtRp2752
(dp2753
g61
(dp2754
sg70
g2739
sg63
(lp2755
g56
(g57
g58
NtRp2756
(dp2757
g61
(dp2758
g69
I3
ssg70
g2752
sg63
(lp2759
g975
asbasbasbag56
(g72
g58
NtRp2760
(dp2761
g61
(dp2762
sg70
g2021
sg63
(lp2763
g56
(g77
g58
NtRp2764
(dp2765
g61
(dp2766
g81
g82
ssg70
g2760
sg63
(lp2767
S'mod_wsgi.process_group'
p2768
asbag56
(g77
g58
NtRp2769
(dp2770
g61
(dp2771
g88
g89
ssg70
g2760
sg63
(lp2772
S':'
asbag56
(g77
g58
NtRp2773
(dp2774
g61
(dp2775
sg70
g2760
sg63
(lp2776
g56
(g57
g58
NtRp2777
(dp2778
g61
(dp2779
g69
I3
ssg70
g2773
sg63
(lp2780
g997
asbasbasbag56
(g72
g58
NtRp2781
(dp2782
g61
(dp2783
sg70
g2021
sg63
(lp2784
g56
(g77
g58
NtRp2785
(dp2786
g61
(dp2787
g81
g82
ssg70
g2781
sg63
(lp2788
S'mod_wsgi.request_handler'
p2789
asbag56
(g77
g58
NtRp2790
(dp2791
g61
(dp2792
g88
g89
ssg70
g2781
sg63
(lp2793
S':'
asbag56
(g77
g58
NtRp2794
(dp2795
g61
(dp2796
sg70
g2781
sg63
(lp2797
g56
(g57
g58
NtRp2798
(dp2799
g61
(dp2800
g69
I3
ssg70
g2794
sg63
(lp2801
g1019
asbasbasbag56
(g72
g58
NtRp2802
(dp2803
g61
(dp2804
sg70
g2021
sg63
(lp2805
g56
(g77
g58
NtRp2806
(dp2807
g61
(dp2808
g81
g82
ssg70
g2802
sg63
(lp2809
S'mod_wsgi.script_reloading'
p2810
asbag56
(g77
g58
NtRp2811
(dp2812
g61
(dp2813
g88
g89
ssg70
g2802
sg63
(lp2814
S':'
asbag56
(g77
g58
NtRp2815
(dp2816
g61
(dp2817
sg70
g2802
sg63
(lp2818
g56
(g57
g58
NtRp2819
(dp2820
g61
(dp2821
g69
I3
ssg70
g2815
sg63
(lp2822
S'1'
asbasbasbag56
(g72
g58
NtRp2823
(dp2824
g61
(dp2825
sg70
g2021
sg63
(lp2826
g56
(g77
g58
NtRp2827
(dp2828
g61
(dp2829
g81
g82
ssg70
g2823
sg63
(lp2830
S'mod_wsgi.version'
p2831
asbag56
(g77
g58
NtRp2832
(dp2833
g61
(dp2834
g88
g89
ssg70
g2823
sg63
(lp2835
S':'
asbag56
(g77
g58
NtRp2836
(dp2837
g61
(dp2838
sg70
g2823
sg63
(lp2839
g56
(g57
g58
NtRp2840
(dp2841
g61
(dp2842
g69
I3
ssg70
g2836
sg63
(lp2843
g56
(g65
g58
NtRp2844
(dp2845
g61
(dp2846
g69
I2
ssg70
Nsg63
(lp2847
g56
(g72
g58
NtRp2848
(dp2849
g61
(dp2850
sg70
g2844
sg63
(lp2851
g56
(g77
g58
NtRp2852
(dp2853
g61
(dp2854
sg70
g2848
sg63
(lp2855
g56
(g57
g58
NtRp2856
(dp2857
g61
(dp2858
g69
I2
ssg70
g2852
sg63
(lp2859
S'3'
asbasbasbag56
(g72
g58
NtRp2860
(dp2861
g61
(dp2862
sg70
g2844
sg63
(lp2863
g56
(g77
g58
NtRp2864
(dp2865
g61
(dp2866
sg70
g2860
sg63
(lp2867
g56
(g57
g58
NtRp2868
(dp2869
g61
(dp2870
g69
I2
ssg70
g2864
sg63
(lp2871
S'3'
asbasbasbasbasbasbasbag56
(g72
g58
NtRp2872
(dp2873
g61
(dp2874
sg70
g2021
sg63
(lp2875
g56
(g77
g58
NtRp2876
(dp2877
g61
(dp2878
g81
g82
ssg70
g2872
sg63
(lp2879
S'wsgi.errors'
p2880
asbag56
(g77
g58
NtRp2881
(dp2882
g61
(dp2883
g88
g89
ssg70
g2872
sg63
(lp2884
S':'
asbag56
(g77
g58
NtRp2885
(dp2886
g61
(dp2887
sg70
g2872
sg63
(lp2888
g56
(g57
g58
NtRp2889
(dp2890
g61
(dp2891
g69
I3
ssg70
g2885
sg63
(lp2892
S'<mod_wsgi.Log object at 0xb965a700>'
p2893
asbasbasbag56
(g72
g58
NtRp2894
(dp2895
g61
(dp2896
sg70
g2021
sg63
(lp2897
g56
(g77
g58
NtRp2898
(dp2899
g61
(dp2900
g81
g82
ssg70
g2894
sg63
(lp2901
S'wsgi.file_wrapper'
p2902
asbag56
(g77
g58
NtRp2903
(dp2904
g61
(dp2905
g88
g89
ssg70
g2894
sg63
(lp2906
S':'
asbag56
(g77
g58
NtRp2907
(dp2908
g61
(dp2909
sg70
g2894
sg63
(lp2910
g56
(g57
g58
NtRp2911
(dp2912
g61
(dp2913
g69
I3
ssg70
g2907
sg63
(lp2914
S'<built-in method file_wrapper of mod_wsgi.Adapter object at 0xb9824ec0>'
p2915
asbasbasbag56
(g72
g58
NtRp2916
(dp2917
g61
(dp2918
sg70
g2021
sg63
(lp2919
g56
(g77
g58
NtRp2920
(dp2921
g61
(dp2922
g81
g82
ssg70
g2916
sg63
(lp2923
S'wsgi.input'
p2924
asbag56
(g77
g58
NtRp2925
(dp2926
g61
(dp2927
g88
g89
ssg70
g2916
sg63
(lp2928
S':'
asbag56
(g77
g58
NtRp2929
(dp2930
g61
(dp2931
sg70
g2916
sg63
(lp2932
g56
(g57
g58
NtRp2933
(dp2934
g61
(dp2935
g69
I3
ssg70
g2929
sg63
(lp2936
S'<cStringIO.StringO object at 0xb973e9c0>'
p2937
asbasbasbag56
(g72
g58
NtRp2938
(dp2939
g61
(dp2940
sg70
g2021
sg63
(lp2941
g56
(g77
g58
NtRp2942
(dp2943
g61
(dp2944
g81
g82
ssg70
g2938
sg63
(lp2945
S'wsgi.multiprocess'
p2946
asbag56
(g77
g58
NtRp2947
(dp2948
g61
(dp2949
g88
g89
ssg70
g2938
sg63
(lp2950
S':'
asbag56
(g77
g58
NtRp2951
(dp2952
g61
(dp2953
sg70
g2938
sg63
(lp2954
g56
(g57
g58
NtRp2955
(dp2956
g61
(dp2957
g69
I3
ssg70
g2951
sg63
(lp2958
g99
asbasbasbag56
(g72
g58
NtRp2959
(dp2960
g61
(dp2961
sg70
g2021
sg63
(lp2962
g56
(g77
g58
NtRp2963
(dp2964
g61
(dp2965
g81
g82
ssg70
g2959
sg63
(lp2966
S'wsgi.multithread'
p2967
asbag56
(g77
g58
NtRp2968
(dp2969
g61
(dp2970
g88
g89
ssg70
g2959
sg63
(lp2971
S':'
asbag56
(g77
g58
NtRp2972
(dp2973
g61
(dp2974
sg70
g2959
sg63
(lp2975
g56
(g57
g58
NtRp2976
(dp2977
g61
(dp2978
g69
I3
ssg70
g2972
sg63
(lp2979
g1612
asbasbasbag56
(g72
g58
NtRp2980
(dp2981
g61
(dp2982
sg70
g2021
sg63
(lp2983
g56
(g77
g58
NtRp2984
(dp2985
g61
(dp2986
g81
g82
ssg70
g2980
sg63
(lp2987
S'wsgi.run_once'
p2988
asbag56
(g77
g58
NtRp2989
(dp2990
g61
(dp2991
g88
g89
ssg70
g2980
sg63
(lp2992
S':'
asbag56
(g77
g58
NtRp2993
(dp2994
g61
(dp2995
sg70
g2980
sg63
(lp2996
g56
(g57
g58
NtRp2997
(dp2998
g61
(dp2999
g69
I3
ssg70
g2993
sg63
(lp3000
g99
asbasbasbag56
(g72
g58
NtRp3001
(dp3002
g61
(dp3003
sg70
g2021
sg63
(lp3004
g56
(g77
g58
NtRp3005
(dp3006
g61
(dp3007
g81
g82
ssg70
g3001
sg63
(lp3008
S'wsgi.url_scheme'
p3009
asbag56
(g77
g58
NtRp3010
(dp3011
g61
(dp3012
g88
g89
ssg70
g3001
sg63
(lp3013
S':'
asbag56
(g77
g58
NtRp3014
(dp3015
g61
(dp3016
sg70
g3001
sg63
(lp3017
g56
(g57
g58
NtRp3018
(dp3019
g61
(dp3020
g69
I3
ssg70
g3014
sg63
(lp3021
g1655
asbasbasbag56
(g72
g58
NtRp3022
(dp3023
g61
(dp3024
sg70
g2021
sg63
(lp3025
g56
(g77
g58
NtRp3026
(dp3027
g61
(dp3028
g81
g82
ssg70
g3022
sg63
(lp3029
S'wsgi.version'
p3030
asbag56
(g77
g58
NtRp3031
(dp3032
g61
(dp3033
g88
g89
ssg70
g3022
sg63
(lp3034
S':'
asbag56
(g77
g58
NtRp3035
(dp3036
g61
(dp3037
sg70
g3022
sg63
(lp3038
g56
(g57
g58
NtRp3039
(dp3040
g61
(dp3041
g69
I3
ssg70
g3035
sg63
(lp3042
S'1'
asbasbasbasbasbasbasbasbasbasbasbasbasbsS'frames'
p3043
(lp3044
(dp3045
S'file'
p3046
S'/home/www-data/web2py/gluon/restricted.py'
p3047
sS'dump'
p3048
(dp3049
S'environment'
p3050
S"{'A': <class 'gluon.html.A'>, 'Auth': <class 'gluon.tools.Auth'>, 'B': <class 'gluon.html.B'>, 'BEAUTIFY': <class 'gluon.html.BEAUTIFY'>, 'BODY': <class 'gluon.html.BODY'>, 'BR': <class 'gluon.html.BR'>, 'BUTTON': <class 'gluon.html.BUTTON'>, 'CAT': <class 'gluon.html.CAT'>, 'CENTER': <class 'gluon.html.CENTER'>, 'CLEANUP': <class 'gluon.validators.CLEANUP'>, ...}"
p3051
sS'ccode'
p3052
S'<code object <module> at 0xb98309b0, file "/home...pplications/scrum/controllers/ticket.py", line 3>'
p3053
ssS'lnum'
p3054
I192
sS'lines'
p3055
(dp3056
I192
S'        exec ccode in environment'
p3057
sI193
S'    except HTTP:'
p3058
sI194
S'        raise'
p3059
sI195
S'    except Exception, error:'
p3060
sI196
S'        # XXX Show exception in Wing IDE if running in debugger'
p3061
sI187
S'    try:'
p3062
sI188
S'        if type(code) == types.CodeType:'
p3063
sI189
S'            ccode = code'
p3064
sI190
S'        else:'
p3065
sI191
S'            ccode = compile2(code,layer)'
p3066
ssS'call'
p3067
S'(code=\'# coding: utf8\\n# tente algo como\\ndef index():\\n  ...ket.py")\\n\\nresponse._vars=response._caller(index)\\n\', environment={\'A\': <class \'gluon.html.A\'>, \'Auth\': <class \'gluon.tools.Auth\'>, \'B\': <class \'gluon.html.B\'>, \'BEAUTIFY\': <class \'gluon.html.BEAUTIFY\'>, \'BODY\': <class \'gluon.html.BODY\'>, \'BR\': <class \'gluon.html.BR\'>, \'BUTTON\': <class \'gluon.html.BUTTON\'>, \'CAT\': <class \'gluon.html.CAT\'>, \'CENTER\': <class \'gluon.html.CENTER\'>, \'CLEANUP\': <class \'gluon.validators.CLEANUP\'>, ...}, layer=\'/home/www-data/web2py/applications/scrum/controllers/ticket.py\')'
p3068
sS'func'
p3069
S'restricted'
p3070
sa(dp3071
g3046
S'/home/www-data/web2py/applications/scrum/controllers/ticket.py'
p3072
sg3048
(dp3073
sg3054
I7
sg3055
(dp3074
I1
S'# coding: utf8'
p3075
sI2
S'# tente algo como'
p3076
sI3
S'def index():'
p3077
sI4
S'    tickets = db(db.ticket.consultor == auth.id | db.ticket.analista.id == auth.id)'
p3078
sI5
S'    return dict(message="hello from ticket.py")'
p3079
ssg3067
S'()'
p3080
sg3069
S'<module>'
p3081
sa(dp3082
g3046
S'/home/www-data/web2py/gluon/globals.py'
p3083
sg3048
(dp3084
S'self'
p3085
S'undefined'
p3086
sS'f'
S'<function index>'
p3087
ssg3054
I145
sg3055
(dp3088
I140
S'        self.meta = Storage()      # used by web2py_ajax.html'
p3089
sI141
S'        self.menu = []             # used by the default view layout'
p3090
sI142
S'        self.files = []            # used by web2py_ajax.html'
p3091
sI143
S'        self.generic_patterns = [] # patterns to allow generic views'
p3092
sI144
S'        self._vars = None'
p3093
sI145
S'        self._caller = lambda f: f()'
p3094
sI146
S'        self._view_environment = None'
p3095
sI147
S'        self._custom_commit = None'
p3096
sI148
S'        self._custom_rollback = None'
p3097
sI149
S''
ssg3067
S'(f=<function index>)'
p3098
sg3069
S'<lambda>'
p3099
sa(dp3100
g3046
S'/home/www-data/web2py/applications/scrum/controllers/ticket.py'
p3101
sg3048
(dp3102
S'tickets'
p3103
g3086
sS'auth.id'
p3104
g3086
sS'global auth'
p3105
S'<gluon.tools.Auth object>'
p3106
sS'db.ticket.analista.id'
p3107
g3086
sS'db.ticket'
p3108
S"<Table {'ALL': <gluon.dal.SQLALL object at 0xb98...>, 'id': <gluon.dal.Field object at 0xb980f5ac>}>"
p3109
sS'db.ticket.consultor'
p3110
S'<gluon.dal.Field object>'
p3111
sS'db.ticket.analista'
p3112
S'<gluon.dal.Field object>'
p3113
sS'global db'
p3114
S"<DAL {'auth_event': <Table {'origin': <gluon.dal... 'id': <gluon.dal.Field object at 0xb97ea3cc>}>}>"
p3115
ssg3054
I4
sg3055
(dp3116
I1
S'# coding: utf8'
p3117
sI2
S'# tente algo como'
p3118
sI3
S'def index():'
p3119
sI4
S'    tickets = db(db.ticket.consultor == auth.id | db.ticket.analista.id == auth.id)'
p3120
sI5
S'    return dict(message="hello from ticket.py")'
p3121
ssg3067
S'()'
p3122
sg3069
S'index'
p3123
sasS'pyver'
p3124
S'Python 2.7.1+: /usr/bin/python'
p3125
sS'session'
p3126
g56
(g57
g58
NtRp3127
(dp3128
g61
(dp3129
sg63
(lp3130
g56
(g65
g58
NtRp3131
(dp3132
g61
(dp3133
g69
I5
ssg70
Nsg63
(lp3134
sbasbsS'etype'
p3135
S"<type 'exceptions.AttributeError'>"
p3136
sS'date'
p3137
S'Thu Sep  8 13:38:01 2011'
p3138
sS'response'
p3139
g56
(g57
g58
NtRp3140
(dp3141
g61
(dp3142
sg63
(lp3143
g56
(g65
g58
NtRp3144
(dp3145
g61
(dp3146
g69
I5
ssg70
Nsg63
(lp3147
g56
(g72
g58
NtRp3148
(dp3149
g61
(dp3150
sg70
g3144
sg63
(lp3151
g56
(g77
g58
NtRp3152
(dp3153
g61
(dp3154
g81
g82
ssg70
g3148
sg63
(lp3155
g154
asbag56
(g77
g58
NtRp3156
(dp3157
g61
(dp3158
g88
g89
ssg70
g3148
sg63
(lp3159
S':'
asbag56
(g77
g58
NtRp3160
(dp3161
g61
(dp3162
sg70
g3148
sg63
(lp3163
g56
(g57
g58
NtRp3164
(dp3165
g61
(dp3166
g69
I5
ssg70
g3160
sg63
(lp3167
S'<cStringIO.StringO object at 0xb9803a40>'
p3168
asbasbasbag56
(g72
g58
NtRp3169
(dp3170
g61
(dp3171
sg70
g3144
sg63
(lp3172
g56
(g77
g58
NtRp3173
(dp3174
g61
(dp3175
g81
g82
ssg70
g3169
sg63
(lp3176
g220
asbag56
(g77
g58
NtRp3177
(dp3178
g61
(dp3179
g88
g89
ssg70
g3169
sg63
(lp3180
S':'
asbag56
(g77
g58
NtRp3181
(dp3182
g61
(dp3183
sg70
g3169
sg63
(lp3184
g56
(g57
g58
NtRp3185
(dp3186
g61
(dp3187
g69
I5
ssg70
g3181
sg63
(lp3188
g56
(g65
g58
NtRp3189
(dp3190
g61
(dp3191
g69
I4
ssg70
Nsg63
(lp3192
g56
(g72
g58
NtRp3193
(dp3194
g61
(dp3195
sg70
g3189
sg63
(lp3196
g56
(g77
g58
NtRp3197
(dp3198
g61
(dp3199
g81
g82
ssg70
g3193
sg63
(lp3200
S'session_id_scrum'
p3201
asbag56
(g77
g58
NtRp3202
(dp3203
g61
(dp3204
g88
g89
ssg70
g3193
sg63
(lp3205
S':'
asbag56
(g77
g58
NtRp3206
(dp3207
g61
(dp3208
sg70
g3193
sg63
(lp3209
g56
(g57
g58
NtRp3210
(dp3211
g61
(dp3212
g69
I4
ssg70
g3206
sg63
(lp3213
g56
(g65
g58
NtRp3214
(dp3215
g61
(dp3216
g69
I3
ssg70
Nsg63
(lp3217
g56
(g72
g58
NtRp3218
(dp3219
g61
(dp3220
sg70
g3214
sg63
(lp3221
g56
(g77
g58
NtRp3222
(dp3223
g61
(dp3224
g81
g82
ssg70
g3218
sg63
(lp3225
g270
asbag56
(g77
g58
NtRp3226
(dp3227
g61
(dp3228
g88
g89
ssg70
g3218
sg63
(lp3229
S':'
asbag56
(g77
g58
NtRp3230
(dp3231
g61
(dp3232
sg70
g3218
sg63
(lp3233
g56
(g57
g58
NtRp3234
(dp3235
g61
(dp3236
g69
I3
ssg70
g3230
sg63
(lp3237
S''
asbasbasbag56
(g72
g58
NtRp3238
(dp3239
g61
(dp3240
sg70
g3214
sg63
(lp3241
g56
(g77
g58
NtRp3242
(dp3243
g61
(dp3244
g81
g82
ssg70
g3238
sg63
(lp3245
g291
asbag56
(g77
g58
NtRp3246
(dp3247
g61
(dp3248
g88
g89
ssg70
g3238
sg63
(lp3249
S':'
asbag56
(g77
g58
NtRp3250
(dp3251
g61
(dp3252
sg70
g3238
sg63
(lp3253
g56
(g57
g58
NtRp3254
(dp3255
g61
(dp3256
g69
I3
ssg70
g3250
sg63
(lp3257
S''
asbasbasbag56
(g72
g58
NtRp3258
(dp3259
g61
(dp3260
sg70
g3214
sg63
(lp3261
g56
(g77
g58
NtRp3262
(dp3263
g61
(dp3264
g81
g82
ssg70
g3258
sg63
(lp3265
g312
asbag56
(g77
g58
NtRp3266
(dp3267
g61
(dp3268
g88
g89
ssg70
g3258
sg63
(lp3269
S':'
asbag56
(g77
g58
NtRp3270
(dp3271
g61
(dp3272
sg70
g3258
sg63
(lp3273
g56
(g57
g58
NtRp3274
(dp3275
g61
(dp3276
g69
I3
ssg70
g3270
sg63
(lp3277
S''
asbasbasbag56
(g72
g58
NtRp3278
(dp3279
g61
(dp3280
sg70
g3214
sg63
(lp3281
g56
(g77
g58
NtRp3282
(dp3283
g61
(dp3284
g81
g82
ssg70
g3278
sg63
(lp3285
g333
asbag56
(g77
g58
NtRp3286
(dp3287
g61
(dp3288
g88
g89
ssg70
g3278
sg63
(lp3289
S':'
asbag56
(g77
g58
NtRp3290
(dp3291
g61
(dp3292
sg70
g3278
sg63
(lp3293
g56
(g57
g58
NtRp3294
(dp3295
g61
(dp3296
g69
I3
ssg70
g3290
sg63
(lp3297
S''
asbasbasbag56
(g72
g58
NtRp3298
(dp3299
g61
(dp3300
sg70
g3214
sg63
(lp3301
g56
(g77
g58
NtRp3302
(dp3303
g61
(dp3304
g81
g82
ssg70
g3298
sg63
(lp3305
g354
asbag56
(g77
g58
NtRp3306
(dp3307
g61
(dp3308
g88
g89
ssg70
g3298
sg63
(lp3309
S':'
asbag56
(g77
g58
NtRp3310
(dp3311
g61
(dp3312
sg70
g3298
sg63
(lp3313
g56
(g57
g58
NtRp3314
(dp3315
g61
(dp3316
g69
I3
ssg70
g3310
sg63
(lp3317
S''
asbasbasbag56
(g72
g58
NtRp3318
(dp3319
g61
(dp3320
sg70
g3214
sg63
(lp3321
g56
(g77
g58
NtRp3322
(dp3323
g61
(dp3324
g81
g82
ssg70
g3318
sg63
(lp3325
g375
asbag56
(g77
g58
NtRp3326
(dp3327
g61
(dp3328
g88
g89
ssg70
g3318
sg63
(lp3329
S':'
asbag56
(g77
g58
NtRp3330
(dp3331
g61
(dp3332
sg70
g3318
sg63
(lp3333
g56
(g57
g58
NtRp3334
(dp3335
g61
(dp3336
g69
I3
ssg70
g3330
sg63
(lp3337
S'/'
asbasbasbag56
(g72
g58
NtRp3338
(dp3339
g61
(dp3340
sg70
g3214
sg63
(lp3341
g56
(g77
g58
NtRp3342
(dp3343
g61
(dp3344
g81
g82
ssg70
g3338
sg63
(lp3345
g396
asbag56
(g77
g58
NtRp3346
(dp3347
g61
(dp3348
g88
g89
ssg70
g3338
sg63
(lp3349
S':'
asbag56
(g77
g58
NtRp3350
(dp3351
g61
(dp3352
sg70
g3338
sg63
(lp3353
g56
(g57
g58
NtRp3354
(dp3355
g61
(dp3356
g69
I3
ssg70
g3350
sg63
(lp3357
S''
asbasbasbag56
(g72
g58
NtRp3358
(dp3359
g61
(dp3360
sg70
g3214
sg63
(lp3361
g56
(g77
g58
NtRp3362
(dp3363
g61
(dp3364
g81
g82
ssg70
g3358
sg63
(lp3365
g417
asbag56
(g77
g58
NtRp3366
(dp3367
g61
(dp3368
g88
g89
ssg70
g3358
sg63
(lp3369
S':'
asbag56
(g77
g58
NtRp3370
(dp3371
g61
(dp3372
sg70
g3358
sg63
(lp3373
g56
(g57
g58
NtRp3374
(dp3375
g61
(dp3376
g69
I3
ssg70
g3370
sg63
(lp3377
S''
asbasbasbasbasbasbasbasbasbasbasbag56
(g72
g58
NtRp3378
(dp3379
g61
(dp3380
sg70
g3144
sg63
(lp3381
g56
(g77
g58
NtRp3382
(dp3383
g61
(dp3384
g81
g82
ssg70
g3378
sg63
(lp3385
S'files'
p3386
asbag56
(g77
g58
NtRp3387
(dp3388
g61
(dp3389
g88
g89
ssg70
g3378
sg63
(lp3390
S':'
asbag56
(g77
g58
NtRp3391
(dp3392
g61
(dp3393
sg70
g3378
sg63
(lp3394
g56
(g57
g58
NtRp3395
(dp3396
g61
(dp3397
g69
I5
ssg70
g3391
sg63
(lp3398
g56
(g65
g58
NtRp3399
(dp3400
g61
(dp3401
g69
I4
ssg70
Nsg63
(lp3402
sbasbasbasbag56
(g72
g58
NtRp3403
(dp3404
g61
(dp3405
sg70
g3144
sg63
(lp3406
g56
(g77
g58
NtRp3407
(dp3408
g61
(dp3409
g81
g82
ssg70
g3403
sg63
(lp3410
S'flash'
p3411
asbag56
(g77
g58
NtRp3412
(dp3413
g61
(dp3414
g88
g89
ssg70
g3403
sg63
(lp3415
S':'
asbag56
(g77
g58
NtRp3416
(dp3417
g61
(dp3418
sg70
g3403
sg63
(lp3419
g56
(g57
g58
NtRp3420
(dp3421
g61
(dp3422
g69
I5
ssg70
g3416
sg63
(lp3423
S''
asbasbasbag56
(g72
g58
NtRp3424
(dp3425
g61
(dp3426
sg70
g3144
sg63
(lp3427
g56
(g77
g58
NtRp3428
(dp3429
g61
(dp3430
g81
g82
ssg70
g3424
sg63
(lp3431
S'generic_patterns'
p3432
asbag56
(g77
g58
NtRp3433
(dp3434
g61
(dp3435
g88
g89
ssg70
g3424
sg63
(lp3436
S':'
asbag56
(g77
g58
NtRp3437
(dp3438
g61
(dp3439
sg70
g3424
sg63
(lp3440
g56
(g57
g58
NtRp3441
(dp3442
g61
(dp3443
g69
I5
ssg70
g3437
sg63
(lp3444
g56
(g65
g58
NtRp3445
(dp3446
g61
(dp3447
g69
I4
ssg70
Nsg63
(lp3448
sbasbasbasbag56
(g72
g58
NtRp3449
(dp3450
g61
(dp3451
sg70
g3144
sg63
(lp3452
g56
(g77
g58
NtRp3453
(dp3454
g61
(dp3455
g81
g82
ssg70
g3449
sg63
(lp3456
S'headers'
p3457
asbag56
(g77
g58
NtRp3458
(dp3459
g61
(dp3460
g88
g89
ssg70
g3449
sg63
(lp3461
S':'
asbag56
(g77
g58
NtRp3462
(dp3463
g61
(dp3464
sg70
g3449
sg63
(lp3465
g56
(g57
g58
NtRp3466
(dp3467
g61
(dp3468
g69
I5
ssg70
g3462
sg63
(lp3469
g56
(g65
g58
NtRp3470
(dp3471
g61
(dp3472
g69
I4
ssg70
Nsg63
(lp3473
g56
(g72
g58
NtRp3474
(dp3475
g61
(dp3476
sg70
g3470
sg63
(lp3477
g56
(g77
g58
NtRp3478
(dp3479
g61
(dp3480
g81
g82
ssg70
g3474
sg63
(lp3481
S'Cache-Control'
p3482
asbag56
(g77
g58
NtRp3483
(dp3484
g61
(dp3485
g88
g89
ssg70
g3474
sg63
(lp3486
S':'
asbag56
(g77
g58
NtRp3487
(dp3488
g61
(dp3489
sg70
g3474
sg63
(lp3490
g56
(g57
g58
NtRp3491
(dp3492
g61
(dp3493
g69
I4
ssg70
g3487
sg63
(lp3494
S'no-store, no-cache, must-revalidate, post-check=0, pre-check=0'
p3495
asbasbasbag56
(g72
g58
NtRp3496
(dp3497
g61
(dp3498
sg70
g3470
sg63
(lp3499
g56
(g77
g58
NtRp3500
(dp3501
g61
(dp3502
g81
g82
ssg70
g3496
sg63
(lp3503
S'Content-Type'
p3504
asbag56
(g77
g58
NtRp3505
(dp3506
g61
(dp3507
g88
g89
ssg70
g3496
sg63
(lp3508
S':'
asbag56
(g77
g58
NtRp3509
(dp3510
g61
(dp3511
sg70
g3496
sg63
(lp3512
g56
(g57
g58
NtRp3513
(dp3514
g61
(dp3515
g69
I4
ssg70
g3509
sg63
(lp3516
S'text/html; charset=utf-8'
p3517
asbasbasbag56
(g72
g58
NtRp3518
(dp3519
g61
(dp3520
sg70
g3470
sg63
(lp3521
g56
(g77
g58
NtRp3522
(dp3523
g61
(dp3524
g81
g82
ssg70
g3518
sg63
(lp3525
S'Expires'
p3526
asbag56
(g77
g58
NtRp3527
(dp3528
g61
(dp3529
g88
g89
ssg70
g3518
sg63
(lp3530
S':'
asbag56
(g77
g58
NtRp3531
(dp3532
g61
(dp3533
sg70
g3518
sg63
(lp3534
g56
(g57
g58
NtRp3535
(dp3536
g61
(dp3537
g69
I4
ssg70
g3531
sg63
(lp3538
S'Thu, 08 Sep 2011 16:38:00 GMT'
p3539
asbasbasbag56
(g72
g58
NtRp3540
(dp3541
g61
(dp3542
sg70
g3470
sg63
(lp3543
g56
(g77
g58
NtRp3544
(dp3545
g61
(dp3546
g81
g82
ssg70
g3540
sg63
(lp3547
S'Pragma'
p3548
asbag56
(g77
g58
NtRp3549
(dp3550
g61
(dp3551
g88
g89
ssg70
g3540
sg63
(lp3552
S':'
asbag56
(g77
g58
NtRp3553
(dp3554
g61
(dp3555
sg70
g3540
sg63
(lp3556
g56
(g57
g58
NtRp3557
(dp3558
g61
(dp3559
g69
I4
ssg70
g3553
sg63
(lp3560
S'no-cache'
p3561
asbasbasbag56
(g72
g58
NtRp3562
(dp3563
g61
(dp3564
sg70
g3470
sg63
(lp3565
g56
(g77
g58
NtRp3566
(dp3567
g61
(dp3568
g81
g82
ssg70
g3562
sg63
(lp3569
S'X-Powered-By'
p3570
asbag56
(g77
g58
NtRp3571
(dp3572
g61
(dp3573
g88
g89
ssg70
g3562
sg63
(lp3574
S':'
asbag56
(g77
g58
NtRp3575
(dp3576
g61
(dp3577
sg70
g3562
sg63
(lp3578
g56
(g57
g58
NtRp3579
(dp3580
g61
(dp3581
g69
I4
ssg70
g3575
sg63
(lp3582
S'web2py'
p3583
asbasbasbasbasbasbasbag56
(g72
g58
NtRp3584
(dp3585
g61
(dp3586
sg70
g3144
sg63
(lp3587
g56
(g77
g58
NtRp3588
(dp3589
g61
(dp3590
g81
g82
ssg70
g3584
sg63
(lp3591
S'menu'
p3592
asbag56
(g77
g58
NtRp3593
(dp3594
g61
(dp3595
g88
g89
ssg70
g3584
sg63
(lp3596
S':'
asbag56
(g77
g58
NtRp3597
(dp3598
g61
(dp3599
sg70
g3584
sg63
(lp3600
g56
(g57
g58
NtRp3601
(dp3602
g61
(dp3603
g69
I5
ssg70
g3597
sg63
(lp3604
g56
(g65
g58
NtRp3605
(dp3606
g61
(dp3607
g69
I4
ssg70
Nsg63
(lp3608
g56
(g72
g58
NtRp3609
(dp3610
g61
(dp3611
sg70
g3605
sg63
(lp3612
g56
(g77
g58
NtRp3613
(dp3614
g61
(dp3615
sg70
g3609
sg63
(lp3616
g56
(g57
g58
NtRp3617
(dp3618
g61
(dp3619
g69
I4
ssg70
g3613
sg63
(lp3620
g56
(g65
g58
NtRp3621
(dp3622
g61
(dp3623
g69
I3
ssg70
Nsg63
(lp3624
g56
(g72
g58
NtRp3625
(dp3626
g61
(dp3627
sg70
g3621
sg63
(lp3628
g56
(g77
g58
NtRp3629
(dp3630
g61
(dp3631
sg70
g3625
sg63
(lp3632
g56
(g57
g58
NtRp3633
(dp3634
g61
(dp3635
g69
I3
ssg70
g3629
sg63
(lp3636
cgluon.languages
lazyT_unpickle
p3637
(S't\x04\x00\x00\x00Home'
tRp3638
asbasbasbag56
(g72
g58
NtRp3639
(dp3640
g61
(dp3641
sg70
g3621
sg63
(lp3642
g56
(g77
g58
NtRp3643
(dp3644
g61
(dp3645
sg70
g3639
sg63
(lp3646
g56
(g57
g58
NtRp3647
(dp3648
g61
(dp3649
g69
I3
ssg70
g3643
sg63
(lp3650
g99
asbasbasbag56
(g72
g58
NtRp3651
(dp3652
g61
(dp3653
sg70
g3621
sg63
(lp3654
g56
(g77
g58
NtRp3655
(dp3656
g61
(dp3657
sg70
g3651
sg63
(lp3658
g56
(g57
g58
NtRp3659
(dp3660
g61
(dp3661
g69
I3
ssg70
g3655
sg63
(lp3662
S'/scrum/default/index'
p3663
asbasbasbag56
(g72
g58
NtRp3664
(dp3665
g61
(dp3666
sg70
g3621
sg63
(lp3667
g56
(g77
g58
NtRp3668
(dp3669
g61
(dp3670
sg70
g3664
sg63
(lp3671
g56
(g57
g58
NtRp3672
(dp3673
g61
(dp3674
g69
I3
ssg70
g3668
sg63
(lp3675
g56
(g65
g58
NtRp3676
(dp3677
g61
(dp3678
g69
I2
ssg70
Nsg63
(lp3679
sbasbasbasbasbasbasbasbag56
(g72
g58
NtRp3680
(dp3681
g61
(dp3682
sg70
g3605
sg63
(lp3683
g56
(g77
g58
NtRp3684
(dp3685
g61
(dp3686
sg70
g3680
sg63
(lp3687
g56
(g57
g58
NtRp3688
(dp3689
g61
(dp3690
g69
I4
ssg70
g3684
sg63
(lp3691
g56
(g65
g58
NtRp3692
(dp3693
g61
(dp3694
g69
I3
ssg70
Nsg63
(lp3695
g56
(g72
g58
NtRp3696
(dp3697
g61
(dp3698
sg70
g3692
sg63
(lp3699
g56
(g77
g58
NtRp3700
(dp3701
g61
(dp3702
sg70
g3696
sg63
(lp3703
g56
(g57
g58
NtRp3704
(dp3705
g61
(dp3706
g69
I3
ssg70
g3700
sg63
(lp3707
g3637
(S't\x03\x00\x00\x00BIV'
tRp3708
asbasbasbag56
(g72
g58
NtRp3709
(dp3710
g61
(dp3711
sg70
g3692
sg63
(lp3712
g56
(g77
g58
NtRp3713
(dp3714
g61
(dp3715
sg70
g3709
sg63
(lp3716
g56
(g57
g58
NtRp3717
(dp3718
g61
(dp3719
g69
I3
ssg70
g3713
sg63
(lp3720
g99
asbasbasbag56
(g72
g58
NtRp3721
(dp3722
g61
(dp3723
sg70
g3692
sg63
(lp3724
g56
(g77
g58
NtRp3725
(dp3726
g61
(dp3727
sg70
g3721
sg63
(lp3728
g56
(g57
g58
NtRp3729
(dp3730
g61
(dp3731
g69
I3
ssg70
g3725
sg63
(lp3732
S''
asbasbasbag56
(g72
g58
NtRp3733
(dp3734
g61
(dp3735
sg70
g3692
sg63
(lp3736
g56
(g77
g58
NtRp3737
(dp3738
g61
(dp3739
sg70
g3733
sg63
(lp3740
g56
(g57
g58
NtRp3741
(dp3742
g61
(dp3743
g69
I3
ssg70
g3737
sg63
(lp3744
g56
(g65
g58
NtRp3745
(dp3746
g61
(dp3747
g69
I2
ssg70
Nsg63
(lp3748
g56
(g72
g58
NtRp3749
(dp3750
g61
(dp3751
sg70
g3745
sg63
(lp3752
g56
(g77
g58
NtRp3753
(dp3754
g61
(dp3755
sg70
g3749
sg63
(lp3756
g56
(g57
g58
NtRp3757
(dp3758
g61
(dp3759
g69
I2
ssg70
g3753
sg63
(lp3760
g56
(g65
g58
NtRp3761
(dp3762
g61
(dp3763
g69
I1
ssg70
Nsg63
(lp3764
g56
(g72
g58
NtRp3765
(dp3766
g61
(dp3767
sg70
g3761
sg63
(lp3768
g56
(g77
g58
NtRp3769
(dp3770
g61
(dp3771
sg70
g3765
sg63
(lp3772
g56
(g57
g58
NtRp3773
(dp3774
g61
(dp3775
g69
I1
ssg70
g3769
sg63
(lp3776
g3637
(S't\x04\x00\x00\x00Novo'
tRp3777
asbasbasbag56
(g72
g58
NtRp3778
(dp3779
g61
(dp3780
sg70
g3761
sg63
(lp3781
g56
(g77
g58
NtRp3782
(dp3783
g61
(dp3784
sg70
g3778
sg63
(lp3785
g56
(g57
g58
NtRp3786
(dp3787
g61
(dp3788
g69
I1
ssg70
g3782
sg63
(lp3789
I00
asbasbasbag56
(g72
g58
NtRp3790
(dp3791
g61
(dp3792
sg70
g3761
sg63
(lp3793
g56
(g77
g58
NtRp3794
(dp3795
g61
(dp3796
sg70
g3790
sg63
(lp3797
g56
(g57
g58
NtRp3798
(dp3799
g61
(dp3800
g69
I1
ssg70
g3794
sg63
(lp3801
S'/scrum/default/novo_biv'
p3802
asbasbasbag56
(g72
g58
NtRp3803
(dp3804
g61
(dp3805
sg70
g3761
sg63
(lp3806
g56
(g77
g58
NtRp3807
(dp3808
g61
(dp3809
sg70
g3803
sg63
(lp3810
g56
(g57
g58
NtRp3811
(dp3812
g61
(dp3813
g69
I1
ssg70
g3807
sg63
(lp3814
(lp3815
asbasbasbasbasbasbasbag56
(g72
g58
NtRp3816
(dp3817
g61
(dp3818
sg70
g3745
sg63
(lp3819
g56
(g77
g58
NtRp3820
(dp3821
g61
(dp3822
sg70
g3816
sg63
(lp3823
g56
(g57
g58
NtRp3824
(dp3825
g61
(dp3826
g69
I2
ssg70
g3820
sg63
(lp3827
g56
(g65
g58
NtRp3828
(dp3829
g61
(dp3830
g69
I1
ssg70
Nsg63
(lp3831
g56
(g72
g58
NtRp3832
(dp3833
g61
(dp3834
sg70
g3828
sg63
(lp3835
g56
(g77
g58
NtRp3836
(dp3837
g61
(dp3838
sg70
g3832
sg63
(lp3839
g56
(g57
g58
NtRp3840
(dp3841
g61
(dp3842
g69
I1
ssg70
g3836
sg63
(lp3843
g3637
(S't\n\x00\x00\x00Selecionar'
tRp3844
asbasbasbag56
(g72
g58
NtRp3845
(dp3846
g61
(dp3847
sg70
g3828
sg63
(lp3848
g56
(g77
g58
NtRp3849
(dp3850
g61
(dp3851
sg70
g3845
sg63
(lp3852
g56
(g57
g58
NtRp3853
(dp3854
g61
(dp3855
g69
I1
ssg70
g3849
sg63
(lp3856
I00
asbasbasbag56
(g72
g58
NtRp3857
(dp3858
g61
(dp3859
sg70
g3828
sg63
(lp3860
g56
(g77
g58
NtRp3861
(dp3862
g61
(dp3863
sg70
g3857
sg63
(lp3864
g56
(g57
g58
NtRp3865
(dp3866
g61
(dp3867
g69
I1
ssg70
g3861
sg63
(lp3868
S'/scrum/default/selecionar_biv'
p3869
asbasbasbag56
(g72
g58
NtRp3870
(dp3871
g61
(dp3872
sg70
g3828
sg63
(lp3873
g56
(g77
g58
NtRp3874
(dp3875
g61
(dp3876
sg70
g3870
sg63
(lp3877
g56
(g57
g58
NtRp3878
(dp3879
g61
(dp3880
g69
I1
ssg70
g3874
sg63
(lp3881
(lp3882
asbasbasbasbasbasbasbasbasbasbasbasbasbasbasbasbasbasbasbag56
(g72
g58
NtRp3883
(dp3884
g61
(dp3885
sg70
g3144
sg63
(lp3886
g56
(g77
g58
NtRp3887
(dp3888
g61
(dp3889
g81
g82
ssg70
g3883
sg63
(lp3890
S'meta'
p3891
asbag56
(g77
g58
NtRp3892
(dp3893
g61
(dp3894
g88
g89
ssg70
g3883
sg63
(lp3895
S':'
asbag56
(g77
g58
NtRp3896
(dp3897
g61
(dp3898
sg70
g3883
sg63
(lp3899
g56
(g57
g58
NtRp3900
(dp3901
g61
(dp3902
g69
I5
ssg70
g3896
sg63
(lp3903
g56
(g65
g58
NtRp3904
(dp3905
g61
(dp3906
g69
I4
ssg70
Nsg63
(lp3907
g56
(g72
g58
NtRp3908
(dp3909
g61
(dp3910
sg70
g3904
sg63
(lp3911
g56
(g77
g58
NtRp3912
(dp3913
g61
(dp3914
g81
g82
ssg70
g3908
sg63
(lp3915
S'author'
p3916
asbag56
(g77
g58
NtRp3917
(dp3918
g61
(dp3919
g88
g89
ssg70
g3908
sg63
(lp3920
S':'
asbag56
(g77
g58
NtRp3921
(dp3922
g61
(dp3923
sg70
g3908
sg63
(lp3924
g56
(g57
g58
NtRp3925
(dp3926
g61
(dp3927
g69
I4
ssg70
g3921
sg63
(lp3928
S'you'
p3929
asbasbasbag56
(g72
g58
NtRp3930
(dp3931
g61
(dp3932
sg70
g3904
sg63
(lp3933
g56
(g77
g58
NtRp3934
(dp3935
g61
(dp3936
g81
g82
ssg70
g3930
sg63
(lp3937
S'copyright'
p3938
asbag56
(g77
g58
NtRp3939
(dp3940
g61
(dp3941
g88
g89
ssg70
g3930
sg63
(lp3942
S':'
asbag56
(g77
g58
NtRp3943
(dp3944
g61
(dp3945
sg70
g3930
sg63
(lp3946
g56
(g57
g58
NtRp3947
(dp3948
g61
(dp3949
g69
I4
ssg70
g3943
sg63
(lp3950
S'Copyright 2007-2010'
p3951
asbasbasbag56
(g72
g58
NtRp3952
(dp3953
g61
(dp3954
sg70
g3904
sg63
(lp3955
g56
(g77
g58
NtRp3956
(dp3957
g61
(dp3958
g81
g82
ssg70
g3952
sg63
(lp3959
S'description'
p3960
asbag56
(g77
g58
NtRp3961
(dp3962
g61
(dp3963
g88
g89
ssg70
g3952
sg63
(lp3964
S':'
asbag56
(g77
g58
NtRp3965
(dp3966
g61
(dp3967
sg70
g3952
sg63
(lp3968
g56
(g57
g58
NtRp3969
(dp3970
g61
(dp3971
g69
I4
ssg70
g3965
sg63
(lp3972
S'Free and open source full-stack enterprise framework for agile development of fast, scalable, secure and portable database-driven web-based applications. Written and programmable in Python'
p3973
asbasbasbag56
(g72
g58
NtRp3974
(dp3975
g61
(dp3976
sg70
g3904
sg63
(lp3977
g56
(g77
g58
NtRp3978
(dp3979
g61
(dp3980
g81
g82
ssg70
g3974
sg63
(lp3981
S'generator'
p3982
asbag56
(g77
g58
NtRp3983
(dp3984
g61
(dp3985
g88
g89
ssg70
g3974
sg63
(lp3986
S':'
asbag56
(g77
g58
NtRp3987
(dp3988
g61
(dp3989
sg70
g3974
sg63
(lp3990
g56
(g57
g58
NtRp3991
(dp3992
g61
(dp3993
g69
I4
ssg70
g3987
sg63
(lp3994
S'Web2py Enterprise Framework'
p3995
asbasbasbag56
(g72
g58
NtRp3996
(dp3997
g61
(dp3998
sg70
g3904
sg63
(lp3999
g56
(g77
g58
NtRp4000
(dp4001
g61
(dp4002
g81
g82
ssg70
g3996
sg63
(lp4003
S'keywords'
p4004
asbag56
(g77
g58
NtRp4005
(dp4006
g61
(dp4007
g88
g89
ssg70
g3996
sg63
(lp4008
S':'
asbag56
(g77
g58
NtRp4009
(dp4010
g61
(dp4011
sg70
g3996
sg63
(lp4012
g56
(g57
g58
NtRp4013
(dp4014
g61
(dp4015
g69
I4
ssg70
g4009
sg63
(lp4016
S'web2py, python, framework'
p4017
asbasbasbasbasbasbasbag56
(g72
g58
NtRp4018
(dp4019
g61
(dp4020
sg70
g3144
sg63
(lp4021
g56
(g77
g58
NtRp4022
(dp4023
g61
(dp4024
g81
g82
ssg70
g4018
sg63
(lp4025
S'postprocessing'
p4026
asbag56
(g77
g58
NtRp4027
(dp4028
g61
(dp4029
g88
g89
ssg70
g4018
sg63
(lp4030
S':'
asbag56
(g77
g58
NtRp4031
(dp4032
g61
(dp4033
sg70
g4018
sg63
(lp4034
g56
(g57
g58
NtRp4035
(dp4036
g61
(dp4037
g69
I5
ssg70
g4031
sg63
(lp4038
g56
(g65
g58
NtRp4039
(dp4040
g61
(dp4041
g69
I4
ssg70
Nsg63
(lp4042
sbasbasbasbag56
(g72
g58
NtRp4043
(dp4044
g61
(dp4045
sg70
g3144
sg63
(lp4046
g56
(g77
g58
NtRp4047
(dp4048
g61
(dp4049
g81
g82
ssg70
g4043
sg63
(lp4050
S'session_filename'
p4051
asbag56
(g77
g58
NtRp4052
(dp4053
g61
(dp4054
g88
g89
ssg70
g4043
sg63
(lp4055
S':'
asbag56
(g77
g58
NtRp4056
(dp4057
g61
(dp4058
sg70
g4043
sg63
(lp4059
g56
(g57
g58
NtRp4060
(dp4061
g61
(dp4062
g69
I5
ssg70
g4056
sg63
(lp4063
S'/home/www-data/web2py/applications/scrum/sessions/127.0.0.1-fea9f037-6fcc-4b36-875a-ec0035452240'
p4064
asbasbasbag56
(g72
g58
NtRp4065
(dp4066
g61
(dp4067
sg70
g3144
sg63
(lp4068
g56
(g77
g58
NtRp4069
(dp4070
g61
(dp4071
g81
g82
ssg70
g4065
sg63
(lp4072
S'session_id'
p4073
asbag56
(g77
g58
NtRp4074
(dp4075
g61
(dp4076
g88
g89
ssg70
g4065
sg63
(lp4077
S':'
asbag56
(g77
g58
NtRp4078
(dp4079
g61
(dp4080
sg70
g4065
sg63
(lp4081
g56
(g57
g58
NtRp4082
(dp4083
g61
(dp4084
g69
I5
ssg70
g4078
sg63
(lp4085
S'127.0.0.1-fea9f037-6fcc-4b36-875a-ec0035452240'
p4086
asbasbasbag56
(g72
g58
NtRp4087
(dp4088
g61
(dp4089
sg70
g3144
sg63
(lp4090
g56
(g77
g58
NtRp4091
(dp4092
g61
(dp4093
g81
g82
ssg70
g4087
sg63
(lp4094
S'session_id_name'
p4095
asbag56
(g77
g58
NtRp4096
(dp4097
g61
(dp4098
g88
g89
ssg70
g4087
sg63
(lp4099
S':'
asbag56
(g77
g58
NtRp4100
(dp4101
g61
(dp4102
sg70
g4087
sg63
(lp4103
g56
(g57
g58
NtRp4104
(dp4105
g61
(dp4106
g69
I5
ssg70
g4100
sg63
(lp4107
g3201
asbasbasbag56
(g72
g58
NtRp4108
(dp4109
g61
(dp4110
sg70
g3144
sg63
(lp4111
g56
(g77
g58
NtRp4112
(dp4113
g61
(dp4114
g81
g82
ssg70
g4108
sg63
(lp4115
S'session_new'
p4116
asbag56
(g77
g58
NtRp4117
(dp4118
g61
(dp4119
g88
g89
ssg70
g4108
sg63
(lp4120
S':'
asbag56
(g77
g58
NtRp4121
(dp4122
g61
(dp4123
sg70
g4108
sg63
(lp4124
g56
(g57
g58
NtRp4125
(dp4126
g61
(dp4127
g69
I5
ssg70
g4121
sg63
(lp4128
g1612
asbasbasbag56
(g72
g58
NtRp4129
(dp4130
g61
(dp4131
sg70
g3144
sg63
(lp4132
g56
(g77
g58
NtRp4133
(dp4134
g61
(dp4135
g81
g82
ssg70
g4129
sg63
(lp4136
S'status'
p4137
asbag56
(g77
g58
NtRp4138
(dp4139
g61
(dp4140
g88
g89
ssg70
g4129
sg63
(lp4141
S':'
asbag56
(g77
g58
NtRp4142
(dp4143
g61
(dp4144
sg70
g4129
sg63
(lp4145
g56
(g57
g58
NtRp4146
(dp4147
g61
(dp4148
g69
I5
ssg70
g4142
sg63
(lp4149
S'200'
p4150
asbasbasbag56
(g72
g58
NtRp4151
(dp4152
g61
(dp4153
sg70
g3144
sg63
(lp4154
g56
(g77
g58
NtRp4155
(dp4156
g61
(dp4157
g81
g82
ssg70
g4151
sg63
(lp4158
S'subtitle'
p4159
asbag56
(g77
g58
NtRp4160
(dp4161
g61
(dp4162
g88
g89
ssg70
g4151
sg63
(lp4163
S':'
asbag56
(g77
g58
NtRp4164
(dp4165
g61
(dp4166
sg70
g4151
sg63
(lp4167
g56
(g57
g58
NtRp4168
(dp4169
g61
(dp4170
g69
I5
ssg70
g4164
sg63
(lp4171
g3637
(S's\x0f\x00\x00\x00Personalize-me!'
tRp4172
asbasbasbag56
(g72
g58
NtRp4173
(dp4174
g61
(dp4175
sg70
g3144
sg63
(lp4176
g56
(g77
g58
NtRp4177
(dp4178
g61
(dp4179
g81
g82
ssg70
g4173
sg63
(lp4180
S'title'
p4181
asbag56
(g77
g58
NtRp4182
(dp4183
g61
(dp4184
g88
g89
ssg70
g4173
sg63
(lp4185
S':'
asbag56
(g77
g58
NtRp4186
(dp4187
g61
(dp4188
sg70
g4173
sg63
(lp4189
g56
(g57
g58
NtRp4190
(dp4191
g61
(dp4192
g69
I5
ssg70
g4186
sg63
(lp4193
g121
asbasbasbag56
(g72
g58
NtRp4194
(dp4195
g61
(dp4196
sg70
g3144
sg63
(lp4197
g56
(g77
g58
NtRp4198
(dp4199
g61
(dp4200
g81
g82
ssg70
g4194
sg63
(lp4201
g1936
asbag56
(g77
g58
NtRp4202
(dp4203
g61
(dp4204
g88
g89
ssg70
g4194
sg63
(lp4205
S':'
asbag56
(g77
g58
NtRp4206
(dp4207
g61
(dp4208
sg70
g4194
sg63
(lp4209
g56
(g57
g58
NtRp4210
(dp4211
g61
(dp4212
g69
I5
ssg70
g4206
sg63
(lp4213
g1949
asbasbasbag56
(g72
g58
NtRp4214
(dp4215
g61
(dp4216
sg70
g3144
sg63
(lp4217
g56
(g77
g58
NtRp4218
(dp4219
g61
(dp4220
g81
g82
ssg70
g4214
sg63
(lp4221
S'view'
p4222
asbag56
(g77
g58
NtRp4223
(dp4224
g61
(dp4225
g88
g89
ssg70
g4214
sg63
(lp4226
S':'
asbag56
(g77
g58
NtRp4227
(dp4228
g61
(dp4229
sg70
g4214
sg63
(lp4230
g56
(g57
g58
NtRp4231
(dp4232
g61
(dp4233
g69
I5
ssg70
g4227
sg63
(lp4234
S'ticket/index.html'
p4235
asbasbasbasbasbsS'locals'
p4236
(dp4237
ssS'traceback'
p4238
S'Traceback (most recent call last):\n  File "/home/www-data/web2py/gluon/restricted.py", line 192, in restricted\n    exec ccode in environment\n  File "/home/www-data/web2py/applications/scrum/controllers/ticket.py", line 7, in <module>\n  File "/home/www-data/web2py/gluon/globals.py", line 145, in <lambda>\n    self._caller = lambda f: f()\n  File "/home/www-data/web2py/applications/scrum/controllers/ticket.py", line 4, in index\n    tickets = db(db.ticket.consultor == auth.id | db.ticket.analista.id == auth.id)\nAttributeError: \'Auth\' object has no attribute \'id\'\n'
p4239
s.