(dp1
S'output'
p2
S''
sS'layer'
p3
S'/home/www-data/web2py/applications/scrum/views/sprint/editar.html'
p4
sS'code'
p5
S'response.write(\'<!DOCTYPE html>\\n<html lang="\', escape=False)\nresponse.write(T.accepted_language or \'en\')\nresponse.write(\'" class="no-js"><!-- no-js need it for modernzr -->\\n  <head>\\n    \\n    <meta charset="utf-8" />        \\n    <!-- www.phpied.com/conditional-comments-block-downloads/ -->\\n    <!--[if IE]><![endif]-->    \\n    <!-- Always force latest IE rendering engine \\n     (even in intranet) & Chrome Frame \\n     Remove this if you use the .htaccess -->\\n    <meta http-equiv="X-UA-Compatible" content="IE=edge,chrome=1">\\n    \\n    <title>\', escape=False)\nresponse.write(response.title or request.application)\nresponse.write(\'</title>\\n    \\n    <!-- http://dev.w3.org/html5/markup/meta.name.html -->\\n    <meta name="application-name" content="\', escape=False)\nresponse.write(request.application)\nresponse.write(\'" /> \\n    \\n    <!-- Speaking of Google, don\\\'t forget to set your site up: \\n     http://google.com/webmasters -->\\n    <meta name="google-site-verification" content="" />\\n    \\n    <!--  Mobile Viewport Fix\\n      j.mp/mobileviewport & davidbcalhoun.com/2010/viewport-metatag \\n      device-width: Occupy full width of the screen in its current orientation\\n      initial-scale = 1.0 retains dimensions instead of zooming out if page height > device height\\n      maximum-scale = 1.0 retains dimensions instead of zooming in if page width < device width\\n      -->\\n    <meta name="viewport" content="width=device-width; initial-scale=1.0; maximum-scale=1.0;">\\n    \\n    <!-- Place favicon.ico and apple-touch-icon.png in the root of your domain and delete these references -->\\n    <link rel="shortcut icon" href="\', escape=False)\nresponse.write(URL(\'static\',\'favicon.ico\'))\nresponse.write(\'" type="image/x-icon">\\n    <link rel="apple-touch-icon" href="\', escape=False)\nresponse.write(URL(\'static\',\'favicon.png\'))\nresponse.write(\'">\\n\\n    <!-- For the less-enabled mobile browsers like Opera Mini -->\\n    <link rel="stylesheet" media="handheld" href="\', escape=False)\nresponse.write(URL(\'static\',\'css/handheld.css\'))\nresponse.write(\'">\\n    \\n    <!-- All JavaScript at the bottom, except for Modernizr which enables HTML5 elements & feature detects -->\\n    <script src="\', escape=False)\nresponse.write(URL(\'static\',\'js/modernizr-1.6.min.js\'))\nresponse.write(\'"></script>\\n    \\n    \', escape=False)\n#------  require CSS and JS files for this page (read info in base.css) ------\nresponse.write(\'\\n    \', escape=False)\nresponse.files.append(URL(\'static\',\'css/base.css\'))\nresponse.write(\'\\n    \', escape=False)\nresponse.files.append(URL(\'static\',\'css/superfish.css\'))\nresponse.write(\'\\n    \', escape=False)\nresponse.files.append(URL(\'static\',\'js/superfish.js\'))\nresponse.write(\'\\n    \', escape=False)\n#------ include web2py specific js code (jquery, calendar, form stuff) ------\nresponse.write(\'\\n    \', escape=False)\nresponse.files.insert(0,URL(\'static\',\'js/jquery.js\'))\nresponse.files.insert(1,URL(\'static\',\'css/calendar.css\'))\nresponse.files.insert(2,URL(\'static\',\'js/calendar.js\'))\nfor _item in response.meta or []:\n    response.write(\'\\n     <meta name="\', escape=False)\n    response.write(_item)\n    response.write(\'" content="\', escape=False)\n    response.write(response.meta[_item])\n    response.write(\'" />\', escape=False)\n    pass\nfor _k,_file in enumerate(response.files or []):\n    if _file in response.files[:_k]:\n        continue\n    _file0=_file.lower().split(\'?\')[0]\n    if _file0.endswith(\'.css\'):\n        response.write(\'\\n     <link href="\', escape=False)\n        response.write(_file)\n        response.write(\'" rel="stylesheet" type="text/css" />\', escape=False)\n    elif _file0.endswith(\'.js\'):\n        response.write(\'\\n     <script src="\', escape=False)\n        response.write(_file)\n        response.write(\'" type="text/javascript"></script>\', escape=False)\n        pass\n    pass\nresponse.write(\'\\n  \\n<script type="text/javascript"><!--\\nfunction popup(url) {\\n  newwindow=window.open(url,\\\'name\\\',\\\'height=400,width=600\\\');\\n  if (window.focus) newwindow.focus();\\n  return false;\\n}\\nfunction collapse(id) { jQuery(\\\'#\\\'+id).slideToggle(); }\\nfunction fade(id,value) { if(value>0) jQuery(\\\'#\\\'+id).hide().fadeIn(\\\'slow\\\'); else jQuery(\\\'#\\\'+id).show().fadeOut(\\\'slow\\\'); }\\nfunction ajax(u,s,t) {\\n    query = \\\'\\\';\\n    if (typeof s == "string") {\\n        d = jQuery(s).serialize();\\n        if(d){ query = d; }\\n    } else {\\n        pcs = [];\\n        for(i=0; i<s.length; i++) {\\n            q = jQuery("[name="+s[i]+"]").serialize();\\n            if(q){pcs.push(q);}\\n        }\\n        if (pcs.length>0){query = pcs.join("&");}\\n    }\\n    jQuery.ajax({type: "POST", url: u, data: query, success: function(msg) { if(t) { if(t==\\\':eval\\\') eval(msg); else jQuery("#" + t).html(msg); } } }); \\n}\\n\\nString.prototype.reverse = function () { return this.split(\\\'\\\').reverse().join(\\\'\\\');};\\nfunction web2py_ajax_init() {\\n  jQuery(\\\'.hidden\\\').hide();\\n  jQuery(\\\'.error\\\').hide().slideDown(\\\'slow\\\');\\n  jQuery(\\\'.flash\\\').click(function() { jQuery(this).fadeOut(\\\'slow\\\'); return false; });\\n  // jQuery(\\\'input[type=submit]\\\').click(function(){var t=jQuery(this);t.hide();t.after(\\\'<input class="submit_disabled" disabled="disabled" type="submit" name="\\\'+t.attr("name")+\\\'_dummy" value="\\\'+t.val()+\\\'">\\\')});\\n  jQuery(\\\'input.integer\\\').live(\\\'keyup\\\', function(){this.value=this.value.reverse().replace(/[^0-9\\\\-]|\\\\-(?=.)/g,\\\'\\\').reverse();});\\n  jQuery(\\\'input.double,input.decimal\\\').live(\\\'keyup\\\', function(){this.value=this.value.reverse().replace(/[^0-9\\\\-\\\\.]|[\\\\-](?=.)|[\\\\.](?=[0-9]*[\\\\.])/g,\\\'\\\').reverse();});\\n  jQuery("input[type=\\\'checkbox\\\'].delete").live(\\\'click\\\', function(){ if(this.checked) if(!confirm("\', escape=False)\nresponse.write(T(\'Sure you want to delete this object?\'))\nresponse.write(\'")) this.checked=false; });\\n  try {jQuery("input.date").live(\\\'focus\\\',function() {Calendar.setup({\\n     inputField:this, ifFormat:"\', escape=False)\nresponse.write(T(\'%Y-%m-%d\'))\nresponse.write(\'", showsTime:false\\n  }); }); } catch(e) {};\\n  try { jQuery("input.datetime").live(\\\'focus\\\', function() {Calendar.setup({\\n     inputField:this, ifFormat:"\', escape=False)\nresponse.write(T(\'%Y-%m-%d %H:%M:%S\'))\nresponse.write(\'", showsTime: true,timeFormat: "24"\\n  }); }); } catch(e) {};\\n\\n  jQuery("input.time").live(\\\'focus\\\', function() { var el = jQuery(this); \\n          if (!el.hasClass(\\\'hasTimeEntry\\\')) try { el.timeEntry(); } catch(e) {}; \\n  });\\n};\\n\\njQuery(document).ready(function() {   \\n   var flash = jQuery(\\\'.flash\\\');\\n   flash.hide();\\n   if(flash.html()) flash.slideDown();\\n   web2py_ajax_init();\\n});\\nfunction web2py_trap_form(action,target) {\\n   jQuery(\\\'#\\\'+target+\\\' form\\\').each(function(i){\\n      var form=jQuery(this);\\n      if(!form.hasClass(\\\'no_trap\\\'))\\n        form.submit(function(obj){\\n         jQuery(\\\'.flash\\\').hide().html(\\\'\\\');\\n         web2py_ajax_page(\\\'post\\\',action,form.serialize(),target);\\n         return false;\\n      });\\n   });\\n}\\nfunction web2py_ajax_page(method,action,data,target) {\\n  jQuery.ajax({\\\'type\\\':method,\\\'url\\\':action,\\\'data\\\':data,\\n    \\\'beforeSend\\\':function(xhr) {\\n      xhr.setRequestHeader(\\\'web2py-component-location\\\',document.location);\\n      xhr.setRequestHeader(\\\'web2py-component-element\\\',target);},\\n    \\\'complete\\\':function(xhr,text){\\n      var html=xhr.responseText;\\n      var content=xhr.getResponseHeader(\\\'web2py-component-content\\\'); \\n      var command=xhr.getResponseHeader(\\\'web2py-component-command\\\');\\n      var flash=xhr.getResponseHeader(\\\'web2py-component-flash\\\');\\n      var t = jQuery(\\\'#\\\'+target);\\n      if(content==\\\'prepend\\\') t.prepend(html); \\n      else if(content==\\\'append\\\') t.append(html);\\n      else if(content!=\\\'hide\\\') t.html(html);  \\n      web2py_trap_form(action,target);\\n      web2py_ajax_init();      \\n      if(command) eval(command);\\n      if(flash) jQuery(\\\'.flash\\\').html(flash).slideDown();\\n      }\\n    });\\n}\\nfunction web2py_component(action,target) {\\n  jQuery(document).ready(function(){ web2py_ajax_page(\\\'get\\\',action,null,target); });\\n}\\nfunction web2py_comet(url,onmessage,onopen,onclose) {\\n  if ("WebSocket" in window) {\\n    var ws = new WebSocket(url);\\n    ws.onopen = onopen?onopen:(function(){});\\n    ws.onmessage = onmessage;\\n    ws.onclose = onclose?onclose:(function(){});\\n    return true; // supported\\n  } else return false; // not supported\\n}\\n//--></script>\\n\', escape=False)\nresponse.write(\'\\n\\n    \', escape=False)\n#using sidebars need to know what sidebar you want to use\n#prior of using it, because of static width size of content, you can use\n#left_sidebar, right_sidebar, both or none (False left and right)\nleft_sidebar_enabled = globals().get(\'left_sidebar_enabled\',False)\nright_sidebar_enabled = globals().get(\'right_sidebar_enabled\',False)\nif left_sidebar_enabled and right_sidebar_enabled: width_content=\'63%\'\nelif left_sidebar_enabled != right_sidebar_enabled: width_content=\'740px\'\nelse: width_content=\'100%\'\nif left_sidebar_enabled: left_sidebar_style = \'style="display: block;"\'\nelse: left_sidebar_style = \'style="display: none;"\'\nif right_sidebar_enabled: right_sidebar_style = \'style="display: block;"\'\nelse: right_sidebar_style = \'style="display: none;"\'\nstyle_content = \'style="width: %s"\' % width_content\nresponse.write(\'\\n  </head>\\n  \\n  <!-- paulirish.com/2008/conditional-stylesheets-vs-css-hacks-answer-neither/ -->  \\n  <!--[if lt IE 7 ]> <body class="ie6"> <![endif]-->\\n  <!--[if IE 7 ]>    <body class="ie7"> <![endif]-->\\n  <!--[if IE 8 ]>    <body class="ie8"> <![endif]-->\\n  <!--[if IE 9 ]>    <body class="ie9"> <![endif]-->\\n  <!--[if (gt IE 9)|!(IE)]><!--> <body> <!--<![endif]-->\\n    \\n    <div class="flash">\', escape=False)\nresponse.write(response.flash or \'\')\nresponse.write(\'</div> <!-- notification div -->\\n    \\n    <div id="container">                        \\n      \\n      <div id="wrapper">        \\n    \\n    <div id="header"> <!-- header and login nav -->\\n      \', escape=False)\nresponse.write(\' <!-- this is default header -->\\n      \', escape=False)\n#try:\nresponse.write(auth.navbar(action=URL(\'default\',\'user\')))\n#except:pass\nresponse.write(\'               \\n      <h1>BivApp</h1>\\n      <div style="clear: both;"></div><!-- Clear the divs -->\\n      \', escape=False)\nresponse.write(\'                                     \\n    </div><!-- header  -->\\n    \\n    <div id="statusbar"><!-- statusbar is menu zone -->\\n      \', escape=False)\nresponse.write(\' <!-- this is default statusbar -->\\n      \', escape=False)\n#------ superfish menu ------\nresponse.write(\'\\n      \', escape=False)\nresponse.write(MENU(response.menu,_class=\'sf-menu\'))\nresponse.write(\'\\n      <script type="text/javascript">\\n        jQuery(document).ready(function(){\\n        jQuery(\\\'ul.sf-menu\\\').superfish();});\\n      </script>\\n      <div style="clear: both;"></div><!-- Clear the divs -->   \\n      \', escape=False)\nresponse.write(\'               \\n    </div><!-- statusbar -->\\n    \\n    <div id="page"> <!-- Here my central body -->     \\n\\n      \', escape=False)\nif left_sidebar_enabled:\n    response.write(\'\\n          <div id="left_sidebar" \', escape=False)\n    response.write(XML(left_sidebar_style))\n    response.write(\' >\\n            <div style="padding: 4px;">\\n          \', escape=False)\n    response.write(\'Content Left Sidebar\', escape=False)\n    response.write(\'       \\n            </div>\\n          </div><!-- left_sidebar -->\\n      \', escape=False)\n    pass\nresponse.write(\'\\n\\n      <!-- content -->\\n      <div id="content" \', escape=False)\nresponse.write(XML(style_content))\nresponse.write(\' >\\n        \', escape=False)\nresponse.write(\'\\n<h1>\', escape=False)\nresponse.write(response.subtitle</h1>\n{{=form}\n{{=table)\nresponse.write(\'\\n\', escape=False)\nresponse.write(\' \\n      </div>\\n      <!-- content -->\\n\\n      \', escape=False)\nif right_sidebar_enabled:\n    response.write(\'\\n          <div id="right_sidebar" \', escape=False)\n    response.write(XML(right_sidebar_style))\n    response.write(\' >\\n            <div style="padding: 4px;">\\n              \', escape=False)\n    response.write(\'Content Right Sidebar\', escape=False)\n    response.write(\'\\n            </div>\\n      </div><!-- right_sidebar -->\\n          \', escape=False)\n    pass\nresponse.write(\'\\n\\n\\n      <div style="clear: both;"></div><!-- Clear the divs -->\\n      \\n    </div><!-- page -->                         \\n    \\n    <div id="footer">\\n      \', escape=False)\nresponse.write(\' <!-- this is default footer -->\\n      <a href="http://www.web2py.com/" style="float: left; padding-right: 6px;">\\n        <img src="\', escape=False)\nresponse.write(URL(\'static\',\'images/poweredby.png\'))\nresponse.write(\'"/>\\n      </a>\\n      \', escape=False)\nresponse.write(T(\'Copyright\'))\nresponse.write(\' &#169; 2010               \\n      <div style="clear: both;"></div><!-- Clear the divs -->\\n      \', escape=False)\nresponse.write(\'\\n\\n    </div><!-- footer -->           \\n      </div><!-- wrapper -->\\n    </div><!-- container -->        \\n    \\n    <!--[if lt IE 7 ]>\\n    <script src="\', escape=False)\nresponse.write(URL(\'static\',\'js/dd_belatedpng.js\'))\nresponse.write(\'"></script>\\n    <script> DD_belatedPNG.fix(\\\'img, .png_bg\\\'); //fix any <img> or .png_bg background-images </script>\\n    <![endif]-->\\n    \\n    <!-- asynchronous google analytics: mathiasbynens.be/notes/async-analytics-snippet \\n     change the UA-XXXXX-X to be your site\\\'s ID -->\\n    <!--   \\n       <script>\\n         var _gaq = [[\\\'_setAccount\\\', \\\'UA-XXXXX-X\\\'], [\\\'_trackPageview\\\']];\\n         (function(d, t) {\\n         var g = d.createElement(t),\\n         s = d.getElementsByTagName(t)[0];\\n         g.async = true;\\n         g.src = \\\'//www.google-analytics.com/ga.js\\\';\\n         s.parentNode.insertBefore(g, s);\\n         })(document, \\\'script\\\');\\n       </script>\\n       -->    \\n  </body>\\n</html>\\n\', escape=False)'
p6
sS'snapshot'
p7
(dp8
S'exception'
p9
(dp10
S'__getslice__'
p11
S"<method-wrapper '__getslice__' of exceptions.SyntaxError object>"
p12
sS'text'
p13
S"'response.write(response.subtitle</h1>\\n'"
p14
sS'__str__'
p15
S"<method-wrapper '__str__' of exceptions.SyntaxError object>"
p16
sS'__reduce__'
p17
S'<built-in method __reduce__ of exceptions.SyntaxError object>'
p18
sS'__dict__'
p19
S'{}'
p20
sS'__sizeof__'
p21
S'<built-in method __sizeof__ of exceptions.SyntaxError object>'
p22
sS'__init__'
p23
S"<method-wrapper '__init__' of exceptions.SyntaxError object>"
p24
sS'__setattr__'
p25
S"<method-wrapper '__setattr__' of exceptions.SyntaxError object>"
p26
sS'__reduce_ex__'
p27
S'<built-in method __reduce_ex__ of exceptions.SyntaxError object>'
p28
sS'__new__'
p29
S'<built-in method __new__ of type object>'
p30
sS'__format__'
p31
S'<built-in method __format__ of exceptions.SyntaxError object>'
p32
sS'__class__'
p33
S"<type 'exceptions.SyntaxError'>"
p34
sS'filename'
p35
S"'/home/www-data/web2py/applications/scrum/views/sprint/editar.html'"
p36
sS'lineno'
p37
S'97'
p38
sS'msg'
p39
S"'invalid syntax'"
p40
sS'__doc__'
p41
S"'Invalid syntax.'"
p42
sS'__getitem__'
p43
S"<method-wrapper '__getitem__' of exceptions.SyntaxError object>"
p44
sS'__setstate__'
p45
S'<built-in method __setstate__ of exceptions.SyntaxError object>'
p46
sS'__getattribute__'
p47
S"<method-wrapper '__getattribute__' of exceptions.SyntaxError object>"
p48
sS'print_file_and_line'
p49
S'None'
p50
sS'args'
p51
S"('invalid syntax', ('/home/www-data/web2py/applications/scrum/views/sprint/editar.html', 97, 34, 'response.write(response.subtitle</h1>\\n'))"
p52
sS'__subclasshook__'
p53
S'<built-in method __subclasshook__ of type object>'
p54
sS'offset'
p55
S'34'
p56
sS'__unicode__'
p57
S'<built-in method __unicode__ of exceptions.SyntaxError object>'
p58
sS'__delattr__'
p59
S"<method-wrapper '__delattr__' of exceptions.SyntaxError object>"
p60
sS'__repr__'
p61
S"<method-wrapper '__repr__' of exceptions.SyntaxError object>"
p62
sS'__hash__'
p63
S"<method-wrapper '__hash__' of exceptions.SyntaxError object>"
p64
ssS'evalue'
p65
S'invalid syntax (editar.html, line 97)'
p66
sS'request'
p67
ccopy_reg
_reconstructor
p68
(cgluon.html
BEAUTIFY
p69
c__builtin__
object
p70
NtRp71
(dp72
S'attributes'
p73
(dp74
sS'components'
p75
(lp76
g68
(cgluon.html
TABLE
p77
g70
NtRp78
(dp79
g73
(dp80
S'level'
p81
I5
ssS'parent'
p82
Nsg75
(lp83
g68
(cgluon.html
TR
p84
g70
NtRp85
(dp86
g73
(dp87
sg82
g78
sg75
(lp88
g68
(cgluon.html
TD
p89
g70
NtRp90
(dp91
g73
(dp92
S'_style'
p93
S'font-weight:bold;'
p94
ssg82
g85
sg75
(lp95
S'ajax'
p96
asbag68
(g89
g70
NtRp97
(dp98
g73
(dp99
S'_valign'
p100
S'top'
p101
ssg82
g85
sg75
(lp102
S':'
asbag68
(g89
g70
NtRp103
(dp104
g73
(dp105
sg82
g85
sg75
(lp106
g68
(g69
g70
NtRp107
(dp108
g73
(dp109
g81
I5
ssg82
g103
sg75
(lp110
S'False'
p111
asbasbasbag68
(g84
g70
NtRp112
(dp113
g73
(dp114
sg82
g78
sg75
(lp115
g68
(g89
g70
NtRp116
(dp117
g73
(dp118
g93
g94
ssg82
g112
sg75
(lp119
S'application'
p120
asbag68
(g89
g70
NtRp121
(dp122
g73
(dp123
g100
g101
ssg82
g112
sg75
(lp124
S':'
asbag68
(g89
g70
NtRp125
(dp126
g73
(dp127
sg82
g112
sg75
(lp128
g68
(g69
g70
NtRp129
(dp130
g73
(dp131
g81
I5
ssg82
g125
sg75
(lp132
S'scrum'
p133
asbasbasbag68
(g84
g70
NtRp134
(dp135
g73
(dp136
sg82
g78
sg75
(lp137
g68
(g89
g70
NtRp138
(dp139
g73
(dp140
g93
g94
ssg82
g134
sg75
(lp141
g51
asbag68
(g89
g70
NtRp142
(dp143
g73
(dp144
g100
g101
ssg82
g134
sg75
(lp145
S':'
asbag68
(g89
g70
NtRp146
(dp147
g73
(dp148
sg82
g134
sg75
(lp149
g68
(g69
g70
NtRp150
(dp151
g73
(dp152
g81
I5
ssg82
g146
sg75
(lp153
g68
(g77
g70
NtRp154
(dp155
g73
(dp156
g81
I4
ssg82
Nsg75
(lp157
g68
(g84
g70
NtRp158
(dp159
g73
(dp160
sg82
g154
sg75
(lp161
g68
(g89
g70
NtRp162
(dp163
g73
(dp164
sg82
g158
sg75
(lp165
g68
(g69
g70
NtRp166
(dp167
g73
(dp168
g81
I4
ssg82
g162
sg75
(lp169
S'1'
asbasbasbasbasbasbasbag68
(g84
g70
NtRp170
(dp171
g73
(dp172
sg82
g78
sg75
(lp173
g68
(g89
g70
NtRp174
(dp175
g73
(dp176
g93
g94
ssg82
g170
sg75
(lp177
S'body'
p178
asbag68
(g89
g70
NtRp179
(dp180
g73
(dp181
g100
g101
ssg82
g170
sg75
(lp182
S':'
asbag68
(g89
g70
NtRp183
(dp184
g73
(dp185
sg82
g170
sg75
(lp186
g68
(g69
g70
NtRp187
(dp188
g73
(dp189
g81
I5
ssg82
g183
sg75
(lp190
S'<cStringIO.StringO object at 0xb956fe00>'
p191
asbasbasbag68
(g84
g70
NtRp192
(dp193
g73
(dp194
sg82
g78
sg75
(lp195
g68
(g89
g70
NtRp196
(dp197
g73
(dp198
g93
g94
ssg82
g192
sg75
(lp199
S'client'
p200
asbag68
(g89
g70
NtRp201
(dp202
g73
(dp203
g100
g101
ssg82
g192
sg75
(lp204
S':'
asbag68
(g89
g70
NtRp205
(dp206
g73
(dp207
sg82
g192
sg75
(lp208
g68
(g69
g70
NtRp209
(dp210
g73
(dp211
g81
I5
ssg82
g205
sg75
(lp212
S'127.0.0.1'
p213
asbasbasbag68
(g84
g70
NtRp214
(dp215
g73
(dp216
sg82
g78
sg75
(lp217
g68
(g89
g70
NtRp218
(dp219
g73
(dp220
g93
g94
ssg82
g214
sg75
(lp221
S'controller'
p222
asbag68
(g89
g70
NtRp223
(dp224
g73
(dp225
g100
g101
ssg82
g214
sg75
(lp226
S':'
asbag68
(g89
g70
NtRp227
(dp228
g73
(dp229
sg82
g214
sg75
(lp230
g68
(g69
g70
NtRp231
(dp232
g73
(dp233
g81
I5
ssg82
g227
sg75
(lp234
S'sprint'
p235
asbasbasbag68
(g84
g70
NtRp236
(dp237
g73
(dp238
sg82
g78
sg75
(lp239
g68
(g89
g70
NtRp240
(dp241
g73
(dp242
g93
g94
ssg82
g236
sg75
(lp243
S'cookies'
p244
asbag68
(g89
g70
NtRp245
(dp246
g73
(dp247
g100
g101
ssg82
g236
sg75
(lp248
S':'
asbag68
(g89
g70
NtRp249
(dp250
g73
(dp251
sg82
g236
sg75
(lp252
g68
(g69
g70
NtRp253
(dp254
g73
(dp255
g81
I5
ssg82
g249
sg75
(lp256
g68
(g77
g70
NtRp257
(dp258
g73
(dp259
g81
I4
ssg82
Nsg75
(lp260
g68
(g84
g70
NtRp261
(dp262
g73
(dp263
sg82
g257
sg75
(lp264
g68
(g89
g70
NtRp265
(dp266
g73
(dp267
g93
g94
ssg82
g261
sg75
(lp268
S'session_id_admin'
p269
asbag68
(g89
g70
NtRp270
(dp271
g73
(dp272
g100
g101
ssg82
g261
sg75
(lp273
S':'
asbag68
(g89
g70
NtRp274
(dp275
g73
(dp276
sg82
g261
sg75
(lp277
g68
(g69
g70
NtRp278
(dp279
g73
(dp280
g81
I4
ssg82
g274
sg75
(lp281
g68
(g77
g70
NtRp282
(dp283
g73
(dp284
g81
I3
ssg82
Nsg75
(lp285
g68
(g84
g70
NtRp286
(dp287
g73
(dp288
sg82
g282
sg75
(lp289
g68
(g89
g70
NtRp290
(dp291
g73
(dp292
g93
g94
ssg82
g286
sg75
(lp293
S'comment'
p294
asbag68
(g89
g70
NtRp295
(dp296
g73
(dp297
g100
g101
ssg82
g286
sg75
(lp298
S':'
asbag68
(g89
g70
NtRp299
(dp300
g73
(dp301
sg82
g286
sg75
(lp302
g68
(g69
g70
NtRp303
(dp304
g73
(dp305
g81
I3
ssg82
g299
sg75
(lp306
S''
asbasbasbag68
(g84
g70
NtRp307
(dp308
g73
(dp309
sg82
g282
sg75
(lp310
g68
(g89
g70
NtRp311
(dp312
g73
(dp313
g93
g94
ssg82
g307
sg75
(lp314
S'domain'
p315
asbag68
(g89
g70
NtRp316
(dp317
g73
(dp318
g100
g101
ssg82
g307
sg75
(lp319
S':'
asbag68
(g89
g70
NtRp320
(dp321
g73
(dp322
sg82
g307
sg75
(lp323
g68
(g69
g70
NtRp324
(dp325
g73
(dp326
g81
I3
ssg82
g320
sg75
(lp327
S''
asbasbasbag68
(g84
g70
NtRp328
(dp329
g73
(dp330
sg82
g282
sg75
(lp331
g68
(g89
g70
NtRp332
(dp333
g73
(dp334
g93
g94
ssg82
g328
sg75
(lp335
S'expires'
p336
asbag68
(g89
g70
NtRp337
(dp338
g73
(dp339
g100
g101
ssg82
g328
sg75
(lp340
S':'
asbag68
(g89
g70
NtRp341
(dp342
g73
(dp343
sg82
g328
sg75
(lp344
g68
(g69
g70
NtRp345
(dp346
g73
(dp347
g81
I3
ssg82
g341
sg75
(lp348
S''
asbasbasbag68
(g84
g70
NtRp349
(dp350
g73
(dp351
sg82
g282
sg75
(lp352
g68
(g89
g70
NtRp353
(dp354
g73
(dp355
g93
g94
ssg82
g349
sg75
(lp356
S'httponly'
p357
asbag68
(g89
g70
NtRp358
(dp359
g73
(dp360
g100
g101
ssg82
g349
sg75
(lp361
S':'
asbag68
(g89
g70
NtRp362
(dp363
g73
(dp364
sg82
g349
sg75
(lp365
g68
(g69
g70
NtRp366
(dp367
g73
(dp368
g81
I3
ssg82
g362
sg75
(lp369
S''
asbasbasbag68
(g84
g70
NtRp370
(dp371
g73
(dp372
sg82
g282
sg75
(lp373
g68
(g89
g70
NtRp374
(dp375
g73
(dp376
g93
g94
ssg82
g370
sg75
(lp377
S'max-age'
p378
asbag68
(g89
g70
NtRp379
(dp380
g73
(dp381
g100
g101
ssg82
g370
sg75
(lp382
S':'
asbag68
(g89
g70
NtRp383
(dp384
g73
(dp385
sg82
g370
sg75
(lp386
g68
(g69
g70
NtRp387
(dp388
g73
(dp389
g81
I3
ssg82
g383
sg75
(lp390
S''
asbasbasbag68
(g84
g70
NtRp391
(dp392
g73
(dp393
sg82
g282
sg75
(lp394
g68
(g89
g70
NtRp395
(dp396
g73
(dp397
g93
g94
ssg82
g391
sg75
(lp398
S'path'
p399
asbag68
(g89
g70
NtRp400
(dp401
g73
(dp402
g100
g101
ssg82
g391
sg75
(lp403
S':'
asbag68
(g89
g70
NtRp404
(dp405
g73
(dp406
sg82
g391
sg75
(lp407
g68
(g69
g70
NtRp408
(dp409
g73
(dp410
g81
I3
ssg82
g404
sg75
(lp411
S''
asbasbasbag68
(g84
g70
NtRp412
(dp413
g73
(dp414
sg82
g282
sg75
(lp415
g68
(g89
g70
NtRp416
(dp417
g73
(dp418
g93
g94
ssg82
g412
sg75
(lp419
S'secure'
p420
asbag68
(g89
g70
NtRp421
(dp422
g73
(dp423
g100
g101
ssg82
g412
sg75
(lp424
S':'
asbag68
(g89
g70
NtRp425
(dp426
g73
(dp427
sg82
g412
sg75
(lp428
g68
(g69
g70
NtRp429
(dp430
g73
(dp431
g81
I3
ssg82
g425
sg75
(lp432
S''
asbasbasbag68
(g84
g70
NtRp433
(dp434
g73
(dp435
sg82
g282
sg75
(lp436
g68
(g89
g70
NtRp437
(dp438
g73
(dp439
g93
g94
ssg82
g433
sg75
(lp440
S'version'
p441
asbag68
(g89
g70
NtRp442
(dp443
g73
(dp444
g100
g101
ssg82
g433
sg75
(lp445
S':'
asbag68
(g89
g70
NtRp446
(dp447
g73
(dp448
sg82
g433
sg75
(lp449
g68
(g69
g70
NtRp450
(dp451
g73
(dp452
g81
I3
ssg82
g446
sg75
(lp453
S''
asbasbasbasbasbasbasbag68
(g84
g70
NtRp454
(dp455
g73
(dp456
sg82
g257
sg75
(lp457
g68
(g89
g70
NtRp458
(dp459
g73
(dp460
g93
g94
ssg82
g454
sg75
(lp461
S'session_id_scrum'
p462
asbag68
(g89
g70
NtRp463
(dp464
g73
(dp465
g100
g101
ssg82
g454
sg75
(lp466
S':'
asbag68
(g89
g70
NtRp467
(dp468
g73
(dp469
sg82
g454
sg75
(lp470
g68
(g69
g70
NtRp471
(dp472
g73
(dp473
g81
I4
ssg82
g467
sg75
(lp474
g68
(g77
g70
NtRp475
(dp476
g73
(dp477
g81
I3
ssg82
Nsg75
(lp478
g68
(g84
g70
NtRp479
(dp480
g73
(dp481
sg82
g475
sg75
(lp482
g68
(g89
g70
NtRp483
(dp484
g73
(dp485
g93
g94
ssg82
g479
sg75
(lp486
g294
asbag68
(g89
g70
NtRp487
(dp488
g73
(dp489
g100
g101
ssg82
g479
sg75
(lp490
S':'
asbag68
(g89
g70
NtRp491
(dp492
g73
(dp493
sg82
g479
sg75
(lp494
g68
(g69
g70
NtRp495
(dp496
g73
(dp497
g81
I3
ssg82
g491
sg75
(lp498
S''
asbasbasbag68
(g84
g70
NtRp499
(dp500
g73
(dp501
sg82
g475
sg75
(lp502
g68
(g89
g70
NtRp503
(dp504
g73
(dp505
g93
g94
ssg82
g499
sg75
(lp506
g315
asbag68
(g89
g70
NtRp507
(dp508
g73
(dp509
g100
g101
ssg82
g499
sg75
(lp510
S':'
asbag68
(g89
g70
NtRp511
(dp512
g73
(dp513
sg82
g499
sg75
(lp514
g68
(g69
g70
NtRp515
(dp516
g73
(dp517
g81
I3
ssg82
g511
sg75
(lp518
S''
asbasbasbag68
(g84
g70
NtRp519
(dp520
g73
(dp521
sg82
g475
sg75
(lp522
g68
(g89
g70
NtRp523
(dp524
g73
(dp525
g93
g94
ssg82
g519
sg75
(lp526
g336
asbag68
(g89
g70
NtRp527
(dp528
g73
(dp529
g100
g101
ssg82
g519
sg75
(lp530
S':'
asbag68
(g89
g70
NtRp531
(dp532
g73
(dp533
sg82
g519
sg75
(lp534
g68
(g69
g70
NtRp535
(dp536
g73
(dp537
g81
I3
ssg82
g531
sg75
(lp538
S''
asbasbasbag68
(g84
g70
NtRp539
(dp540
g73
(dp541
sg82
g475
sg75
(lp542
g68
(g89
g70
NtRp543
(dp544
g73
(dp545
g93
g94
ssg82
g539
sg75
(lp546
g357
asbag68
(g89
g70
NtRp547
(dp548
g73
(dp549
g100
g101
ssg82
g539
sg75
(lp550
S':'
asbag68
(g89
g70
NtRp551
(dp552
g73
(dp553
sg82
g539
sg75
(lp554
g68
(g69
g70
NtRp555
(dp556
g73
(dp557
g81
I3
ssg82
g551
sg75
(lp558
S''
asbasbasbag68
(g84
g70
NtRp559
(dp560
g73
(dp561
sg82
g475
sg75
(lp562
g68
(g89
g70
NtRp563
(dp564
g73
(dp565
g93
g94
ssg82
g559
sg75
(lp566
g378
asbag68
(g89
g70
NtRp567
(dp568
g73
(dp569
g100
g101
ssg82
g559
sg75
(lp570
S':'
asbag68
(g89
g70
NtRp571
(dp572
g73
(dp573
sg82
g559
sg75
(lp574
g68
(g69
g70
NtRp575
(dp576
g73
(dp577
g81
I3
ssg82
g571
sg75
(lp578
S''
asbasbasbag68
(g84
g70
NtRp579
(dp580
g73
(dp581
sg82
g475
sg75
(lp582
g68
(g89
g70
NtRp583
(dp584
g73
(dp585
g93
g94
ssg82
g579
sg75
(lp586
g399
asbag68
(g89
g70
NtRp587
(dp588
g73
(dp589
g100
g101
ssg82
g579
sg75
(lp590
S':'
asbag68
(g89
g70
NtRp591
(dp592
g73
(dp593
sg82
g579
sg75
(lp594
g68
(g69
g70
NtRp595
(dp596
g73
(dp597
g81
I3
ssg82
g591
sg75
(lp598
S''
asbasbasbag68
(g84
g70
NtRp599
(dp600
g73
(dp601
sg82
g475
sg75
(lp602
g68
(g89
g70
NtRp603
(dp604
g73
(dp605
g93
g94
ssg82
g599
sg75
(lp606
g420
asbag68
(g89
g70
NtRp607
(dp608
g73
(dp609
g100
g101
ssg82
g599
sg75
(lp610
S':'
asbag68
(g89
g70
NtRp611
(dp612
g73
(dp613
sg82
g599
sg75
(lp614
g68
(g69
g70
NtRp615
(dp616
g73
(dp617
g81
I3
ssg82
g611
sg75
(lp618
S''
asbasbasbag68
(g84
g70
NtRp619
(dp620
g73
(dp621
sg82
g475
sg75
(lp622
g68
(g89
g70
NtRp623
(dp624
g73
(dp625
g93
g94
ssg82
g619
sg75
(lp626
g441
asbag68
(g89
g70
NtRp627
(dp628
g73
(dp629
g100
g101
ssg82
g619
sg75
(lp630
S':'
asbag68
(g89
g70
NtRp631
(dp632
g73
(dp633
sg82
g619
sg75
(lp634
g68
(g69
g70
NtRp635
(dp636
g73
(dp637
g81
I3
ssg82
g631
sg75
(lp638
S''
asbasbasbasbasbasbasbasbasbasbasbag68
(g84
g70
NtRp639
(dp640
g73
(dp641
sg82
g78
sg75
(lp642
g68
(g89
g70
NtRp643
(dp644
g73
(dp645
g93
g94
ssg82
g639
sg75
(lp646
S'env'
p647
asbag68
(g89
g70
NtRp648
(dp649
g73
(dp650
g100
g101
ssg82
g639
sg75
(lp651
S':'
asbag68
(g89
g70
NtRp652
(dp653
g73
(dp654
sg82
g639
sg75
(lp655
g68
(g69
g70
NtRp656
(dp657
g73
(dp658
g81
I5
ssg82
g652
sg75
(lp659
g68
(g77
g70
NtRp660
(dp661
g73
(dp662
g81
I4
ssg82
Nsg75
(lp663
g68
(g84
g70
NtRp664
(dp665
g73
(dp666
sg82
g660
sg75
(lp667
g68
(g89
g70
NtRp668
(dp669
g73
(dp670
g93
g94
ssg82
g664
sg75
(lp671
S'app_folders'
p672
asbag68
(g89
g70
NtRp673
(dp674
g73
(dp675
g100
g101
ssg82
g664
sg75
(lp676
S':'
asbag68
(g89
g70
NtRp677
(dp678
g73
(dp679
sg82
g664
sg75
(lp680
g68
(g69
g70
NtRp681
(dp682
g73
(dp683
g81
I4
ssg82
g677
sg75
(lp684
S"set(['/home/www-data/web2py/applications/scrum/', '/home/www-data/web2py/applications/admin/'])"
p685
asbasbasbag68
(g84
g70
NtRp686
(dp687
g73
(dp688
sg82
g660
sg75
(lp689
g68
(g89
g70
NtRp690
(dp691
g73
(dp692
g93
g94
ssg82
g686
sg75
(lp693
S'applications_parent'
p694
asbag68
(g89
g70
NtRp695
(dp696
g73
(dp697
g100
g101
ssg82
g686
sg75
(lp698
S':'
asbag68
(g89
g70
NtRp699
(dp700
g73
(dp701
sg82
g686
sg75
(lp702
g68
(g69
g70
NtRp703
(dp704
g73
(dp705
g81
I4
ssg82
g699
sg75
(lp706
S'/home/www-data/web2py'
p707
asbasbasbag68
(g84
g70
NtRp708
(dp709
g73
(dp710
sg82
g660
sg75
(lp711
g68
(g89
g70
NtRp712
(dp713
g73
(dp714
g93
g94
ssg82
g708
sg75
(lp715
S'db_sessions'
p716
asbag68
(g89
g70
NtRp717
(dp718
g73
(dp719
g100
g101
ssg82
g708
sg75
(lp720
S':'
asbag68
(g89
g70
NtRp721
(dp722
g73
(dp723
sg82
g708
sg75
(lp724
g68
(g69
g70
NtRp725
(dp726
g73
(dp727
g81
I4
ssg82
g721
sg75
(lp728
S'set([])'
p729
asbasbasbag68
(g84
g70
NtRp730
(dp731
g73
(dp732
sg82
g660
sg75
(lp733
g68
(g89
g70
NtRp734
(dp735
g73
(dp736
g93
g94
ssg82
g730
sg75
(lp737
S'debugging'
p738
asbag68
(g89
g70
NtRp739
(dp740
g73
(dp741
g100
g101
ssg82
g730
sg75
(lp742
S':'
asbag68
(g89
g70
NtRp743
(dp744
g73
(dp745
sg82
g730
sg75
(lp746
g68
(g69
g70
NtRp747
(dp748
g73
(dp749
g81
I4
ssg82
g743
sg75
(lp750
g111
asbasbasbag68
(g84
g70
NtRp751
(dp752
g73
(dp753
sg82
g660
sg75
(lp754
g68
(g89
g70
NtRp755
(dp756
g73
(dp757
g93
g94
ssg82
g751
sg75
(lp758
S'document_root'
p759
asbag68
(g89
g70
NtRp760
(dp761
g73
(dp762
g100
g101
ssg82
g751
sg75
(lp763
S':'
asbag68
(g89
g70
NtRp764
(dp765
g73
(dp766
sg82
g751
sg75
(lp767
g68
(g69
g70
NtRp768
(dp769
g73
(dp770
g81
I4
ssg82
g764
sg75
(lp771
S'/etc/apache2/htdocs'
p772
asbasbasbag68
(g84
g70
NtRp773
(dp774
g73
(dp775
sg82
g660
sg75
(lp776
g68
(g89
g70
NtRp777
(dp778
g73
(dp779
g93
g94
ssg82
g773
sg75
(lp780
S'gateway_interface'
p781
asbag68
(g89
g70
NtRp782
(dp783
g73
(dp784
g100
g101
ssg82
g773
sg75
(lp785
S':'
asbag68
(g89
g70
NtRp786
(dp787
g73
(dp788
sg82
g773
sg75
(lp789
g68
(g69
g70
NtRp790
(dp791
g73
(dp792
g81
I4
ssg82
g786
sg75
(lp793
S'CGI/1.1'
p794
asbasbasbag68
(g84
g70
NtRp795
(dp796
g73
(dp797
sg82
g660
sg75
(lp798
g68
(g89
g70
NtRp799
(dp800
g73
(dp801
g93
g94
ssg82
g795
sg75
(lp802
S'gluon_parent'
p803
asbag68
(g89
g70
NtRp804
(dp805
g73
(dp806
g100
g101
ssg82
g795
sg75
(lp807
S':'
asbag68
(g89
g70
NtRp808
(dp809
g73
(dp810
sg82
g795
sg75
(lp811
g68
(g69
g70
NtRp812
(dp813
g73
(dp814
g81
I4
ssg82
g808
sg75
(lp815
g707
asbasbasbag68
(g84
g70
NtRp816
(dp817
g73
(dp818
sg82
g660
sg75
(lp819
g68
(g89
g70
NtRp820
(dp821
g73
(dp822
g93
g94
ssg82
g816
sg75
(lp823
S'http_accept'
p824
asbag68
(g89
g70
NtRp825
(dp826
g73
(dp827
g100
g101
ssg82
g816
sg75
(lp828
S':'
asbag68
(g89
g70
NtRp829
(dp830
g73
(dp831
sg82
g816
sg75
(lp832
g68
(g69
g70
NtRp833
(dp834
g73
(dp835
g81
I4
ssg82
g829
sg75
(lp836
S'text/html,application/xhtml+xml,application/xml;q=0.9,*/*;q=0.8'
p837
asbasbasbag68
(g84
g70
NtRp838
(dp839
g73
(dp840
sg82
g660
sg75
(lp841
g68
(g89
g70
NtRp842
(dp843
g73
(dp844
g93
g94
ssg82
g838
sg75
(lp845
S'http_accept_charset'
p846
asbag68
(g89
g70
NtRp847
(dp848
g73
(dp849
g100
g101
ssg82
g838
sg75
(lp850
S':'
asbag68
(g89
g70
NtRp851
(dp852
g73
(dp853
sg82
g838
sg75
(lp854
g68
(g69
g70
NtRp855
(dp856
g73
(dp857
g81
I4
ssg82
g851
sg75
(lp858
S'ISO-8859-1,utf-8;q=0.7,*;q=0.7'
p859
asbasbasbag68
(g84
g70
NtRp860
(dp861
g73
(dp862
sg82
g660
sg75
(lp863
g68
(g89
g70
NtRp864
(dp865
g73
(dp866
g93
g94
ssg82
g860
sg75
(lp867
S'http_accept_encoding'
p868
asbag68
(g89
g70
NtRp869
(dp870
g73
(dp871
g100
g101
ssg82
g860
sg75
(lp872
S':'
asbag68
(g89
g70
NtRp873
(dp874
g73
(dp875
sg82
g860
sg75
(lp876
g68
(g69
g70
NtRp877
(dp878
g73
(dp879
g81
I4
ssg82
g873
sg75
(lp880
S'gzip, deflate'
p881
asbasbasbag68
(g84
g70
NtRp882
(dp883
g73
(dp884
sg82
g660
sg75
(lp885
g68
(g89
g70
NtRp886
(dp887
g73
(dp888
g93
g94
ssg82
g882
sg75
(lp889
S'http_accept_language'
p890
asbag68
(g89
g70
NtRp891
(dp892
g73
(dp893
g100
g101
ssg82
g882
sg75
(lp894
S':'
asbag68
(g89
g70
NtRp895
(dp896
g73
(dp897
sg82
g882
sg75
(lp898
g68
(g69
g70
NtRp899
(dp900
g73
(dp901
g81
I4
ssg82
g895
sg75
(lp902
S'pt-br,pt;q=0.8,en-us;q=0.5,en;q=0.3'
p903
asbasbasbag68
(g84
g70
NtRp904
(dp905
g73
(dp906
sg82
g660
sg75
(lp907
g68
(g89
g70
NtRp908
(dp909
g73
(dp910
g93
g94
ssg82
g904
sg75
(lp911
S'http_cache_control'
p912
asbag68
(g89
g70
NtRp913
(dp914
g73
(dp915
g100
g101
ssg82
g904
sg75
(lp916
S':'
asbag68
(g89
g70
NtRp917
(dp918
g73
(dp919
sg82
g904
sg75
(lp920
g68
(g69
g70
NtRp921
(dp922
g73
(dp923
g81
I4
ssg82
g917
sg75
(lp924
S'max-age=0'
p925
asbasbasbag68
(g84
g70
NtRp926
(dp927
g73
(dp928
sg82
g660
sg75
(lp929
g68
(g89
g70
NtRp930
(dp931
g73
(dp932
g93
g94
ssg82
g926
sg75
(lp933
S'http_connection'
p934
asbag68
(g89
g70
NtRp935
(dp936
g73
(dp937
g100
g101
ssg82
g926
sg75
(lp938
S':'
asbag68
(g89
g70
NtRp939
(dp940
g73
(dp941
sg82
g926
sg75
(lp942
g68
(g69
g70
NtRp943
(dp944
g73
(dp945
g81
I4
ssg82
g939
sg75
(lp946
S'keep-alive'
p947
asbasbasbag68
(g84
g70
NtRp948
(dp949
g73
(dp950
sg82
g660
sg75
(lp951
g68
(g89
g70
NtRp952
(dp953
g73
(dp954
g93
g94
ssg82
g948
sg75
(lp955
S'http_cookie'
p956
asbag68
(g89
g70
NtRp957
(dp958
g73
(dp959
g100
g101
ssg82
g948
sg75
(lp960
S':'
asbag68
(g89
g70
NtRp961
(dp962
g73
(dp963
sg82
g948
sg75
(lp964
g68
(g69
g70
NtRp965
(dp966
g73
(dp967
g81
I4
ssg82
g961
sg75
(lp968
S'session_id_admin=127.0.0.1-e5192660-39ef-4b4b-a6d6-48f8215e8275; session_id_scrum=127.0.0.1-8741b6aa-dd8d-45b3-88a3-6f21c23a3c79'
p969
asbasbasbag68
(g84
g70
NtRp970
(dp971
g73
(dp972
sg82
g660
sg75
(lp973
g68
(g89
g70
NtRp974
(dp975
g73
(dp976
g93
g94
ssg82
g970
sg75
(lp977
S'http_host'
p978
asbag68
(g89
g70
NtRp979
(dp980
g73
(dp981
g100
g101
ssg82
g970
sg75
(lp982
S':'
asbag68
(g89
g70
NtRp983
(dp984
g73
(dp985
sg82
g970
sg75
(lp986
g68
(g69
g70
NtRp987
(dp988
g73
(dp989
g81
I4
ssg82
g983
sg75
(lp990
S'localhost'
p991
asbasbasbag68
(g84
g70
NtRp992
(dp993
g73
(dp994
sg82
g660
sg75
(lp995
g68
(g89
g70
NtRp996
(dp997
g73
(dp998
g93
g94
ssg82
g992
sg75
(lp999
S'http_referer'
p1000
asbag68
(g89
g70
NtRp1001
(dp1002
g73
(dp1003
g100
g101
ssg82
g992
sg75
(lp1004
S':'
asbag68
(g89
g70
NtRp1005
(dp1006
g73
(dp1007
sg82
g992
sg75
(lp1008
g68
(g69
g70
NtRp1009
(dp1010
g73
(dp1011
g81
I4
ssg82
g1005
sg75
(lp1012
S'https://localhost/scrum/sprint/index'
p1013
asbasbasbag68
(g84
g70
NtRp1014
(dp1015
g73
(dp1016
sg82
g660
sg75
(lp1017
g68
(g89
g70
NtRp1018
(dp1019
g73
(dp1020
g93
g94
ssg82
g1014
sg75
(lp1021
S'http_user_agent'
p1022
asbag68
(g89
g70
NtRp1023
(dp1024
g73
(dp1025
g100
g101
ssg82
g1014
sg75
(lp1026
S':'
asbag68
(g89
g70
NtRp1027
(dp1028
g73
(dp1029
sg82
g1014
sg75
(lp1030
g68
(g69
g70
NtRp1031
(dp1032
g73
(dp1033
g81
I4
ssg82
g1027
sg75
(lp1034
S'Mozilla/5.0 (X11; Linux i686; rv:6.0.2) Gecko/20100101 Firefox/6.0.2'
p1035
asbasbasbag68
(g84
g70
NtRp1036
(dp1037
g73
(dp1038
sg82
g660
sg75
(lp1039
g68
(g89
g70
NtRp1040
(dp1041
g73
(dp1042
g93
g94
ssg82
g1036
sg75
(lp1043
S'https'
p1044
asbag68
(g89
g70
NtRp1045
(dp1046
g73
(dp1047
g100
g101
ssg82
g1036
sg75
(lp1048
S':'
asbag68
(g89
g70
NtRp1049
(dp1050
g73
(dp1051
sg82
g1036
sg75
(lp1052
g68
(g69
g70
NtRp1053
(dp1054
g73
(dp1055
g81
I4
ssg82
g1049
sg75
(lp1056
S'1'
asbasbasbag68
(g84
g70
NtRp1057
(dp1058
g73
(dp1059
sg82
g660
sg75
(lp1060
g68
(g89
g70
NtRp1061
(dp1062
g73
(dp1063
g93
g94
ssg82
g1057
sg75
(lp1064
S'is_jython'
p1065
asbag68
(g89
g70
NtRp1066
(dp1067
g73
(dp1068
g100
g101
ssg82
g1057
sg75
(lp1069
S':'
asbag68
(g89
g70
NtRp1070
(dp1071
g73
(dp1072
sg82
g1057
sg75
(lp1073
g68
(g69
g70
NtRp1074
(dp1075
g73
(dp1076
g81
I4
ssg82
g1070
sg75
(lp1077
g111
asbasbasbag68
(g84
g70
NtRp1078
(dp1079
g73
(dp1080
sg82
g660
sg75
(lp1081
g68
(g89
g70
NtRp1082
(dp1083
g73
(dp1084
g93
g94
ssg82
g1078
sg75
(lp1085
S'mod_wsgi_application_group'
p1086
asbag68
(g89
g70
NtRp1087
(dp1088
g73
(dp1089
g100
g101
ssg82
g1078
sg75
(lp1090
S':'
asbag68
(g89
g70
NtRp1091
(dp1092
g73
(dp1093
sg82
g1078
sg75
(lp1094
g68
(g69
g70
NtRp1095
(dp1096
g73
(dp1097
g81
I4
ssg82
g1091
sg75
(lp1098
S'localhost.localdomain|'
p1099
asbasbasbag68
(g84
g70
NtRp1100
(dp1101
g73
(dp1102
sg82
g660
sg75
(lp1103
g68
(g89
g70
NtRp1104
(dp1105
g73
(dp1106
g93
g94
ssg82
g1100
sg75
(lp1107
S'mod_wsgi_callable_object'
p1108
asbag68
(g89
g70
NtRp1109
(dp1110
g73
(dp1111
g100
g101
ssg82
g1100
sg75
(lp1112
S':'
asbag68
(g89
g70
NtRp1113
(dp1114
g73
(dp1115
sg82
g1100
sg75
(lp1116
g68
(g69
g70
NtRp1117
(dp1118
g73
(dp1119
g81
I4
ssg82
g1113
sg75
(lp1120
S'application'
p1121
asbasbasbag68
(g84
g70
NtRp1122
(dp1123
g73
(dp1124
sg82
g660
sg75
(lp1125
g68
(g89
g70
NtRp1126
(dp1127
g73
(dp1128
g93
g94
ssg82
g1122
sg75
(lp1129
S'mod_wsgi_handler_script'
p1130
asbag68
(g89
g70
NtRp1131
(dp1132
g73
(dp1133
g100
g101
ssg82
g1122
sg75
(lp1134
S':'
asbag68
(g89
g70
NtRp1135
(dp1136
g73
(dp1137
sg82
g1122
sg75
(lp1138
g68
(g69
g70
NtRp1139
(dp1140
g73
(dp1141
g81
I4
ssg82
g1135
sg75
(lp1142
S''
asbasbasbag68
(g84
g70
NtRp1143
(dp1144
g73
(dp1145
sg82
g660
sg75
(lp1146
g68
(g89
g70
NtRp1147
(dp1148
g73
(dp1149
g93
g94
ssg82
g1143
sg75
(lp1150
S'mod_wsgi_input_chunked'
p1151
asbag68
(g89
g70
NtRp1152
(dp1153
g73
(dp1154
g100
g101
ssg82
g1143
sg75
(lp1155
S':'
asbag68
(g89
g70
NtRp1156
(dp1157
g73
(dp1158
sg82
g1143
sg75
(lp1159
g68
(g69
g70
NtRp1160
(dp1161
g73
(dp1162
g81
I4
ssg82
g1156
sg75
(lp1163
S'0'
asbasbasbag68
(g84
g70
NtRp1164
(dp1165
g73
(dp1166
sg82
g660
sg75
(lp1167
g68
(g89
g70
NtRp1168
(dp1169
g73
(dp1170
g93
g94
ssg82
g1164
sg75
(lp1171
S'mod_wsgi_listener_host'
p1172
asbag68
(g89
g70
NtRp1173
(dp1174
g73
(dp1175
g100
g101
ssg82
g1164
sg75
(lp1176
S':'
asbag68
(g89
g70
NtRp1177
(dp1178
g73
(dp1179
sg82
g1164
sg75
(lp1180
g68
(g69
g70
NtRp1181
(dp1182
g73
(dp1183
g81
I4
ssg82
g1177
sg75
(lp1184
S''
asbasbasbag68
(g84
g70
NtRp1185
(dp1186
g73
(dp1187
sg82
g660
sg75
(lp1188
g68
(g89
g70
NtRp1189
(dp1190
g73
(dp1191
g93
g94
ssg82
g1185
sg75
(lp1192
S'mod_wsgi_listener_port'
p1193
asbag68
(g89
g70
NtRp1194
(dp1195
g73
(dp1196
g100
g101
ssg82
g1185
sg75
(lp1197
S':'
asbag68
(g89
g70
NtRp1198
(dp1199
g73
(dp1200
sg82
g1185
sg75
(lp1201
g68
(g69
g70
NtRp1202
(dp1203
g73
(dp1204
g81
I4
ssg82
g1198
sg75
(lp1205
S'443'
p1206
asbasbasbag68
(g84
g70
NtRp1207
(dp1208
g73
(dp1209
sg82
g660
sg75
(lp1210
g68
(g89
g70
NtRp1211
(dp1212
g73
(dp1213
g93
g94
ssg82
g1207
sg75
(lp1214
S'mod_wsgi_process_group'
p1215
asbag68
(g89
g70
NtRp1216
(dp1217
g73
(dp1218
g100
g101
ssg82
g1207
sg75
(lp1219
S':'
asbag68
(g89
g70
NtRp1220
(dp1221
g73
(dp1222
sg82
g1207
sg75
(lp1223
g68
(g69
g70
NtRp1224
(dp1225
g73
(dp1226
g81
I4
ssg82
g1220
sg75
(lp1227
S'web2py'
p1228
asbasbasbag68
(g84
g70
NtRp1229
(dp1230
g73
(dp1231
sg82
g660
sg75
(lp1232
g68
(g89
g70
NtRp1233
(dp1234
g73
(dp1235
g93
g94
ssg82
g1229
sg75
(lp1236
S'mod_wsgi_request_handler'
p1237
asbag68
(g89
g70
NtRp1238
(dp1239
g73
(dp1240
g100
g101
ssg82
g1229
sg75
(lp1241
S':'
asbag68
(g89
g70
NtRp1242
(dp1243
g73
(dp1244
sg82
g1229
sg75
(lp1245
g68
(g69
g70
NtRp1246
(dp1247
g73
(dp1248
g81
I4
ssg82
g1242
sg75
(lp1249
S'wsgi-script'
p1250
asbasbasbag68
(g84
g70
NtRp1251
(dp1252
g73
(dp1253
sg82
g660
sg75
(lp1254
g68
(g89
g70
NtRp1255
(dp1256
g73
(dp1257
g93
g94
ssg82
g1251
sg75
(lp1258
S'mod_wsgi_script_reloading'
p1259
asbag68
(g89
g70
NtRp1260
(dp1261
g73
(dp1262
g100
g101
ssg82
g1251
sg75
(lp1263
S':'
asbag68
(g89
g70
NtRp1264
(dp1265
g73
(dp1266
sg82
g1251
sg75
(lp1267
g68
(g69
g70
NtRp1268
(dp1269
g73
(dp1270
g81
I4
ssg82
g1264
sg75
(lp1271
S'1'
asbasbasbag68
(g84
g70
NtRp1272
(dp1273
g73
(dp1274
sg82
g660
sg75
(lp1275
g68
(g89
g70
NtRp1276
(dp1277
g73
(dp1278
g93
g94
ssg82
g1272
sg75
(lp1279
S'mod_wsgi_version'
p1280
asbag68
(g89
g70
NtRp1281
(dp1282
g73
(dp1283
g100
g101
ssg82
g1272
sg75
(lp1284
S':'
asbag68
(g89
g70
NtRp1285
(dp1286
g73
(dp1287
sg82
g1272
sg75
(lp1288
g68
(g69
g70
NtRp1289
(dp1290
g73
(dp1291
g81
I4
ssg82
g1285
sg75
(lp1292
g68
(g77
g70
NtRp1293
(dp1294
g73
(dp1295
g81
I3
ssg82
Nsg75
(lp1296
g68
(g84
g70
NtRp1297
(dp1298
g73
(dp1299
sg82
g1293
sg75
(lp1300
g68
(g89
g70
NtRp1301
(dp1302
g73
(dp1303
sg82
g1297
sg75
(lp1304
g68
(g69
g70
NtRp1305
(dp1306
g73
(dp1307
g81
I3
ssg82
g1301
sg75
(lp1308
S'3'
asbasbasbag68
(g84
g70
NtRp1309
(dp1310
g73
(dp1311
sg82
g1293
sg75
(lp1312
g68
(g89
g70
NtRp1313
(dp1314
g73
(dp1315
sg82
g1309
sg75
(lp1316
g68
(g69
g70
NtRp1317
(dp1318
g73
(dp1319
g81
I3
ssg82
g1313
sg75
(lp1320
S'3'
asbasbasbasbasbasbasbag68
(g84
g70
NtRp1321
(dp1322
g73
(dp1323
sg82
g660
sg75
(lp1324
g68
(g89
g70
NtRp1325
(dp1326
g73
(dp1327
g93
g94
ssg82
g1321
sg75
(lp1328
S'path_info'
p1329
asbag68
(g89
g70
NtRp1330
(dp1331
g73
(dp1332
g100
g101
ssg82
g1321
sg75
(lp1333
S':'
asbag68
(g89
g70
NtRp1334
(dp1335
g73
(dp1336
sg82
g1321
sg75
(lp1337
g68
(g69
g70
NtRp1338
(dp1339
g73
(dp1340
g81
I4
ssg82
g1334
sg75
(lp1341
S'/scrum/sprint/editar/1'
p1342
asbasbasbag68
(g84
g70
NtRp1343
(dp1344
g73
(dp1345
sg82
g660
sg75
(lp1346
g68
(g89
g70
NtRp1347
(dp1348
g73
(dp1349
g93
g94
ssg82
g1343
sg75
(lp1350
S'path_translated'
p1351
asbag68
(g89
g70
NtRp1352
(dp1353
g73
(dp1354
g100
g101
ssg82
g1343
sg75
(lp1355
S':'
asbag68
(g89
g70
NtRp1356
(dp1357
g73
(dp1358
sg82
g1343
sg75
(lp1359
g68
(g69
g70
NtRp1360
(dp1361
g73
(dp1362
g81
I4
ssg82
g1356
sg75
(lp1363
S'/home/www-data/web2py/wsgihandler.py/scrum/sprint/editar/1'
p1364
asbasbasbag68
(g84
g70
NtRp1365
(dp1366
g73
(dp1367
sg82
g660
sg75
(lp1368
g68
(g89
g70
NtRp1369
(dp1370
g73
(dp1371
g93
g94
ssg82
g1365
sg75
(lp1372
S'query_string'
p1373
asbag68
(g89
g70
NtRp1374
(dp1375
g73
(dp1376
g100
g101
ssg82
g1365
sg75
(lp1377
S':'
asbag68
(g89
g70
NtRp1378
(dp1379
g73
(dp1380
sg82
g1365
sg75
(lp1381
g68
(g69
g70
NtRp1382
(dp1383
g73
(dp1384
g81
I4
ssg82
g1378
sg75
(lp1385
S''
asbasbasbag68
(g84
g70
NtRp1386
(dp1387
g73
(dp1388
sg82
g660
sg75
(lp1389
g68
(g89
g70
NtRp1390
(dp1391
g73
(dp1392
g93
g94
ssg82
g1386
sg75
(lp1393
S'remote_addr'
p1394
asbag68
(g89
g70
NtRp1395
(dp1396
g73
(dp1397
g100
g101
ssg82
g1386
sg75
(lp1398
S':'
asbag68
(g89
g70
NtRp1399
(dp1400
g73
(dp1401
sg82
g1386
sg75
(lp1402
g68
(g69
g70
NtRp1403
(dp1404
g73
(dp1405
g81
I4
ssg82
g1399
sg75
(lp1406
g213
asbasbasbag68
(g84
g70
NtRp1407
(dp1408
g73
(dp1409
sg82
g660
sg75
(lp1410
g68
(g89
g70
NtRp1411
(dp1412
g73
(dp1413
g93
g94
ssg82
g1407
sg75
(lp1414
S'remote_port'
p1415
asbag68
(g89
g70
NtRp1416
(dp1417
g73
(dp1418
g100
g101
ssg82
g1407
sg75
(lp1419
S':'
asbag68
(g89
g70
NtRp1420
(dp1421
g73
(dp1422
sg82
g1407
sg75
(lp1423
g68
(g69
g70
NtRp1424
(dp1425
g73
(dp1426
g81
I4
ssg82
g1420
sg75
(lp1427
S'47167'
p1428
asbasbasbag68
(g84
g70
NtRp1429
(dp1430
g73
(dp1431
sg82
g660
sg75
(lp1432
g68
(g89
g70
NtRp1433
(dp1434
g73
(dp1435
g93
g94
ssg82
g1429
sg75
(lp1436
S'request_method'
p1437
asbag68
(g89
g70
NtRp1438
(dp1439
g73
(dp1440
g100
g101
ssg82
g1429
sg75
(lp1441
S':'
asbag68
(g89
g70
NtRp1442
(dp1443
g73
(dp1444
sg82
g1429
sg75
(lp1445
g68
(g69
g70
NtRp1446
(dp1447
g73
(dp1448
g81
I4
ssg82
g1442
sg75
(lp1449
S'GET'
p1450
asbasbasbag68
(g84
g70
NtRp1451
(dp1452
g73
(dp1453
sg82
g660
sg75
(lp1454
g68
(g89
g70
NtRp1455
(dp1456
g73
(dp1457
g93
g94
ssg82
g1451
sg75
(lp1458
S'request_uri'
p1459
asbag68
(g89
g70
NtRp1460
(dp1461
g73
(dp1462
g100
g101
ssg82
g1451
sg75
(lp1463
S':'
asbag68
(g89
g70
NtRp1464
(dp1465
g73
(dp1466
sg82
g1451
sg75
(lp1467
g68
(g69
g70
NtRp1468
(dp1469
g73
(dp1470
g81
I4
ssg82
g1464
sg75
(lp1471
S'/scrum/sprint/editar/1'
p1472
asbasbasbag68
(g84
g70
NtRp1473
(dp1474
g73
(dp1475
sg82
g660
sg75
(lp1476
g68
(g89
g70
NtRp1477
(dp1478
g73
(dp1479
g93
g94
ssg82
g1473
sg75
(lp1480
S'script_filename'
p1481
asbag68
(g89
g70
NtRp1482
(dp1483
g73
(dp1484
g100
g101
ssg82
g1473
sg75
(lp1485
S':'
asbag68
(g89
g70
NtRp1486
(dp1487
g73
(dp1488
sg82
g1473
sg75
(lp1489
g68
(g69
g70
NtRp1490
(dp1491
g73
(dp1492
g81
I4
ssg82
g1486
sg75
(lp1493
S'/home/www-data/web2py/wsgihandler.py'
p1494
asbasbasbag68
(g84
g70
NtRp1495
(dp1496
g73
(dp1497
sg82
g660
sg75
(lp1498
g68
(g89
g70
NtRp1499
(dp1500
g73
(dp1501
g93
g94
ssg82
g1495
sg75
(lp1502
S'script_name'
p1503
asbag68
(g89
g70
NtRp1504
(dp1505
g73
(dp1506
g100
g101
ssg82
g1495
sg75
(lp1507
S':'
asbag68
(g89
g70
NtRp1508
(dp1509
g73
(dp1510
sg82
g1495
sg75
(lp1511
g68
(g69
g70
NtRp1512
(dp1513
g73
(dp1514
g81
I4
ssg82
g1508
sg75
(lp1515
S''
asbasbasbag68
(g84
g70
NtRp1516
(dp1517
g73
(dp1518
sg82
g660
sg75
(lp1519
g68
(g89
g70
NtRp1520
(dp1521
g73
(dp1522
g93
g94
ssg82
g1516
sg75
(lp1523
S'server_addr'
p1524
asbag68
(g89
g70
NtRp1525
(dp1526
g73
(dp1527
g100
g101
ssg82
g1516
sg75
(lp1528
S':'
asbag68
(g89
g70
NtRp1529
(dp1530
g73
(dp1531
sg82
g1516
sg75
(lp1532
g68
(g69
g70
NtRp1533
(dp1534
g73
(dp1535
g81
I4
ssg82
g1529
sg75
(lp1536
S'127.0.0.1'
p1537
asbasbasbag68
(g84
g70
NtRp1538
(dp1539
g73
(dp1540
sg82
g660
sg75
(lp1541
g68
(g89
g70
NtRp1542
(dp1543
g73
(dp1544
g93
g94
ssg82
g1538
sg75
(lp1545
S'server_admin'
p1546
asbag68
(g89
g70
NtRp1547
(dp1548
g73
(dp1549
g100
g101
ssg82
g1538
sg75
(lp1550
S':'
asbag68
(g89
g70
NtRp1551
(dp1552
g73
(dp1553
sg82
g1538
sg75
(lp1554
g68
(g69
g70
NtRp1555
(dp1556
g73
(dp1557
g81
I4
ssg82
g1551
sg75
(lp1558
S'[no address given]'
p1559
asbasbasbag68
(g84
g70
NtRp1560
(dp1561
g73
(dp1562
sg82
g660
sg75
(lp1563
g68
(g89
g70
NtRp1564
(dp1565
g73
(dp1566
g93
g94
ssg82
g1560
sg75
(lp1567
S'server_name'
p1568
asbag68
(g89
g70
NtRp1569
(dp1570
g73
(dp1571
g100
g101
ssg82
g1560
sg75
(lp1572
S':'
asbag68
(g89
g70
NtRp1573
(dp1574
g73
(dp1575
sg82
g1560
sg75
(lp1576
g68
(g69
g70
NtRp1577
(dp1578
g73
(dp1579
g81
I4
ssg82
g1573
sg75
(lp1580
S'localhost'
p1581
asbasbasbag68
(g84
g70
NtRp1582
(dp1583
g73
(dp1584
sg82
g660
sg75
(lp1585
g68
(g89
g70
NtRp1586
(dp1587
g73
(dp1588
g93
g94
ssg82
g1582
sg75
(lp1589
S'server_port'
p1590
asbag68
(g89
g70
NtRp1591
(dp1592
g73
(dp1593
g100
g101
ssg82
g1582
sg75
(lp1594
S':'
asbag68
(g89
g70
NtRp1595
(dp1596
g73
(dp1597
sg82
g1582
sg75
(lp1598
g68
(g69
g70
NtRp1599
(dp1600
g73
(dp1601
g81
I4
ssg82
g1595
sg75
(lp1602
S'443'
p1603
asbasbasbag68
(g84
g70
NtRp1604
(dp1605
g73
(dp1606
sg82
g660
sg75
(lp1607
g68
(g89
g70
NtRp1608
(dp1609
g73
(dp1610
g93
g94
ssg82
g1604
sg75
(lp1611
S'server_protocol'
p1612
asbag68
(g89
g70
NtRp1613
(dp1614
g73
(dp1615
g100
g101
ssg82
g1604
sg75
(lp1616
S':'
asbag68
(g89
g70
NtRp1617
(dp1618
g73
(dp1619
sg82
g1604
sg75
(lp1620
g68
(g69
g70
NtRp1621
(dp1622
g73
(dp1623
g81
I4
ssg82
g1617
sg75
(lp1624
S'HTTP/1.1'
p1625
asbasbasbag68
(g84
g70
NtRp1626
(dp1627
g73
(dp1628
sg82
g660
sg75
(lp1629
g68
(g89
g70
NtRp1630
(dp1631
g73
(dp1632
g93
g94
ssg82
g1626
sg75
(lp1633
S'server_signature'
p1634
asbag68
(g89
g70
NtRp1635
(dp1636
g73
(dp1637
g100
g101
ssg82
g1626
sg75
(lp1638
S':'
asbag68
(g89
g70
NtRp1639
(dp1640
g73
(dp1641
sg82
g1626
sg75
(lp1642
g68
(g69
g70
NtRp1643
(dp1644
g73
(dp1645
g81
I4
ssg82
g1639
sg75
(lp1646
S'<address>Apache/2.2.17 (Ubuntu) Server at localhost Port 443</address>\n'
p1647
asbasbasbag68
(g84
g70
NtRp1648
(dp1649
g73
(dp1650
sg82
g660
sg75
(lp1651
g68
(g89
g70
NtRp1652
(dp1653
g73
(dp1654
g93
g94
ssg82
g1648
sg75
(lp1655
S'server_software'
p1656
asbag68
(g89
g70
NtRp1657
(dp1658
g73
(dp1659
g100
g101
ssg82
g1648
sg75
(lp1660
S':'
asbag68
(g89
g70
NtRp1661
(dp1662
g73
(dp1663
sg82
g1648
sg75
(lp1664
g68
(g69
g70
NtRp1665
(dp1666
g73
(dp1667
g81
I4
ssg82
g1661
sg75
(lp1668
S'Apache/2.2.17 (Ubuntu)'
p1669
asbasbasbag68
(g84
g70
NtRp1670
(dp1671
g73
(dp1672
sg82
g660
sg75
(lp1673
g68
(g89
g70
NtRp1674
(dp1675
g73
(dp1676
g93
g94
ssg82
g1670
sg75
(lp1677
S'ssl_tls_sni'
p1678
asbag68
(g89
g70
NtRp1679
(dp1680
g73
(dp1681
g100
g101
ssg82
g1670
sg75
(lp1682
S':'
asbag68
(g89
g70
NtRp1683
(dp1684
g73
(dp1685
sg82
g1670
sg75
(lp1686
g68
(g69
g70
NtRp1687
(dp1688
g73
(dp1689
g81
I4
ssg82
g1683
sg75
(lp1690
S'localhost'
p1691
asbasbasbag68
(g84
g70
NtRp1692
(dp1693
g73
(dp1694
sg82
g660
sg75
(lp1695
g68
(g89
g70
NtRp1696
(dp1697
g73
(dp1698
g93
g94
ssg82
g1692
sg75
(lp1699
S'web2py_path'
p1700
asbag68
(g89
g70
NtRp1701
(dp1702
g73
(dp1703
g100
g101
ssg82
g1692
sg75
(lp1704
S':'
asbag68
(g89
g70
NtRp1705
(dp1706
g73
(dp1707
sg82
g1692
sg75
(lp1708
g68
(g69
g70
NtRp1709
(dp1710
g73
(dp1711
g81
I4
ssg82
g1705
sg75
(lp1712
g707
asbasbasbag68
(g84
g70
NtRp1713
(dp1714
g73
(dp1715
sg82
g660
sg75
(lp1716
g68
(g89
g70
NtRp1717
(dp1718
g73
(dp1719
g93
g94
ssg82
g1713
sg75
(lp1720
S'web2py_version'
p1721
asbag68
(g89
g70
NtRp1722
(dp1723
g73
(dp1724
g100
g101
ssg82
g1713
sg75
(lp1725
S':'
asbag68
(g89
g70
NtRp1726
(dp1727
g73
(dp1728
sg82
g1713
sg75
(lp1729
g68
(g69
g70
NtRp1730
(dp1731
g73
(dp1732
g81
I4
ssg82
g1726
sg75
(lp1733
S'Version 1.98.2 (2011-08-04 00:47:09)\n'
p1734
asbasbasbag68
(g84
g70
NtRp1735
(dp1736
g73
(dp1737
sg82
g660
sg75
(lp1738
g68
(g89
g70
NtRp1739
(dp1740
g73
(dp1741
g93
g94
ssg82
g1735
sg75
(lp1742
S'wsgi_errors'
p1743
asbag68
(g89
g70
NtRp1744
(dp1745
g73
(dp1746
g100
g101
ssg82
g1735
sg75
(lp1747
S':'
asbag68
(g89
g70
NtRp1748
(dp1749
g73
(dp1750
sg82
g1735
sg75
(lp1751
g68
(g69
g70
NtRp1752
(dp1753
g73
(dp1754
g81
I4
ssg82
g1748
sg75
(lp1755
S'<mod_wsgi.Log object at 0xb9537e80>'
p1756
asbasbasbag68
(g84
g70
NtRp1757
(dp1758
g73
(dp1759
sg82
g660
sg75
(lp1760
g68
(g89
g70
NtRp1761
(dp1762
g73
(dp1763
g93
g94
ssg82
g1757
sg75
(lp1764
S'wsgi_file_wrapper'
p1765
asbag68
(g89
g70
NtRp1766
(dp1767
g73
(dp1768
g100
g101
ssg82
g1757
sg75
(lp1769
S':'
asbag68
(g89
g70
NtRp1770
(dp1771
g73
(dp1772
sg82
g1757
sg75
(lp1773
g68
(g69
g70
NtRp1774
(dp1775
g73
(dp1776
g81
I4
ssg82
g1770
sg75
(lp1777
S'<built-in method file_wrapper of mod_wsgi.Adapter object at 0xb95797b8>'
p1778
asbasbasbag68
(g84
g70
NtRp1779
(dp1780
g73
(dp1781
sg82
g660
sg75
(lp1782
g68
(g89
g70
NtRp1783
(dp1784
g73
(dp1785
g93
g94
ssg82
g1779
sg75
(lp1786
S'wsgi_input'
p1787
asbag68
(g89
g70
NtRp1788
(dp1789
g73
(dp1790
g100
g101
ssg82
g1779
sg75
(lp1791
S':'
asbag68
(g89
g70
NtRp1792
(dp1793
g73
(dp1794
sg82
g1779
sg75
(lp1795
g68
(g69
g70
NtRp1796
(dp1797
g73
(dp1798
g81
I4
ssg82
g1792
sg75
(lp1799
S'<mod_wsgi.Input object at 0xb9649a48>'
p1800
asbasbasbag68
(g84
g70
NtRp1801
(dp1802
g73
(dp1803
sg82
g660
sg75
(lp1804
g68
(g89
g70
NtRp1805
(dp1806
g73
(dp1807
g93
g94
ssg82
g1801
sg75
(lp1808
S'wsgi_multiprocess'
p1809
asbag68
(g89
g70
NtRp1810
(dp1811
g73
(dp1812
g100
g101
ssg82
g1801
sg75
(lp1813
S':'
asbag68
(g89
g70
NtRp1814
(dp1815
g73
(dp1816
sg82
g1801
sg75
(lp1817
g68
(g69
g70
NtRp1818
(dp1819
g73
(dp1820
g81
I4
ssg82
g1814
sg75
(lp1821
g111
asbasbasbag68
(g84
g70
NtRp1822
(dp1823
g73
(dp1824
sg82
g660
sg75
(lp1825
g68
(g89
g70
NtRp1826
(dp1827
g73
(dp1828
g93
g94
ssg82
g1822
sg75
(lp1829
S'wsgi_multithread'
p1830
asbag68
(g89
g70
NtRp1831
(dp1832
g73
(dp1833
g100
g101
ssg82
g1822
sg75
(lp1834
S':'
asbag68
(g89
g70
NtRp1835
(dp1836
g73
(dp1837
sg82
g1822
sg75
(lp1838
g68
(g69
g70
NtRp1839
(dp1840
g73
(dp1841
g81
I4
ssg82
g1835
sg75
(lp1842
S'True'
p1843
asbasbasbag68
(g84
g70
NtRp1844
(dp1845
g73
(dp1846
sg82
g660
sg75
(lp1847
g68
(g89
g70
NtRp1848
(dp1849
g73
(dp1850
g93
g94
ssg82
g1844
sg75
(lp1851
S'wsgi_run_once'
p1852
asbag68
(g89
g70
NtRp1853
(dp1854
g73
(dp1855
g100
g101
ssg82
g1844
sg75
(lp1856
S':'
asbag68
(g89
g70
NtRp1857
(dp1858
g73
(dp1859
sg82
g1844
sg75
(lp1860
g68
(g69
g70
NtRp1861
(dp1862
g73
(dp1863
g81
I4
ssg82
g1857
sg75
(lp1864
g111
asbasbasbag68
(g84
g70
NtRp1865
(dp1866
g73
(dp1867
sg82
g660
sg75
(lp1868
g68
(g89
g70
NtRp1869
(dp1870
g73
(dp1871
g93
g94
ssg82
g1865
sg75
(lp1872
S'wsgi_url_scheme'
p1873
asbag68
(g89
g70
NtRp1874
(dp1875
g73
(dp1876
g100
g101
ssg82
g1865
sg75
(lp1877
S':'
asbag68
(g89
g70
NtRp1878
(dp1879
g73
(dp1880
sg82
g1865
sg75
(lp1881
g68
(g69
g70
NtRp1882
(dp1883
g73
(dp1884
g81
I4
ssg82
g1878
sg75
(lp1885
S'https'
p1886
asbasbasbag68
(g84
g70
NtRp1887
(dp1888
g73
(dp1889
sg82
g660
sg75
(lp1890
g68
(g89
g70
NtRp1891
(dp1892
g73
(dp1893
g93
g94
ssg82
g1887
sg75
(lp1894
S'wsgi_version'
p1895
asbag68
(g89
g70
NtRp1896
(dp1897
g73
(dp1898
g100
g101
ssg82
g1887
sg75
(lp1899
S':'
asbag68
(g89
g70
NtRp1900
(dp1901
g73
(dp1902
sg82
g1887
sg75
(lp1903
g68
(g69
g70
NtRp1904
(dp1905
g73
(dp1906
g81
I4
ssg82
g1900
sg75
(lp1907
g68
(g77
g70
NtRp1908
(dp1909
g73
(dp1910
g81
I3
ssg82
Nsg75
(lp1911
g68
(g84
g70
NtRp1912
(dp1913
g73
(dp1914
sg82
g1908
sg75
(lp1915
g68
(g89
g70
NtRp1916
(dp1917
g73
(dp1918
sg82
g1912
sg75
(lp1919
g68
(g69
g70
NtRp1920
(dp1921
g73
(dp1922
g81
I3
ssg82
g1916
sg75
(lp1923
S'1'
asbasbasbag68
(g84
g70
NtRp1924
(dp1925
g73
(dp1926
sg82
g1908
sg75
(lp1927
g68
(g89
g70
NtRp1928
(dp1929
g73
(dp1930
sg82
g1924
sg75
(lp1931
g68
(g69
g70
NtRp1932
(dp1933
g73
(dp1934
g81
I3
ssg82
g1928
sg75
(lp1935
S'1'
asbasbasbasbasbasbasbasbasbasbasbag68
(g84
g70
NtRp1936
(dp1937
g73
(dp1938
sg82
g78
sg75
(lp1939
g68
(g89
g70
NtRp1940
(dp1941
g73
(dp1942
g93
g94
ssg82
g1936
sg75
(lp1943
S'extension'
p1944
asbag68
(g89
g70
NtRp1945
(dp1946
g73
(dp1947
g100
g101
ssg82
g1936
sg75
(lp1948
S':'
asbag68
(g89
g70
NtRp1949
(dp1950
g73
(dp1951
sg82
g1936
sg75
(lp1952
g68
(g69
g70
NtRp1953
(dp1954
g73
(dp1955
g81
I5
ssg82
g1949
sg75
(lp1956
S'html'
p1957
asbasbasbag68
(g84
g70
NtRp1958
(dp1959
g73
(dp1960
sg82
g78
sg75
(lp1961
g68
(g89
g70
NtRp1962
(dp1963
g73
(dp1964
g93
g94
ssg82
g1958
sg75
(lp1965
S'folder'
p1966
asbag68
(g89
g70
NtRp1967
(dp1968
g73
(dp1969
g100
g101
ssg82
g1958
sg75
(lp1970
S':'
asbag68
(g89
g70
NtRp1971
(dp1972
g73
(dp1973
sg82
g1958
sg75
(lp1974
g68
(g69
g70
NtRp1975
(dp1976
g73
(dp1977
g81
I5
ssg82
g1971
sg75
(lp1978
S'/home/www-data/web2py/applications/scrum/'
p1979
asbasbasbag68
(g84
g70
NtRp1980
(dp1981
g73
(dp1982
sg82
g78
sg75
(lp1983
g68
(g89
g70
NtRp1984
(dp1985
g73
(dp1986
g93
g94
ssg82
g1980
sg75
(lp1987
S'function'
p1988
asbag68
(g89
g70
NtRp1989
(dp1990
g73
(dp1991
g100
g101
ssg82
g1980
sg75
(lp1992
S':'
asbag68
(g89
g70
NtRp1993
(dp1994
g73
(dp1995
sg82
g1980
sg75
(lp1996
g68
(g69
g70
NtRp1997
(dp1998
g73
(dp1999
g81
I5
ssg82
g1993
sg75
(lp2000
S'editar'
p2001
asbasbasbag68
(g84
g70
NtRp2002
(dp2003
g73
(dp2004
sg82
g78
sg75
(lp2005
g68
(g89
g70
NtRp2006
(dp2007
g73
(dp2008
g93
g94
ssg82
g2002
sg75
(lp2009
S'get_vars'
p2010
asbag68
(g89
g70
NtRp2011
(dp2012
g73
(dp2013
g100
g101
ssg82
g2002
sg75
(lp2014
S':'
asbag68
(g89
g70
NtRp2015
(dp2016
g73
(dp2017
sg82
g2002
sg75
(lp2018
g68
(g69
g70
NtRp2019
(dp2020
g73
(dp2021
g81
I5
ssg82
g2015
sg75
(lp2022
g68
(g77
g70
NtRp2023
(dp2024
g73
(dp2025
g81
I4
ssg82
Nsg75
(lp2026
sbasbasbasbag68
(g84
g70
NtRp2027
(dp2028
g73
(dp2029
sg82
g78
sg75
(lp2030
g68
(g89
g70
NtRp2031
(dp2032
g73
(dp2033
g93
g94
ssg82
g2027
sg75
(lp2034
S'is_https'
p2035
asbag68
(g89
g70
NtRp2036
(dp2037
g73
(dp2038
g100
g101
ssg82
g2027
sg75
(lp2039
S':'
asbag68
(g89
g70
NtRp2040
(dp2041
g73
(dp2042
sg82
g2027
sg75
(lp2043
g68
(g69
g70
NtRp2044
(dp2045
g73
(dp2046
g81
I5
ssg82
g2040
sg75
(lp2047
g1843
asbasbasbag68
(g84
g70
NtRp2048
(dp2049
g73
(dp2050
sg82
g78
sg75
(lp2051
g68
(g89
g70
NtRp2052
(dp2053
g73
(dp2054
g93
g94
ssg82
g2048
sg75
(lp2055
S'is_local'
p2056
asbag68
(g89
g70
NtRp2057
(dp2058
g73
(dp2059
g100
g101
ssg82
g2048
sg75
(lp2060
S':'
asbag68
(g89
g70
NtRp2061
(dp2062
g73
(dp2063
sg82
g2048
sg75
(lp2064
g68
(g69
g70
NtRp2065
(dp2066
g73
(dp2067
g81
I5
ssg82
g2061
sg75
(lp2068
g1843
asbasbasbag68
(g84
g70
NtRp2069
(dp2070
g73
(dp2071
sg82
g78
sg75
(lp2072
g68
(g89
g70
NtRp2073
(dp2074
g73
(dp2075
g93
g94
ssg82
g2069
sg75
(lp2076
S'is_restful'
p2077
asbag68
(g89
g70
NtRp2078
(dp2079
g73
(dp2080
g100
g101
ssg82
g2069
sg75
(lp2081
S':'
asbag68
(g89
g70
NtRp2082
(dp2083
g73
(dp2084
sg82
g2069
sg75
(lp2085
g68
(g69
g70
NtRp2086
(dp2087
g73
(dp2088
g81
I5
ssg82
g2082
sg75
(lp2089
g111
asbasbasbag68
(g84
g70
NtRp2090
(dp2091
g73
(dp2092
sg82
g78
sg75
(lp2093
g68
(g89
g70
NtRp2094
(dp2095
g73
(dp2096
g93
g94
ssg82
g2090
sg75
(lp2097
S'now'
p2098
asbag68
(g89
g70
NtRp2099
(dp2100
g73
(dp2101
g100
g101
ssg82
g2090
sg75
(lp2102
S':'
asbag68
(g89
g70
NtRp2103
(dp2104
g73
(dp2105
sg82
g2090
sg75
(lp2106
g68
(g69
g70
NtRp2107
(dp2108
g73
(dp2109
g81
I5
ssg82
g2103
sg75
(lp2110
S'datetime.datetime(2011, 9, 12, 16, 11, 46, 278126)'
p2111
asbasbasbag68
(g84
g70
NtRp2112
(dp2113
g73
(dp2114
sg82
g78
sg75
(lp2115
g68
(g89
g70
NtRp2116
(dp2117
g73
(dp2118
g93
g94
ssg82
g2112
sg75
(lp2119
S'post_vars'
p2120
asbag68
(g89
g70
NtRp2121
(dp2122
g73
(dp2123
g100
g101
ssg82
g2112
sg75
(lp2124
S':'
asbag68
(g89
g70
NtRp2125
(dp2126
g73
(dp2127
sg82
g2112
sg75
(lp2128
g68
(g69
g70
NtRp2129
(dp2130
g73
(dp2131
g81
I5
ssg82
g2125
sg75
(lp2132
g68
(g77
g70
NtRp2133
(dp2134
g73
(dp2135
g81
I4
ssg82
Nsg75
(lp2136
sbasbasbasbag68
(g84
g70
NtRp2137
(dp2138
g73
(dp2139
sg82
g78
sg75
(lp2140
g68
(g89
g70
NtRp2141
(dp2142
g73
(dp2143
g93
g94
ssg82
g2137
sg75
(lp2144
S'raw_args'
p2145
asbag68
(g89
g70
NtRp2146
(dp2147
g73
(dp2148
g100
g101
ssg82
g2137
sg75
(lp2149
S':'
asbag68
(g89
g70
NtRp2150
(dp2151
g73
(dp2152
sg82
g2137
sg75
(lp2153
g68
(g69
g70
NtRp2154
(dp2155
g73
(dp2156
g81
I5
ssg82
g2150
sg75
(lp2157
S'1'
asbasbasbag68
(g84
g70
NtRp2158
(dp2159
g73
(dp2160
sg82
g78
sg75
(lp2161
g68
(g89
g70
NtRp2162
(dp2163
g73
(dp2164
g93
g94
ssg82
g2158
sg75
(lp2165
S'url'
p2166
asbag68
(g89
g70
NtRp2167
(dp2168
g73
(dp2169
g100
g101
ssg82
g2158
sg75
(lp2170
S':'
asbag68
(g89
g70
NtRp2171
(dp2172
g73
(dp2173
sg82
g2158
sg75
(lp2174
g68
(g69
g70
NtRp2175
(dp2176
g73
(dp2177
g81
I5
ssg82
g2171
sg75
(lp2178
S'/scrum/sprint/editar/1'
p2179
asbasbasbag68
(g84
g70
NtRp2180
(dp2181
g73
(dp2182
sg82
g78
sg75
(lp2183
g68
(g89
g70
NtRp2184
(dp2185
g73
(dp2186
g93
g94
ssg82
g2180
sg75
(lp2187
S'uuid'
p2188
asbag68
(g89
g70
NtRp2189
(dp2190
g73
(dp2191
g100
g101
ssg82
g2180
sg75
(lp2192
S':'
asbag68
(g89
g70
NtRp2193
(dp2194
g73
(dp2195
sg82
g2180
sg75
(lp2196
g68
(g69
g70
NtRp2197
(dp2198
g73
(dp2199
g81
I5
ssg82
g2193
sg75
(lp2200
S'scrum/127.0.0.1.2011-09-12.16-11-46.8f6cfa70-3968-433e-ab19-6f6029e4d7bb'
p2201
asbasbasbag68
(g84
g70
NtRp2202
(dp2203
g73
(dp2204
sg82
g78
sg75
(lp2205
g68
(g89
g70
NtRp2206
(dp2207
g73
(dp2208
g93
g94
ssg82
g2202
sg75
(lp2209
S'vars'
p2210
asbag68
(g89
g70
NtRp2211
(dp2212
g73
(dp2213
g100
g101
ssg82
g2202
sg75
(lp2214
S':'
asbag68
(g89
g70
NtRp2215
(dp2216
g73
(dp2217
sg82
g2202
sg75
(lp2218
g68
(g69
g70
NtRp2219
(dp2220
g73
(dp2221
g81
I5
ssg82
g2215
sg75
(lp2222
g68
(g77
g70
NtRp2223
(dp2224
g73
(dp2225
g81
I4
ssg82
Nsg75
(lp2226
sbasbasbasbag68
(g84
g70
NtRp2227
(dp2228
g73
(dp2229
sg82
g78
sg75
(lp2230
g68
(g89
g70
NtRp2231
(dp2232
g73
(dp2233
g93
g94
ssg82
g2227
sg75
(lp2234
S'wsgi'
p2235
asbag68
(g89
g70
NtRp2236
(dp2237
g73
(dp2238
g100
g101
ssg82
g2227
sg75
(lp2239
S':'
asbag68
(g89
g70
NtRp2240
(dp2241
g73
(dp2242
sg82
g2227
sg75
(lp2243
g68
(g69
g70
NtRp2244
(dp2245
g73
(dp2246
g81
I5
ssg82
g2240
sg75
(lp2247
g68
(g77
g70
NtRp2248
(dp2249
g73
(dp2250
g81
I4
ssg82
Nsg75
(lp2251
g68
(g84
g70
NtRp2252
(dp2253
g73
(dp2254
sg82
g2248
sg75
(lp2255
g68
(g89
g70
NtRp2256
(dp2257
g73
(dp2258
g93
g94
ssg82
g2252
sg75
(lp2259
S'environ'
p2260
asbag68
(g89
g70
NtRp2261
(dp2262
g73
(dp2263
g100
g101
ssg82
g2252
sg75
(lp2264
S':'
asbag68
(g89
g70
NtRp2265
(dp2266
g73
(dp2267
sg82
g2252
sg75
(lp2268
g68
(g69
g70
NtRp2269
(dp2270
g73
(dp2271
g81
I4
ssg82
g2265
sg75
(lp2272
g68
(g77
g70
NtRp2273
(dp2274
g73
(dp2275
g81
I3
ssg82
Nsg75
(lp2276
g68
(g84
g70
NtRp2277
(dp2278
g73
(dp2279
sg82
g2273
sg75
(lp2280
g68
(g89
g70
NtRp2281
(dp2282
g73
(dp2283
g93
g94
ssg82
g2277
sg75
(lp2284
S'DOCUMENT_ROOT'
p2285
asbag68
(g89
g70
NtRp2286
(dp2287
g73
(dp2288
g100
g101
ssg82
g2277
sg75
(lp2289
S':'
asbag68
(g89
g70
NtRp2290
(dp2291
g73
(dp2292
sg82
g2277
sg75
(lp2293
g68
(g69
g70
NtRp2294
(dp2295
g73
(dp2296
g81
I3
ssg82
g2290
sg75
(lp2297
g772
asbasbasbag68
(g84
g70
NtRp2298
(dp2299
g73
(dp2300
sg82
g2273
sg75
(lp2301
g68
(g89
g70
NtRp2302
(dp2303
g73
(dp2304
g93
g94
ssg82
g2298
sg75
(lp2305
S'GATEWAY_INTERFACE'
p2306
asbag68
(g89
g70
NtRp2307
(dp2308
g73
(dp2309
g100
g101
ssg82
g2298
sg75
(lp2310
S':'
asbag68
(g89
g70
NtRp2311
(dp2312
g73
(dp2313
sg82
g2298
sg75
(lp2314
g68
(g69
g70
NtRp2315
(dp2316
g73
(dp2317
g81
I3
ssg82
g2311
sg75
(lp2318
g794
asbasbasbag68
(g84
g70
NtRp2319
(dp2320
g73
(dp2321
sg82
g2273
sg75
(lp2322
g68
(g89
g70
NtRp2323
(dp2324
g73
(dp2325
g93
g94
ssg82
g2319
sg75
(lp2326
S'HTTPS'
p2327
asbag68
(g89
g70
NtRp2328
(dp2329
g73
(dp2330
g100
g101
ssg82
g2319
sg75
(lp2331
S':'
asbag68
(g89
g70
NtRp2332
(dp2333
g73
(dp2334
sg82
g2319
sg75
(lp2335
g68
(g69
g70
NtRp2336
(dp2337
g73
(dp2338
g81
I3
ssg82
g2332
sg75
(lp2339
S'1'
asbasbasbag68
(g84
g70
NtRp2340
(dp2341
g73
(dp2342
sg82
g2273
sg75
(lp2343
g68
(g89
g70
NtRp2344
(dp2345
g73
(dp2346
g93
g94
ssg82
g2340
sg75
(lp2347
S'HTTP_ACCEPT'
p2348
asbag68
(g89
g70
NtRp2349
(dp2350
g73
(dp2351
g100
g101
ssg82
g2340
sg75
(lp2352
S':'
asbag68
(g89
g70
NtRp2353
(dp2354
g73
(dp2355
sg82
g2340
sg75
(lp2356
g68
(g69
g70
NtRp2357
(dp2358
g73
(dp2359
g81
I3
ssg82
g2353
sg75
(lp2360
g837
asbasbasbag68
(g84
g70
NtRp2361
(dp2362
g73
(dp2363
sg82
g2273
sg75
(lp2364
g68
(g89
g70
NtRp2365
(dp2366
g73
(dp2367
g93
g94
ssg82
g2361
sg75
(lp2368
S'HTTP_ACCEPT_CHARSET'
p2369
asbag68
(g89
g70
NtRp2370
(dp2371
g73
(dp2372
g100
g101
ssg82
g2361
sg75
(lp2373
S':'
asbag68
(g89
g70
NtRp2374
(dp2375
g73
(dp2376
sg82
g2361
sg75
(lp2377
g68
(g69
g70
NtRp2378
(dp2379
g73
(dp2380
g81
I3
ssg82
g2374
sg75
(lp2381
g859
asbasbasbag68
(g84
g70
NtRp2382
(dp2383
g73
(dp2384
sg82
g2273
sg75
(lp2385
g68
(g89
g70
NtRp2386
(dp2387
g73
(dp2388
g93
g94
ssg82
g2382
sg75
(lp2389
S'HTTP_ACCEPT_ENCODING'
p2390
asbag68
(g89
g70
NtRp2391
(dp2392
g73
(dp2393
g100
g101
ssg82
g2382
sg75
(lp2394
S':'
asbag68
(g89
g70
NtRp2395
(dp2396
g73
(dp2397
sg82
g2382
sg75
(lp2398
g68
(g69
g70
NtRp2399
(dp2400
g73
(dp2401
g81
I3
ssg82
g2395
sg75
(lp2402
g881
asbasbasbag68
(g84
g70
NtRp2403
(dp2404
g73
(dp2405
sg82
g2273
sg75
(lp2406
g68
(g89
g70
NtRp2407
(dp2408
g73
(dp2409
g93
g94
ssg82
g2403
sg75
(lp2410
S'HTTP_ACCEPT_LANGUAGE'
p2411
asbag68
(g89
g70
NtRp2412
(dp2413
g73
(dp2414
g100
g101
ssg82
g2403
sg75
(lp2415
S':'
asbag68
(g89
g70
NtRp2416
(dp2417
g73
(dp2418
sg82
g2403
sg75
(lp2419
g68
(g69
g70
NtRp2420
(dp2421
g73
(dp2422
g81
I3
ssg82
g2416
sg75
(lp2423
g903
asbasbasbag68
(g84
g70
NtRp2424
(dp2425
g73
(dp2426
sg82
g2273
sg75
(lp2427
g68
(g89
g70
NtRp2428
(dp2429
g73
(dp2430
g93
g94
ssg82
g2424
sg75
(lp2431
S'HTTP_CACHE_CONTROL'
p2432
asbag68
(g89
g70
NtRp2433
(dp2434
g73
(dp2435
g100
g101
ssg82
g2424
sg75
(lp2436
S':'
asbag68
(g89
g70
NtRp2437
(dp2438
g73
(dp2439
sg82
g2424
sg75
(lp2440
g68
(g69
g70
NtRp2441
(dp2442
g73
(dp2443
g81
I3
ssg82
g2437
sg75
(lp2444
g925
asbasbasbag68
(g84
g70
NtRp2445
(dp2446
g73
(dp2447
sg82
g2273
sg75
(lp2448
g68
(g89
g70
NtRp2449
(dp2450
g73
(dp2451
g93
g94
ssg82
g2445
sg75
(lp2452
S'HTTP_CONNECTION'
p2453
asbag68
(g89
g70
NtRp2454
(dp2455
g73
(dp2456
g100
g101
ssg82
g2445
sg75
(lp2457
S':'
asbag68
(g89
g70
NtRp2458
(dp2459
g73
(dp2460
sg82
g2445
sg75
(lp2461
g68
(g69
g70
NtRp2462
(dp2463
g73
(dp2464
g81
I3
ssg82
g2458
sg75
(lp2465
g947
asbasbasbag68
(g84
g70
NtRp2466
(dp2467
g73
(dp2468
sg82
g2273
sg75
(lp2469
g68
(g89
g70
NtRp2470
(dp2471
g73
(dp2472
g93
g94
ssg82
g2466
sg75
(lp2473
S'HTTP_COOKIE'
p2474
asbag68
(g89
g70
NtRp2475
(dp2476
g73
(dp2477
g100
g101
ssg82
g2466
sg75
(lp2478
S':'
asbag68
(g89
g70
NtRp2479
(dp2480
g73
(dp2481
sg82
g2466
sg75
(lp2482
g68
(g69
g70
NtRp2483
(dp2484
g73
(dp2485
g81
I3
ssg82
g2479
sg75
(lp2486
g969
asbasbasbag68
(g84
g70
NtRp2487
(dp2488
g73
(dp2489
sg82
g2273
sg75
(lp2490
g68
(g89
g70
NtRp2491
(dp2492
g73
(dp2493
g93
g94
ssg82
g2487
sg75
(lp2494
S'HTTP_HOST'
p2495
asbag68
(g89
g70
NtRp2496
(dp2497
g73
(dp2498
g100
g101
ssg82
g2487
sg75
(lp2499
S':'
asbag68
(g89
g70
NtRp2500
(dp2501
g73
(dp2502
sg82
g2487
sg75
(lp2503
g68
(g69
g70
NtRp2504
(dp2505
g73
(dp2506
g81
I3
ssg82
g2500
sg75
(lp2507
g991
asbasbasbag68
(g84
g70
NtRp2508
(dp2509
g73
(dp2510
sg82
g2273
sg75
(lp2511
g68
(g89
g70
NtRp2512
(dp2513
g73
(dp2514
g93
g94
ssg82
g2508
sg75
(lp2515
S'HTTP_REFERER'
p2516
asbag68
(g89
g70
NtRp2517
(dp2518
g73
(dp2519
g100
g101
ssg82
g2508
sg75
(lp2520
S':'
asbag68
(g89
g70
NtRp2521
(dp2522
g73
(dp2523
sg82
g2508
sg75
(lp2524
g68
(g69
g70
NtRp2525
(dp2526
g73
(dp2527
g81
I3
ssg82
g2521
sg75
(lp2528
g1013
asbasbasbag68
(g84
g70
NtRp2529
(dp2530
g73
(dp2531
sg82
g2273
sg75
(lp2532
g68
(g89
g70
NtRp2533
(dp2534
g73
(dp2535
g93
g94
ssg82
g2529
sg75
(lp2536
S'HTTP_USER_AGENT'
p2537
asbag68
(g89
g70
NtRp2538
(dp2539
g73
(dp2540
g100
g101
ssg82
g2529
sg75
(lp2541
S':'
asbag68
(g89
g70
NtRp2542
(dp2543
g73
(dp2544
sg82
g2529
sg75
(lp2545
g68
(g69
g70
NtRp2546
(dp2547
g73
(dp2548
g81
I3
ssg82
g2542
sg75
(lp2549
g1035
asbasbasbag68
(g84
g70
NtRp2550
(dp2551
g73
(dp2552
sg82
g2273
sg75
(lp2553
g68
(g89
g70
NtRp2554
(dp2555
g73
(dp2556
g93
g94
ssg82
g2550
sg75
(lp2557
S'PATH_INFO'
p2558
asbag68
(g89
g70
NtRp2559
(dp2560
g73
(dp2561
g100
g101
ssg82
g2550
sg75
(lp2562
S':'
asbag68
(g89
g70
NtRp2563
(dp2564
g73
(dp2565
sg82
g2550
sg75
(lp2566
g68
(g69
g70
NtRp2567
(dp2568
g73
(dp2569
g81
I3
ssg82
g2563
sg75
(lp2570
g1342
asbasbasbag68
(g84
g70
NtRp2571
(dp2572
g73
(dp2573
sg82
g2273
sg75
(lp2574
g68
(g89
g70
NtRp2575
(dp2576
g73
(dp2577
g93
g94
ssg82
g2571
sg75
(lp2578
S'PATH_TRANSLATED'
p2579
asbag68
(g89
g70
NtRp2580
(dp2581
g73
(dp2582
g100
g101
ssg82
g2571
sg75
(lp2583
S':'
asbag68
(g89
g70
NtRp2584
(dp2585
g73
(dp2586
sg82
g2571
sg75
(lp2587
g68
(g69
g70
NtRp2588
(dp2589
g73
(dp2590
g81
I3
ssg82
g2584
sg75
(lp2591
g1364
asbasbasbag68
(g84
g70
NtRp2592
(dp2593
g73
(dp2594
sg82
g2273
sg75
(lp2595
g68
(g89
g70
NtRp2596
(dp2597
g73
(dp2598
g93
g94
ssg82
g2592
sg75
(lp2599
S'QUERY_STRING'
p2600
asbag68
(g89
g70
NtRp2601
(dp2602
g73
(dp2603
g100
g101
ssg82
g2592
sg75
(lp2604
S':'
asbag68
(g89
g70
NtRp2605
(dp2606
g73
(dp2607
sg82
g2592
sg75
(lp2608
g68
(g69
g70
NtRp2609
(dp2610
g73
(dp2611
g81
I3
ssg82
g2605
sg75
(lp2612
S''
asbasbasbag68
(g84
g70
NtRp2613
(dp2614
g73
(dp2615
sg82
g2273
sg75
(lp2616
g68
(g89
g70
NtRp2617
(dp2618
g73
(dp2619
g93
g94
ssg82
g2613
sg75
(lp2620
S'REMOTE_ADDR'
p2621
asbag68
(g89
g70
NtRp2622
(dp2623
g73
(dp2624
g100
g101
ssg82
g2613
sg75
(lp2625
S':'
asbag68
(g89
g70
NtRp2626
(dp2627
g73
(dp2628
sg82
g2613
sg75
(lp2629
g68
(g69
g70
NtRp2630
(dp2631
g73
(dp2632
g81
I3
ssg82
g2626
sg75
(lp2633
g213
asbasbasbag68
(g84
g70
NtRp2634
(dp2635
g73
(dp2636
sg82
g2273
sg75
(lp2637
g68
(g89
g70
NtRp2638
(dp2639
g73
(dp2640
g93
g94
ssg82
g2634
sg75
(lp2641
S'REMOTE_PORT'
p2642
asbag68
(g89
g70
NtRp2643
(dp2644
g73
(dp2645
g100
g101
ssg82
g2634
sg75
(lp2646
S':'
asbag68
(g89
g70
NtRp2647
(dp2648
g73
(dp2649
sg82
g2634
sg75
(lp2650
g68
(g69
g70
NtRp2651
(dp2652
g73
(dp2653
g81
I3
ssg82
g2647
sg75
(lp2654
g1428
asbasbasbag68
(g84
g70
NtRp2655
(dp2656
g73
(dp2657
sg82
g2273
sg75
(lp2658
g68
(g89
g70
NtRp2659
(dp2660
g73
(dp2661
g93
g94
ssg82
g2655
sg75
(lp2662
S'REQUEST_METHOD'
p2663
asbag68
(g89
g70
NtRp2664
(dp2665
g73
(dp2666
g100
g101
ssg82
g2655
sg75
(lp2667
S':'
asbag68
(g89
g70
NtRp2668
(dp2669
g73
(dp2670
sg82
g2655
sg75
(lp2671
g68
(g69
g70
NtRp2672
(dp2673
g73
(dp2674
g81
I3
ssg82
g2668
sg75
(lp2675
g1450
asbasbasbag68
(g84
g70
NtRp2676
(dp2677
g73
(dp2678
sg82
g2273
sg75
(lp2679
g68
(g89
g70
NtRp2680
(dp2681
g73
(dp2682
g93
g94
ssg82
g2676
sg75
(lp2683
S'REQUEST_URI'
p2684
asbag68
(g89
g70
NtRp2685
(dp2686
g73
(dp2687
g100
g101
ssg82
g2676
sg75
(lp2688
S':'
asbag68
(g89
g70
NtRp2689
(dp2690
g73
(dp2691
sg82
g2676
sg75
(lp2692
g68
(g69
g70
NtRp2693
(dp2694
g73
(dp2695
g81
I3
ssg82
g2689
sg75
(lp2696
g1472
asbasbasbag68
(g84
g70
NtRp2697
(dp2698
g73
(dp2699
sg82
g2273
sg75
(lp2700
g68
(g89
g70
NtRp2701
(dp2702
g73
(dp2703
g93
g94
ssg82
g2697
sg75
(lp2704
S'SCRIPT_FILENAME'
p2705
asbag68
(g89
g70
NtRp2706
(dp2707
g73
(dp2708
g100
g101
ssg82
g2697
sg75
(lp2709
S':'
asbag68
(g89
g70
NtRp2710
(dp2711
g73
(dp2712
sg82
g2697
sg75
(lp2713
g68
(g69
g70
NtRp2714
(dp2715
g73
(dp2716
g81
I3
ssg82
g2710
sg75
(lp2717
g1494
asbasbasbag68
(g84
g70
NtRp2718
(dp2719
g73
(dp2720
sg82
g2273
sg75
(lp2721
g68
(g89
g70
NtRp2722
(dp2723
g73
(dp2724
g93
g94
ssg82
g2718
sg75
(lp2725
S'SCRIPT_NAME'
p2726
asbag68
(g89
g70
NtRp2727
(dp2728
g73
(dp2729
g100
g101
ssg82
g2718
sg75
(lp2730
S':'
asbag68
(g89
g70
NtRp2731
(dp2732
g73
(dp2733
sg82
g2718
sg75
(lp2734
g68
(g69
g70
NtRp2735
(dp2736
g73
(dp2737
g81
I3
ssg82
g2731
sg75
(lp2738
S''
asbasbasbag68
(g84
g70
NtRp2739
(dp2740
g73
(dp2741
sg82
g2273
sg75
(lp2742
g68
(g89
g70
NtRp2743
(dp2744
g73
(dp2745
g93
g94
ssg82
g2739
sg75
(lp2746
S'SERVER_ADDR'
p2747
asbag68
(g89
g70
NtRp2748
(dp2749
g73
(dp2750
g100
g101
ssg82
g2739
sg75
(lp2751
S':'
asbag68
(g89
g70
NtRp2752
(dp2753
g73
(dp2754
sg82
g2739
sg75
(lp2755
g68
(g69
g70
NtRp2756
(dp2757
g73
(dp2758
g81
I3
ssg82
g2752
sg75
(lp2759
g1537
asbasbasbag68
(g84
g70
NtRp2760
(dp2761
g73
(dp2762
sg82
g2273
sg75
(lp2763
g68
(g89
g70
NtRp2764
(dp2765
g73
(dp2766
g93
g94
ssg82
g2760
sg75
(lp2767
S'SERVER_ADMIN'
p2768
asbag68
(g89
g70
NtRp2769
(dp2770
g73
(dp2771
g100
g101
ssg82
g2760
sg75
(lp2772
S':'
asbag68
(g89
g70
NtRp2773
(dp2774
g73
(dp2775
sg82
g2760
sg75
(lp2776
g68
(g69
g70
NtRp2777
(dp2778
g73
(dp2779
g81
I3
ssg82
g2773
sg75
(lp2780
g1559
asbasbasbag68
(g84
g70
NtRp2781
(dp2782
g73
(dp2783
sg82
g2273
sg75
(lp2784
g68
(g89
g70
NtRp2785
(dp2786
g73
(dp2787
g93
g94
ssg82
g2781
sg75
(lp2788
S'SERVER_NAME'
p2789
asbag68
(g89
g70
NtRp2790
(dp2791
g73
(dp2792
g100
g101
ssg82
g2781
sg75
(lp2793
S':'
asbag68
(g89
g70
NtRp2794
(dp2795
g73
(dp2796
sg82
g2781
sg75
(lp2797
g68
(g69
g70
NtRp2798
(dp2799
g73
(dp2800
g81
I3
ssg82
g2794
sg75
(lp2801
g1581
asbasbasbag68
(g84
g70
NtRp2802
(dp2803
g73
(dp2804
sg82
g2273
sg75
(lp2805
g68
(g89
g70
NtRp2806
(dp2807
g73
(dp2808
g93
g94
ssg82
g2802
sg75
(lp2809
S'SERVER_PORT'
p2810
asbag68
(g89
g70
NtRp2811
(dp2812
g73
(dp2813
g100
g101
ssg82
g2802
sg75
(lp2814
S':'
asbag68
(g89
g70
NtRp2815
(dp2816
g73
(dp2817
sg82
g2802
sg75
(lp2818
g68
(g69
g70
NtRp2819
(dp2820
g73
(dp2821
g81
I3
ssg82
g2815
sg75
(lp2822
g1603
asbasbasbag68
(g84
g70
NtRp2823
(dp2824
g73
(dp2825
sg82
g2273
sg75
(lp2826
g68
(g89
g70
NtRp2827
(dp2828
g73
(dp2829
g93
g94
ssg82
g2823
sg75
(lp2830
S'SERVER_PROTOCOL'
p2831
asbag68
(g89
g70
NtRp2832
(dp2833
g73
(dp2834
g100
g101
ssg82
g2823
sg75
(lp2835
S':'
asbag68
(g89
g70
NtRp2836
(dp2837
g73
(dp2838
sg82
g2823
sg75
(lp2839
g68
(g69
g70
NtRp2840
(dp2841
g73
(dp2842
g81
I3
ssg82
g2836
sg75
(lp2843
g1625
asbasbasbag68
(g84
g70
NtRp2844
(dp2845
g73
(dp2846
sg82
g2273
sg75
(lp2847
g68
(g89
g70
NtRp2848
(dp2849
g73
(dp2850
g93
g94
ssg82
g2844
sg75
(lp2851
S'SERVER_SIGNATURE'
p2852
asbag68
(g89
g70
NtRp2853
(dp2854
g73
(dp2855
g100
g101
ssg82
g2844
sg75
(lp2856
S':'
asbag68
(g89
g70
NtRp2857
(dp2858
g73
(dp2859
sg82
g2844
sg75
(lp2860
g68
(g69
g70
NtRp2861
(dp2862
g73
(dp2863
g81
I3
ssg82
g2857
sg75
(lp2864
g1647
asbasbasbag68
(g84
g70
NtRp2865
(dp2866
g73
(dp2867
sg82
g2273
sg75
(lp2868
g68
(g89
g70
NtRp2869
(dp2870
g73
(dp2871
g93
g94
ssg82
g2865
sg75
(lp2872
S'SERVER_SOFTWARE'
p2873
asbag68
(g89
g70
NtRp2874
(dp2875
g73
(dp2876
g100
g101
ssg82
g2865
sg75
(lp2877
S':'
asbag68
(g89
g70
NtRp2878
(dp2879
g73
(dp2880
sg82
g2865
sg75
(lp2881
g68
(g69
g70
NtRp2882
(dp2883
g73
(dp2884
g81
I3
ssg82
g2878
sg75
(lp2885
g1669
asbasbasbag68
(g84
g70
NtRp2886
(dp2887
g73
(dp2888
sg82
g2273
sg75
(lp2889
g68
(g89
g70
NtRp2890
(dp2891
g73
(dp2892
g93
g94
ssg82
g2886
sg75
(lp2893
S'SSL_TLS_SNI'
p2894
asbag68
(g89
g70
NtRp2895
(dp2896
g73
(dp2897
g100
g101
ssg82
g2886
sg75
(lp2898
S':'
asbag68
(g89
g70
NtRp2899
(dp2900
g73
(dp2901
sg82
g2886
sg75
(lp2902
g68
(g69
g70
NtRp2903
(dp2904
g73
(dp2905
g81
I3
ssg82
g2899
sg75
(lp2906
g1691
asbasbasbag68
(g84
g70
NtRp2907
(dp2908
g73
(dp2909
sg82
g2273
sg75
(lp2910
g68
(g89
g70
NtRp2911
(dp2912
g73
(dp2913
g93
g94
ssg82
g2907
sg75
(lp2914
S'mod_wsgi.application_group'
p2915
asbag68
(g89
g70
NtRp2916
(dp2917
g73
(dp2918
g100
g101
ssg82
g2907
sg75
(lp2919
S':'
asbag68
(g89
g70
NtRp2920
(dp2921
g73
(dp2922
sg82
g2907
sg75
(lp2923
g68
(g69
g70
NtRp2924
(dp2925
g73
(dp2926
g81
I3
ssg82
g2920
sg75
(lp2927
g1099
asbasbasbag68
(g84
g70
NtRp2928
(dp2929
g73
(dp2930
sg82
g2273
sg75
(lp2931
g68
(g89
g70
NtRp2932
(dp2933
g73
(dp2934
g93
g94
ssg82
g2928
sg75
(lp2935
S'mod_wsgi.callable_object'
p2936
asbag68
(g89
g70
NtRp2937
(dp2938
g73
(dp2939
g100
g101
ssg82
g2928
sg75
(lp2940
S':'
asbag68
(g89
g70
NtRp2941
(dp2942
g73
(dp2943
sg82
g2928
sg75
(lp2944
g68
(g69
g70
NtRp2945
(dp2946
g73
(dp2947
g81
I3
ssg82
g2941
sg75
(lp2948
g1121
asbasbasbag68
(g84
g70
NtRp2949
(dp2950
g73
(dp2951
sg82
g2273
sg75
(lp2952
g68
(g89
g70
NtRp2953
(dp2954
g73
(dp2955
g93
g94
ssg82
g2949
sg75
(lp2956
S'mod_wsgi.handler_script'
p2957
asbag68
(g89
g70
NtRp2958
(dp2959
g73
(dp2960
g100
g101
ssg82
g2949
sg75
(lp2961
S':'
asbag68
(g89
g70
NtRp2962
(dp2963
g73
(dp2964
sg82
g2949
sg75
(lp2965
g68
(g69
g70
NtRp2966
(dp2967
g73
(dp2968
g81
I3
ssg82
g2962
sg75
(lp2969
S''
asbasbasbag68
(g84
g70
NtRp2970
(dp2971
g73
(dp2972
sg82
g2273
sg75
(lp2973
g68
(g89
g70
NtRp2974
(dp2975
g73
(dp2976
g93
g94
ssg82
g2970
sg75
(lp2977
S'mod_wsgi.input_chunked'
p2978
asbag68
(g89
g70
NtRp2979
(dp2980
g73
(dp2981
g100
g101
ssg82
g2970
sg75
(lp2982
S':'
asbag68
(g89
g70
NtRp2983
(dp2984
g73
(dp2985
sg82
g2970
sg75
(lp2986
g68
(g69
g70
NtRp2987
(dp2988
g73
(dp2989
g81
I3
ssg82
g2983
sg75
(lp2990
S'0'
asbasbasbag68
(g84
g70
NtRp2991
(dp2992
g73
(dp2993
sg82
g2273
sg75
(lp2994
g68
(g89
g70
NtRp2995
(dp2996
g73
(dp2997
g93
g94
ssg82
g2991
sg75
(lp2998
S'mod_wsgi.listener_host'
p2999
asbag68
(g89
g70
NtRp3000
(dp3001
g73
(dp3002
g100
g101
ssg82
g2991
sg75
(lp3003
S':'
asbag68
(g89
g70
NtRp3004
(dp3005
g73
(dp3006
sg82
g2991
sg75
(lp3007
g68
(g69
g70
NtRp3008
(dp3009
g73
(dp3010
g81
I3
ssg82
g3004
sg75
(lp3011
S''
asbasbasbag68
(g84
g70
NtRp3012
(dp3013
g73
(dp3014
sg82
g2273
sg75
(lp3015
g68
(g89
g70
NtRp3016
(dp3017
g73
(dp3018
g93
g94
ssg82
g3012
sg75
(lp3019
S'mod_wsgi.listener_port'
p3020
asbag68
(g89
g70
NtRp3021
(dp3022
g73
(dp3023
g100
g101
ssg82
g3012
sg75
(lp3024
S':'
asbag68
(g89
g70
NtRp3025
(dp3026
g73
(dp3027
sg82
g3012
sg75
(lp3028
g68
(g69
g70
NtRp3029
(dp3030
g73
(dp3031
g81
I3
ssg82
g3025
sg75
(lp3032
g1206
asbasbasbag68
(g84
g70
NtRp3033
(dp3034
g73
(dp3035
sg82
g2273
sg75
(lp3036
g68
(g89
g70
NtRp3037
(dp3038
g73
(dp3039
g93
g94
ssg82
g3033
sg75
(lp3040
S'mod_wsgi.process_group'
p3041
asbag68
(g89
g70
NtRp3042
(dp3043
g73
(dp3044
g100
g101
ssg82
g3033
sg75
(lp3045
S':'
asbag68
(g89
g70
NtRp3046
(dp3047
g73
(dp3048
sg82
g3033
sg75
(lp3049
g68
(g69
g70
NtRp3050
(dp3051
g73
(dp3052
g81
I3
ssg82
g3046
sg75
(lp3053
g1228
asbasbasbag68
(g84
g70
NtRp3054
(dp3055
g73
(dp3056
sg82
g2273
sg75
(lp3057
g68
(g89
g70
NtRp3058
(dp3059
g73
(dp3060
g93
g94
ssg82
g3054
sg75
(lp3061
S'mod_wsgi.request_handler'
p3062
asbag68
(g89
g70
NtRp3063
(dp3064
g73
(dp3065
g100
g101
ssg82
g3054
sg75
(lp3066
S':'
asbag68
(g89
g70
NtRp3067
(dp3068
g73
(dp3069
sg82
g3054
sg75
(lp3070
g68
(g69
g70
NtRp3071
(dp3072
g73
(dp3073
g81
I3
ssg82
g3067
sg75
(lp3074
g1250
asbasbasbag68
(g84
g70
NtRp3075
(dp3076
g73
(dp3077
sg82
g2273
sg75
(lp3078
g68
(g89
g70
NtRp3079
(dp3080
g73
(dp3081
g93
g94
ssg82
g3075
sg75
(lp3082
S'mod_wsgi.script_reloading'
p3083
asbag68
(g89
g70
NtRp3084
(dp3085
g73
(dp3086
g100
g101
ssg82
g3075
sg75
(lp3087
S':'
asbag68
(g89
g70
NtRp3088
(dp3089
g73
(dp3090
sg82
g3075
sg75
(lp3091
g68
(g69
g70
NtRp3092
(dp3093
g73
(dp3094
g81
I3
ssg82
g3088
sg75
(lp3095
S'1'
asbasbasbag68
(g84
g70
NtRp3096
(dp3097
g73
(dp3098
sg82
g2273
sg75
(lp3099
g68
(g89
g70
NtRp3100
(dp3101
g73
(dp3102
g93
g94
ssg82
g3096
sg75
(lp3103
S'mod_wsgi.version'
p3104
asbag68
(g89
g70
NtRp3105
(dp3106
g73
(dp3107
g100
g101
ssg82
g3096
sg75
(lp3108
S':'
asbag68
(g89
g70
NtRp3109
(dp3110
g73
(dp3111
sg82
g3096
sg75
(lp3112
g68
(g69
g70
NtRp3113
(dp3114
g73
(dp3115
g81
I3
ssg82
g3109
sg75
(lp3116
g68
(g77
g70
NtRp3117
(dp3118
g73
(dp3119
g81
I2
ssg82
Nsg75
(lp3120
g68
(g84
g70
NtRp3121
(dp3122
g73
(dp3123
sg82
g3117
sg75
(lp3124
g68
(g89
g70
NtRp3125
(dp3126
g73
(dp3127
sg82
g3121
sg75
(lp3128
g68
(g69
g70
NtRp3129
(dp3130
g73
(dp3131
g81
I2
ssg82
g3125
sg75
(lp3132
S'3'
asbasbasbag68
(g84
g70
NtRp3133
(dp3134
g73
(dp3135
sg82
g3117
sg75
(lp3136
g68
(g89
g70
NtRp3137
(dp3138
g73
(dp3139
sg82
g3133
sg75
(lp3140
g68
(g69
g70
NtRp3141
(dp3142
g73
(dp3143
g81
I2
ssg82
g3137
sg75
(lp3144
S'3'
asbasbasbasbasbasbasbag68
(g84
g70
NtRp3145
(dp3146
g73
(dp3147
sg82
g2273
sg75
(lp3148
g68
(g89
g70
NtRp3149
(dp3150
g73
(dp3151
g93
g94
ssg82
g3145
sg75
(lp3152
S'wsgi.errors'
p3153
asbag68
(g89
g70
NtRp3154
(dp3155
g73
(dp3156
g100
g101
ssg82
g3145
sg75
(lp3157
S':'
asbag68
(g89
g70
NtRp3158
(dp3159
g73
(dp3160
sg82
g3145
sg75
(lp3161
g68
(g69
g70
NtRp3162
(dp3163
g73
(dp3164
g81
I3
ssg82
g3158
sg75
(lp3165
S'<mod_wsgi.Log object at 0xb9537e80>'
p3166
asbasbasbag68
(g84
g70
NtRp3167
(dp3168
g73
(dp3169
sg82
g2273
sg75
(lp3170
g68
(g89
g70
NtRp3171
(dp3172
g73
(dp3173
g93
g94
ssg82
g3167
sg75
(lp3174
S'wsgi.file_wrapper'
p3175
asbag68
(g89
g70
NtRp3176
(dp3177
g73
(dp3178
g100
g101
ssg82
g3167
sg75
(lp3179
S':'
asbag68
(g89
g70
NtRp3180
(dp3181
g73
(dp3182
sg82
g3167
sg75
(lp3183
g68
(g69
g70
NtRp3184
(dp3185
g73
(dp3186
g81
I3
ssg82
g3180
sg75
(lp3187
S'<built-in method file_wrapper of mod_wsgi.Adapter object at 0xb95797b8>'
p3188
asbasbasbag68
(g84
g70
NtRp3189
(dp3190
g73
(dp3191
sg82
g2273
sg75
(lp3192
g68
(g89
g70
NtRp3193
(dp3194
g73
(dp3195
g93
g94
ssg82
g3189
sg75
(lp3196
S'wsgi.input'
p3197
asbag68
(g89
g70
NtRp3198
(dp3199
g73
(dp3200
g100
g101
ssg82
g3189
sg75
(lp3201
S':'
asbag68
(g89
g70
NtRp3202
(dp3203
g73
(dp3204
sg82
g3189
sg75
(lp3205
g68
(g69
g70
NtRp3206
(dp3207
g73
(dp3208
g81
I3
ssg82
g3202
sg75
(lp3209
S'<cStringIO.StringO object at 0xb956fe00>'
p3210
asbasbasbag68
(g84
g70
NtRp3211
(dp3212
g73
(dp3213
sg82
g2273
sg75
(lp3214
g68
(g89
g70
NtRp3215
(dp3216
g73
(dp3217
g93
g94
ssg82
g3211
sg75
(lp3218
S'wsgi.multiprocess'
p3219
asbag68
(g89
g70
NtRp3220
(dp3221
g73
(dp3222
g100
g101
ssg82
g3211
sg75
(lp3223
S':'
asbag68
(g89
g70
NtRp3224
(dp3225
g73
(dp3226
sg82
g3211
sg75
(lp3227
g68
(g69
g70
NtRp3228
(dp3229
g73
(dp3230
g81
I3
ssg82
g3224
sg75
(lp3231
g111
asbasbasbag68
(g84
g70
NtRp3232
(dp3233
g73
(dp3234
sg82
g2273
sg75
(lp3235
g68
(g89
g70
NtRp3236
(dp3237
g73
(dp3238
g93
g94
ssg82
g3232
sg75
(lp3239
S'wsgi.multithread'
p3240
asbag68
(g89
g70
NtRp3241
(dp3242
g73
(dp3243
g100
g101
ssg82
g3232
sg75
(lp3244
S':'
asbag68
(g89
g70
NtRp3245
(dp3246
g73
(dp3247
sg82
g3232
sg75
(lp3248
g68
(g69
g70
NtRp3249
(dp3250
g73
(dp3251
g81
I3
ssg82
g3245
sg75
(lp3252
g1843
asbasbasbag68
(g84
g70
NtRp3253
(dp3254
g73
(dp3255
sg82
g2273
sg75
(lp3256
g68
(g89
g70
NtRp3257
(dp3258
g73
(dp3259
g93
g94
ssg82
g3253
sg75
(lp3260
S'wsgi.run_once'
p3261
asbag68
(g89
g70
NtRp3262
(dp3263
g73
(dp3264
g100
g101
ssg82
g3253
sg75
(lp3265
S':'
asbag68
(g89
g70
NtRp3266
(dp3267
g73
(dp3268
sg82
g3253
sg75
(lp3269
g68
(g69
g70
NtRp3270
(dp3271
g73
(dp3272
g81
I3
ssg82
g3266
sg75
(lp3273
g111
asbasbasbag68
(g84
g70
NtRp3274
(dp3275
g73
(dp3276
sg82
g2273
sg75
(lp3277
g68
(g89
g70
NtRp3278
(dp3279
g73
(dp3280
g93
g94
ssg82
g3274
sg75
(lp3281
S'wsgi.url_scheme'
p3282
asbag68
(g89
g70
NtRp3283
(dp3284
g73
(dp3285
g100
g101
ssg82
g3274
sg75
(lp3286
S':'
asbag68
(g89
g70
NtRp3287
(dp3288
g73
(dp3289
sg82
g3274
sg75
(lp3290
g68
(g69
g70
NtRp3291
(dp3292
g73
(dp3293
g81
I3
ssg82
g3287
sg75
(lp3294
g1886
asbasbasbag68
(g84
g70
NtRp3295
(dp3296
g73
(dp3297
sg82
g2273
sg75
(lp3298
g68
(g89
g70
NtRp3299
(dp3300
g73
(dp3301
g93
g94
ssg82
g3295
sg75
(lp3302
S'wsgi.version'
p3303
asbag68
(g89
g70
NtRp3304
(dp3305
g73
(dp3306
g100
g101
ssg82
g3295
sg75
(lp3307
S':'
asbag68
(g89
g70
NtRp3308
(dp3309
g73
(dp3310
sg82
g3295
sg75
(lp3311
g68
(g69
g70
NtRp3312
(dp3313
g73
(dp3314
g81
I3
ssg82
g3308
sg75
(lp3315
S'1'
asbasbasbasbasbasbasbasbasbasbasbasbasbsS'frames'
p3316
(lp3317
(dp3318
S'file'
p3319
S'/home/www-data/web2py/gluon/restricted.py'
p3320
sS'dump'
p3321
(dp3322
S'code'
p3323
S'\'response.write(\\\'<!DOCTYPE html>\\\\n<html lang="\\\', ...    -->    \\\\n  </body>\\\\n</html>\\\\n\\\', escape=False)\''
p3324
sS'layer'
p3325
S"'/home/www-data/web2py/applications/scrum/views/sprint/editar.html'"
p3326
sS'global compile2'
p3327
S'<function compile2>'
p3328
sS'ccode'
p3329
S'undefined'
p3330
ssS'lnum'
p3331
I191
sS'lines'
p3332
(dp3333
I192
S'        exec ccode in environment'
p3334
sI193
S'    except HTTP:'
p3335
sI194
S'        raise'
p3336
sI195
S'    except Exception, error:'
p3337
sI186
S"    environment['__file__'] = layer"
p3338
sI187
S'    try:'
p3339
sI188
S'        if type(code) == types.CodeType:'
p3340
sI189
S'            ccode = code'
p3341
sI190
S'        else:'
p3342
sI191
S'            ccode = compile2(code,layer)'
p3343
ssS'call'
p3344
S'(code=\'response.write(\\\'<!DOCTYPE html>\\\\n<html lang="\\\', ...    -->    \\\\n  </body>\\\\n</html>\\\\n\\\', escape=False)\', environment={\'A\': <class \'gluon.html.A\'>, \'Auth\': <class \'gluon.tools.Auth\'>, \'B\': <class \'gluon.html.B\'>, \'BEAUTIFY\': <class \'gluon.html.BEAUTIFY\'>, \'BODY\': <class \'gluon.html.BODY\'>, \'BR\': <class \'gluon.html.BR\'>, \'BRAZILIAN_DATE\': <gluon.validators.IS_DATE object>, \'BUTTON\': <class \'gluon.html.BUTTON\'>, \'CAT\': <class \'gluon.html.CAT\'>, \'CENTER\': <class \'gluon.html.CENTER\'>, ...}, layer=\'/home/www-data/web2py/applications/scrum/views/sprint/editar.html\')'
p3345
sS'func'
p3346
S'restricted'
p3347
sa(dp3348
g3319
S'/home/www-data/web2py/gluon/restricted.py'
p3349
sg3321
(dp3350
S'builtincompile'
p3351
S'<built-in function compile>'
p3352
sS'code'
p3353
S'\'response.write(\\\'<!DOCTYPE html>\\\\n<html lang="\\\', ...    -->    \\\\n  </body>\\\\n</html>\\\\n\\\', escape=False)\''
p3354
sS'code.rstrip'
p3355
S'<built-in method rstrip of str object>'
p3356
sS').replace'
p3357
g3330
sS'layer'
p3358
S"'/home/www-data/web2py/applications/scrum/views/sprint/editar.html'"
p3359
ssg3331
I178
sg3332
(dp3360
I173
S''
sI174
S'def compile2(code,layer):'
p3361
sI175
S'    """'
p3362
sI176
S"    The +'\\n' is necessary else compile fails when code ends in a comment."
p3363
sI177
S'    """'
p3364
sI178
S"    return compile(code.rstrip().replace('\\r\\n','\\n')+'\\n', layer, 'exec')"
p3365
sI179
S''
sI180
S"def restricted(code, environment={}, layer='Unknown'):"
p3366
sI181
S'    """'
p3367
sI182
S'    runs code in environment and returns the output. if an exception occurs'
p3368
ssg3344
S'(code=\'response.write(\\\'<!DOCTYPE html>\\\\n<html lang="\\\', ...    -->    \\\\n  </body>\\\\n</html>\\\\n\\\', escape=False)\', layer=\'/home/www-data/web2py/applications/scrum/views/sprint/editar.html\')'
p3369
sg3346
S'compile2'
p3370
sasS'pyver'
p3371
S'Python 2.7.1+: /usr/bin/python'
p3372
sS'session'
p3373
g68
(g69
g70
NtRp3374
(dp3375
g73
(dp3376
sg75
(lp3377
g68
(g77
g70
NtRp3378
(dp3379
g73
(dp3380
g81
I5
ssg82
Nsg75
(lp3381
g68
(g84
g70
NtRp3382
(dp3383
g73
(dp3384
sg82
g3378
sg75
(lp3385
g68
(g89
g70
NtRp3386
(dp3387
g73
(dp3388
g93
g94
ssg82
g3382
sg75
(lp3389
S'auth'
p3390
asbag68
(g89
g70
NtRp3391
(dp3392
g73
(dp3393
g100
g101
ssg82
g3382
sg75
(lp3394
S':'
asbag68
(g89
g70
NtRp3395
(dp3396
g73
(dp3397
sg82
g3382
sg75
(lp3398
g68
(g69
g70
NtRp3399
(dp3400
g73
(dp3401
g81
I5
ssg82
g3395
sg75
(lp3402
g68
(g77
g70
NtRp3403
(dp3404
g73
(dp3405
g81
I4
ssg82
Nsg75
(lp3406
g68
(g84
g70
NtRp3407
(dp3408
g73
(dp3409
sg82
g3403
sg75
(lp3410
g68
(g89
g70
NtRp3411
(dp3412
g73
(dp3413
g93
g94
ssg82
g3407
sg75
(lp3414
S'expiration'
p3415
asbag68
(g89
g70
NtRp3416
(dp3417
g73
(dp3418
g100
g101
ssg82
g3407
sg75
(lp3419
S':'
asbag68
(g89
g70
NtRp3420
(dp3421
g73
(dp3422
sg82
g3407
sg75
(lp3423
g68
(g69
g70
NtRp3424
(dp3425
g73
(dp3426
g81
I4
ssg82
g3420
sg75
(lp3427
S'2592000'
p3428
asbasbasbag68
(g84
g70
NtRp3429
(dp3430
g73
(dp3431
sg82
g3403
sg75
(lp3432
g68
(g89
g70
NtRp3433
(dp3434
g73
(dp3435
g93
g94
ssg82
g3429
sg75
(lp3436
S'hmac_key'
p3437
asbag68
(g89
g70
NtRp3438
(dp3439
g73
(dp3440
g100
g101
ssg82
g3429
sg75
(lp3441
S':'
asbag68
(g89
g70
NtRp3442
(dp3443
g73
(dp3444
sg82
g3429
sg75
(lp3445
g68
(g69
g70
NtRp3446
(dp3447
g73
(dp3448
g81
I4
ssg82
g3442
sg75
(lp3449
S'0eb5913b-5067-4036-a2e3-0b783a415d41'
p3450
asbasbasbag68
(g84
g70
NtRp3451
(dp3452
g73
(dp3453
sg82
g3403
sg75
(lp3454
g68
(g89
g70
NtRp3455
(dp3456
g73
(dp3457
g93
g94
ssg82
g3451
sg75
(lp3458
S'last_visit'
p3459
asbag68
(g89
g70
NtRp3460
(dp3461
g73
(dp3462
g100
g101
ssg82
g3451
sg75
(lp3463
S':'
asbag68
(g89
g70
NtRp3464
(dp3465
g73
(dp3466
sg82
g3451
sg75
(lp3467
g68
(g69
g70
NtRp3468
(dp3469
g73
(dp3470
g81
I4
ssg82
g3464
sg75
(lp3471
S'datetime.datetime(2011, 9, 12, 16, 10, 17, 480100)'
p3472
asbasbasbag68
(g84
g70
NtRp3473
(dp3474
g73
(dp3475
sg82
g3403
sg75
(lp3476
g68
(g89
g70
NtRp3477
(dp3478
g73
(dp3479
g93
g94
ssg82
g3473
sg75
(lp3480
S'remember'
p3481
asbag68
(g89
g70
NtRp3482
(dp3483
g73
(dp3484
g100
g101
ssg82
g3473
sg75
(lp3485
S':'
asbag68
(g89
g70
NtRp3486
(dp3487
g73
(dp3488
sg82
g3473
sg75
(lp3489
g68
(g69
g70
NtRp3490
(dp3491
g73
(dp3492
g81
I4
ssg82
g3486
sg75
(lp3493
g111
asbasbasbag68
(g84
g70
NtRp3494
(dp3495
g73
(dp3496
sg82
g3403
sg75
(lp3497
g68
(g89
g70
NtRp3498
(dp3499
g73
(dp3500
g93
g94
ssg82
g3494
sg75
(lp3501
S'user'
p3502
asbag68
(g89
g70
NtRp3503
(dp3504
g73
(dp3505
g100
g101
ssg82
g3494
sg75
(lp3506
S':'
asbag68
(g89
g70
NtRp3507
(dp3508
g73
(dp3509
sg82
g3494
sg75
(lp3510
g68
(g69
g70
NtRp3511
(dp3512
g73
(dp3513
g81
I4
ssg82
g3507
sg75
(lp3514
g68
(g77
g70
NtRp3515
(dp3516
g73
(dp3517
g81
I3
ssg82
Nsg75
(lp3518
g68
(g84
g70
NtRp3519
(dp3520
g73
(dp3521
sg82
g3515
sg75
(lp3522
g68
(g89
g70
NtRp3523
(dp3524
g73
(dp3525
g93
g94
ssg82
g3519
sg75
(lp3526
S'email'
p3527
asbag68
(g89
g70
NtRp3528
(dp3529
g73
(dp3530
g100
g101
ssg82
g3519
sg75
(lp3531
S':'
asbag68
(g89
g70
NtRp3532
(dp3533
g73
(dp3534
sg82
g3519
sg75
(lp3535
g68
(g69
g70
NtRp3536
(dp3537
g73
(dp3538
g81
I3
ssg82
g3532
sg75
(lp3539
S'yamandu.costa@gmail.com'
p3540
asbasbasbag68
(g84
g70
NtRp3541
(dp3542
g73
(dp3543
sg82
g3515
sg75
(lp3544
g68
(g89
g70
NtRp3545
(dp3546
g73
(dp3547
g93
g94
ssg82
g3541
sg75
(lp3548
S'first_name'
p3549
asbag68
(g89
g70
NtRp3550
(dp3551
g73
(dp3552
g100
g101
ssg82
g3541
sg75
(lp3553
S':'
asbag68
(g89
g70
NtRp3554
(dp3555
g73
(dp3556
sg82
g3541
sg75
(lp3557
g68
(g69
g70
NtRp3558
(dp3559
g73
(dp3560
g81
I3
ssg82
g3554
sg75
(lp3561
S'Carlos'
p3562
asbasbasbag68
(g84
g70
NtRp3563
(dp3564
g73
(dp3565
sg82
g3515
sg75
(lp3566
g68
(g89
g70
NtRp3567
(dp3568
g73
(dp3569
g93
g94
ssg82
g3563
sg75
(lp3570
S'id'
p3571
asbag68
(g89
g70
NtRp3572
(dp3573
g73
(dp3574
g100
g101
ssg82
g3563
sg75
(lp3575
S':'
asbag68
(g89
g70
NtRp3576
(dp3577
g73
(dp3578
sg82
g3563
sg75
(lp3579
g68
(g69
g70
NtRp3580
(dp3581
g73
(dp3582
g81
I3
ssg82
g3576
sg75
(lp3583
S'2'
asbasbasbag68
(g84
g70
NtRp3584
(dp3585
g73
(dp3586
sg82
g3515
sg75
(lp3587
g68
(g89
g70
NtRp3588
(dp3589
g73
(dp3590
g93
g94
ssg82
g3584
sg75
(lp3591
S'last_name'
p3592
asbag68
(g89
g70
NtRp3593
(dp3594
g73
(dp3595
g100
g101
ssg82
g3584
sg75
(lp3596
S':'
asbag68
(g89
g70
NtRp3597
(dp3598
g73
(dp3599
sg82
g3584
sg75
(lp3600
g68
(g69
g70
NtRp3601
(dp3602
g73
(dp3603
g81
I3
ssg82
g3597
sg75
(lp3604
S'costa'
p3605
asbasbasbag68
(g84
g70
NtRp3606
(dp3607
g73
(dp3608
sg82
g3515
sg75
(lp3609
g68
(g89
g70
NtRp3610
(dp3611
g73
(dp3612
g93
g94
ssg82
g3606
sg75
(lp3613
S'password'
p3614
asbag68
(g89
g70
NtRp3615
(dp3616
g73
(dp3617
g100
g101
ssg82
g3606
sg75
(lp3618
S':'
asbag68
(g89
g70
NtRp3619
(dp3620
g73
(dp3621
sg82
g3606
sg75
(lp3622
g68
(g69
g70
NtRp3623
(dp3624
g73
(dp3625
g81
I3
ssg82
g3619
sg75
(lp3626
S'00a7a128f71552b063e36943370dd0944d5adb4000c6382d33eb3e1a93dc679cb99beb47e3003d318803f96ef839a18a379eae2e2bb917ca3c52c4e45231b331'
p3627
asbasbasbag68
(g84
g70
NtRp3628
(dp3629
g73
(dp3630
sg82
g3515
sg75
(lp3631
g68
(g89
g70
NtRp3632
(dp3633
g73
(dp3634
g93
g94
ssg82
g3628
sg75
(lp3635
S'registration_key'
p3636
asbag68
(g89
g70
NtRp3637
(dp3638
g73
(dp3639
g100
g101
ssg82
g3628
sg75
(lp3640
S':'
asbag68
(g89
g70
NtRp3641
(dp3642
g73
(dp3643
sg82
g3628
sg75
(lp3644
g68
(g69
g70
NtRp3645
(dp3646
g73
(dp3647
g81
I3
ssg82
g3641
sg75
(lp3648
S''
asbasbasbag68
(g84
g70
NtRp3649
(dp3650
g73
(dp3651
sg82
g3515
sg75
(lp3652
g68
(g89
g70
NtRp3653
(dp3654
g73
(dp3655
g93
g94
ssg82
g3649
sg75
(lp3656
S'reset_password_key'
p3657
asbag68
(g89
g70
NtRp3658
(dp3659
g73
(dp3660
g100
g101
ssg82
g3649
sg75
(lp3661
S':'
asbag68
(g89
g70
NtRp3662
(dp3663
g73
(dp3664
sg82
g3649
sg75
(lp3665
g68
(g69
g70
NtRp3666
(dp3667
g73
(dp3668
g81
I3
ssg82
g3662
sg75
(lp3669
S''
asbasbasbasbasbasbasbasbasbasbasbasbasbsS'etype'
p3670
S"<type 'exceptions.SyntaxError'>"
p3671
sS'date'
p3672
S'Mon Sep 12 16:11:46 2011'
p3673
sS'response'
p3674
g68
(g69
g70
NtRp3675
(dp3676
g73
(dp3677
sg75
(lp3678
g68
(g77
g70
NtRp3679
(dp3680
g73
(dp3681
g81
I5
ssg82
Nsg75
(lp3682
g68
(g84
g70
NtRp3683
(dp3684
g73
(dp3685
sg82
g3679
sg75
(lp3686
g68
(g89
g70
NtRp3687
(dp3688
g73
(dp3689
g93
g94
ssg82
g3683
sg75
(lp3690
g178
asbag68
(g89
g70
NtRp3691
(dp3692
g73
(dp3693
g100
g101
ssg82
g3683
sg75
(lp3694
S':'
asbag68
(g89
g70
NtRp3695
(dp3696
g73
(dp3697
sg82
g3683
sg75
(lp3698
g68
(g69
g70
NtRp3699
(dp3700
g73
(dp3701
g81
I5
ssg82
g3695
sg75
(lp3702
S'<cStringIO.StringO object at 0xb94b7bc0>'
p3703
asbasbasbag68
(g84
g70
NtRp3704
(dp3705
g73
(dp3706
sg82
g3679
sg75
(lp3707
g68
(g89
g70
NtRp3708
(dp3709
g73
(dp3710
g93
g94
ssg82
g3704
sg75
(lp3711
g244
asbag68
(g89
g70
NtRp3712
(dp3713
g73
(dp3714
g100
g101
ssg82
g3704
sg75
(lp3715
S':'
asbag68
(g89
g70
NtRp3716
(dp3717
g73
(dp3718
sg82
g3704
sg75
(lp3719
g68
(g69
g70
NtRp3720
(dp3721
g73
(dp3722
g81
I5
ssg82
g3716
sg75
(lp3723
g68
(g77
g70
NtRp3724
(dp3725
g73
(dp3726
g81
I4
ssg82
Nsg75
(lp3727
g68
(g84
g70
NtRp3728
(dp3729
g73
(dp3730
sg82
g3724
sg75
(lp3731
g68
(g89
g70
NtRp3732
(dp3733
g73
(dp3734
g93
g94
ssg82
g3728
sg75
(lp3735
S'session_id_scrum'
p3736
asbag68
(g89
g70
NtRp3737
(dp3738
g73
(dp3739
g100
g101
ssg82
g3728
sg75
(lp3740
S':'
asbag68
(g89
g70
NtRp3741
(dp3742
g73
(dp3743
sg82
g3728
sg75
(lp3744
g68
(g69
g70
NtRp3745
(dp3746
g73
(dp3747
g81
I4
ssg82
g3741
sg75
(lp3748
g68
(g77
g70
NtRp3749
(dp3750
g73
(dp3751
g81
I3
ssg82
Nsg75
(lp3752
g68
(g84
g70
NtRp3753
(dp3754
g73
(dp3755
sg82
g3749
sg75
(lp3756
g68
(g89
g70
NtRp3757
(dp3758
g73
(dp3759
g93
g94
ssg82
g3753
sg75
(lp3760
g294
asbag68
(g89
g70
NtRp3761
(dp3762
g73
(dp3763
g100
g101
ssg82
g3753
sg75
(lp3764
S':'
asbag68
(g89
g70
NtRp3765
(dp3766
g73
(dp3767
sg82
g3753
sg75
(lp3768
g68
(g69
g70
NtRp3769
(dp3770
g73
(dp3771
g81
I3
ssg82
g3765
sg75
(lp3772
S''
asbasbasbag68
(g84
g70
NtRp3773
(dp3774
g73
(dp3775
sg82
g3749
sg75
(lp3776
g68
(g89
g70
NtRp3777
(dp3778
g73
(dp3779
g93
g94
ssg82
g3773
sg75
(lp3780
g315
asbag68
(g89
g70
NtRp3781
(dp3782
g73
(dp3783
g100
g101
ssg82
g3773
sg75
(lp3784
S':'
asbag68
(g89
g70
NtRp3785
(dp3786
g73
(dp3787
sg82
g3773
sg75
(lp3788
g68
(g69
g70
NtRp3789
(dp3790
g73
(dp3791
g81
I3
ssg82
g3785
sg75
(lp3792
S''
asbasbasbag68
(g84
g70
NtRp3793
(dp3794
g73
(dp3795
sg82
g3749
sg75
(lp3796
g68
(g89
g70
NtRp3797
(dp3798
g73
(dp3799
g93
g94
ssg82
g3793
sg75
(lp3800
g336
asbag68
(g89
g70
NtRp3801
(dp3802
g73
(dp3803
g100
g101
ssg82
g3793
sg75
(lp3804
S':'
asbag68
(g89
g70
NtRp3805
(dp3806
g73
(dp3807
sg82
g3793
sg75
(lp3808
g68
(g69
g70
NtRp3809
(dp3810
g73
(dp3811
g81
I3
ssg82
g3805
sg75
(lp3812
S''
asbasbasbag68
(g84
g70
NtRp3813
(dp3814
g73
(dp3815
sg82
g3749
sg75
(lp3816
g68
(g89
g70
NtRp3817
(dp3818
g73
(dp3819
g93
g94
ssg82
g3813
sg75
(lp3820
g357
asbag68
(g89
g70
NtRp3821
(dp3822
g73
(dp3823
g100
g101
ssg82
g3813
sg75
(lp3824
S':'
asbag68
(g89
g70
NtRp3825
(dp3826
g73
(dp3827
sg82
g3813
sg75
(lp3828
g68
(g69
g70
NtRp3829
(dp3830
g73
(dp3831
g81
I3
ssg82
g3825
sg75
(lp3832
S''
asbasbasbag68
(g84
g70
NtRp3833
(dp3834
g73
(dp3835
sg82
g3749
sg75
(lp3836
g68
(g89
g70
NtRp3837
(dp3838
g73
(dp3839
g93
g94
ssg82
g3833
sg75
(lp3840
g378
asbag68
(g89
g70
NtRp3841
(dp3842
g73
(dp3843
g100
g101
ssg82
g3833
sg75
(lp3844
S':'
asbag68
(g89
g70
NtRp3845
(dp3846
g73
(dp3847
sg82
g3833
sg75
(lp3848
g68
(g69
g70
NtRp3849
(dp3850
g73
(dp3851
g81
I3
ssg82
g3845
sg75
(lp3852
S''
asbasbasbag68
(g84
g70
NtRp3853
(dp3854
g73
(dp3855
sg82
g3749
sg75
(lp3856
g68
(g89
g70
NtRp3857
(dp3858
g73
(dp3859
g93
g94
ssg82
g3853
sg75
(lp3860
g399
asbag68
(g89
g70
NtRp3861
(dp3862
g73
(dp3863
g100
g101
ssg82
g3853
sg75
(lp3864
S':'
asbag68
(g89
g70
NtRp3865
(dp3866
g73
(dp3867
sg82
g3853
sg75
(lp3868
g68
(g69
g70
NtRp3869
(dp3870
g73
(dp3871
g81
I3
ssg82
g3865
sg75
(lp3872
S'/'
asbasbasbag68
(g84
g70
NtRp3873
(dp3874
g73
(dp3875
sg82
g3749
sg75
(lp3876
g68
(g89
g70
NtRp3877
(dp3878
g73
(dp3879
g93
g94
ssg82
g3873
sg75
(lp3880
g420
asbag68
(g89
g70
NtRp3881
(dp3882
g73
(dp3883
g100
g101
ssg82
g3873
sg75
(lp3884
S':'
asbag68
(g89
g70
NtRp3885
(dp3886
g73
(dp3887
sg82
g3873
sg75
(lp3888
g68
(g69
g70
NtRp3889
(dp3890
g73
(dp3891
g81
I3
ssg82
g3885
sg75
(lp3892
S''
asbasbasbag68
(g84
g70
NtRp3893
(dp3894
g73
(dp3895
sg82
g3749
sg75
(lp3896
g68
(g89
g70
NtRp3897
(dp3898
g73
(dp3899
g93
g94
ssg82
g3893
sg75
(lp3900
g441
asbag68
(g89
g70
NtRp3901
(dp3902
g73
(dp3903
g100
g101
ssg82
g3893
sg75
(lp3904
S':'
asbag68
(g89
g70
NtRp3905
(dp3906
g73
(dp3907
sg82
g3893
sg75
(lp3908
g68
(g69
g70
NtRp3909
(dp3910
g73
(dp3911
g81
I3
ssg82
g3905
sg75
(lp3912
S''
asbasbasbasbasbasbasbasbasbasbasbag68
(g84
g70
NtRp3913
(dp3914
g73
(dp3915
sg82
g3679
sg75
(lp3916
g68
(g89
g70
NtRp3917
(dp3918
g73
(dp3919
g93
g94
ssg82
g3913
sg75
(lp3920
S'files'
p3921
asbag68
(g89
g70
NtRp3922
(dp3923
g73
(dp3924
g100
g101
ssg82
g3913
sg75
(lp3925
S':'
asbag68
(g89
g70
NtRp3926
(dp3927
g73
(dp3928
sg82
g3913
sg75
(lp3929
g68
(g69
g70
NtRp3930
(dp3931
g73
(dp3932
g81
I5
ssg82
g3926
sg75
(lp3933
g68
(g77
g70
NtRp3934
(dp3935
g73
(dp3936
g81
I4
ssg82
Nsg75
(lp3937
sbasbasbasbag68
(g84
g70
NtRp3938
(dp3939
g73
(dp3940
sg82
g3679
sg75
(lp3941
g68
(g89
g70
NtRp3942
(dp3943
g73
(dp3944
g93
g94
ssg82
g3938
sg75
(lp3945
S'flash'
p3946
asbag68
(g89
g70
NtRp3947
(dp3948
g73
(dp3949
g100
g101
ssg82
g3938
sg75
(lp3950
S':'
asbag68
(g89
g70
NtRp3951
(dp3952
g73
(dp3953
sg82
g3938
sg75
(lp3954
g68
(g69
g70
NtRp3955
(dp3956
g73
(dp3957
g81
I5
ssg82
g3951
sg75
(lp3958
S''
asbasbasbag68
(g84
g70
NtRp3959
(dp3960
g73
(dp3961
sg82
g3679
sg75
(lp3962
g68
(g89
g70
NtRp3963
(dp3964
g73
(dp3965
g93
g94
ssg82
g3959
sg75
(lp3966
S'generic_patterns'
p3967
asbag68
(g89
g70
NtRp3968
(dp3969
g73
(dp3970
g100
g101
ssg82
g3959
sg75
(lp3971
S':'
asbag68
(g89
g70
NtRp3972
(dp3973
g73
(dp3974
sg82
g3959
sg75
(lp3975
g68
(g69
g70
NtRp3976
(dp3977
g73
(dp3978
g81
I5
ssg82
g3972
sg75
(lp3979
g68
(g77
g70
NtRp3980
(dp3981
g73
(dp3982
g81
I4
ssg82
Nsg75
(lp3983
sbasbasbasbag68
(g84
g70
NtRp3984
(dp3985
g73
(dp3986
sg82
g3679
sg75
(lp3987
g68
(g89
g70
NtRp3988
(dp3989
g73
(dp3990
g93
g94
ssg82
g3984
sg75
(lp3991
S'headers'
p3992
asbag68
(g89
g70
NtRp3993
(dp3994
g73
(dp3995
g100
g101
ssg82
g3984
sg75
(lp3996
S':'
asbag68
(g89
g70
NtRp3997
(dp3998
g73
(dp3999
sg82
g3984
sg75
(lp4000
g68
(g69
g70
NtRp4001
(dp4002
g73
(dp4003
g81
I5
ssg82
g3997
sg75
(lp4004
g68
(g77
g70
NtRp4005
(dp4006
g73
(dp4007
g81
I4
ssg82
Nsg75
(lp4008
g68
(g84
g70
NtRp4009
(dp4010
g73
(dp4011
sg82
g4005
sg75
(lp4012
g68
(g89
g70
NtRp4013
(dp4014
g73
(dp4015
g93
g94
ssg82
g4009
sg75
(lp4016
S'Cache-Control'
p4017
asbag68
(g89
g70
NtRp4018
(dp4019
g73
(dp4020
g100
g101
ssg82
g4009
sg75
(lp4021
S':'
asbag68
(g89
g70
NtRp4022
(dp4023
g73
(dp4024
sg82
g4009
sg75
(lp4025
g68
(g69
g70
NtRp4026
(dp4027
g73
(dp4028
g81
I4
ssg82
g4022
sg75
(lp4029
S'no-store, no-cache, must-revalidate, post-check=0, pre-check=0'
p4030
asbasbasbag68
(g84
g70
NtRp4031
(dp4032
g73
(dp4033
sg82
g4005
sg75
(lp4034
g68
(g89
g70
NtRp4035
(dp4036
g73
(dp4037
g93
g94
ssg82
g4031
sg75
(lp4038
S'Content-Type'
p4039
asbag68
(g89
g70
NtRp4040
(dp4041
g73
(dp4042
g100
g101
ssg82
g4031
sg75
(lp4043
S':'
asbag68
(g89
g70
NtRp4044
(dp4045
g73
(dp4046
sg82
g4031
sg75
(lp4047
g68
(g69
g70
NtRp4048
(dp4049
g73
(dp4050
g81
I4
ssg82
g4044
sg75
(lp4051
S'text/html; charset=utf-8'
p4052
asbasbasbag68
(g84
g70
NtRp4053
(dp4054
g73
(dp4055
sg82
g4005
sg75
(lp4056
g68
(g89
g70
NtRp4057
(dp4058
g73
(dp4059
g93
g94
ssg82
g4053
sg75
(lp4060
S'Expires'
p4061
asbag68
(g89
g70
NtRp4062
(dp4063
g73
(dp4064
g100
g101
ssg82
g4053
sg75
(lp4065
S':'
asbag68
(g89
g70
NtRp4066
(dp4067
g73
(dp4068
sg82
g4053
sg75
(lp4069
g68
(g69
g70
NtRp4070
(dp4071
g73
(dp4072
g81
I4
ssg82
g4066
sg75
(lp4073
S'Mon, 12 Sep 2011 19:11:46 GMT'
p4074
asbasbasbag68
(g84
g70
NtRp4075
(dp4076
g73
(dp4077
sg82
g4005
sg75
(lp4078
g68
(g89
g70
NtRp4079
(dp4080
g73
(dp4081
g93
g94
ssg82
g4075
sg75
(lp4082
S'Pragma'
p4083
asbag68
(g89
g70
NtRp4084
(dp4085
g73
(dp4086
g100
g101
ssg82
g4075
sg75
(lp4087
S':'
asbag68
(g89
g70
NtRp4088
(dp4089
g73
(dp4090
sg82
g4075
sg75
(lp4091
g68
(g69
g70
NtRp4092
(dp4093
g73
(dp4094
g81
I4
ssg82
g4088
sg75
(lp4095
S'no-cache'
p4096
asbasbasbag68
(g84
g70
NtRp4097
(dp4098
g73
(dp4099
sg82
g4005
sg75
(lp4100
g68
(g89
g70
NtRp4101
(dp4102
g73
(dp4103
g93
g94
ssg82
g4097
sg75
(lp4104
S'X-Powered-By'
p4105
asbag68
(g89
g70
NtRp4106
(dp4107
g73
(dp4108
g100
g101
ssg82
g4097
sg75
(lp4109
S':'
asbag68
(g89
g70
NtRp4110
(dp4111
g73
(dp4112
sg82
g4097
sg75
(lp4113
g68
(g69
g70
NtRp4114
(dp4115
g73
(dp4116
g81
I4
ssg82
g4110
sg75
(lp4117
S'web2py'
p4118
asbasbasbasbasbasbasbag68
(g84
g70
NtRp4119
(dp4120
g73
(dp4121
sg82
g3679
sg75
(lp4122
g68
(g89
g70
NtRp4123
(dp4124
g73
(dp4125
g93
g94
ssg82
g4119
sg75
(lp4126
S'menu'
p4127
asbag68
(g89
g70
NtRp4128
(dp4129
g73
(dp4130
g100
g101
ssg82
g4119
sg75
(lp4131
S':'
asbag68
(g89
g70
NtRp4132
(dp4133
g73
(dp4134
sg82
g4119
sg75
(lp4135
g68
(g69
g70
NtRp4136
(dp4137
g73
(dp4138
g81
I5
ssg82
g4132
sg75
(lp4139
g68
(g77
g70
NtRp4140
(dp4141
g73
(dp4142
g81
I4
ssg82
Nsg75
(lp4143
g68
(g84
g70
NtRp4144
(dp4145
g73
(dp4146
sg82
g4140
sg75
(lp4147
g68
(g89
g70
NtRp4148
(dp4149
g73
(dp4150
sg82
g4144
sg75
(lp4151
g68
(g69
g70
NtRp4152
(dp4153
g73
(dp4154
g81
I4
ssg82
g4148
sg75
(lp4155
g68
(g77
g70
NtRp4156
(dp4157
g73
(dp4158
g81
I3
ssg82
Nsg75
(lp4159
g68
(g84
g70
NtRp4160
(dp4161
g73
(dp4162
sg82
g4156
sg75
(lp4163
g68
(g89
g70
NtRp4164
(dp4165
g73
(dp4166
sg82
g4160
sg75
(lp4167
g68
(g69
g70
NtRp4168
(dp4169
g73
(dp4170
g81
I3
ssg82
g4164
sg75
(lp4171
cgluon.languages
lazyT_unpickle
p4172
(S't\x04\x00\x00\x00Home'
tRp4173
asbasbasbag68
(g84
g70
NtRp4174
(dp4175
g73
(dp4176
sg82
g4156
sg75
(lp4177
g68
(g89
g70
NtRp4178
(dp4179
g73
(dp4180
sg82
g4174
sg75
(lp4181
g68
(g69
g70
NtRp4182
(dp4183
g73
(dp4184
g81
I3
ssg82
g4178
sg75
(lp4185
g111
asbasbasbag68
(g84
g70
NtRp4186
(dp4187
g73
(dp4188
sg82
g4156
sg75
(lp4189
g68
(g89
g70
NtRp4190
(dp4191
g73
(dp4192
sg82
g4186
sg75
(lp4193
g68
(g69
g70
NtRp4194
(dp4195
g73
(dp4196
g81
I3
ssg82
g4190
sg75
(lp4197
S'/scrum/default/index'
p4198
asbasbasbag68
(g84
g70
NtRp4199
(dp4200
g73
(dp4201
sg82
g4156
sg75
(lp4202
g68
(g89
g70
NtRp4203
(dp4204
g73
(dp4205
sg82
g4199
sg75
(lp4206
g68
(g69
g70
NtRp4207
(dp4208
g73
(dp4209
g81
I3
ssg82
g4203
sg75
(lp4210
g68
(g77
g70
NtRp4211
(dp4212
g73
(dp4213
g81
I2
ssg82
Nsg75
(lp4214
sbasbasbasbasbasbasbasbag68
(g84
g70
NtRp4215
(dp4216
g73
(dp4217
sg82
g4140
sg75
(lp4218
g68
(g89
g70
NtRp4219
(dp4220
g73
(dp4221
sg82
g4215
sg75
(lp4222
g68
(g69
g70
NtRp4223
(dp4224
g73
(dp4225
g81
I4
ssg82
g4219
sg75
(lp4226
g68
(g77
g70
NtRp4227
(dp4228
g73
(dp4229
g81
I3
ssg82
Nsg75
(lp4230
g68
(g84
g70
NtRp4231
(dp4232
g73
(dp4233
sg82
g4227
sg75
(lp4234
g68
(g89
g70
NtRp4235
(dp4236
g73
(dp4237
sg82
g4231
sg75
(lp4238
g68
(g69
g70
NtRp4239
(dp4240
g73
(dp4241
g81
I3
ssg82
g4235
sg75
(lp4242
g4172
(S't\x03\x00\x00\x00BIV'
tRp4243
asbasbasbag68
(g84
g70
NtRp4244
(dp4245
g73
(dp4246
sg82
g4227
sg75
(lp4247
g68
(g89
g70
NtRp4248
(dp4249
g73
(dp4250
sg82
g4244
sg75
(lp4251
g68
(g69
g70
NtRp4252
(dp4253
g73
(dp4254
g81
I3
ssg82
g4248
sg75
(lp4255
g111
asbasbasbag68
(g84
g70
NtRp4256
(dp4257
g73
(dp4258
sg82
g4227
sg75
(lp4259
g68
(g89
g70
NtRp4260
(dp4261
g73
(dp4262
sg82
g4256
sg75
(lp4263
g68
(g69
g70
NtRp4264
(dp4265
g73
(dp4266
g81
I3
ssg82
g4260
sg75
(lp4267
S''
asbasbasbag68
(g84
g70
NtRp4268
(dp4269
g73
(dp4270
sg82
g4227
sg75
(lp4271
g68
(g89
g70
NtRp4272
(dp4273
g73
(dp4274
sg82
g4268
sg75
(lp4275
g68
(g69
g70
NtRp4276
(dp4277
g73
(dp4278
g81
I3
ssg82
g4272
sg75
(lp4279
g68
(g77
g70
NtRp4280
(dp4281
g73
(dp4282
g81
I2
ssg82
Nsg75
(lp4283
g68
(g84
g70
NtRp4284
(dp4285
g73
(dp4286
sg82
g4280
sg75
(lp4287
g68
(g89
g70
NtRp4288
(dp4289
g73
(dp4290
sg82
g4284
sg75
(lp4291
g68
(g69
g70
NtRp4292
(dp4293
g73
(dp4294
g81
I2
ssg82
g4288
sg75
(lp4295
g68
(g77
g70
NtRp4296
(dp4297
g73
(dp4298
g81
I1
ssg82
Nsg75
(lp4299
g68
(g84
g70
NtRp4300
(dp4301
g73
(dp4302
sg82
g4296
sg75
(lp4303
g68
(g89
g70
NtRp4304
(dp4305
g73
(dp4306
sg82
g4300
sg75
(lp4307
g68
(g69
g70
NtRp4308
(dp4309
g73
(dp4310
g81
I1
ssg82
g4304
sg75
(lp4311
g4172
(S't\x04\x00\x00\x00Novo'
tRp4312
asbasbasbag68
(g84
g70
NtRp4313
(dp4314
g73
(dp4315
sg82
g4296
sg75
(lp4316
g68
(g89
g70
NtRp4317
(dp4318
g73
(dp4319
sg82
g4313
sg75
(lp4320
g68
(g69
g70
NtRp4321
(dp4322
g73
(dp4323
g81
I1
ssg82
g4317
sg75
(lp4324
I00
asbasbasbag68
(g84
g70
NtRp4325
(dp4326
g73
(dp4327
sg82
g4296
sg75
(lp4328
g68
(g89
g70
NtRp4329
(dp4330
g73
(dp4331
sg82
g4325
sg75
(lp4332
g68
(g69
g70
NtRp4333
(dp4334
g73
(dp4335
g81
I1
ssg82
g4329
sg75
(lp4336
S'/scrum/default/novo_biv'
p4337
asbasbasbag68
(g84
g70
NtRp4338
(dp4339
g73
(dp4340
sg82
g4296
sg75
(lp4341
g68
(g89
g70
NtRp4342
(dp4343
g73
(dp4344
sg82
g4338
sg75
(lp4345
g68
(g69
g70
NtRp4346
(dp4347
g73
(dp4348
g81
I1
ssg82
g4342
sg75
(lp4349
(lp4350
asbasbasbasbasbasbasbag68
(g84
g70
NtRp4351
(dp4352
g73
(dp4353
sg82
g4280
sg75
(lp4354
g68
(g89
g70
NtRp4355
(dp4356
g73
(dp4357
sg82
g4351
sg75
(lp4358
g68
(g69
g70
NtRp4359
(dp4360
g73
(dp4361
g81
I2
ssg82
g4355
sg75
(lp4362
g68
(g77
g70
NtRp4363
(dp4364
g73
(dp4365
g81
I1
ssg82
Nsg75
(lp4366
g68
(g84
g70
NtRp4367
(dp4368
g73
(dp4369
sg82
g4363
sg75
(lp4370
g68
(g89
g70
NtRp4371
(dp4372
g73
(dp4373
sg82
g4367
sg75
(lp4374
g68
(g69
g70
NtRp4375
(dp4376
g73
(dp4377
g81
I1
ssg82
g4371
sg75
(lp4378
g4172
(S't\n\x00\x00\x00Selecionar'
tRp4379
asbasbasbag68
(g84
g70
NtRp4380
(dp4381
g73
(dp4382
sg82
g4363
sg75
(lp4383
g68
(g89
g70
NtRp4384
(dp4385
g73
(dp4386
sg82
g4380
sg75
(lp4387
g68
(g69
g70
NtRp4388
(dp4389
g73
(dp4390
g81
I1
ssg82
g4384
sg75
(lp4391
I00
asbasbasbag68
(g84
g70
NtRp4392
(dp4393
g73
(dp4394
sg82
g4363
sg75
(lp4395
g68
(g89
g70
NtRp4396
(dp4397
g73
(dp4398
sg82
g4392
sg75
(lp4399
g68
(g69
g70
NtRp4400
(dp4401
g73
(dp4402
g81
I1
ssg82
g4396
sg75
(lp4403
S'/scrum/default/selecionar_biv'
p4404
asbasbasbag68
(g84
g70
NtRp4405
(dp4406
g73
(dp4407
sg82
g4363
sg75
(lp4408
g68
(g89
g70
NtRp4409
(dp4410
g73
(dp4411
sg82
g4405
sg75
(lp4412
g68
(g69
g70
NtRp4413
(dp4414
g73
(dp4415
g81
I1
ssg82
g4409
sg75
(lp4416
(lp4417
asbasbasbasbasbasbasbasbasbasbasbasbasbasbasbag68
(g84
g70
NtRp4418
(dp4419
g73
(dp4420
sg82
g4140
sg75
(lp4421
g68
(g89
g70
NtRp4422
(dp4423
g73
(dp4424
sg82
g4418
sg75
(lp4425
g68
(g69
g70
NtRp4426
(dp4427
g73
(dp4428
g81
I4
ssg82
g4422
sg75
(lp4429
g68
(g77
g70
NtRp4430
(dp4431
g73
(dp4432
g81
I3
ssg82
Nsg75
(lp4433
g68
(g84
g70
NtRp4434
(dp4435
g73
(dp4436
sg82
g4430
sg75
(lp4437
g68
(g89
g70
NtRp4438
(dp4439
g73
(dp4440
sg82
g4434
sg75
(lp4441
g68
(g69
g70
NtRp4442
(dp4443
g73
(dp4444
g81
I3
ssg82
g4438
sg75
(lp4445
g4172
(S't\x07\x00\x00\x00Tickets'
tRp4446
asbasbasbag68
(g84
g70
NtRp4447
(dp4448
g73
(dp4449
sg82
g4430
sg75
(lp4450
g68
(g89
g70
NtRp4451
(dp4452
g73
(dp4453
sg82
g4447
sg75
(lp4454
g68
(g69
g70
NtRp4455
(dp4456
g73
(dp4457
g81
I3
ssg82
g4451
sg75
(lp4458
g111
asbasbasbag68
(g84
g70
NtRp4459
(dp4460
g73
(dp4461
sg82
g4430
sg75
(lp4462
g68
(g89
g70
NtRp4463
(dp4464
g73
(dp4465
sg82
g4459
sg75
(lp4466
g68
(g69
g70
NtRp4467
(dp4468
g73
(dp4469
g81
I3
ssg82
g4463
sg75
(lp4470
S'/scrum/ticket/index'
p4471
asbasbasbag68
(g84
g70
NtRp4472
(dp4473
g73
(dp4474
sg82
g4430
sg75
(lp4475
g68
(g89
g70
NtRp4476
(dp4477
g73
(dp4478
sg82
g4472
sg75
(lp4479
g68
(g69
g70
NtRp4480
(dp4481
g73
(dp4482
g81
I3
ssg82
g4476
sg75
(lp4483
g68
(g77
g70
NtRp4484
(dp4485
g73
(dp4486
g81
I2
ssg82
Nsg75
(lp4487
g68
(g84
g70
NtRp4488
(dp4489
g73
(dp4490
sg82
g4484
sg75
(lp4491
g68
(g89
g70
NtRp4492
(dp4493
g73
(dp4494
sg82
g4488
sg75
(lp4495
g68
(g69
g70
NtRp4496
(dp4497
g73
(dp4498
g81
I2
ssg82
g4492
sg75
(lp4499
g68
(g77
g70
NtRp4500
(dp4501
g73
(dp4502
g81
I1
ssg82
Nsg75
(lp4503
g68
(g84
g70
NtRp4504
(dp4505
g73
(dp4506
sg82
g4500
sg75
(lp4507
g68
(g89
g70
NtRp4508
(dp4509
g73
(dp4510
sg82
g4504
sg75
(lp4511
g68
(g69
g70
NtRp4512
(dp4513
g73
(dp4514
g81
I1
ssg82
g4508
sg75
(lp4515
g4172
(S't\x04\x00\x00\x00Novo'
tRp4516
asbasbasbag68
(g84
g70
NtRp4517
(dp4518
g73
(dp4519
sg82
g4500
sg75
(lp4520
g68
(g89
g70
NtRp4521
(dp4522
g73
(dp4523
sg82
g4517
sg75
(lp4524
g68
(g69
g70
NtRp4525
(dp4526
g73
(dp4527
g81
I1
ssg82
g4521
sg75
(lp4528
I00
asbasbasbag68
(g84
g70
NtRp4529
(dp4530
g73
(dp4531
sg82
g4500
sg75
(lp4532
g68
(g89
g70
NtRp4533
(dp4534
g73
(dp4535
sg82
g4529
sg75
(lp4536
g68
(g69
g70
NtRp4537
(dp4538
g73
(dp4539
g81
I1
ssg82
g4533
sg75
(lp4540
S'/scrum/ticket/novo'
p4541
asbasbasbag68
(g84
g70
NtRp4542
(dp4543
g73
(dp4544
sg82
g4500
sg75
(lp4545
g68
(g89
g70
NtRp4546
(dp4547
g73
(dp4548
sg82
g4542
sg75
(lp4549
g68
(g69
g70
NtRp4550
(dp4551
g73
(dp4552
g81
I1
ssg82
g4546
sg75
(lp4553
(lp4554
asbasbasbasbasbasbasbag68
(g84
g70
NtRp4555
(dp4556
g73
(dp4557
sg82
g4484
sg75
(lp4558
g68
(g89
g70
NtRp4559
(dp4560
g73
(dp4561
sg82
g4555
sg75
(lp4562
g68
(g69
g70
NtRp4563
(dp4564
g73
(dp4565
g81
I2
ssg82
g4559
sg75
(lp4566
g68
(g77
g70
NtRp4567
(dp4568
g73
(dp4569
g81
I1
ssg82
Nsg75
(lp4570
g68
(g84
g70
NtRp4571
(dp4572
g73
(dp4573
sg82
g4567
sg75
(lp4574
g68
(g89
g70
NtRp4575
(dp4576
g73
(dp4577
sg82
g4571
sg75
(lp4578
g68
(g69
g70
NtRp4579
(dp4580
g73
(dp4581
g81
I1
ssg82
g4575
sg75
(lp4582
g4172
(S't\n\x00\x00\x00Selecionar'
tRp4583
asbasbasbag68
(g84
g70
NtRp4584
(dp4585
g73
(dp4586
sg82
g4567
sg75
(lp4587
g68
(g89
g70
NtRp4588
(dp4589
g73
(dp4590
sg82
g4584
sg75
(lp4591
g68
(g69
g70
NtRp4592
(dp4593
g73
(dp4594
g81
I1
ssg82
g4588
sg75
(lp4595
I00
asbasbasbag68
(g84
g70
NtRp4596
(dp4597
g73
(dp4598
sg82
g4567
sg75
(lp4599
g68
(g89
g70
NtRp4600
(dp4601
g73
(dp4602
sg82
g4596
sg75
(lp4603
g68
(g69
g70
NtRp4604
(dp4605
g73
(dp4606
g81
I1
ssg82
g4600
sg75
(lp4607
S'/scrum/ticket/index'
p4608
asbasbasbag68
(g84
g70
NtRp4609
(dp4610
g73
(dp4611
sg82
g4567
sg75
(lp4612
g68
(g89
g70
NtRp4613
(dp4614
g73
(dp4615
sg82
g4609
sg75
(lp4616
g68
(g69
g70
NtRp4617
(dp4618
g73
(dp4619
g81
I1
ssg82
g4613
sg75
(lp4620
(lp4621
asbasbasbasbasbasbasbasbasbasbasbasbasbasbasbag68
(g84
g70
NtRp4622
(dp4623
g73
(dp4624
sg82
g4140
sg75
(lp4625
g68
(g89
g70
NtRp4626
(dp4627
g73
(dp4628
sg82
g4622
sg75
(lp4629
g68
(g69
g70
NtRp4630
(dp4631
g73
(dp4632
g81
I4
ssg82
g4626
sg75
(lp4633
g68
(g77
g70
NtRp4634
(dp4635
g73
(dp4636
g81
I3
ssg82
Nsg75
(lp4637
g68
(g84
g70
NtRp4638
(dp4639
g73
(dp4640
sg82
g4634
sg75
(lp4641
g68
(g89
g70
NtRp4642
(dp4643
g73
(dp4644
sg82
g4638
sg75
(lp4645
g68
(g69
g70
NtRp4646
(dp4647
g73
(dp4648
g81
I3
ssg82
g4642
sg75
(lp4649
g4172
(S't\x06\x00\x00\x00Sprint'
tRp4650
asbasbasbag68
(g84
g70
NtRp4651
(dp4652
g73
(dp4653
sg82
g4634
sg75
(lp4654
g68
(g89
g70
NtRp4655
(dp4656
g73
(dp4657
sg82
g4651
sg75
(lp4658
g68
(g69
g70
NtRp4659
(dp4660
g73
(dp4661
g81
I3
ssg82
g4655
sg75
(lp4662
g111
asbasbasbag68
(g84
g70
NtRp4663
(dp4664
g73
(dp4665
sg82
g4634
sg75
(lp4666
g68
(g89
g70
NtRp4667
(dp4668
g73
(dp4669
sg82
g4663
sg75
(lp4670
g68
(g69
g70
NtRp4671
(dp4672
g73
(dp4673
g81
I3
ssg82
g4667
sg75
(lp4674
S''
asbasbasbag68
(g84
g70
NtRp4675
(dp4676
g73
(dp4677
sg82
g4634
sg75
(lp4678
g68
(g89
g70
NtRp4679
(dp4680
g73
(dp4681
sg82
g4675
sg75
(lp4682
g68
(g69
g70
NtRp4683
(dp4684
g73
(dp4685
g81
I3
ssg82
g4679
sg75
(lp4686
g68
(g77
g70
NtRp4687
(dp4688
g73
(dp4689
g81
I2
ssg82
Nsg75
(lp4690
g68
(g84
g70
NtRp4691
(dp4692
g73
(dp4693
sg82
g4687
sg75
(lp4694
g68
(g89
g70
NtRp4695
(dp4696
g73
(dp4697
sg82
g4691
sg75
(lp4698
g68
(g69
g70
NtRp4699
(dp4700
g73
(dp4701
g81
I2
ssg82
g4695
sg75
(lp4702
g68
(g77
g70
NtRp4703
(dp4704
g73
(dp4705
g81
I1
ssg82
Nsg75
(lp4706
g68
(g84
g70
NtRp4707
(dp4708
g73
(dp4709
sg82
g4703
sg75
(lp4710
g68
(g89
g70
NtRp4711
(dp4712
g73
(dp4713
sg82
g4707
sg75
(lp4714
g68
(g69
g70
NtRp4715
(dp4716
g73
(dp4717
g81
I1
ssg82
g4711
sg75
(lp4718
g4172
(S't\x04\x00\x00\x00Novo'
tRp4719
asbasbasbag68
(g84
g70
NtRp4720
(dp4721
g73
(dp4722
sg82
g4703
sg75
(lp4723
g68
(g89
g70
NtRp4724
(dp4725
g73
(dp4726
sg82
g4720
sg75
(lp4727
g68
(g69
g70
NtRp4728
(dp4729
g73
(dp4730
g81
I1
ssg82
g4724
sg75
(lp4731
I00
asbasbasbag68
(g84
g70
NtRp4732
(dp4733
g73
(dp4734
sg82
g4703
sg75
(lp4735
g68
(g89
g70
NtRp4736
(dp4737
g73
(dp4738
sg82
g4732
sg75
(lp4739
g68
(g69
g70
NtRp4740
(dp4741
g73
(dp4742
g81
I1
ssg82
g4736
sg75
(lp4743
S'/scrum/sprint/novo'
p4744
asbasbasbag68
(g84
g70
NtRp4745
(dp4746
g73
(dp4747
sg82
g4703
sg75
(lp4748
g68
(g89
g70
NtRp4749
(dp4750
g73
(dp4751
sg82
g4745
sg75
(lp4752
g68
(g69
g70
NtRp4753
(dp4754
g73
(dp4755
g81
I1
ssg82
g4749
sg75
(lp4756
(lp4757
asbasbasbasbasbasbasbag68
(g84
g70
NtRp4758
(dp4759
g73
(dp4760
sg82
g4687
sg75
(lp4761
g68
(g89
g70
NtRp4762
(dp4763
g73
(dp4764
sg82
g4758
sg75
(lp4765
g68
(g69
g70
NtRp4766
(dp4767
g73
(dp4768
g81
I2
ssg82
g4762
sg75
(lp4769
g68
(g77
g70
NtRp4770
(dp4771
g73
(dp4772
g81
I1
ssg82
Nsg75
(lp4773
g68
(g84
g70
NtRp4774
(dp4775
g73
(dp4776
sg82
g4770
sg75
(lp4777
g68
(g89
g70
NtRp4778
(dp4779
g73
(dp4780
sg82
g4774
sg75
(lp4781
g68
(g69
g70
NtRp4782
(dp4783
g73
(dp4784
g81
I1
ssg82
g4778
sg75
(lp4785
g4172
(S't\n\x00\x00\x00Selecionar'
tRp4786
asbasbasbag68
(g84
g70
NtRp4787
(dp4788
g73
(dp4789
sg82
g4770
sg75
(lp4790
g68
(g89
g70
NtRp4791
(dp4792
g73
(dp4793
sg82
g4787
sg75
(lp4794
g68
(g69
g70
NtRp4795
(dp4796
g73
(dp4797
g81
I1
ssg82
g4791
sg75
(lp4798
I00
asbasbasbag68
(g84
g70
NtRp4799
(dp4800
g73
(dp4801
sg82
g4770
sg75
(lp4802
g68
(g89
g70
NtRp4803
(dp4804
g73
(dp4805
sg82
g4799
sg75
(lp4806
g68
(g69
g70
NtRp4807
(dp4808
g73
(dp4809
g81
I1
ssg82
g4803
sg75
(lp4810
S'/scrum/sprint/index'
p4811
asbasbasbag68
(g84
g70
NtRp4812
(dp4813
g73
(dp4814
sg82
g4770
sg75
(lp4815
g68
(g89
g70
NtRp4816
(dp4817
g73
(dp4818
sg82
g4812
sg75
(lp4819
g68
(g69
g70
NtRp4820
(dp4821
g73
(dp4822
g81
I1
ssg82
g4816
sg75
(lp4823
(lp4824
asbasbasbasbasbasbasbasbasbasbasbasbasbasbasbag68
(g84
g70
NtRp4825
(dp4826
g73
(dp4827
sg82
g4140
sg75
(lp4828
g68
(g89
g70
NtRp4829
(dp4830
g73
(dp4831
sg82
g4825
sg75
(lp4832
g68
(g69
g70
NtRp4833
(dp4834
g73
(dp4835
g81
I4
ssg82
g4829
sg75
(lp4836
g68
(g77
g70
NtRp4837
(dp4838
g73
(dp4839
g81
I3
ssg82
Nsg75
(lp4840
g68
(g84
g70
NtRp4841
(dp4842
g73
(dp4843
sg82
g4837
sg75
(lp4844
g68
(g89
g70
NtRp4845
(dp4846
g73
(dp4847
sg82
g4841
sg75
(lp4848
g68
(g69
g70
NtRp4849
(dp4850
g73
(dp4851
g81
I3
ssg82
g4845
sg75
(lp4852
g4172
(S't\x06\x00\x00\x00Config'
tRp4853
asbasbasbag68
(g84
g70
NtRp4854
(dp4855
g73
(dp4856
sg82
g4837
sg75
(lp4857
g68
(g89
g70
NtRp4858
(dp4859
g73
(dp4860
sg82
g4854
sg75
(lp4861
g68
(g69
g70
NtRp4862
(dp4863
g73
(dp4864
g81
I3
ssg82
g4858
sg75
(lp4865
g111
asbasbasbag68
(g84
g70
NtRp4866
(dp4867
g73
(dp4868
sg82
g4837
sg75
(lp4869
g68
(g89
g70
NtRp4870
(dp4871
g73
(dp4872
sg82
g4866
sg75
(lp4873
g68
(g69
g70
NtRp4874
(dp4875
g73
(dp4876
g81
I3
ssg82
g4870
sg75
(lp4877
S''
asbasbasbag68
(g84
g70
NtRp4878
(dp4879
g73
(dp4880
sg82
g4837
sg75
(lp4881
g68
(g89
g70
NtRp4882
(dp4883
g73
(dp4884
sg82
g4878
sg75
(lp4885
g68
(g69
g70
NtRp4886
(dp4887
g73
(dp4888
g81
I3
ssg82
g4882
sg75
(lp4889
g68
(g77
g70
NtRp4890
(dp4891
g73
(dp4892
g81
I2
ssg82
Nsg75
(lp4893
g68
(g84
g70
NtRp4894
(dp4895
g73
(dp4896
sg82
g4890
sg75
(lp4897
g68
(g89
g70
NtRp4898
(dp4899
g73
(dp4900
sg82
g4894
sg75
(lp4901
g68
(g69
g70
NtRp4902
(dp4903
g73
(dp4904
g81
I2
ssg82
g4898
sg75
(lp4905
g68
(g77
g70
NtRp4906
(dp4907
g73
(dp4908
g81
I1
ssg82
Nsg75
(lp4909
g68
(g84
g70
NtRp4910
(dp4911
g73
(dp4912
sg82
g4906
sg75
(lp4913
g68
(g89
g70
NtRp4914
(dp4915
g73
(dp4916
sg82
g4910
sg75
(lp4917
g68
(g69
g70
NtRp4918
(dp4919
g73
(dp4920
g81
I1
ssg82
g4914
sg75
(lp4921
g4172
(S't\x05\x00\x00\x00Geral'
tRp4922
asbasbasbag68
(g84
g70
NtRp4923
(dp4924
g73
(dp4925
sg82
g4906
sg75
(lp4926
g68
(g89
g70
NtRp4927
(dp4928
g73
(dp4929
sg82
g4923
sg75
(lp4930
g68
(g69
g70
NtRp4931
(dp4932
g73
(dp4933
g81
I1
ssg82
g4927
sg75
(lp4934
I00
asbasbasbag68
(g84
g70
NtRp4935
(dp4936
g73
(dp4937
sg82
g4906
sg75
(lp4938
g68
(g89
g70
NtRp4939
(dp4940
g73
(dp4941
sg82
g4935
sg75
(lp4942
g68
(g69
g70
NtRp4943
(dp4944
g73
(dp4945
g81
I1
ssg82
g4939
sg75
(lp4946
S'/scrum/config/index'
p4947
asbasbasbag68
(g84
g70
NtRp4948
(dp4949
g73
(dp4950
sg82
g4906
sg75
(lp4951
g68
(g89
g70
NtRp4952
(dp4953
g73
(dp4954
sg82
g4948
sg75
(lp4955
g68
(g69
g70
NtRp4956
(dp4957
g73
(dp4958
g81
I1
ssg82
g4952
sg75
(lp4959
(lp4960
asbasbasbasbasbasbasbag68
(g84
g70
NtRp4961
(dp4962
g73
(dp4963
sg82
g4890
sg75
(lp4964
g68
(g89
g70
NtRp4965
(dp4966
g73
(dp4967
sg82
g4961
sg75
(lp4968
g68
(g69
g70
NtRp4969
(dp4970
g73
(dp4971
g81
I2
ssg82
g4965
sg75
(lp4972
g68
(g77
g70
NtRp4973
(dp4974
g73
(dp4975
g81
I1
ssg82
Nsg75
(lp4976
g68
(g84
g70
NtRp4977
(dp4978
g73
(dp4979
sg82
g4973
sg75
(lp4980
g68
(g89
g70
NtRp4981
(dp4982
g73
(dp4983
sg82
g4977
sg75
(lp4984
g68
(g69
g70
NtRp4985
(dp4986
g73
(dp4987
g81
I1
ssg82
g4981
sg75
(lp4988
g4172
(S's\x12\x00\x00\x00Estados de Tickets'
tRp4989
asbasbasbag68
(g84
g70
NtRp4990
(dp4991
g73
(dp4992
sg82
g4973
sg75
(lp4993
g68
(g89
g70
NtRp4994
(dp4995
g73
(dp4996
sg82
g4990
sg75
(lp4997
g68
(g69
g70
NtRp4998
(dp4999
g73
(dp5000
g81
I1
ssg82
g4994
sg75
(lp5001
I00
asbasbasbag68
(g84
g70
NtRp5002
(dp5003
g73
(dp5004
sg82
g4973
sg75
(lp5005
g68
(g89
g70
NtRp5006
(dp5007
g73
(dp5008
sg82
g5002
sg75
(lp5009
g68
(g69
g70
NtRp5010
(dp5011
g73
(dp5012
g81
I1
ssg82
g5006
sg75
(lp5013
S'/scrum/config/estado_ticket'
p5014
asbasbasbag68
(g84
g70
NtRp5015
(dp5016
g73
(dp5017
sg82
g4973
sg75
(lp5018
g68
(g89
g70
NtRp5019
(dp5020
g73
(dp5021
sg82
g5015
sg75
(lp5022
g68
(g69
g70
NtRp5023
(dp5024
g73
(dp5025
g81
I1
ssg82
g5019
sg75
(lp5026
(lp5027
asbasbasbasbasbasbasbasbasbasbasbasbasbasbasbasbasbasbasbag68
(g84
g70
NtRp5028
(dp5029
g73
(dp5030
sg82
g3679
sg75
(lp5031
g68
(g89
g70
NtRp5032
(dp5033
g73
(dp5034
g93
g94
ssg82
g5028
sg75
(lp5035
S'meta'
p5036
asbag68
(g89
g70
NtRp5037
(dp5038
g73
(dp5039
g100
g101
ssg82
g5028
sg75
(lp5040
S':'
asbag68
(g89
g70
NtRp5041
(dp5042
g73
(dp5043
sg82
g5028
sg75
(lp5044
g68
(g69
g70
NtRp5045
(dp5046
g73
(dp5047
g81
I5
ssg82
g5041
sg75
(lp5048
g68
(g77
g70
NtRp5049
(dp5050
g73
(dp5051
g81
I4
ssg82
Nsg75
(lp5052
g68
(g84
g70
NtRp5053
(dp5054
g73
(dp5055
sg82
g5049
sg75
(lp5056
g68
(g89
g70
NtRp5057
(dp5058
g73
(dp5059
g93
g94
ssg82
g5053
sg75
(lp5060
S'author'
p5061
asbag68
(g89
g70
NtRp5062
(dp5063
g73
(dp5064
g100
g101
ssg82
g5053
sg75
(lp5065
S':'
asbag68
(g89
g70
NtRp5066
(dp5067
g73
(dp5068
sg82
g5053
sg75
(lp5069
g68
(g69
g70
NtRp5070
(dp5071
g73
(dp5072
g81
I4
ssg82
g5066
sg75
(lp5073
S'Carlos J. Costa'
p5074
asbasbasbag68
(g84
g70
NtRp5075
(dp5076
g73
(dp5077
sg82
g5049
sg75
(lp5078
g68
(g89
g70
NtRp5079
(dp5080
g73
(dp5081
g93
g94
ssg82
g5075
sg75
(lp5082
S'copyright'
p5083
asbag68
(g89
g70
NtRp5084
(dp5085
g73
(dp5086
g100
g101
ssg82
g5075
sg75
(lp5087
S':'
asbag68
(g89
g70
NtRp5088
(dp5089
g73
(dp5090
sg82
g5075
sg75
(lp5091
g68
(g69
g70
NtRp5092
(dp5093
g73
(dp5094
g81
I4
ssg82
g5088
sg75
(lp5095
S'Copyright 2007-2010'
p5096
asbasbasbag68
(g84
g70
NtRp5097
(dp5098
g73
(dp5099
sg82
g5049
sg75
(lp5100
g68
(g89
g70
NtRp5101
(dp5102
g73
(dp5103
g93
g94
ssg82
g5097
sg75
(lp5104
S'description'
p5105
asbag68
(g89
g70
NtRp5106
(dp5107
g73
(dp5108
g100
g101
ssg82
g5097
sg75
(lp5109
S':'
asbag68
(g89
g70
NtRp5110
(dp5111
g73
(dp5112
sg82
g5097
sg75
(lp5113
g68
(g69
g70
NtRp5114
(dp5115
g73
(dp5116
g81
I4
ssg82
g5110
sg75
(lp5117
S'Development track'
p5118
asbasbasbag68
(g84
g70
NtRp5119
(dp5120
g73
(dp5121
sg82
g5049
sg75
(lp5122
g68
(g89
g70
NtRp5123
(dp5124
g73
(dp5125
g93
g94
ssg82
g5119
sg75
(lp5126
S'generator'
p5127
asbag68
(g89
g70
NtRp5128
(dp5129
g73
(dp5130
g100
g101
ssg82
g5119
sg75
(lp5131
S':'
asbag68
(g89
g70
NtRp5132
(dp5133
g73
(dp5134
sg82
g5119
sg75
(lp5135
g68
(g69
g70
NtRp5136
(dp5137
g73
(dp5138
g81
I4
ssg82
g5132
sg75
(lp5139
S'Web2py Enterprise Framework'
p5140
asbasbasbag68
(g84
g70
NtRp5141
(dp5142
g73
(dp5143
sg82
g5049
sg75
(lp5144
g68
(g89
g70
NtRp5145
(dp5146
g73
(dp5147
g93
g94
ssg82
g5141
sg75
(lp5148
S'keywords'
p5149
asbag68
(g89
g70
NtRp5150
(dp5151
g73
(dp5152
g100
g101
ssg82
g5141
sg75
(lp5153
S':'
asbag68
(g89
g70
NtRp5154
(dp5155
g73
(dp5156
sg82
g5141
sg75
(lp5157
g68
(g69
g70
NtRp5158
(dp5159
g73
(dp5160
g81
I4
ssg82
g5154
sg75
(lp5161
S'test, issue'
p5162
asbasbasbasbasbasbasbag68
(g84
g70
NtRp5163
(dp5164
g73
(dp5165
sg82
g3679
sg75
(lp5166
g68
(g89
g70
NtRp5167
(dp5168
g73
(dp5169
g93
g94
ssg82
g5163
sg75
(lp5170
S'postprocessing'
p5171
asbag68
(g89
g70
NtRp5172
(dp5173
g73
(dp5174
g100
g101
ssg82
g5163
sg75
(lp5175
S':'
asbag68
(g89
g70
NtRp5176
(dp5177
g73
(dp5178
sg82
g5163
sg75
(lp5179
g68
(g69
g70
NtRp5180
(dp5181
g73
(dp5182
g81
I5
ssg82
g5176
sg75
(lp5183
g68
(g77
g70
NtRp5184
(dp5185
g73
(dp5186
g81
I4
ssg82
Nsg75
(lp5187
sbasbasbasbag68
(g84
g70
NtRp5188
(dp5189
g73
(dp5190
sg82
g3679
sg75
(lp5191
g68
(g89
g70
NtRp5192
(dp5193
g73
(dp5194
g93
g94
ssg82
g5188
sg75
(lp5195
S'session_file'
p5196
asbag68
(g89
g70
NtRp5197
(dp5198
g73
(dp5199
g100
g101
ssg82
g5188
sg75
(lp5200
S':'
asbag68
(g89
g70
NtRp5201
(dp5202
g73
(dp5203
sg82
g5188
sg75
(lp5204
g68
(g69
g70
NtRp5205
(dp5206
g73
(dp5207
g81
I5
ssg82
g5201
sg75
(lp5208
S"<open file '/home/www-data/web2py/applications/scrum/sessions/127.0.0.1-8741b6aa-dd8d-45b3-88a3-6f21c23a3c79', mode 'rb+' at 0xb9735758>"
p5209
asbasbasbag68
(g84
g70
NtRp5210
(dp5211
g73
(dp5212
sg82
g3679
sg75
(lp5213
g68
(g89
g70
NtRp5214
(dp5215
g73
(dp5216
g93
g94
ssg82
g5210
sg75
(lp5217
S'session_filename'
p5218
asbag68
(g89
g70
NtRp5219
(dp5220
g73
(dp5221
g100
g101
ssg82
g5210
sg75
(lp5222
S':'
asbag68
(g89
g70
NtRp5223
(dp5224
g73
(dp5225
sg82
g5210
sg75
(lp5226
g68
(g69
g70
NtRp5227
(dp5228
g73
(dp5229
g81
I5
ssg82
g5223
sg75
(lp5230
S'/home/www-data/web2py/applications/scrum/sessions/127.0.0.1-8741b6aa-dd8d-45b3-88a3-6f21c23a3c79'
p5231
asbasbasbag68
(g84
g70
NtRp5232
(dp5233
g73
(dp5234
sg82
g3679
sg75
(lp5235
g68
(g89
g70
NtRp5236
(dp5237
g73
(dp5238
g93
g94
ssg82
g5232
sg75
(lp5239
S'session_id'
p5240
asbag68
(g89
g70
NtRp5241
(dp5242
g73
(dp5243
g100
g101
ssg82
g5232
sg75
(lp5244
S':'
asbag68
(g89
g70
NtRp5245
(dp5246
g73
(dp5247
sg82
g5232
sg75
(lp5248
g68
(g69
g70
NtRp5249
(dp5250
g73
(dp5251
g81
I5
ssg82
g5245
sg75
(lp5252
S'127.0.0.1-8741b6aa-dd8d-45b3-88a3-6f21c23a3c79'
p5253
asbasbasbag68
(g84
g70
NtRp5254
(dp5255
g73
(dp5256
sg82
g3679
sg75
(lp5257
g68
(g89
g70
NtRp5258
(dp5259
g73
(dp5260
g93
g94
ssg82
g5254
sg75
(lp5261
S'session_id_name'
p5262
asbag68
(g89
g70
NtRp5263
(dp5264
g73
(dp5265
g100
g101
ssg82
g5254
sg75
(lp5266
S':'
asbag68
(g89
g70
NtRp5267
(dp5268
g73
(dp5269
sg82
g5254
sg75
(lp5270
g68
(g69
g70
NtRp5271
(dp5272
g73
(dp5273
g81
I5
ssg82
g5267
sg75
(lp5274
g3736
asbasbasbag68
(g84
g70
NtRp5275
(dp5276
g73
(dp5277
sg82
g3679
sg75
(lp5278
g68
(g89
g70
NtRp5279
(dp5280
g73
(dp5281
g93
g94
ssg82
g5275
sg75
(lp5282
S'session_locked'
p5283
asbag68
(g89
g70
NtRp5284
(dp5285
g73
(dp5286
g100
g101
ssg82
g5275
sg75
(lp5287
S':'
asbag68
(g89
g70
NtRp5288
(dp5289
g73
(dp5290
sg82
g5275
sg75
(lp5291
g68
(g69
g70
NtRp5292
(dp5293
g73
(dp5294
g81
I5
ssg82
g5288
sg75
(lp5295
g1843
asbasbasbag68
(g84
g70
NtRp5296
(dp5297
g73
(dp5298
sg82
g3679
sg75
(lp5299
g68
(g89
g70
NtRp5300
(dp5301
g73
(dp5302
g93
g94
ssg82
g5296
sg75
(lp5303
S'session_new'
p5304
asbag68
(g89
g70
NtRp5305
(dp5306
g73
(dp5307
g100
g101
ssg82
g5296
sg75
(lp5308
S':'
asbag68
(g89
g70
NtRp5309
(dp5310
g73
(dp5311
sg82
g5296
sg75
(lp5312
g68
(g69
g70
NtRp5313
(dp5314
g73
(dp5315
g81
I5
ssg82
g5309
sg75
(lp5316
g111
asbasbasbag68
(g84
g70
NtRp5317
(dp5318
g73
(dp5319
sg82
g3679
sg75
(lp5320
g68
(g89
g70
NtRp5321
(dp5322
g73
(dp5323
g93
g94
ssg82
g5317
sg75
(lp5324
S'status'
p5325
asbag68
(g89
g70
NtRp5326
(dp5327
g73
(dp5328
g100
g101
ssg82
g5317
sg75
(lp5329
S':'
asbag68
(g89
g70
NtRp5330
(dp5331
g73
(dp5332
sg82
g5317
sg75
(lp5333
g68
(g69
g70
NtRp5334
(dp5335
g73
(dp5336
g81
I5
ssg82
g5330
sg75
(lp5337
S'200'
p5338
asbasbasbag68
(g84
g70
NtRp5339
(dp5340
g73
(dp5341
sg82
g3679
sg75
(lp5342
g68
(g89
g70
NtRp5343
(dp5344
g73
(dp5345
g93
g94
ssg82
g5339
sg75
(lp5346
S'subtitle'
p5347
asbag68
(g89
g70
NtRp5348
(dp5349
g73
(dp5350
g100
g101
ssg82
g5339
sg75
(lp5351
S':'
asbag68
(g89
g70
NtRp5352
(dp5353
g73
(dp5354
sg82
g5339
sg75
(lp5355
g68
(g69
g70
NtRp5356
(dp5357
g73
(dp5358
g81
I5
ssg82
g5352
sg75
(lp5359
S'Editar Sprint'
p5360
asbasbasbag68
(g84
g70
NtRp5361
(dp5362
g73
(dp5363
sg82
g3679
sg75
(lp5364
g68
(g89
g70
NtRp5365
(dp5366
g73
(dp5367
g93
g94
ssg82
g5361
sg75
(lp5368
S'title'
p5369
asbag68
(g89
g70
NtRp5370
(dp5371
g73
(dp5372
g100
g101
ssg82
g5361
sg75
(lp5373
S':'
asbag68
(g89
g70
NtRp5374
(dp5375
g73
(dp5376
sg82
g5361
sg75
(lp5377
g68
(g69
g70
NtRp5378
(dp5379
g73
(dp5380
g81
I5
ssg82
g5374
sg75
(lp5381
g133
asbasbasbag68
(g84
g70
NtRp5382
(dp5383
g73
(dp5384
sg82
g3679
sg75
(lp5385
g68
(g89
g70
NtRp5386
(dp5387
g73
(dp5388
g93
g94
ssg82
g5382
sg75
(lp5389
g2188
asbag68
(g89
g70
NtRp5390
(dp5391
g73
(dp5392
g100
g101
ssg82
g5382
sg75
(lp5393
S':'
asbag68
(g89
g70
NtRp5394
(dp5395
g73
(dp5396
sg82
g5382
sg75
(lp5397
g68
(g69
g70
NtRp5398
(dp5399
g73
(dp5400
g81
I5
ssg82
g5394
sg75
(lp5401
g2201
asbasbasbag68
(g84
g70
NtRp5402
(dp5403
g73
(dp5404
sg82
g3679
sg75
(lp5405
g68
(g89
g70
NtRp5406
(dp5407
g73
(dp5408
g93
g94
ssg82
g5402
sg75
(lp5409
S'view'
p5410
asbag68
(g89
g70
NtRp5411
(dp5412
g73
(dp5413
g100
g101
ssg82
g5402
sg75
(lp5414
S':'
asbag68
(g89
g70
NtRp5415
(dp5416
g73
(dp5417
sg82
g5402
sg75
(lp5418
g68
(g69
g70
NtRp5419
(dp5420
g73
(dp5421
g81
I5
ssg82
g5415
sg75
(lp5422
S'sprint/editar.html'
p5423
asbasbasbasbasbsS'locals'
p5424
(dp5425
g3
S"'/home/www-data/web2py/applications/scrum/views/sprint/editar.html'"
p5426
sg5
S'\'response.write(\\\'<!DOCTYPE html>\\\\n<html lang="\\\', ...    -->    \\\\n  </body>\\\\n</html>\\\\n\\\', escape=False)\''
p5427
sssS'traceback'
p5428
S'Traceback (most recent call last):\n  File "/home/www-data/web2py/gluon/restricted.py", line 191, in restricted\n    ccode = compile2(code,layer)\n  File "/home/www-data/web2py/gluon/restricted.py", line 178, in compile2\n    return compile(code.rstrip().replace(\'\\r\\n\',\'\\n\')+\'\\n\', layer, \'exec\')\n  File "/home/www-data/web2py/applications/scrum/views/sprint/editar.html", line 97\n    response.write(response.subtitle</h1>\n                                     ^\nSyntaxError: invalid syntax\n'
p5429
s.